(lp0
ccopy_reg
_reconstructor
p1
(ctweepy.models
Status
p2
c__builtin__
object
p3
Ntp4
Rp5
(dp6
S'favorited'
p7
I00
sS'contributors'
p8
NsS'truncated'
p9
I00
sS'text'
p10
V@GodFatha702 @BartHubbuch You're all over the place. None of your points make any sense. You're not worth my time.
p11
sS'source_url'
p12
Vhttp://twitter.com/download/android
p13
sS'is_quote_status'
p14
I00
sS'in_reply_to_status_id'
p15
I639140268881526784
sS'user'
p16
g1
(ctweepy.models
User
p17
g3
Ntp18
Rp19
(dp20
S'follow_request_sent'
p21
I00
sS'has_extended_profile'
p22
I00
sS'profile_use_background_image'
p23
I01
sS'profile_sidebar_fill_color'
p24
VDDEEF6
p25
sS'id'
p26
I1024388708
sS'verified'
p27
I00
sS'entities'
p28
(dp29
Vdescription
p30
(dp31
Vurls
p32
(lp33
sssS'profile_image_url_https'
p34
Vhttps://pbs.twimg.com/profile_images/3012888645/f501234e8435283ff8741760db7dea63_normal.jpeg
p35
sS'_json'
p36
(dp37
Vfollow_request_sent
p38
I00
sVhas_extended_profile
p39
I00
sVprofile_use_background_image
p40
I01
sVdefault_profile_image
p41
I00
sVid
p42
I1024388708
sVprofile_background_image_url_https
p43
Vhttps://abs.twimg.com/images/themes/theme1/bg.png
p44
sVverified
p45
I00
sVprofile_text_color
p46
V333333
p47
sVprofile_image_url_https
p48
g35
sVprofile_sidebar_fill_color
p49
g25
sVentities
p50
g29
sVfollowers_count
p51
I9
sVprofile_sidebar_border_color
p52
VC0DEED
p53
sVid_str
p54
V1024388708
p55
sVprofile_background_color
p56
VC0DEED
p57
sVlisted_count
p58
I1
sVis_translation_enabled
p59
I00
sVutc_offset
p60
NsVstatuses_count
p61
I1156
sg30
V
p62
sVfriends_count
p63
I83
sVlocation
p64
g62
sVprofile_link_color
p65
V0084B4
p66
sVprofile_image_url
p67
Vhttp://pbs.twimg.com/profile_images/3012888645/f501234e8435283ff8741760db7dea63_normal.jpeg
p68
sVfollowing
p69
I00
sVgeo_enabled
p70
I00
sVprofile_banner_url
p71
Vhttps://pbs.twimg.com/profile_banners/1024388708/1356314582
p72
sVprofile_background_image_url
p73
Vhttp://abs.twimg.com/images/themes/theme1/bg.png
p74
sVscreen_name
p75
Vora_unleashed
p76
sVlang
p77
Ven
p78
sVprofile_background_tile
p79
I00
sVfavourites_count
p80
I42
sVname
p81
VJustin McCloskey
p82
sVnotifications
p83
I00
sVurl
p84
NsVcreated_at
p85
VThu Dec 20 14:45:41 +0000 2012
p86
sVcontributors_enabled
p87
I00
sVtime_zone
p88
NsVprotected
p89
I00
sVdefault_profile
p90
I01
sVis_translator
p91
I00
ssS'contributors_enabled'
p92
I00
sS'profile_text_color'
p93
g47
sS'followers_count'
p94
I9
sS'profile_sidebar_border_color'
p95
g53
sS'id_str'
p96
g55
sS'default_profile_image'
p97
I00
sS'listed_count'
p98
I1
sS'is_translation_enabled'
p99
I00
sS'utc_offset'
p100
NsS'statuses_count'
p101
I1156
sS'description'
p102
g62
sS'friends_count'
p103
I83
sS'location'
p104
g62
sS'profile_link_color'
p105
g66
sS'profile_image_url'
p106
g68
sS'notifications'
p107
I00
sS'geo_enabled'
p108
I00
sS'profile_background_color'
p109
g57
sS'profile_banner_url'
p110
g72
sS'profile_background_image_url'
p111
g74
sS'screen_name'
p112
g76
sS'lang'
p113
g78
sS'following'
p114
I00
sS'profile_background_tile'
p115
I00
sS'favourites_count'
p116
I42
sS'name'
p117
g82
sS'url'
p118
NsS'created_at'
p119
cdatetime
datetime
p120
(S'\x07\xdc\x0c\x14\x0e-)\x00\x00\x00'
p121
tp122
Rp123
sS'profile_background_image_url_https'
p124
g44
sS'time_zone'
p125
NsS'protected'
p126
I00
sS'default_profile'
p127
I01
sS'is_translator'
p128
I00
sbsS'geo'
p129
Nsg26
I639140723514867712
sS'favorite_count'
p130
I0
sS'source'
p131
VTwitter for Android
p132
sg113
Ven
p133
sS'author'
p134
g19
sg119
g120
(S'\x07\xdf\t\x02\x12\x139\x00\x00\x00'
p135
tp136
Rp137
sg36
(dp138
Vcontributors
p139
NsVtruncated
p140
I00
sVtext
p141
g11
sVis_quote_status
p142
I00
sVin_reply_to_status_id
p143
I639140268881526784
sg42
I639140723514867712
sVfavorite_count
p144
I0
sVsource
p145
V<a href="http://twitter.com/download/android" rel="nofollow">Twitter for Android</a>
p146
sVretweeted
p147
I00
sVcoordinates
p148
Nsg50
(dp149
Vsymbols
p150
(lp151
sVuser_mentions
p152
(lp153
(dp154
g42
I168729846
sVindices
p155
(lp156
I0
aI12
asg54
V168729846
p157
sg75
VGodFatha702
p158
sg81
VA.J.
p159
sa(dp160
g42
I111747590
sg155
(lp161
I13
aI25
asg54
V111747590
p162
sg75
VBartHubbuch
p163
sg81
VBart Hubbuch
p164
sasVhashtags
p165
(lp166
sg32
(lp167
ssVin_reply_to_screen_name
p168
VGodFatha702
p169
sVin_reply_to_user_id
p170
I168729846
sVretweet_count
p171
I0
sg54
V639140723514867712
p172
sVfavorited
p173
I00
sVuser
p174
g37
sVgeo
p175
NsVin_reply_to_user_id_str
p176
V168729846
p177
sg77
g133
sg85
VWed Sep 02 18:19:57 +0000 2015
p178
sVin_reply_to_status_id_str
p179
V639140268881526784
p180
sVplace
p181
NsVmetadata
p182
(dp183
Viso_language_code
p184
Ven
p185
sVresult_type
p186
Vrecent
p187
sssS'metadata'
p188
g183
sS'coordinates'
p189
NsS'in_reply_to_user_id_str'
p190
g177
sg28
g149
sS'in_reply_to_status_id_str'
p191
g180
sS'in_reply_to_screen_name'
p192
g169
sg96
g172
sS'retweeted'
p193
I00
sS'place'
p194
NsS'retweet_count'
p195
I0
sS'in_reply_to_user_id'
p196
I168729846
sbag1
(g2
g3
Ntp197
Rp198
(dp199
g7
I00
sg8
Nsg9
I00
sg10
VRT @techmama: By asking potential cyberbullies one simple question, Trisha Prabhu is making internet a better place http://t.co/c5AvwKj3bx \u2026
p200
sg12
Vhttp://twitter.com/download/iphone
p201
sS'possibly_sensitive'
p202
I00
sg14
I00
sg15
Nsg16
g1
(g17
g3
Ntp203
Rp204
(dp205
g21
I00
sg22
I00
sg23
I01
sg24
V000000
p206
sg26
I311910862
sg27
I00
sg28
(dp207
g30
(dp208
g32
(lp209
sssg34
Vhttps://pbs.twimg.com/profile_images/1384000037/pilotdiner_normal.jpg
p210
sg36
(dp211
g38
I00
sg39
I00
sg40
I01
sg41
I00
sg42
I311910862
sg43
Vhttps://abs.twimg.com/images/themes/theme10/bg.gif
p212
sg45
I00
sg46
V000000
p213
sg48
g210
sg49
g206
sg50
g207
sg51
I789
sg52
V000000
p214
sg54
V311910862
p215
sg56
V642D8B
p216
sg58
I92
sg59
I00
sg60
I-18000
sg61
I197348
sg30
g62
sg63
I127
sg64
g62
sg65
VFF0000
p217
sg67
Vhttp://pbs.twimg.com/profile_images/1384000037/pilotdiner_normal.jpg
p218
sg69
I00
sg70
I00
sg73
Vhttp://abs.twimg.com/images/themes/theme10/bg.gif
p219
sg75
Vpadakitty
p220
sg77
Ven
p221
sg79
I01
sg80
I32
sg81
VErika 
p222
sg83
I00
sg84
Nsg85
VMon Jun 06 08:22:32 +0000 2011
p223
sg87
I00
sg88
VCentral Time (US & Canada)
p224
sg89
I00
sg90
I00
sg91
I00
ssg92
I00
sg93
g213
sg94
I789
sg95
g214
sg96
g215
sg97
I00
sg98
I92
sg99
I00
sg100
I-18000
sg101
I197348
sg102
g62
sg103
I127
sg104
g62
sg105
g217
sg106
g218
sg107
I00
sg108
I00
sg109
g216
sg111
g219
sg112
g220
sg113
g221
sg114
I00
sg115
I01
sg116
I32
sg117
g222
sg118
Nsg119
g120
(S'\x07\xdb\x06\x06\x08\x16 \x00\x00\x00'
p225
tp226
Rp227
sg124
g212
sg125
g224
sg126
I00
sg127
I00
sg128
I00
sbsg129
Nsg26
I639139520487817216
sg130
I0
sg131
VTwitter for iPhone
p228
sg113
Ven
p229
sS'retweeted_status'
p230
g1
(g2
g3
Ntp231
Rp232
(dp233
g7
I00
sg8
Nsg9
I00
sg10
VBy asking potential cyberbullies one simple question, Trisha Prabhu is making internet a better place http://t.co/c5AvwKj3bx none via @good
p234
sg12
Vhttp://twitter.com/download/android
p235
sg202
I00
sg14
I00
sg15
Nsg16
g1
(g17
g3
Ntp236
Rp237
(dp238
g21
I00
sg22
I00
sg23
I01
sg24
VE2E8E9
p239
sg26
I2390651
sg27
I00
sg28
(dp240
g84
(dp241
g32
(lp242
(dp243
g84
Vhttp://t.co/0HY3bilyNB
p244
sg155
(lp245
I0
aI22
asVexpanded_url
p246
Vhttp://techmamas.com/bio-beth-blecherman-techmamas-com
p247
sVdisplay_url
p248
Vtechmamas.com/bio-beth-blech\u2026
p249
sassg30
(dp250
g32
(lp251
(dp252
g84
Vhttp://t.co/MMaweL74Zc
p253
sg155
(lp254
I72
aI94
asg246
Vhttp://Techmamas.com
p255
sg248
VTechmamas.com
p256
sasssg34
Vhttps://pbs.twimg.com/profile_images/1514606061/moms_0443cr3_normal.jpg
p257
sg36
(dp258
g38
I00
sg39
I00
sg40
I01
sg41
I00
sg42
I2390651
sg43
Vhttps://pbs.twimg.com/profile_background_images/378800000041123738/b6cc92fff9512ea2bb4c4488f82fa02a.gif
p259
sg45
I00
sg46
V0D0C0E
p260
sg48
g257
sg49
g239
sg50
g240
sg51
I33418
sg52
VFFFFFF
p261
sg54
V2390651
p262
sg56
VCAB8CF
p263
sg58
I2193
sg59
I00
sg60
I-25200
sg61
I37569
sg30
VEntrepreneur,Speaker, #tech blogger, #socialmedia #business Consulting: http://t.co/MMaweL74Zc, Author: MyParentPlan, Tech Hubby& 3 Boys, Past: Sr.Mgr Deloitte
p264
sg63
I14552
sg64
VSilicon Valley
p265
sg65
V234BAF
p266
sg67
Vhttp://pbs.twimg.com/profile_images/1514606061/moms_0443cr3_normal.jpg
p267
sg69
I00
sg70
I01
sg71
Vhttps://pbs.twimg.com/profile_banners/2390651/1401849607
p268
sg73
Vhttp://pbs.twimg.com/profile_background_images/378800000041123738/b6cc92fff9512ea2bb4c4488f82fa02a.gif
p269
sg75
Vtechmama
p270
sg77
Ven
p271
sg79
I00
sg80
I8545
sg81
VBeth Blecherman  
p272
sg83
I00
sg84
Vhttp://t.co/0HY3bilyNB
p273
sg85
VTue Mar 27 02:08:06 +0000 2007
p274
sg87
I00
sg88
VPacific Time (US & Canada)
p275
sg89
I00
sg90
I00
sg91
I00
ssg92
I00
sg93
g260
sg94
I33418
sg95
g261
sg96
g262
sg97
I00
sg98
I2193
sg99
I00
sg100
I-25200
sg101
I37569
sg102
g264
sg103
I14552
sg104
g265
sg105
g266
sg106
g267
sg107
I00
sg108
I01
sg109
g263
sg110
g268
sg111
g269
sg112
g270
sg113
g271
sg114
I00
sg115
I00
sg116
I8545
sg117
g272
sg118
g273
sg119
g120
(S'\x07\xd7\x03\x1b\x02\x08\x06\x00\x00\x00'
p276
tp277
Rp278
sg124
g259
sg125
g275
sg126
I00
sg127
I00
sg128
I00
sbsg129
Nsg26
I639131805224841216
sg130
I1
sg131
VTwitter for Android
p279
sg113
Ven
p280
sg134
g237
sg119
g120
(S'\x07\xdf\t\x02\x11,\x1f\x00\x00\x00'
p281
tp282
Rp283
sg36
(dp284
g139
Nsg140
I00
sg141
g234
sg142
I00
sg143
Nsg42
I639131805224841216
sg144
I1
sg145
V<a href="http://twitter.com/download/android" rel="nofollow">Twitter for Android</a>
p285
sg147
I00
sg148
Nsg50
(dp286
g150
(lp287
sg152
(lp288
(dp289
g42
I19621110
sg155
(lp290
I134
aI139
asg54
V19621110
p291
sg75
Vgood
p292
sg81
VGOOD 
p293
sasg165
(lp294
sg32
(lp295
(dp296
g84
Vhttp://t.co/c5AvwKj3bx
p297
sg155
(lp298
I102
aI124
asg246
Vhttp://magazine.good.is/articles/how-a-15-year-old-tech-whiz-is-using-software-to-fight-internet-hate
p299
sg248
Vmagazine.good.is/articles/how-a\u2026
p300
sassg168
Nsg170
Nsg171
I4
sg54
V639131805224841216
p301
sg173
I00
sg174
g258
sg175
Nsg176
NsVpossibly_sensitive
p302
I00
sg77
g280
sg85
VWed Sep 02 17:44:31 +0000 2015
p303
sg179
Nsg181
Nsg182
(dp304
g184
Ven
p305
sg186
Vrecent
p306
sssg188
g304
sg189
Nsg190
Nsg28
g286
sg191
Nsg192
Nsg96
g301
sg193
I00
sg194
Nsg195
I4
sg196
Nsbsg134
g204
sg119
g120
(S'\x07\xdf\t\x02\x12\x0f\n\x00\x00\x00'
p307
tp308
Rp309
sg36
(dp310
g139
Nsg140
I00
sg141
g200
sg142
I00
sg143
Nsg42
I639139520487817216
sg144
I0
sg145
V<a href="http://twitter.com/download/iphone" rel="nofollow">Twitter for iPhone</a>
p311
sg147
I00
sg148
Nsg50
(dp312
g150
(lp313
sg152
(lp314
(dp315
g42
I2390651
sg155
(lp316
I3
aI12
asg54
V2390651
p317
sg75
Vtechmama
p318
sg81
VBeth Blecherman  
p319
sa(dp320
g42
I19621110
sg155
(lp321
I139
aI140
asg54
V19621110
p322
sg75
Vgood
p323
sg81
VGOOD 
p324
sasg165
(lp325
sg32
(lp326
(dp327
g84
Vhttp://t.co/c5AvwKj3bx
p328
sg155
(lp329
I116
aI138
asg246
Vhttp://magazine.good.is/articles/how-a-15-year-old-tech-whiz-is-using-software-to-fight-internet-hate
p330
sg248
Vmagazine.good.is/articles/how-a\u2026
p331
sassg168
Nsg170
Nsg171
I4
sg54
V639139520487817216
p332
sg173
I00
sVretweeted_status
p333
g284
sg174
g211
sg175
Nsg176
Nsg302
I00
sg77
g229
sg85
VWed Sep 02 18:15:10 +0000 2015
p334
sg179
Nsg181
Nsg182
(dp335
g184
Ven
p336
sg186
Vrecent
p337
sssg188
g335
sg189
Nsg190
Nsg28
g312
sg191
Nsg192
Nsg96
g332
sg193
I00
sg194
Nsg195
I4
sg196
Nsbag1
(g2
g3
Ntp338
Rp339
(dp340
g7
I00
sg8
Nsg9
I00
sg10
V@becky_bould of course your involved, if you didn't write the tweet in the first place none of this would of been said
p341
sg12
Vhttp://twitter.com/download/iphone
p342
sg14
I00
sg15
I639134491076894720
sg16
g1
(g17
g3
Ntp343
Rp344
(dp345
g21
I00
sg22
I00
sg23
I01
sg24
VDDEEF6
p346
sg26
I2418440993
sg27
I00
sg28
(dp347
g30
(dp348
g32
(lp349
sssg34
Vhttps://pbs.twimg.com/profile_images/603659115441823744/4zpTHvgT_normal.jpg
p350
sg36
(dp351
g38
I00
sg39
I00
sg40
I01
sg41
I00
sg42
I2418440993
sg43
Vhttps://abs.twimg.com/images/themes/theme1/bg.png
p352
sg45
I00
sg46
V333333
p353
sg48
g350
sg49
g346
sg50
g347
sg51
I79
sg52
VC0DEED
p354
sg54
V2418440993
p355
sg56
VC0DEED
p356
sg58
I0
sg59
I00
sg60
Nsg61
I79
sg30
g62
sg63
I42
sg64
g62
sg65
V0084B4
p357
sg67
Vhttp://pbs.twimg.com/profile_images/603659115441823744/4zpTHvgT_normal.jpg
p358
sg69
I00
sg70
I00
sg71
Vhttps://pbs.twimg.com/profile_banners/2418440993/1395259207
p359
sg73
Vhttp://abs.twimg.com/images/themes/theme1/bg.png
p360
sg75
V_HollyJaworski
p361
sg77
Ven
p362
sg79
I00
sg80
I47
sg81
VHolly Jaworski
p363
sg83
I00
sg84
Nsg85
VMon Mar 17 20:51:32 +0000 2014
p364
sg87
I00
sg88
Nsg89
I00
sg90
I01
sg91
I00
ssg92
I00
sg93
g353
sg94
I79
sg95
g354
sg96
g355
sg97
I00
sg98
I0
sg99
I00
sg100
Nsg101
I79
sg102
g62
sg103
I42
sg104
g62
sg105
g357
sg106
g358
sg107
I00
sg108
I00
sg109
g356
sg110
g359
sg111
g360
sg112
g361
sg113
g362
sg114
I00
sg115
I00
sg116
I47
sg117
g363
sg118
Nsg119
g120
(S'\x07\xde\x03\x11\x143 \x00\x00\x00'
p365
tp366
Rp367
sg124
g352
sg125
Nsg126
I00
sg127
I01
sg128
I00
sbsg129
Nsg26
I639137611920097280
sg130
I0
sg131
VTwitter for iPhone
p368
sg113
Ven
p369
sg134
g344
sg119
g120
(S'\x07\xdf\t\x02\x12\x07#\x00\x00\x00'
p370
tp371
Rp372
sg36
(dp373
g139
Nsg140
I00
sg141
g341
sg142
I00
sg143
I639134491076894720
sg42
I639137611920097280
sg144
I0
sg145
V<a href="http://twitter.com/download/iphone" rel="nofollow">Twitter for iPhone</a>
p374
sg147
I00
sg148
Nsg50
(dp375
g150
(lp376
sg152
(lp377
(dp378
g42
I215778047
sg155
(lp379
I0
aI12
asg54
V215778047
p380
sg75
Vbecky_bould
p381
sg81
Vbeckkk! 
p382
sasg165
(lp383
sg32
(lp384
ssg168
Vbecky_bould
p385
sg170
I215778047
sg171
I0
sg54
V639137611920097280
p386
sg173
I00
sg174
g351
sg175
Nsg176
V215778047
p387
sg77
g369
sg85
VWed Sep 02 18:07:35 +0000 2015
p388
sg179
V639134491076894720
p389
sg181
Nsg182
(dp390
g184
Ven
p391
sg186
Vrecent
p392
sssg188
g390
sg189
Nsg190
g387
sg28
g375
sg191
g389
sg192
g385
sg96
g386
sg193
I00
sg194
Nsg195
I0
sg196
I215778047
sbag1
(g2
g3
Ntp393
Rp394
(dp395
g7
I00
sg8
Nsg9
I00
sg10
VRT @techmama: By asking potential cyberbullies one simple question, Trisha Prabhu is making internet a better place http://t.co/c5AvwKj3bx \u2026
p396
sg12
Vhttps://twitter.com/download/android
p397
sg202
I00
sg14
I00
sg15
Nsg16
g1
(g17
g3
Ntp398
Rp399
(dp400
g21
I00
sg22
I00
sg23
I01
sg24
V95E8EC
p401
sg26
I25787765
sg27
I00
sg28
(dp402
g30
(dp403
g32
(lp404
sssg34
Vhttps://pbs.twimg.com/profile_images/1901734583/tanya_jared_normal.jpg
p405
sg36
(dp406
g38
I00
sg39
I00
sg40
I01
sg41
I00
sg42
I25787765
sg43
Vhttps://abs.twimg.com/images/themes/theme4/bg.gif
p407
sg45
I00
sg46
V3C3940
p408
sg48
g405
sg49
g401
sg50
g402
sg51
I375
sg52
V5ED4DC
p409
sg54
V25787765
p410
sg56
V0099B9
p411
sg58
I27
sg59
I00
sg60
I28800
sg61
I12432
sg30
VSupernatural . Need I say more?\u000aOk I wanna fishtail it in baby with Sam n Dean !
p412
sg63
I1588
sg64
Vaustralia
p413
sg65
V0099B9
p414
sg67
Vhttp://pbs.twimg.com/profile_images/1901734583/tanya_jared_normal.jpg
p415
sg69
I00
sg70
I00
sg73
Vhttp://abs.twimg.com/images/themes/theme4/bg.gif
p416
sg75
VTandaz
p417
sg77
Ven
p418
sg79
I00
sg80
I1014
sg81
VTanya E
p419
sg83
I00
sg84
Nsg85
VSun Mar 22 05:50:35 +0000 2009
p420
sg87
I00
sg88
VPerth
p421
sg89
I00
sg90
I00
sg91
I00
ssg92
I00
sg93
g408
sg94
I375
sg95
g409
sg96
g410
sg97
I00
sg98
I27
sg99
I00
sg100
I28800
sg101
I12432
sg102
VSupernatural . Need I say more?\u000aOk I wanna fishtail it in baby with Sam n Dean !
p422
sg103
I1588
sg104
g413
sg105
g414
sg106
g415
sg107
I00
sg108
I00
sg109
g411
sg111
g416
sg112
g417
sg113
g418
sg114
I00
sg115
I00
sg116
I1014
sg117
g419
sg118
Nsg119
g120
(S'\x07\xd9\x03\x16\x052#\x00\x00\x00'
p423
tp424
Rp425
sg124
g407
sg125
g421
sg126
I00
sg127
I00
sg128
I00
sbsg129
Nsg26
I639134906572914689
sg130
I0
sg131
VTwitter for Android Tablets
p426
sg113
Ven
p427
sg230
g1
(g2
g3
Ntp428
Rp429
(dp430
g7
I00
sg8
Nsg9
I00
sg10
VBy asking potential cyberbullies one simple question, Trisha Prabhu is making internet a better place http://t.co/c5AvwKj3bx none via @good
p431
sg12
Vhttp://twitter.com/download/android
p432
sg202
I00
sg14
I00
sg15
Nsg16
g1
(g17
g3
Ntp433
Rp434
(dp435
g21
I00
sg22
I00
sg23
I01
sg24
VE2E8E9
p436
sg26
I2390651
sg27
I00
sg28
(dp437
g84
(dp438
g32
(lp439
(dp440
g84
Vhttp://t.co/0HY3bilyNB
p441
sg155
(lp442
I0
aI22
asg246
Vhttp://techmamas.com/bio-beth-blecherman-techmamas-com
p443
sg248
Vtechmamas.com/bio-beth-blech\u2026
p444
sassg30
(dp445
g32
(lp446
(dp447
g84
Vhttp://t.co/MMaweL74Zc
p448
sg155
(lp449
I72
aI94
asg246
Vhttp://Techmamas.com
p450
sg248
VTechmamas.com
p451
sasssg34
Vhttps://pbs.twimg.com/profile_images/1514606061/moms_0443cr3_normal.jpg
p452
sg36
(dp453
g38
I00
sg39
I00
sg40
I01
sg41
I00
sg42
I2390651
sg43
Vhttps://pbs.twimg.com/profile_background_images/378800000041123738/b6cc92fff9512ea2bb4c4488f82fa02a.gif
p454
sg45
I00
sg46
V0D0C0E
p455
sg48
g452
sg49
g436
sg50
g437
sg51
I33418
sg52
VFFFFFF
p456
sg54
V2390651
p457
sg56
VCAB8CF
p458
sg58
I2193
sg59
I00
sg60
I-25200
sg61
I37569
sg30
VEntrepreneur,Speaker, #tech blogger, #socialmedia #business Consulting: http://t.co/MMaweL74Zc, Author: MyParentPlan, Tech Hubby& 3 Boys, Past: Sr.Mgr Deloitte
p459
sg63
I14552
sg64
VSilicon Valley
p460
sg65
V234BAF
p461
sg67
Vhttp://pbs.twimg.com/profile_images/1514606061/moms_0443cr3_normal.jpg
p462
sg69
I00
sg70
I01
sg71
Vhttps://pbs.twimg.com/profile_banners/2390651/1401849607
p463
sg73
Vhttp://pbs.twimg.com/profile_background_images/378800000041123738/b6cc92fff9512ea2bb4c4488f82fa02a.gif
p464
sg75
Vtechmama
p465
sg77
Ven
p466
sg79
I00
sg80
I8545
sg81
VBeth Blecherman  
p467
sg83
I00
sg84
Vhttp://t.co/0HY3bilyNB
p468
sg85
VTue Mar 27 02:08:06 +0000 2007
p469
sg87
I00
sg88
VPacific Time (US & Canada)
p470
sg89
I00
sg90
I00
sg91
I00
ssg92
I00
sg93
g455
sg94
I33418
sg95
g456
sg96
g457
sg97
I00
sg98
I2193
sg99
I00
sg100
I-25200
sg101
I37569
sg102
g459
sg103
I14552
sg104
g460
sg105
g461
sg106
g462
sg107
I00
sg108
I01
sg109
g458
sg110
g463
sg111
g464
sg112
g465
sg113
g466
sg114
I00
sg115
I00
sg116
I8545
sg117
g467
sg118
g468
sg119
g120
(S'\x07\xd7\x03\x1b\x02\x08\x06\x00\x00\x00'
p471
tp472
Rp473
sg124
g454
sg125
g470
sg126
I00
sg127
I00
sg128
I00
sbsg129
Nsg26
I639131805224841216
sg130
I1
sg131
VTwitter for Android
p474
sg113
Ven
p475
sg134
g434
sg119
g120
(S'\x07\xdf\t\x02\x11,\x1f\x00\x00\x00'
p476
tp477
Rp478
sg36
(dp479
g139
Nsg140
I00
sg141
g431
sg142
I00
sg143
Nsg42
I639131805224841216
sg144
I1
sg145
V<a href="http://twitter.com/download/android" rel="nofollow">Twitter for Android</a>
p480
sg147
I00
sg148
Nsg50
(dp481
g150
(lp482
sg152
(lp483
(dp484
g42
I19621110
sg155
(lp485
I134
aI139
asg54
V19621110
p486
sg75
Vgood
p487
sg81
VGOOD 
p488
sasg165
(lp489
sg32
(lp490
(dp491
g84
Vhttp://t.co/c5AvwKj3bx
p492
sg155
(lp493
I102
aI124
asg246
Vhttp://magazine.good.is/articles/how-a-15-year-old-tech-whiz-is-using-software-to-fight-internet-hate
p494
sg248
Vmagazine.good.is/articles/how-a\u2026
p495
sassg168
Nsg170
Nsg171
I4
sg54
V639131805224841216
p496
sg173
I00
sg174
g453
sg175
Nsg176
Nsg302
I00
sg77
g475
sg85
VWed Sep 02 17:44:31 +0000 2015
p497
sg179
Nsg181
Nsg182
(dp498
g184
Ven
p499
sg186
Vrecent
p500
sssg188
g498
sg189
Nsg190
Nsg28
g481
sg191
Nsg192
Nsg96
g496
sg193
I00
sg194
Nsg195
I4
sg196
Nsbsg134
g399
sg119
g120
(S'\x07\xdf\t\x02\x1182\x00\x00\x00'
p501
tp502
Rp503
sg36
(dp504
g139
Nsg140
I00
sg141
g396
sg142
I00
sg143
Nsg42
I639134906572914689
sg144
I0
sg145
V<a href="https://twitter.com/download/android" rel="nofollow">Twitter for Android Tablets</a>
p505
sg147
I00
sg148
Nsg50
(dp506
g150
(lp507
sg152
(lp508
(dp509
g42
I2390651
sg155
(lp510
I3
aI12
asg54
V2390651
p511
sg75
Vtechmama
p512
sg81
VBeth Blecherman  
p513
sa(dp514
g42
I19621110
sg155
(lp515
I139
aI140
asg54
V19621110
p516
sg75
Vgood
p517
sg81
VGOOD 
p518
sasg165
(lp519
sg32
(lp520
(dp521
g84
Vhttp://t.co/c5AvwKj3bx
p522
sg155
(lp523
I116
aI138
asg246
Vhttp://magazine.good.is/articles/how-a-15-year-old-tech-whiz-is-using-software-to-fight-internet-hate
p524
sg248
Vmagazine.good.is/articles/how-a\u2026
p525
sassg168
Nsg170
Nsg171
I4
sg54
V639134906572914689
p526
sg173
I00
sg333
g479
sg174
g406
sg175
Nsg176
Nsg302
I00
sg77
g427
sg85
VWed Sep 02 17:56:50 +0000 2015
p527
sg179
Nsg181
Nsg182
(dp528
g184
Ven
p529
sg186
Vrecent
p530
sssg188
g528
sg189
Nsg190
Nsg28
g506
sg191
Nsg192
Nsg96
g526
sg193
I00
sg194
Nsg195
I4
sg196
Nsbag1
(g2
g3
Ntp531
Rp532
(dp533
g7
I00
sg8
Nsg9
I00
sg10
VRT @techmama: By asking potential cyberbullies one simple question, Trisha Prabhu is making internet a better place http://t.co/c5AvwKj3bx \u2026
p534
sg12
Vhttp://www.hootsuite.com
p535
sg202
I00
sg14
I00
sg15
Nsg16
g1
(g17
g3
Ntp536
Rp537
(dp538
g21
I00
sg22
I00
sg23
I01
sg24
VE3E2DE
p539
sg26
I15495117
sg27
I00
sg28
(dp540
g84
(dp541
g32
(lp542
(dp543
g84
Vhttp://t.co/pduTOdxeGo
p544
sg155
(lp545
I0
aI22
asg246
Vhttp://selfishmom.com
p546
sg248
Vselfishmom.com
p547
sassg30
(dp548
g32
(lp549
sssg34
Vhttps://pbs.twimg.com/profile_images/608124927548506112/IOoBz5rf_normal.jpg
p550
sg36
(dp551
g38
I00
sg39
I00
sg40
I01
sg41
I00
sg42
I15495117
sg43
Vhttps://pbs.twimg.com/profile_background_images/224250738/twitter_background_new.jpg
p552
sg45
I00
sg46
V634047
p553
sg48
g550
sg49
g539
sg50
g540
sg51
I25008
sg52
VD3D2CF
p554
sg54
V15495117
p555
sg56
VEDECE9
p556
sg58
I820
sg59
I00
sg60
I-14400
sg61
I88575
sg30
VWhatever you think I said, I was probably being sarcastic. Except when I said you're brilliant & gorgeous, then I was being serious.
p557
sg63
I1931
sg64
VBrooklyn
p558
sg65
V3B94D9
p559
sg67
Vhttp://pbs.twimg.com/profile_images/608124927548506112/IOoBz5rf_normal.jpg
p560
sg69
I00
sg70
I01
sg71
Vhttps://pbs.twimg.com/profile_banners/15495117/1435518091
p561
sg73
Vhttp://pbs.twimg.com/profile_background_images/224250738/twitter_background_new.jpg
p562
sg75
VSelfishMom
p563
sg77
Ven
p564
sg79
I00
sg80
I471
sg81
VSelfishMom
p565
sg83
I00
sg84
Vhttp://t.co/pduTOdxeGo
p566
sg85
VSat Jul 19 20:15:44 +0000 2008
p567
sg87
I00
sg88
VEastern Time (US & Canada)
p568
sg89
I00
sg90
I00
sg91
I00
ssg92
I00
sg93
g553
sg94
I25008
sg95
g554
sg96
g555
sg97
I00
sg98
I820
sg99
I00
sg100
I-14400
sg101
I88575
sg102
g557
sg103
I1931
sg104
g558
sg105
g559
sg106
g560
sg107
I00
sg108
I01
sg109
g556
sg110
g561
sg111
g562
sg112
g563
sg113
g564
sg114
I00
sg115
I00
sg116
I471
sg117
g565
sg118
g566
sg119
g120
(S'\x07\xd8\x07\x13\x14\x0f,\x00\x00\x00'
p569
tp570
Rp571
sg124
g552
sg125
g568
sg126
I00
sg127
I00
sg128
I00
sbsg129
Nsg26
I639132932465160192
sg130
I0
sg131
VHootsuite
p572
sg113
Ven
p573
sg230
g1
(g2
g3
Ntp574
Rp575
(dp576
g7
I00
sg8
Nsg9
I00
sg10
VBy asking potential cyberbullies one simple question, Trisha Prabhu is making internet a better place http://t.co/c5AvwKj3bx none via @good
p577
sg12
Vhttp://twitter.com/download/android
p578
sg202
I00
sg14
I00
sg15
Nsg16
g1
(g17
g3
Ntp579
Rp580
(dp581
g21
I00
sg22
I00
sg23
I01
sg24
VE2E8E9
p582
sg26
I2390651
sg27
I00
sg28
(dp583
g84
(dp584
g32
(lp585
(dp586
g84
Vhttp://t.co/0HY3bilyNB
p587
sg155
(lp588
I0
aI22
asg246
Vhttp://techmamas.com/bio-beth-blecherman-techmamas-com
p589
sg248
Vtechmamas.com/bio-beth-blech\u2026
p590
sassg30
(dp591
g32
(lp592
(dp593
g84
Vhttp://t.co/MMaweL74Zc
p594
sg155
(lp595
I72
aI94
asg246
Vhttp://Techmamas.com
p596
sg248
VTechmamas.com
p597
sasssg34
Vhttps://pbs.twimg.com/profile_images/1514606061/moms_0443cr3_normal.jpg
p598
sg36
(dp599
g38
I00
sg39
I00
sg40
I01
sg41
I00
sg42
I2390651
sg43
Vhttps://pbs.twimg.com/profile_background_images/378800000041123738/b6cc92fff9512ea2bb4c4488f82fa02a.gif
p600
sg45
I00
sg46
V0D0C0E
p601
sg48
g598
sg49
g582
sg50
g583
sg51
I33418
sg52
VFFFFFF
p602
sg54
V2390651
p603
sg56
VCAB8CF
p604
sg58
I2193
sg59
I00
sg60
I-25200
sg61
I37569
sg30
VEntrepreneur,Speaker, #tech blogger, #socialmedia #business Consulting: http://t.co/MMaweL74Zc, Author: MyParentPlan, Tech Hubby& 3 Boys, Past: Sr.Mgr Deloitte
p605
sg63
I14552
sg64
VSilicon Valley
p606
sg65
V234BAF
p607
sg67
Vhttp://pbs.twimg.com/profile_images/1514606061/moms_0443cr3_normal.jpg
p608
sg69
I00
sg70
I01
sg71
Vhttps://pbs.twimg.com/profile_banners/2390651/1401849607
p609
sg73
Vhttp://pbs.twimg.com/profile_background_images/378800000041123738/b6cc92fff9512ea2bb4c4488f82fa02a.gif
p610
sg75
Vtechmama
p611
sg77
Ven
p612
sg79
I00
sg80
I8545
sg81
VBeth Blecherman  
p613
sg83
I00
sg84
Vhttp://t.co/0HY3bilyNB
p614
sg85
VTue Mar 27 02:08:06 +0000 2007
p615
sg87
I00
sg88
VPacific Time (US & Canada)
p616
sg89
I00
sg90
I00
sg91
I00
ssg92
I00
sg93
g601
sg94
I33418
sg95
g602
sg96
g603
sg97
I00
sg98
I2193
sg99
I00
sg100
I-25200
sg101
I37569
sg102
g605
sg103
I14552
sg104
g606
sg105
g607
sg106
g608
sg107
I00
sg108
I01
sg109
g604
sg110
g609
sg111
g610
sg112
g611
sg113
g612
sg114
I00
sg115
I00
sg116
I8545
sg117
g613
sg118
g614
sg119
g120
(S'\x07\xd7\x03\x1b\x02\x08\x06\x00\x00\x00'
p617
tp618
Rp619
sg124
g600
sg125
g616
sg126
I00
sg127
I00
sg128
I00
sbsg129
Nsg26
I639131805224841216
sg130
I1
sg131
VTwitter for Android
p620
sg113
Ven
p621
sg134
g580
sg119
g120
(S'\x07\xdf\t\x02\x11,\x1f\x00\x00\x00'
p622
tp623
Rp624
sg36
(dp625
g139
Nsg140
I00
sg141
g577
sg142
I00
sg143
Nsg42
I639131805224841216
sg144
I1
sg145
V<a href="http://twitter.com/download/android" rel="nofollow">Twitter for Android</a>
p626
sg147
I00
sg148
Nsg50
(dp627
g150
(lp628
sg152
(lp629
(dp630
g42
I19621110
sg155
(lp631
I134
aI139
asg54
V19621110
p632
sg75
Vgood
p633
sg81
VGOOD 
p634
sasg165
(lp635
sg32
(lp636
(dp637
g84
Vhttp://t.co/c5AvwKj3bx
p638
sg155
(lp639
I102
aI124
asg246
Vhttp://magazine.good.is/articles/how-a-15-year-old-tech-whiz-is-using-software-to-fight-internet-hate
p640
sg248
Vmagazine.good.is/articles/how-a\u2026
p641
sassg168
Nsg170
Nsg171
I4
sg54
V639131805224841216
p642
sg173
I00
sg174
g599
sg175
Nsg176
Nsg302
I00
sg77
g621
sg85
VWed Sep 02 17:44:31 +0000 2015
p643
sg179
Nsg181
Nsg182
(dp644
g184
Ven
p645
sg186
Vrecent
p646
sssg188
g644
sg189
Nsg190
Nsg28
g627
sg191
Nsg192
Nsg96
g642
sg193
I00
sg194
Nsg195
I4
sg196
Nsbsg134
g537
sg119
g120
(S'\x07\xdf\t\x02\x111\x00\x00\x00\x00'
p647
tp648
Rp649
sg36
(dp650
g139
Nsg140
I00
sg141
g534
sg142
I00
sg143
Nsg42
I639132932465160192
sg144
I0
sg145
V<a href="http://www.hootsuite.com" rel="nofollow">Hootsuite</a>
p651
sg147
I00
sg148
Nsg50
(dp652
g150
(lp653
sg152
(lp654
(dp655
g42
I2390651
sg155
(lp656
I3
aI12
asg54
V2390651
p657
sg75
Vtechmama
p658
sg81
VBeth Blecherman  
p659
sa(dp660
g42
I19621110
sg155
(lp661
I139
aI140
asg54
V19621110
p662
sg75
Vgood
p663
sg81
VGOOD 
p664
sasg165
(lp665
sg32
(lp666
(dp667
g84
Vhttp://t.co/c5AvwKj3bx
p668
sg155
(lp669
I116
aI138
asg246
Vhttp://magazine.good.is/articles/how-a-15-year-old-tech-whiz-is-using-software-to-fight-internet-hate
p670
sg248
Vmagazine.good.is/articles/how-a\u2026
p671
sassg168
Nsg170
Nsg171
I4
sg54
V639132932465160192
p672
sg173
I00
sg333
g625
sg174
g551
sg175
Nsg176
Nsg302
I00
sg77
g573
sg85
VWed Sep 02 17:49:00 +0000 2015
p673
sg179
Nsg181
Nsg182
(dp674
g184
Ven
p675
sg186
Vrecent
p676
sssg188
g674
sg189
Nsg190
Nsg28
g652
sg191
Nsg192
Nsg96
g672
sg193
I00
sg194
Nsg195
I4
sg196
Nsbag1
(g2
g3
Ntp677
Rp678
(dp679
g7
I00
sg8
Nsg9
I00
sg10
VRT @techmama: By asking potential cyberbullies one simple question, Trisha Prabhu is making internet a better place http://t.co/c5AvwKj3bx \u2026
p680
sg12
Vhttp://twitter.com
p681
sg202
I00
sg14
I00
sg15
Nsg16
g1
(g17
g3
Ntp682
Rp683
(dp684
g21
I00
sg22
I00
sg23
I00
sg24
VC8DF92
p685
sg26
I19969078
sg27
I00
sg28
(dp686
g84
(dp687
g32
(lp688
(dp689
g84
Vhttp://t.co/VpqTCJl80r
p690
sg155
(lp691
I0
aI22
asg246
Vhttp://multiplemayhemmamma.com
p692
sg248
Vmultiplemayhemmamma.com
p693
sassg30
(dp694
g32
(lp695
(dp696
g84
Vhttp://t.co/GhlHV5EFZW
p697
sg155
(lp698
I138
aI160
asg246
Vhttp://buff.ly/1mo7Z8t
p699
sg248
Vbuff.ly/1mo7Z8t
p700
sasssg34
Vhttps://pbs.twimg.com/profile_images/469801806617255939/VnPeGliq_normal.jpeg
p701
sg36
(dp702
g38
I00
sg39
I00
sg40
I00
sg41
I00
sg42
I19969078
sg43
Vhttps://pbs.twimg.com/profile_background_images/468386700/twitter_button.jpg
p703
sg45
I00
sg46
V171713
p704
sg48
g701
sg49
g685
sg50
g686
sg51
I8756
sg52
VFFFFFF
p705
sg54
V19969078
p706
sg56
VC6EC92
p707
sg58
I325
sg59
I00
sg60
I-14400
sg61
I46929
sg30
VFrazzled mom of 5,000 kids.HuffPost & Parenting Writer/Blogger/Media spokesperson.Senior Communications pro & wannabe jazz singer. Coffee.http://t.co/GhlHV5EFZW
p708
sg63
I7687
sg64
VToronto, Ontario
p709
sg65
V5B8020
p710
sg67
Vhttp://pbs.twimg.com/profile_images/469801806617255939/VnPeGliq_normal.jpeg
p711
sg69
I00
sg70
I01
sg71
Vhttps://pbs.twimg.com/profile_banners/19969078/1396441481
p712
sg73
Vhttp://pbs.twimg.com/profile_background_images/468386700/twitter_button.jpg
p713
sg75
Vsamkj27
p714
sg77
Ven
p715
sg79
I00
sg80
I2982
sg81
VSam Kemp-Jackson
p716
sg83
I00
sg84
Vhttp://t.co/VpqTCJl80r
p717
sg85
VTue Feb 03 13:06:13 +0000 2009
p718
sg87
I00
sg88
VEastern Time (US & Canada)
p719
sg89
I00
sg90
I00
sg91
I00
ssg92
I00
sg93
g704
sg94
I8756
sg95
g705
sg96
g706
sg97
I00
sg98
I325
sg99
I00
sg100
I-14400
sg101
I46929
sg102
g708
sg103
I7687
sg104
g709
sg105
g710
sg106
g711
sg107
I00
sg108
I01
sg109
g707
sg110
g712
sg111
g713
sg112
g714
sg113
g715
sg114
I00
sg115
I00
sg116
I2982
sg117
g716
sg118
g717
sg119
g120
(S'\x07\xd9\x02\x03\r\x06\r\x00\x00\x00'
p720
tp721
Rp722
sg124
g703
sg125
g719
sg126
I00
sg127
I00
sg128
I00
sbsg129
Nsg26
I639132005322608640
sg130
I0
sg131
VTwitter Web Client
p723
sg113
Ven
p724
sg230
g1
(g2
g3
Ntp725
Rp726
(dp727
g7
I00
sg8
Nsg9
I00
sg10
VBy asking potential cyberbullies one simple question, Trisha Prabhu is making internet a better place http://t.co/c5AvwKj3bx none via @good
p728
sg12
Vhttp://twitter.com/download/android
p729
sg202
I00
sg14
I00
sg15
Nsg16
g1
(g17
g3
Ntp730
Rp731
(dp732
g21
I00
sg22
I00
sg23
I01
sg24
VE2E8E9
p733
sg26
I2390651
sg27
I00
sg28
(dp734
g84
(dp735
g32
(lp736
(dp737
g84
Vhttp://t.co/0HY3bilyNB
p738
sg155
(lp739
I0
aI22
asg246
Vhttp://techmamas.com/bio-beth-blecherman-techmamas-com
p740
sg248
Vtechmamas.com/bio-beth-blech\u2026
p741
sassg30
(dp742
g32
(lp743
(dp744
g84
Vhttp://t.co/MMaweL74Zc
p745
sg155
(lp746
I72
aI94
asg246
Vhttp://Techmamas.com
p747
sg248
VTechmamas.com
p748
sasssg34
Vhttps://pbs.twimg.com/profile_images/1514606061/moms_0443cr3_normal.jpg
p749
sg36
(dp750
g38
I00
sg39
I00
sg40
I01
sg41
I00
sg42
I2390651
sg43
Vhttps://pbs.twimg.com/profile_background_images/378800000041123738/b6cc92fff9512ea2bb4c4488f82fa02a.gif
p751
sg45
I00
sg46
V0D0C0E
p752
sg48
g749
sg49
g733
sg50
g734
sg51
I33418
sg52
VFFFFFF
p753
sg54
V2390651
p754
sg56
VCAB8CF
p755
sg58
I2193
sg59
I00
sg60
I-25200
sg61
I37569
sg30
VEntrepreneur,Speaker, #tech blogger, #socialmedia #business Consulting: http://t.co/MMaweL74Zc, Author: MyParentPlan, Tech Hubby& 3 Boys, Past: Sr.Mgr Deloitte
p756
sg63
I14552
sg64
VSilicon Valley
p757
sg65
V234BAF
p758
sg67
Vhttp://pbs.twimg.com/profile_images/1514606061/moms_0443cr3_normal.jpg
p759
sg69
I00
sg70
I01
sg71
Vhttps://pbs.twimg.com/profile_banners/2390651/1401849607
p760
sg73
Vhttp://pbs.twimg.com/profile_background_images/378800000041123738/b6cc92fff9512ea2bb4c4488f82fa02a.gif
p761
sg75
Vtechmama
p762
sg77
Ven
p763
sg79
I00
sg80
I8545
sg81
VBeth Blecherman  
p764
sg83
I00
sg84
Vhttp://t.co/0HY3bilyNB
p765
sg85
VTue Mar 27 02:08:06 +0000 2007
p766
sg87
I00
sg88
VPacific Time (US & Canada)
p767
sg89
I00
sg90
I00
sg91
I00
ssg92
I00
sg93
g752
sg94
I33418
sg95
g753
sg96
g754
sg97
I00
sg98
I2193
sg99
I00
sg100
I-25200
sg101
I37569
sg102
g756
sg103
I14552
sg104
g757
sg105
g758
sg106
g759
sg107
I00
sg108
I01
sg109
g755
sg110
g760
sg111
g761
sg112
g762
sg113
g763
sg114
I00
sg115
I00
sg116
I8545
sg117
g764
sg118
g765
sg119
g120
(S'\x07\xd7\x03\x1b\x02\x08\x06\x00\x00\x00'
p768
tp769
Rp770
sg124
g751
sg125
g767
sg126
I00
sg127
I00
sg128
I00
sbsg129
Nsg26
I639131805224841216
sg130
I1
sg131
VTwitter for Android
p771
sg113
Ven
p772
sg134
g731
sg119
g120
(S'\x07\xdf\t\x02\x11,\x1f\x00\x00\x00'
p773
tp774
Rp775
sg36
(dp776
g139
Nsg140
I00
sg141
g728
sg142
I00
sg143
Nsg42
I639131805224841216
sg144
I1
sg145
V<a href="http://twitter.com/download/android" rel="nofollow">Twitter for Android</a>
p777
sg147
I00
sg148
Nsg50
(dp778
g150
(lp779
sg152
(lp780
(dp781
g42
I19621110
sg155
(lp782
I134
aI139
asg54
V19621110
p783
sg75
Vgood
p784
sg81
VGOOD 
p785
sasg165
(lp786
sg32
(lp787
(dp788
g84
Vhttp://t.co/c5AvwKj3bx
p789
sg155
(lp790
I102
aI124
asg246
Vhttp://magazine.good.is/articles/how-a-15-year-old-tech-whiz-is-using-software-to-fight-internet-hate
p791
sg248
Vmagazine.good.is/articles/how-a\u2026
p792
sassg168
Nsg170
Nsg171
I4
sg54
V639131805224841216
p793
sg173
I00
sg174
g750
sg175
Nsg176
Nsg302
I00
sg77
g772
sg85
VWed Sep 02 17:44:31 +0000 2015
p794
sg179
Nsg181
Nsg182
(dp795
g184
Ven
p796
sg186
Vrecent
p797
sssg188
g795
sg189
Nsg190
Nsg28
g778
sg191
Nsg192
Nsg96
g793
sg193
I00
sg194
Nsg195
I4
sg196
Nsbsg134
g683
sg119
g120
(S'\x07\xdf\t\x02\x11-\x13\x00\x00\x00'
p798
tp799
Rp800
sg36
(dp801
g139
Nsg140
I00
sg141
g680
sg142
I00
sg143
Nsg42
I639132005322608640
sg144
I0
sg145
V<a href="http://twitter.com" rel="nofollow">Twitter Web Client</a>
p802
sg147
I00
sg148
Nsg50
(dp803
g150
(lp804
sg152
(lp805
(dp806
g42
I2390651
sg155
(lp807
I3
aI12
asg54
V2390651
p808
sg75
Vtechmama
p809
sg81
VBeth Blecherman  
p810
sa(dp811
g42
I19621110
sg155
(lp812
I139
aI140
asg54
V19621110
p813
sg75
Vgood
p814
sg81
VGOOD 
p815
sasg165
(lp816
sg32
(lp817
(dp818
g84
Vhttp://t.co/c5AvwKj3bx
p819
sg155
(lp820
I116
aI138
asg246
Vhttp://magazine.good.is/articles/how-a-15-year-old-tech-whiz-is-using-software-to-fight-internet-hate
p821
sg248
Vmagazine.good.is/articles/how-a\u2026
p822
sassg168
Nsg170
Nsg171
I4
sg54
V639132005322608640
p823
sg173
I00
sg333
g776
sg174
g702
sg175
Nsg176
Nsg302
I00
sg77
g724
sg85
VWed Sep 02 17:45:19 +0000 2015
p824
sg179
Nsg181
Nsg182
(dp825
g184
Ven
p826
sg186
Vrecent
p827
sssg188
g825
sg189
Nsg190
Nsg28
g803
sg191
Nsg192
Nsg96
g823
sg193
I00
sg194
Nsg195
I4
sg196
Nsbag1
(g2
g3
Ntp828
Rp829
(dp830
g7
I00
sg8
Nsg9
I00
sg10
VBy asking potential cyberbullies one simple question, Trisha Prabhu is making internet a better place http://t.co/c5AvwKj3bx none via @good
p831
sg12
Vhttp://twitter.com/download/android
p832
sg202
I00
sg14
I00
sg15
Nsg16
g1
(g17
g3
Ntp833
Rp834
(dp835
g21
I00
sg22
I00
sg23
I01
sg24
VE2E8E9
p836
sg26
I2390651
sg27
I00
sg28
(dp837
g84
(dp838
g32
(lp839
(dp840
g84
Vhttp://t.co/0HY3bilyNB
p841
sg155
(lp842
I0
aI22
asg246
Vhttp://techmamas.com/bio-beth-blecherman-techmamas-com
p843
sg248
Vtechmamas.com/bio-beth-blech\u2026
p844
sassg30
(dp845
g32
(lp846
(dp847
g84
Vhttp://t.co/MMaweL74Zc
p848
sg155
(lp849
I72
aI94
asg246
Vhttp://Techmamas.com
p850
sg248
VTechmamas.com
p851
sasssg34
Vhttps://pbs.twimg.com/profile_images/1514606061/moms_0443cr3_normal.jpg
p852
sg36
(dp853
g38
I00
sg39
I00
sg40
I01
sg41
I00
sg42
I2390651
sg43
Vhttps://pbs.twimg.com/profile_background_images/378800000041123738/b6cc92fff9512ea2bb4c4488f82fa02a.gif
p854
sg45
I00
sg46
V0D0C0E
p855
sg48
g852
sg49
g836
sg50
g837
sg51
I33418
sg52
VFFFFFF
p856
sg54
V2390651
p857
sg56
VCAB8CF
p858
sg58
I2193
sg59
I00
sg60
I-25200
sg61
I37569
sg30
VEntrepreneur,Speaker, #tech blogger, #socialmedia #business Consulting: http://t.co/MMaweL74Zc, Author: MyParentPlan, Tech Hubby& 3 Boys, Past: Sr.Mgr Deloitte
p859
sg63
I14552
sg64
VSilicon Valley
p860
sg65
V234BAF
p861
sg67
Vhttp://pbs.twimg.com/profile_images/1514606061/moms_0443cr3_normal.jpg
p862
sg69
I00
sg70
I01
sg71
Vhttps://pbs.twimg.com/profile_banners/2390651/1401849607
p863
sg73
Vhttp://pbs.twimg.com/profile_background_images/378800000041123738/b6cc92fff9512ea2bb4c4488f82fa02a.gif
p864
sg75
Vtechmama
p865
sg77
Ven
p866
sg79
I00
sg80
I8545
sg81
VBeth Blecherman  
p867
sg83
I00
sg84
Vhttp://t.co/0HY3bilyNB
p868
sg85
VTue Mar 27 02:08:06 +0000 2007
p869
sg87
I00
sg88
VPacific Time (US & Canada)
p870
sg89
I00
sg90
I00
sg91
I00
ssg92
I00
sg93
g855
sg94
I33418
sg95
g856
sg96
g857
sg97
I00
sg98
I2193
sg99
I00
sg100
I-25200
sg101
I37569
sg102
g859
sg103
I14552
sg104
g860
sg105
g861
sg106
g862
sg107
I00
sg108
I01
sg109
g858
sg110
g863
sg111
g864
sg112
g865
sg113
g866
sg114
I00
sg115
I00
sg116
I8545
sg117
g867
sg118
g868
sg119
g120
(S'\x07\xd7\x03\x1b\x02\x08\x06\x00\x00\x00'
p871
tp872
Rp873
sg124
g854
sg125
g870
sg126
I00
sg127
I00
sg128
I00
sbsg129
Nsg26
I639131805224841216
sg130
I1
sg131
VTwitter for Android
p874
sg113
Ven
p875
sg134
g834
sg119
g120
(S'\x07\xdf\t\x02\x11,\x1f\x00\x00\x00'
p876
tp877
Rp878
sg36
(dp879
g139
Nsg140
I00
sg141
g831
sg142
I00
sg143
Nsg42
I639131805224841216
sg144
I1
sg145
V<a href="http://twitter.com/download/android" rel="nofollow">Twitter for Android</a>
p880
sg147
I00
sg148
Nsg50
(dp881
g150
(lp882
sg152
(lp883
(dp884
g42
I19621110
sg155
(lp885
I134
aI139
asg54
V19621110
p886
sg75
Vgood
p887
sg81
VGOOD 
p888
sasg165
(lp889
sg32
(lp890
(dp891
g84
Vhttp://t.co/c5AvwKj3bx
p892
sg155
(lp893
I102
aI124
asg246
Vhttp://magazine.good.is/articles/how-a-15-year-old-tech-whiz-is-using-software-to-fight-internet-hate
p894
sg248
Vmagazine.good.is/articles/how-a\u2026
p895
sassg168
Nsg170
Nsg171
I4
sg54
V639131805224841216
p896
sg173
I00
sg174
g853
sg175
Nsg176
Nsg302
I00
sg77
g875
sg85
VWed Sep 02 17:44:31 +0000 2015
p897
sg179
Nsg181
Nsg182
(dp898
g184
Ven
p899
sg186
Vrecent
p900
sssg188
g898
sg189
Nsg190
Nsg28
g881
sg191
Nsg192
Nsg96
g896
sg193
I00
sg194
Nsg195
I4
sg196
Nsbag1
(g2
g3
Ntp901
Rp902
(dp903
g7
I00
sg8
Nsg9
I00
sg10
V@BigmouthStrike5 If you're going to topple a dictatorship you need to have a structure and plan in place.  None of that was done.
p904
sg12
Vhttp://twitter.com
p905
sg14
I00
sg15
I639026373038895104
sg16
g1
(g17
g3
Ntp906
Rp907
(dp908
g21
I00
sg22
I00
sg23
I01
sg24
V95E8EC
p909
sg26
I352347773
sg27
I00
sg28
(dp910
g30
(dp911
g32
(lp912
sssg34
Vhttps://pbs.twimg.com/profile_images/633673842762862592/j_9zh8Of_normal.jpg
p913
sg36
(dp914
g38
I00
sg39
I00
sg40
I01
sg41
I00
sg42
I352347773
sg43
Vhttps://pbs.twimg.com/profile_background_images/378800000084705981/711d97621262dd8e0046f1d16a8e052a.jpeg
p915
sg45
I00
sg46
V3C3940
p916
sg48
g913
sg49
g909
sg50
g910
sg51
I645
sg52
VFFFFFF
p917
sg54
V352347773
p918
sg56
V2A2669
p919
sg58
I16
sg59
I00
sg60
I3600
sg61
I4667
sg30
VLife may not be the party we hoped for but while we're here, we may as well dance.
p920
sg63
I797
sg64
g62
sg65
V3DD1CA
p921
sg67
Vhttp://pbs.twimg.com/profile_images/633673842762862592/j_9zh8Of_normal.jpg
p922
sg69
I00
sg70
I00
sg71
Vhttps://pbs.twimg.com/profile_banners/352347773/1398810744
p923
sg73
Vhttp://pbs.twimg.com/profile_background_images/378800000084705981/711d97621262dd8e0046f1d16a8e052a.jpeg
p924
sg75
VNuriaCorbi
p925
sg77
Ven
p926
sg79
I01
sg80
I7399
sg81
VNuria Corbi Carrasco
p927
sg83
I00
sg84
Nsg85
VWed Aug 10 14:00:15 +0000 2011
p928
sg87
I00
sg88
VLondon
p929
sg89
I00
sg90
I00
sg91
I00
ssg92
I00
sg93
g916
sg94
I645
sg95
g917
sg96
g918
sg97
I00
sg98
I16
sg99
I00
sg100
I3600
sg101
I4667
sg102
g920
sg103
I797
sg104
g62
sg105
g921
sg106
g922
sg107
I00
sg108
I00
sg109
g919
sg110
g923
sg111
g924
sg112
g925
sg113
g926
sg114
I00
sg115
I01
sg116
I7399
sg117
g927
sg118
Nsg119
g120
(S'\x07\xdb\x08\n\x0e\x00\x0f\x00\x00\x00'
p930
tp931
Rp932
sg124
g915
sg125
g929
sg126
I00
sg127
I00
sg128
I00
sbsg129
Nsg26
I639026883066228737
sg130
I0
sg131
VTwitter Web Client
p933
sg113
Ven
p934
sg134
g907
sg119
g120
(S'\x07\xdf\t\x02\n/$\x00\x00\x00'
p935
tp936
Rp937
sg36
(dp938
g139
Nsg140
I00
sg141
g904
sg142
I00
sg143
I639026373038895104
sg42
I639026883066228737
sg144
I0
sg145
V<a href="http://twitter.com" rel="nofollow">Twitter Web Client</a>
p939
sg147
I00
sg148
Nsg50
(dp940
g150
(lp941
sg152
(lp942
(dp943
g42
I701024286
sg155
(lp944
I0
aI16
asg54
V701024286
p945
sg75
VBigmouthStrike5
p946
sg81
VErsatzFidei
p947
sasg165
(lp948
sg32
(lp949
ssg168
VBigmouthStrike5
p950
sg170
I701024286
sg171
I0
sg54
V639026883066228737
p951
sg173
I00
sg174
g914
sg175
Nsg176
V701024286
p952
sg77
g934
sg85
VWed Sep 02 10:47:36 +0000 2015
p953
sg179
V639026373038895104
p954
sg181
Nsg182
(dp955
g184
Ven
p956
sg186
Vrecent
p957
sssg188
g955
sg189
Nsg190
g952
sg28
g940
sg191
g954
sg192
g950
sg96
g951
sg193
I00
sg194
Nsg195
I0
sg196
I701024286
sbag1
(g2
g3
Ntp958
Rp959
(dp960
g7
I00
sg8
Nsg9
I00
sg10
VThe road less traveled led to a place none hav seen, to a fantasy nine hav ever known... now niggas know why I live in my mind
p961
sg12
Vhttp://www.twitter.com
p962
sg14
I00
sg15
Nsg16
g1
(g17
g3
Ntp963
Rp964
(dp965
g21
I00
sg22
I01
sg23
I01
sg24
VDDEEF6
p966
sg26
I3026626195
sg27
I00
sg28
(dp967
g30
(dp968
g32
(lp969
sssg34
Vhttps://pbs.twimg.com/profile_images/635171629878800384/3SVy07hq_normal.jpg
p970
sg36
(dp971
g38
I00
sg39
I01
sg40
I01
sg41
I00
sg42
I3026626195
sg43
Vhttps://abs.twimg.com/images/themes/theme1/bg.png
p972
sg45
I00
sg46
V333333
p973
sg48
g970
sg49
g966
sg50
g967
sg51
I684
sg52
VC0DEED
p974
sg54
V3026626195
p975
sg56
VC0DEED
p976
sg58
I5
sg59
I00
sg60
Nsg61
I3075
sg30
VAuthor of THE BLACK DIAMOND POETRY \u000a@FU_JUICE
p977
sg63
I110
sg64
VTexas, USA
p978
sg65
V0084B4
p979
sg67
Vhttp://pbs.twimg.com/profile_images/635171629878800384/3SVy07hq_normal.jpg
p980
sg69
I00
sg70
I00
sg71
Vhttps://pbs.twimg.com/profile_banners/3026626195/1440271691
p981
sg73
Vhttp://abs.twimg.com/images/themes/theme1/bg.png
p982
sg75
VDr_Ev3r
p983
sg77
Ven
p984
sg79
I00
sg80
I617
sg81
VJ.U.I.C.E.
p985
sg83
I00
sg84
Nsg85
VWed Feb 18 16:59:21 +0000 2015
p986
sg87
I00
sg88
Nsg89
I00
sg90
I01
sg91
I00
ssg92
I00
sg93
g973
sg94
I684
sg95
g974
sg96
g975
sg97
I00
sg98
I5
sg99
I00
sg100
Nsg101
I3075
sg102
VAuthor of THE BLACK DIAMOND POETRY \u000a@FU_JUICE
p987
sg103
I110
sg104
g978
sg105
g979
sg106
g980
sg107
I00
sg108
I00
sg109
g976
sg110
g981
sg111
g982
sg112
g983
sg113
g984
sg114
I00
sg115
I00
sg116
I617
sg117
g985
sg118
Nsg119
g120
(S'\x07\xdf\x02\x12\x10;\x15\x00\x00\x00'
p988
tp989
Rp990
sg124
g972
sg125
Nsg126
I00
sg127
I01
sg128
I00
sbsg129
Nsg26
I638941762141057024
sg130
I2
sg131
VTwitter for BlackBerry
p991
sg113
Ven
p992
sg134
g964
sg119
g120
(S'\x07\xdf\t\x02\x05\t\x15\x00\x00\x00'
p993
tp994
Rp995
sg36
(dp996
g139
Nsg140
I00
sg141
g961
sg142
I00
sg143
Nsg42
I638941762141057024
sg144
I2
sg145
V<a href="http://www.twitter.com" rel="nofollow">Twitter for BlackBerry</a>
p997
sg147
I00
sg148
Nsg50
(dp998
g150
(lp999
sg152
(lp1000
sg165
(lp1001
sg32
(lp1002
ssg168
Nsg170
Nsg171
I0
sg54
V638941762141057024
p1003
sg173
I00
sg174
g971
sg175
Nsg176
Nsg77
g992
sg85
VWed Sep 02 05:09:21 +0000 2015
p1004
sg179
Nsg181
Nsg182
(dp1005
g184
Ven
p1006
sg186
Vrecent
p1007
sssg188
g1005
sg189
Nsg190
Nsg28
g998
sg191
Nsg192
Nsg96
g1003
sg193
I00
sg194
Nsg195
I0
sg196
Nsba.