(lp0
ccopy_reg
_reconstructor
p1
(capis.flickr_api
Point
p2
c__builtin__
object
p3
Ntp4
Rp5
(dp6
S'lat'
p7
S'47.358344'
p8
sS'lon'
p9
S'9.611364'
p10
sbag1
(g2
g3
Ntp11
Rp12
(dp13
g7
S'47.385101'
p14
sg9
S'9.278169'
p15
sbag1
(g2
g3
Ntp16
Rp17
(dp18
g7
S'47.555133'
p19
sg9
S'7.598955'
p20
sbag1
(g2
g3
Ntp21
Rp22
(dp23
g7
S'47.396411'
p24
sg9
S'9.598938'
p25
sbag1
(g2
g3
Ntp26
Rp27
(dp28
g7
S'47.398872'
p29
sg9
S'9.628058'
p30
sbag1
(g2
g3
Ntp31
Rp32
(dp33
g7
S'47.561671'
p34
sg9
S'7.623749'
p35
sbag1
(g2
g3
Ntp36
Rp37
(dp38
g7
S'47.558898'
p39
sg9
S'7.627955'
p40
sbag1
(g2
g3
Ntp41
Rp42
(dp43
g7
S'47.622595'
p44
sg9
S'9.268555'
p45
sbag1
(g2
g3
Ntp46
Rp47
(dp48
g7
S'47.558268'
p49
sg9
S'7.619469'
p50
sbag1
(g2
g3
Ntp51
Rp52
(dp53
g7
S'47.556806'
p54
sg9
S'7.613246'
p55
sbag1
(g2
g3
Ntp56
Rp57
(dp58
g7
S'47.555973'
p59
sg9
S'7.609072'
p60
sbag1
(g2
g3
Ntp61
Rp62
(dp63
g7
S'47.556806'
p64
sg9
S'7.613246'
p65
sbag1
(g2
g3
Ntp66
Rp67
(dp68
g7
S'47.481666'
p69
sg9
S'8.225000'
p70
sbag1
(g2
g3
Ntp71
Rp72
(dp73
g7
S'47.485333'
p74
sg9
S'8.215666'
p75
sbag1
(g2
g3
Ntp76
Rp77
(dp78
g7
S'47.555756'
p79
sg9
S'7.607871'
p80
sbag1
(g2
g3
Ntp81
Rp82
(dp83
g7
S'47.561382'
p84
sg9
S'7.625316'
p85
sbag1
(g2
g3
Ntp86
Rp87
(dp88
g7
S'47.561382'
p89
sg9
S'7.625316'
p90
sbag1
(g2
g3
Ntp91
Rp92
(dp93
g7
S'47.478900'
p94
sg9
S'8.216850'
p95
sbag1
(g2
g3
Ntp96
Rp97
(dp98
g7
S'47.478900'
p99
sg9
S'8.216850'
p100
sbag1
(g2
g3
Ntp101
Rp102
(dp103
g7
S'47.478900'
p104
sg9
S'8.216850'
p105
sbag1
(g2
g3
Ntp106
Rp107
(dp108
g7
S'47.478900'
p109
sg9
S'8.216850'
p110
sbag1
(g2
g3
Ntp111
Rp112
(dp113
g7
S'47.484169'
p114
sg9
S'8.206760'
p115
sbag1
(g2
g3
Ntp116
Rp117
(dp118
g7
S'47.484169'
p119
sg9
S'8.206760'
p120
sbag1
(g2
g3
Ntp121
Rp122
(dp123
g7
S'47.484169'
p124
sg9
S'8.206760'
p125
sbag1
(g2
g3
Ntp126
Rp127
(dp128
g7
S'47.557588'
p129
sg9
S'7.596251'
p130
sbag1
(g2
g3
Ntp131
Rp132
(dp133
g7
S'47.557588'
p134
sg9
S'7.596251'
p135
sbag1
(g2
g3
Ntp136
Rp137
(dp138
g7
S'47.408477'
p139
sg9
S'9.651555'
p140
sbag1
(g2
g3
Ntp141
Rp142
(dp143
g7
S'47.402245'
p144
sg9
S'9.628626'
p145
sbag1
(g2
g3
Ntp146
Rp147
(dp148
g7
S'47.401985'
p149
sg9
S'9.632448'
p150
sbag1
(g2
g3
Ntp151
Rp152
(dp153
g7
S'47.402328'
p154
sg9
S'9.632901'
p155
sbag1
(g2
g3
Ntp156
Rp157
(dp158
g7
S'47.401442'
p159
sg9
S'9.632080'
p160
sbag1
(g2
g3
Ntp161
Rp162
(dp163
g7
S'47.404274'
p164
sg9
S'9.630122'
p165
sbag1
(g2
g3
Ntp166
Rp167
(dp168
g7
S'47.403102'
p169
sg9
S'9.631994'
p170
sbag1
(g2
g3
Ntp171
Rp172
(dp173
g7
S'47.402452'
p174
sg9
S'9.628757'
p175
sbag1
(g2
g3
Ntp176
Rp177
(dp178
g7
S'47.398835'
p179
sg9
S'9.628529'
p180
sbag1
(g2
g3
Ntp181
Rp182
(dp183
g7
S'47.575772'
p184
sg9
S'8.577919'
p185
sbag1
(g2
g3
Ntp186
Rp187
(dp188
g7
S'47.407342'
p189
sg9
S'9.638957'
p190
sbag1
(g2
g3
Ntp191
Rp192
(dp193
g7
S'47.233440'
p194
sg9
S'8.416085'
p195
sbag1
(g2
g3
Ntp196
Rp197
(dp198
g7
S'47.372343'
p199
sg9
S'7.998304'
p200
sbag1
(g2
g3
Ntp201
Rp202
(dp203
g7
S'47.579970'
p204
sg9
S'8.577489'
p205
sbag1
(g2
g3
Ntp206
Rp207
(dp208
g7
S'47.577567'
p209
sg9
S'8.578605'
p210
sbag1
(g2
g3
Ntp211
Rp212
(dp213
g7
S'47.576728'
p214
sg9
S'8.575773'
p215
sbag1
(g2
g3
Ntp216
Rp217
(dp218
g7
S'47.560172'
p219
sg9
S'7.590008'
p220
sbag1
(g2
g3
Ntp221
Rp222
(dp223
g7
S'47.559911'
p224
sg9
S'7.588480'
p225
sbag1
(g2
g3
Ntp226
Rp227
(dp228
g7
S'47.221608'
p229
sg9
S'8.413982'
p230
sbag1
(g2
g3
Ntp231
Rp232
(dp233
g7
S'47.370527'
p234
sg9
S'7.996920'
p235
sbag1
(g2
g3
Ntp236
Rp237
(dp238
g7
S'47.213592'
p239
sg9
S'7.786602'
p240
sbag1
(g2
g3
Ntp241
Rp242
(dp243
g7
S'46.683893'
p244
sg9
S'7.851126'
p245
sbag1
(g2
g3
Ntp246
Rp247
(dp248
g7
S'46.686189'
p249
sg9
S'7.850847'
p250
sbag1
(g2
g3
Ntp251
Rp252
(dp253
g7
S'46.686542'
p254
sg9
S'7.851362'
p255
sbag1
(g2
g3
Ntp256
Rp257
(dp258
g7
S'46.685953'
p259
sg9
S'7.850503'
p260
sbag1
(g2
g3
Ntp261
Rp262
(dp263
g7
S'46.684069'
p264
sg9
S'7.850503'
p265
sbag1
(g2
g3
Ntp266
Rp267
(dp268
g7
S'47.559702'
p269
sg9
S'7.588591'
p270
sbag1
(g2
g3
Ntp271
Rp272
(dp273
g7
S'47.555157'
p274
sg9
S'7.603826'
p275
sbag1
(g2
g3
Ntp276
Rp277
(dp278
g7
S'47.233003'
p279
sg9
S'8.417372'
p280
sbag1
(g2
g3
Ntp281
Rp282
(dp283
g7
S'47.233324'
p284
sg9
S'8.415441'
p285
sbag1
(g2
g3
Ntp286
Rp287
(dp288
g7
S'47.233003'
p289
sg9
S'8.417372'
p290
sbag1
(g2
g3
Ntp291
Rp292
(dp293
g7
S'47.233003'
p294
sg9
S'8.417372'
p295
sbag1
(g2
g3
Ntp296
Rp297
(dp298
g7
S'47.233324'
p299
sg9
S'8.415441'
p300
sbag1
(g2
g3
Ntp301
Rp302
(dp303
g7
S'46.450631'
p304
sg9
S'7.719955'
p305
sbag1
(g2
g3
Ntp306
Rp307
(dp308
g7
S'47.085294'
p309
sg9
S'7.588050'
p310
sbag1
(g2
g3
Ntp311
Rp312
(dp313
g7
S'46.947779'
p314
sg9
S'7.457034'
p315
sbag1
(g2
g3
Ntp316
Rp317
(dp318
g7
S'46.947852'
p319
sg9
S'7.457989'
p320
sbag1
(g2
g3
Ntp321
Rp322
(dp323
g7
S'46.945677'
p324
sg9
S'7.448623'
p325
sbag1
(g2
g3
Ntp326
Rp327
(dp328
g7
S'47.080438'
p329
sg9
S'7.585973'
p330
sbag1
(g2
g3
Ntp331
Rp332
(dp333
g7
S'47.448613'
p334
sg9
S'9.656627'
p335
sbag1
(g2
g3
Ntp336
Rp337
(dp338
g7
S'47.661286'
p339
sg9
S'9.180783'
p340
sbag1
(g2
g3
Ntp341
Rp342
(dp343
g7
S'47.660550'
p344
sg9
S'9.181058'
p345
sbag1
(g2
g3
Ntp346
Rp347
(dp348
g7
S'47.555202'
p349
sg9
S'7.601895'
p350
sbag1
(g2
g3
Ntp351
Rp352
(dp353
g7
S'47.555170'
p354
sg9
S'7.603998'
p355
sbag1
(g2
g3
Ntp356
Rp357
(dp358
g7
S'47.555170'
p359
sg9
S'7.603998'
p360
sbag1
(g2
g3
Ntp361
Rp362
(dp363
g7
S'47.555300'
p364
sg9
S'7.598118'
p365
sbag1
(g2
g3
Ntp366
Rp367
(dp368
g7
S'47.555300'
p369
sg9
S'7.598118'
p370
sbag1
(g2
g3
Ntp371
Rp372
(dp373
g7
S'47.563148'
p374
sg9
S'7.585093'
p375
sbag1
(g2
g3
Ntp376
Rp377
(dp378
g7
S'46.494979'
p379
sg9
S'7.673039'
p380
sbag1
(g2
g3
Ntp381
Rp382
(dp383
g7
S'46.493547'
p384
sg9
S'7.669830'
p385
sbag1
(g2
g3
Ntp386
Rp387
(dp388
g7
S'46.494019'
p389
sg9
S'7.670173'
p390
sbag1
(g2
g3
Ntp391
Rp392
(dp393
g7
S'46.493192'
p394
sg9
S'7.670173'
p395
sbag1
(g2
g3
Ntp396
Rp397
(dp398
g7
S'46.492838'
p399
sg9
S'7.670860'
p400
sbag1
(g2
g3
Ntp401
Rp402
(dp403
g7
S'46.494979'
p404
sg9
S'7.673039'
p405
sbag1
(g2
g3
Ntp406
Rp407
(dp408
g7
S'46.492365'
p409
sg9
S'7.670516'
p410
sbag1
(g2
g3
Ntp411
Rp412
(dp413
g7
S'46.494979'
p414
sg9
S'7.673039'
p415
sbag1
(g2
g3
Ntp416
Rp417
(dp418
g7
S'46.493901'
p419
sg9
S'7.669486'
p420
sbag1
(g2
g3
Ntp421
Rp422
(dp423
g7
S'46.494256'
p424
sg9
S'7.670860'
p425
sbag1
(g2
g3
Ntp426
Rp427
(dp428
g7
S'46.493310'
p429
sg9
S'7.670173'
p430
sbag1
(g2
g3
Ntp431
Rp432
(dp433
g7
S'47.375811'
p434
sg9
S'8.534697'
p435
sbag1
(g2
g3
Ntp436
Rp437
(dp438
g7
S'47.377705'
p439
sg9
S'8.537461'
p440
sbag1
(g2
g3
Ntp441
Rp442
(dp443
g7
S'47.375811'
p444
sg9
S'8.534697'
p445
sbag1
(g2
g3
Ntp446
Rp447
(dp448
g7
S'47.375741'
p449
sg9
S'8.535463'
p450
sbag1
(g2
g3
Ntp451
Rp452
(dp453
g7
S'47.377652'
p454
sg9
S'8.533558'
p455
sbag1
(g2
g3
Ntp456
Rp457
(dp458
g7
S'47.076440'
p459
sg9
S'7.590072'
p460
sbag1
(g2
g3
Ntp461
Rp462
(dp463
g7
S'46.950167'
p464
sg9
S'7.448333'
p465
sbag1
(g2
g3
Ntp466
Rp467
(dp468
g7
S'46.555437'
p469
sg9
S'7.900886'
p470
sbag1
(g2
g3
Ntp471
Rp472
(dp473
g7
S'46.173530'
p474
sg9
S'8.818244'
p475
sbag1
(g2
g3
Ntp476
Rp477
(dp478
g7
S'46.118480'
p479
sg9
S'8.710398'
p480
sbag1
(g2
g3
Ntp481
Rp482
(dp483
g7
S'46.148948'
p484
sg9
S'8.775801'
p485
sbag1
(g2
g3
Ntp486
Rp487
(dp488
g7
S'47.555763'
p489
sg9
S'7.601208'
p490
sbag1
(g2
g3
Ntp491
Rp492
(dp493
g7
S'47.555923'
p494
sg9
S'7.610435'
p495
sbag1
(g2
g3
Ntp496
Rp497
(dp498
g7
S'47.559963'
p499
sg9
S'7.626292'
p500
sbag1
(g2
g3
Ntp501
Rp502
(dp503
g7
S'47.555930'
p504
sg9
S'7.610521'
p505
sbag1
(g2
g3
Ntp506
Rp507
(dp508
g7
S'47.555734'
p509
sg9
S'7.609469'
p510
sbag1
(g2
g3
Ntp511
Rp512
(dp513
g7
S'47.555973'
p514
sg9
S'7.610521'
p515
sbag1
(g2
g3
Ntp516
Rp517
(dp518
g7
S'47.574500'
p519
sg9
S'7.600333'
p520
sbag1
(g2
g3
Ntp521
Rp522
(dp523
g7
S'47.574500'
p524
sg9
S'7.600333'
p525
sbag1
(g2
g3
Ntp526
Rp527
(dp528
g7
S'47.574500'
p529
sg9
S'7.601333'
p530
sbag1
(g2
g3
Ntp531
Rp532
(dp533
g7
S'47.575333'
p534
sg9
S'7.609333'
p535
sbag1
(g2
g3
Ntp536
Rp537
(dp538
g7
S'47.575500'
p539
sg9
S'7.611499'
p540
sbag1
(g2
g3
Ntp541
Rp542
(dp543
g7
S'47.575666'
p544
sg9
S'7.616499'
p545
sbag1
(g2
g3
Ntp546
Rp547
(dp548
g7
S'47.576666'
p549
sg9
S'7.618333'
p550
sbag1
(g2
g3
Ntp551
Rp552
(dp553
g7
S'47.575666'
p554
sg9
S'7.607833'
p555
sbag1
(g2
g3
Ntp556
Rp557
(dp558
g7
S'47.340618'
p559
sg9
S'9.527137'
p560
sbag1
(g2
g3
Ntp561
Rp562
(dp563
g7
S'47.336823'
p564
sg9
S'9.529148'
p565
sbag1
(g2
g3
Ntp566
Rp567
(dp568
g7
S'47.336932'
p569
sg9
S'9.528955'
p570
sbag1
(g2
g3
Ntp571
Rp572
(dp573
g7
S'46.324527'
p574
sg9
S'10.056610'
p575
sbag1
(g2
g3
Ntp576
Rp577
(dp578
g7
S'46.168299'
p579
sg9
S'8.801507'
p580
sbag1
(g2
g3
Ntp581
Rp582
(dp583
g7
S'46.168299'
p584
sg9
S'8.801507'
p585
sbag1
(g2
g3
Ntp586
Rp587
(dp588
g7
S'47.036577'
p589
sg9
S'7.635390'
p590
sbag1
(g2
g3
Ntp591
Rp592
(dp593
g7
S'47.036577'
p594
sg9
S'7.635390'
p595
sbag1
(g2
g3
Ntp596
Rp597
(dp598
g7
S'47.036577'
p599
sg9
S'7.635390'
p600
sbag1
(g2
g3
Ntp601
Rp602
(dp603
g7
S'47.036577'
p604
sg9
S'7.635390'
p605
sbag1
(g2
g3
Ntp606
Rp607
(dp608
g7
S'47.036577'
p609
sg9
S'7.635390'
p610
sbag1
(g2
g3
Ntp611
Rp612
(dp613
g7
S'47.036577'
p614
sg9
S'7.635390'
p615
sbag1
(g2
g3
Ntp616
Rp617
(dp618
g7
S'47.036577'
p619
sg9
S'7.635390'
p620
sbag1
(g2
g3
Ntp621
Rp622
(dp623
g7
S'47.036577'
p624
sg9
S'7.635390'
p625
sbag1
(g2
g3
Ntp626
Rp627
(dp628
g7
S'46.950350'
p629
sg9
S'7.449513'
p630
sbag1
(g2
g3
Ntp631
Rp632
(dp633
g7
S'47.223998'
p634
sg9
S'8.461704'
p635
sbag1
(g2
g3
Ntp636
Rp637
(dp638
g7
S'47.392292'
p639
sg9
S'8.521909'
p640
sbag1
(g2
g3
Ntp641
Rp642
(dp643
g7
S'47.360324'
p644
sg9
S'8.920683'
p645
sbag1
(g2
g3
Ntp646
Rp647
(dp648
g7
S'47.371500'
p649
sg9
S'8.864936'
p650
sbag1
(g2
g3
Ntp651
Rp652
(dp653
g7
S'47.386321'
p654
sg9
S'8.856868'
p655
sbag1
(g2
g3
Ntp656
Rp657
(dp658
g7
S'47.212018'
p659
sg9
S'7.571210'
p660
sbag1
(g2
g3
Ntp661
Rp662
(dp663
g7
S'47.209948'
p664
sg9
S'7.573056'
p665
sbag1
(g2
g3
Ntp666
Rp667
(dp668
g7
S'47.032153'
p669
sg9
S'8.435322'
p670
sbag1
(g2
g3
Ntp671
Rp672
(dp673
g7
S'47.031747'
p674
sg9
S'8.433251'
p675
sbag1
(g2
g3
Ntp676
Rp677
(dp678
g7
S'47.560817'
p679
sg9
S'7.590265'
p680
sbag1
(g2
g3
Ntp681
Rp682
(dp683
g7
S'46.950350'
p684
sg9
S'7.449513'
p685
sbag1
(g2
g3
Ntp686
Rp687
(dp688
g7
S'46.950350'
p689
sg9
S'7.449513'
p690
sbag1
(g2
g3
Ntp691
Rp692
(dp693
g7
S'46.950350'
p694
sg9
S'7.449513'
p695
sbag1
(g2
g3
Ntp696
Rp697
(dp698
g7
S'46.950350'
p699
sg9
S'7.449513'
p700
sbag1
(g2
g3
Ntp701
Rp702
(dp703
g7
S'46.950350'
p704
sg9
S'7.449513'
p705
sbag1
(g2
g3
Ntp706
Rp707
(dp708
g7
S'47.560498'
p709
sg9
S'7.590265'
p710
sbag1
(g2
g3
Ntp711
Rp712
(dp713
g7
S'47.560122'
p714
sg9
S'7.589492'
p715
sbag1
(g2
g3
Ntp716
Rp717
(dp718
g7
S'46.945940'
p719
sg9
S'7.448387'
p720
sbag1
(g2
g3
Ntp721
Rp722
(dp723
g7
S'46.945940'
p724
sg9
S'7.448387'
p725
sbag1
(g2
g3
Ntp726
Rp727
(dp728
g7
S'46.945940'
p729
sg9
S'7.448387'
p730
sbag1
(g2
g3
Ntp731
Rp732
(dp733
g7
S'47.182450'
p734
sg9
S'7.851233'
p735
sbag1
(g2
g3
Ntp736
Rp737
(dp738
g7
S'47.182450'
p739
sg9
S'7.851233'
p740
sbag1
(g2
g3
Ntp741
Rp742
(dp743
g7
S'47.182450'
p744
sg9
S'7.851233'
p745
sbag1
(g2
g3
Ntp746
Rp747
(dp748
g7
S'47.182450'
p749
sg9
S'7.851233'
p750
sbag1
(g2
g3
Ntp751
Rp752
(dp753
g7
S'47.182450'
p754
sg9
S'7.851233'
p755
sbag1
(g2
g3
Ntp756
Rp757
(dp758
g7
S'47.182450'
p759
sg9
S'7.851233'
p760
sbag1
(g2
g3
Ntp761
Rp762
(dp763
g7
S'47.182450'
p764
sg9
S'7.851233'
p765
sbag1
(g2
g3
Ntp766
Rp767
(dp768
g7
S'47.182450'
p769
sg9
S'7.851233'
p770
sbag1
(g2
g3
Ntp771
Rp772
(dp773
g7
S'47.182450'
p774
sg9
S'7.851233'
p775
sbag1
(g2
g3
Ntp776
Rp777
(dp778
g7
S'47.182450'
p779
sg9
S'7.851233'
p780
sbag1
(g2
g3
Ntp781
Rp782
(dp783
g7
S'47.182450'
p784
sg9
S'7.851233'
p785
sbag1
(g2
g3
Ntp786
Rp787
(dp788
g7
S'47.182450'
p789
sg9
S'7.851233'
p790
sbag1
(g2
g3
Ntp791
Rp792
(dp793
g7
S'47.182450'
p794
sg9
S'7.851233'
p795
sbag1
(g2
g3
Ntp796
Rp797
(dp798
g7
S'47.451344'
p799
sg9
S'8.402223'
p800
sbag1
(g2
g3
Ntp801
Rp802
(dp803
g7
S'47.451344'
p804
sg9
S'8.402223'
p805
sbag1
(g2
g3
Ntp806
Rp807
(dp808
g7
S'47.451344'
p809
sg9
S'8.402223'
p810
sbag1
(g2
g3
Ntp811
Rp812
(dp813
g7
S'47.451344'
p814
sg9
S'8.402223'
p815
sbag1
(g2
g3
Ntp816
Rp817
(dp818
g7
S'47.350803'
p819
sg9
S'8.340339'
p820
sbag1
(g2
g3
Ntp821
Rp822
(dp823
g7
S'47.350803'
p824
sg9
S'8.340339'
p825
sbag1
(g2
g3
Ntp826
Rp827
(dp828
g7
S'47.127833'
p829
sg9
S'7.233445'
p830
sbag1
(g2
g3
Ntp831
Rp832
(dp833
g7
S'47.132549'
p834
sg9
S'7.234926'
p835
sbag1
(g2
g3
Ntp836
Rp837
(dp838
g7
S'47.123048'
p839
sg9
S'7.237350'
p840
sbag1
(g2
g3
Ntp841
Rp842
(dp843
g7
S'47.127833'
p844
sg9
S'7.233445'
p845
sbag1
(g2
g3
Ntp846
Rp847
(dp848
g7
S'47.119964'
p849
sg9
S'7.235827'
p850
sbag1
(g2
g3
Ntp851
Rp852
(dp853
g7
S'47.124351'
p854
sg9
S'7.230913'
p855
sbag1
(g2
g3
Ntp856
Rp857
(dp858
g7
S'47.122037'
p859
sg9
S'7.238144'
p860
sbag1
(g2
g3
Ntp861
Rp862
(dp863
g7
S'47.122665'
p864
sg9
S'7.237125'
p865
sbag1
(g2
g3
Ntp866
Rp867
(dp868
g7
S'47.125527'
p869
sg9
S'7.231729'
p870
sbag1
(g2
g3
Ntp871
Rp872
(dp873
g7
S'47.132549'
p874
sg9
S'7.234926'
p875
sbag1
(g2
g3
Ntp876
Rp877
(dp878
g7
S'47.133279'
p879
sg9
S'7.236514'
p880
sbag1
(g2
g3
Ntp881
Rp882
(dp883
g7
S'47.123716'
p884
sg9
S'7.228553'
p885
sbag1
(g2
g3
Ntp886
Rp887
(dp888
g7
S'47.122256'
p889
sg9
S'7.236964'
p890
sbag1
(g2
g3
Ntp891
Rp892
(dp893
g7
S'47.121369'
p894
sg9
S'7.241288'
p895
sbag1
(g2
g3
Ntp896
Rp897
(dp898
g7
S'47.132549'
p899
sg9
S'7.234926'
p900
sbag1
(g2
g3
Ntp901
Rp902
(dp903
g7
S'47.121139'
p904
sg9
S'7.236406'
p905
sbag1
(g2
g3
Ntp906
Rp907
(dp908
g7
S'47.122665'
p909
sg9
S'7.237125'
p910
sbag1
(g2
g3
Ntp911
Rp912
(dp913
g7
S'47.123716'
p914
sg9
S'7.228553'
p915
sbag1
(g2
g3
Ntp916
Rp917
(dp918
g7
S'47.123048'
p919
sg9
S'7.237350'
p920
sbag1
(g2
g3
Ntp921
Rp922
(dp923
g7
S'47.123716'
p924
sg9
S'7.228553'
p925
sbag1
(g2
g3
Ntp926
Rp927
(dp928
g7
S'47.320425'
p929
sg9
S'7.898097'
p930
sbag1
(g2
g3
Ntp931
Rp932
(dp933
g7
S'47.320425'
p934
sg9
S'7.898097'
p935
sbag1
(g2
g3
Ntp936
Rp937
(dp938
g7
S'47.320425'
p939
sg9
S'7.898097'
p940
sbag1
(g2
g3
Ntp941
Rp942
(dp943
g7
S'47.320425'
p944
sg9
S'7.898097'
p945
sbag1
(g2
g3
Ntp946
Rp947
(dp948
g7
S'47.320425'
p949
sg9
S'7.898097'
p950
sbag1
(g2
g3
Ntp951
Rp952
(dp953
g7
S'47.320425'
p954
sg9
S'7.898097'
p955
sbag1
(g2
g3
Ntp956
Rp957
(dp958
g7
S'47.346587'
p959
sg9
S'7.905435'
p960
sbag1
(g2
g3
Ntp961
Rp962
(dp963
g7
S'47.346587'
p964
sg9
S'7.905435'
p965
sbag1
(g2
g3
Ntp966
Rp967
(dp968
g7
S'47.346587'
p969
sg9
S'7.905435'
p970
sbag1
(g2
g3
Ntp971
Rp972
(dp973
g7
S'47.346587'
p974
sg9
S'7.905435'
p975
sbag1
(g2
g3
Ntp976
Rp977
(dp978
g7
S'47.349436'
p979
sg9
S'7.907667'
p980
sbag1
(g2
g3
Ntp981
Rp982
(dp983
g7
S'47.349436'
p984
sg9
S'7.907667'
p985
sbag1
(g2
g3
Ntp986
Rp987
(dp988
g7
S'47.349436'
p989
sg9
S'7.907667'
p990
sbag1
(g2
g3
Ntp991
Rp992
(dp993
g7
S'47.352009'
p994
sg9
S'7.906036'
p995
sbag1
(g2
g3
Ntp996
Rp997
(dp998
g7
S'47.352009'
p999
sg9
S'7.906036'
p1000
sbag1
(g2
g3
Ntp1001
Rp1002
(dp1003
g7
S'47.350861'
p1004
sg9
S'7.904770'
p1005
sbag1
(g2
g3
Ntp1006
Rp1007
(dp1008
g7
S'47.350861'
p1009
sg9
S'7.904770'
p1010
sbag1
(g2
g3
Ntp1011
Rp1012
(dp1013
g7
S'47.350861'
p1014
sg9
S'7.904770'
p1015
sbag1
(g2
g3
Ntp1016
Rp1017
(dp1018
g7
S'47.350861'
p1019
sg9
S'7.904770'
p1020
sbag1
(g2
g3
Ntp1021
Rp1022
(dp1023
g7
S'47.352009'
p1024
sg9
S'7.906036'
p1025
sbag1
(g2
g3
Ntp1026
Rp1027
(dp1028
g7
S'47.352009'
p1029
sg9
S'7.906036'
p1030
sbag1
(g2
g3
Ntp1031
Rp1032
(dp1033
g7
S'47.352009'
p1034
sg9
S'7.906036'
p1035
sbag1
(g2
g3
Ntp1036
Rp1037
(dp1038
g7
S'47.352009'
p1039
sg9
S'7.906036'
p1040
sbag1
(g2
g3
Ntp1041
Rp1042
(dp1043
g7
S'47.351384'
p1044
sg9
S'7.905607'
p1045
sbag1
(g2
g3
Ntp1046
Rp1047
(dp1048
g7
S'47.349552'
p1049
sg9
S'7.904963'
p1050
sbag1
(g2
g3
Ntp1051
Rp1052
(dp1053
g7
S'47.352111'
p1054
sg9
S'7.905156'
p1055
sbag1
(g2
g3
Ntp1056
Rp1057
(dp1058
g7
S'47.349552'
p1059
sg9
S'7.904963'
p1060
sbag1
(g2
g3
Ntp1061
Rp1062
(dp1063
g7
S'47.351740'
p1064
sg9
S'7.906165'
p1065
sbag1
(g2
g3
Ntp1066
Rp1067
(dp1068
g7
S'47.351221'
p1069
sg9
S'7.906047'
p1070
sbag1
(g2
g3
Ntp1071
Rp1072
(dp1073
g7
S'47.349596'
p1074
sg9
S'7.905757'
p1075
sbag1
(g2
g3
Ntp1076
Rp1077
(dp1078
g7
S'47.349596'
p1079
sg9
S'7.905757'
p1080
sbag1
(g2
g3
Ntp1081
Rp1082
(dp1083
g7
S'47.349596'
p1084
sg9
S'7.905757'
p1085
sbag1
(g2
g3
Ntp1086
Rp1087
(dp1088
g7
S'47.352009'
p1089
sg9
S'7.906036'
p1090
sbag1
(g2
g3
Ntp1091
Rp1092
(dp1093
g7
S'47.352009'
p1094
sg9
S'7.906036'
p1095
sbag1
(g2
g3
Ntp1096
Rp1097
(dp1098
g7
S'47.351384'
p1099
sg9
S'7.905607'
p1100
sbag1
(g2
g3
Ntp1101
Rp1102
(dp1103
g7
S'47.349552'
p1104
sg9
S'7.904963'
p1105
sbag1
(g2
g3
Ntp1106
Rp1107
(dp1108
g7
S'47.349182'
p1109
sg9
S'7.904105'
p1110
sbag1
(g2
g3
Ntp1111
Rp1112
(dp1113
g7
S'47.349552'
p1114
sg9
S'7.904963'
p1115
sbag1
(g2
g3
Ntp1116
Rp1117
(dp1118
g7
S'47.349552'
p1119
sg9
S'7.904963'
p1120
sbag1
(g2
g3
Ntp1121
Rp1122
(dp1123
g7
S'47.349552'
p1124
sg9
S'7.904963'
p1125
sbag1
(g2
g3
Ntp1126
Rp1127
(dp1128
g7
S'47.351940'
p1129
sg9
S'7.906422'
p1130
sbag1
(g2
g3
Ntp1131
Rp1132
(dp1133
g7
S'47.351940'
p1134
sg9
S'7.906422'
p1135
sbag1
(g2
g3
Ntp1136
Rp1137
(dp1138
g7
S'47.350861'
p1139
sg9
S'7.904770'
p1140
sbag1
(g2
g3
Ntp1141
Rp1142
(dp1143
g7
S'47.350861'
p1144
sg9
S'7.904770'
p1145
sbag1
(g2
g3
Ntp1146
Rp1147
(dp1148
g7
S'47.352009'
p1149
sg9
S'7.906036'
p1150
sbag1
(g2
g3
Ntp1151
Rp1152
(dp1153
g7
S'47.352009'
p1154
sg9
S'7.906036'
p1155
sbag1
(g2
g3
Ntp1156
Rp1157
(dp1158
g7
S'47.350861'
p1159
sg9
S'7.904770'
p1160
sbag1
(g2
g3
Ntp1161
Rp1162
(dp1163
g7
S'47.351940'
p1164
sg9
S'7.906422'
p1165
sbag1
(g2
g3
Ntp1166
Rp1167
(dp1168
g7
S'47.351940'
p1169
sg9
S'7.906422'
p1170
sbag1
(g2
g3
Ntp1171
Rp1172
(dp1173
g7
S'47.351940'
p1174
sg9
S'7.906422'
p1175
sbag1
(g2
g3
Ntp1176
Rp1177
(dp1178
g7
S'47.347026'
p1179
sg9
S'7.906036'
p1180
sbag1
(g2
g3
Ntp1181
Rp1182
(dp1183
g7
S'47.351631'
p1184
sg9
S'7.906272'
p1185
sbag1
(g2
g3
Ntp1186
Rp1187
(dp1188
g7
S'47.351631'
p1189
sg9
S'7.906272'
p1190
sbag1
(g2
g3
Ntp1191
Rp1192
(dp1193
g7
S'47.565921'
p1194
sg9
S'7.586762'
p1195
sbag1
(g2
g3
Ntp1196
Rp1197
(dp1198
g7
S'46.864526'
p1199
sg9
S'7.365034'
p1200
sbag1
(g2
g3
Ntp1201
Rp1202
(dp1203
g7
S'46.863180'
p1204
sg9
S'7.359917'
p1205
sbag1
(g2
g3
Ntp1206
Rp1207
(dp1208
g7
S'46.863180'
p1209
sg9
S'7.359917'
p1210
sbag1
(g2
g3
Ntp1211
Rp1212
(dp1213
g7
S'46.863136'
p1214
sg9
S'7.359981'
p1215
sbag1
(g2
g3
Ntp1216
Rp1217
(dp1218
g7
S'46.864365'
p1219
sg9
S'7.364680'
p1220
sbag1
(g2
g3
Ntp1221
Rp1222
(dp1223
g7
S'46.690016'
p1224
sg9
S'7.866543'
p1225
sbag1
(g2
g3
Ntp1226
Rp1227
(dp1228
g7
S'46.974915'
p1229
sg9
S'8.762798'
p1230
sbag1
(g2
g3
Ntp1231
Rp1232
(dp1233
g7
S'46.975443'
p1234
sg9
S'8.756833'
p1235
sbag1
(g2
g3
Ntp1236
Rp1237
(dp1238
g7
S'46.974484'
p1239
sg9
S'8.757069'
p1240
sbag1
(g2
g3
Ntp1241
Rp1242
(dp1243
g7
S'46.974352'
p1244
sg9
S'8.757433'
p1245
sbag1
(g2
g3
Ntp1246
Rp1247
(dp1248
g7
S'46.974864'
p1249
sg9
S'8.755867'
p1250
sbag1
(g2
g3
Ntp1251
Rp1252
(dp1253
g7
S'46.760635'
p1254
sg9
S'7.626496'
p1255
sbag1
(g2
g3
Ntp1256
Rp1257
(dp1258
g7
S'47.171365'
p1259
sg9
S'7.559108'
p1260
sbag1
(g2
g3
Ntp1261
Rp1262
(dp1263
g7
S'47.171365'
p1264
sg9
S'7.559108'
p1265
sbag1
(g2
g3
Ntp1266
Rp1267
(dp1268
g7
S'47.171365'
p1269
sg9
S'7.559108'
p1270
sbag1
(g2
g3
Ntp1271
Rp1272
(dp1273
g7
S'47.171365'
p1274
sg9
S'7.559108'
p1275
sbag1
(g2
g3
Ntp1276
Rp1277
(dp1278
g7
S'47.171365'
p1279
sg9
S'7.559108'
p1280
sbag1
(g2
g3
Ntp1281
Rp1282
(dp1283
g7
S'47.171365'
p1284
sg9
S'7.559108'
p1285
sbag1
(g2
g3
Ntp1286
Rp1287
(dp1288
g7
S'47.171365'
p1289
sg9
S'7.559108'
p1290
sbag1
(g2
g3
Ntp1291
Rp1292
(dp1293
g7
S'47.171365'
p1294
sg9
S'7.559108'
p1295
sbag1
(g2
g3
Ntp1296
Rp1297
(dp1298
g7
S'47.061118'
p1299
sg9
S'8.310470'
p1300
sbag1
(g2
g3
Ntp1301
Rp1302
(dp1303
g7
S'47.061118'
p1304
sg9
S'8.310470'
p1305
sbag1
(g2
g3
Ntp1306
Rp1307
(dp1308
g7
S'47.055417'
p1309
sg9
S'8.311672'
p1310
sbag1
(g2
g3
Ntp1311
Rp1312
(dp1313
g7
S'47.055417'
p1314
sg9
S'8.311672'
p1315
sbag1
(g2
g3
Ntp1316
Rp1317
(dp1318
g7
S'47.055417'
p1319
sg9
S'8.311672'
p1320
sbag1
(g2
g3
Ntp1321
Rp1322
(dp1323
g7
S'47.055417'
p1324
sg9
S'8.311672'
p1325
sbag1
(g2
g3
Ntp1326
Rp1327
(dp1328
g7
S'47.055417'
p1329
sg9
S'8.311672'
p1330
sbag1
(g2
g3
Ntp1331
Rp1332
(dp1333
g7
S'47.055417'
p1334
sg9
S'8.311672'
p1335
sbag1
(g2
g3
Ntp1336
Rp1337
(dp1338
g7
S'47.055417'
p1339
sg9
S'8.311672'
p1340
sbag1
(g2
g3
Ntp1341
Rp1342
(dp1343
g7
S'47.055417'
p1344
sg9
S'8.311672'
p1345
sbag1
(g2
g3
Ntp1346
Rp1347
(dp1348
g7
S'47.055417'
p1349
sg9
S'8.311672'
p1350
sbag1
(g2
g3
Ntp1351
Rp1352
(dp1353
g7
S'47.055417'
p1354
sg9
S'8.311672'
p1355
sbag1
(g2
g3
Ntp1356
Rp1357
(dp1358
g7
S'47.055417'
p1359
sg9
S'8.311672'
p1360
sbag1
(g2
g3
Ntp1361
Rp1362
(dp1363
g7
S'47.055417'
p1364
sg9
S'8.311672'
p1365
sbag1
(g2
g3
Ntp1366
Rp1367
(dp1368
g7
S'47.055417'
p1369
sg9
S'8.311672'
p1370
sbag1
(g2
g3
Ntp1371
Rp1372
(dp1373
g7
S'47.055417'
p1374
sg9
S'8.311672'
p1375
sbag1
(g2
g3
Ntp1376
Rp1377
(dp1378
g7
S'47.055417'
p1379
sg9
S'8.311672'
p1380
sbag1
(g2
g3
Ntp1381
Rp1382
(dp1383
g7
S'47.055417'
p1384
sg9
S'8.311672'
p1385
sbag1
(g2
g3
Ntp1386
Rp1387
(dp1388
g7
S'47.055417'
p1389
sg9
S'8.311672'
p1390
sbag1
(g2
g3
Ntp1391
Rp1392
(dp1393
g7
S'47.055417'
p1394
sg9
S'8.311672'
p1395
sbag1
(g2
g3
Ntp1396
Rp1397
(dp1398
g7
S'47.055417'
p1399
sg9
S'8.311672'
p1400
sbag1
(g2
g3
Ntp1401
Rp1402
(dp1403
g7
S'47.055417'
p1404
sg9
S'8.311672'
p1405
sbag1
(g2
g3
Ntp1406
Rp1407
(dp1408
g7
S'47.055417'
p1409
sg9
S'8.311672'
p1410
sbag1
(g2
g3
Ntp1411
Rp1412
(dp1413
g7
S'47.055417'
p1414
sg9
S'8.311672'
p1415
sbag1
(g2
g3
Ntp1416
Rp1417
(dp1418
g7
S'47.055417'
p1419
sg9
S'8.311672'
p1420
sbag1
(g2
g3
Ntp1421
Rp1422
(dp1423
g7
S'47.055417'
p1424
sg9
S'8.311672'
p1425
sbag1
(g2
g3
Ntp1426
Rp1427
(dp1428
g7
S'47.055417'
p1429
sg9
S'8.311672'
p1430
sbag1
(g2
g3
Ntp1431
Rp1432
(dp1433
g7
S'47.055417'
p1434
sg9
S'8.311672'
p1435
sbag1
(g2
g3
Ntp1436
Rp1437
(dp1438
g7
S'47.055417'
p1439
sg9
S'8.311672'
p1440
sbag1
(g2
g3
Ntp1441
Rp1442
(dp1443
g7
S'47.055417'
p1444
sg9
S'8.311672'
p1445
sbag1
(g2
g3
Ntp1446
Rp1447
(dp1448
g7
S'47.055417'
p1449
sg9
S'8.311672'
p1450
sbag1
(g2
g3
Ntp1451
Rp1452
(dp1453
g7
S'47.055417'
p1454
sg9
S'8.311672'
p1455
sbag1
(g2
g3
Ntp1456
Rp1457
(dp1458
g7
S'47.181655'
p1459
sg9
S'7.563239'
p1460
sbag1
(g2
g3
Ntp1461
Rp1462
(dp1463
g7
S'47.181655'
p1464
sg9
S'7.563239'
p1465
sbag1
(g2
g3
Ntp1466
Rp1467
(dp1468
g7
S'47.181655'
p1469
sg9
S'7.563239'
p1470
sbag1
(g2
g3
Ntp1471
Rp1472
(dp1473
g7
S'47.181655'
p1474
sg9
S'7.563239'
p1475
sbag1
(g2
g3
Ntp1476
Rp1477
(dp1478
g7
S'47.182945'
p1479
sg9
S'7.562144'
p1480
sbag1
(g2
g3
Ntp1481
Rp1482
(dp1483
g7
S'47.182945'
p1484
sg9
S'7.562144'
p1485
sbag1
(g2
g3
Ntp1486
Rp1487
(dp1488
g7
S'47.182945'
p1489
sg9
S'7.562144'
p1490
sbag1
(g2
g3
Ntp1491
Rp1492
(dp1493
g7
S'47.391086'
p1494
sg9
S'9.646854'
p1495
sbag1
(g2
g3
Ntp1496
Rp1497
(dp1498
g7
S'47.391086'
p1499
sg9
S'9.646854'
p1500
sbag1
(g2
g3
Ntp1501
Rp1502
(dp1503
g7
S'47.171365'
p1504
sg9
S'7.559108'
p1505
sbag1
(g2
g3
Ntp1506
Rp1507
(dp1508
g7
S'47.171365'
p1509
sg9
S'7.559108'
p1510
sbag1
(g2
g3
Ntp1511
Rp1512
(dp1513
g7
S'47.171365'
p1514
sg9
S'7.559108'
p1515
sbag1
(g2
g3
Ntp1516
Rp1517
(dp1518
g7
S'47.171365'
p1519
sg9
S'7.559108'
p1520
sbag1
(g2
g3
Ntp1521
Rp1522
(dp1523
g7
S'47.171365'
p1524
sg9
S'7.559108'
p1525
sbag1
(g2
g3
Ntp1526
Rp1527
(dp1528
g7
S'47.171365'
p1529
sg9
S'7.559108'
p1530
sbag1
(g2
g3
Ntp1531
Rp1532
(dp1533
g7
S'47.171365'
p1534
sg9
S'7.559108'
p1535
sbag1
(g2
g3
Ntp1536
Rp1537
(dp1538
g7
S'47.171365'
p1539
sg9
S'7.559108'
p1540
sbag1
(g2
g3
Ntp1541
Rp1542
(dp1543
g7
S'47.171365'
p1544
sg9
S'7.559108'
p1545
sbag1
(g2
g3
Ntp1546
Rp1547
(dp1548
g7
S'47.171365'
p1549
sg9
S'7.559108'
p1550
sbag1
(g2
g3
Ntp1551
Rp1552
(dp1553
g7
S'47.171365'
p1554
sg9
S'7.559108'
p1555
sbag1
(g2
g3
Ntp1556
Rp1557
(dp1558
g7
S'47.391086'
p1559
sg9
S'9.646854'
p1560
sbag1
(g2
g3
Ntp1561
Rp1562
(dp1563
g7
S'47.390485'
p1564
sg9
S'9.646479'
p1565
sbag1
(g2
g3
Ntp1566
Rp1567
(dp1568
g7
S'47.391086'
p1569
sg9
S'9.646854'
p1570
sbag1
(g2
g3
Ntp1571
Rp1572
(dp1573
g7
S'47.391086'
p1574
sg9
S'9.646854'
p1575
sbag1
(g2
g3
Ntp1576
Rp1577
(dp1578
g7
S'47.391086'
p1579
sg9
S'9.646854'
p1580
sbag1
(g2
g3
Ntp1581
Rp1582
(dp1583
g7
S'46.689250'
p1584
sg9
S'7.688198'
p1585
sbag1
(g2
g3
Ntp1586
Rp1587
(dp1588
g7
S'46.689250'
p1589
sg9
S'7.688198'
p1590
sbag1
(g2
g3
Ntp1591
Rp1592
(dp1593
g7
S'46.689250'
p1594
sg9
S'7.688198'
p1595
sbag1
(g2
g3
Ntp1596
Rp1597
(dp1598
g7
S'46.689250'
p1599
sg9
S'7.688198'
p1600
sbag1
(g2
g3
Ntp1601
Rp1602
(dp1603
g7
S'46.689250'
p1604
sg9
S'7.688198'
p1605
sbag1
(g2
g3
Ntp1606
Rp1607
(dp1608
g7
S'46.689250'
p1609
sg9
S'7.688198'
p1610
sbag1
(g2
g3
Ntp1611
Rp1612
(dp1613
g7
S'46.689250'
p1614
sg9
S'7.688198'
p1615
sbag1
(g2
g3
Ntp1616
Rp1617
(dp1618
g7
S'46.689250'
p1619
sg9
S'7.688198'
p1620
sbag1
(g2
g3
Ntp1621
Rp1622
(dp1623
g7
S'46.689250'
p1624
sg9
S'7.688198'
p1625
sbag1
(g2
g3
Ntp1626
Rp1627
(dp1628
g7
S'46.689250'
p1629
sg9
S'7.688198'
p1630
sbag1
(g2
g3
Ntp1631
Rp1632
(dp1633
g7
S'46.689250'
p1634
sg9
S'7.688198'
p1635
sbag1
(g2
g3
Ntp1636
Rp1637
(dp1638
g7
S'46.689250'
p1639
sg9
S'7.688198'
p1640
sba.