ccopy_reg
_reconstructor
p0
(ctweepy.models
Status
p1
c__builtin__
object
p2
Ntp3
Rp4
(dp5
S'favorited'
p6
I00
sS'contributors'
p7
NsS'truncated'
p8
I00
sS'text'
p9
V\u0627\u062e\u0644\u0642 \u0644\u064a \u064a\u0627 \u0627\u0644\u0644\u0647 \u0645\u0646 \u0627\u0644\u0635\u0628\u0631 \u0635\u0628\u0631\u0627\u064b \u0648\u0645\u0646 \u0627\u0644\u062d\u0632\u0646 \u0641\u0631\u062d\u0627\u064b\u060c\u0648\u0645\u0646 \u0627\u0644\u0625\u0646\u0643\u0633\u0627\u0631 \u062e\u064a\u0631\u0627\u064b\U0001f499\U0001f499. @ Lake Of Zurich https://t.co/UFljTj9h5x
p10
sS'source_url'
p11
Vhttp://instagram.com
p12
sS'possibly_sensitive'
p13
I00
sS'in_reply_to_status_id'
p14
NsS'user'
p15
g0
(ctweepy.models
User
p16
g2
Ntp17
Rp18
(dp19
S'follow_request_sent'
p20
NsS'profile_use_background_image'
p21
I01
sS'profile_sidebar_fill_color'
p22
VEFEFEF
p23
sS'id'
p24
I482894207
sS'verified'
p25
I00
sS'profile_image_url_https'
p26
Vhttps://pbs.twimg.com/profile_images/615671054472581120/VJrLz8Lq_normal.jpg
p27
sS'_json'
p28
(dp29
Vfollow_request_sent
p30
NsVprofile_use_background_image
p31
I01
sVdefault_profile_image
p32
I00
sVid
p33
I482894207
sVverified
p34
I00
sVprofile_image_url_https
p35
g27
sVprofile_sidebar_fill_color
p36
g23
sVprofile_text_color
p37
V333333
p38
sVfollowers_count
p39
I680
sVprofile_sidebar_border_color
p40
VEEEEEE
p41
sVid_str
p42
V482894207
p43
sVprofile_background_color
p44
V131516
p45
sVlisted_count
p46
I1
sVprofile_background_image_url_https
p47
Vhttps://abs.twimg.com/images/themes/theme14/bg.gif
p48
sVutc_offset
p49
I14400
sVstatuses_count
p50
I15390
sVdescription
p51
V21 of january \u2728.. student at UAEU .
p52
sVfriends_count
p53
I95
sVlocation
p54
VUnited Arab Emirates
p55
sVprofile_link_color
p56
V009999
p57
sVprofile_image_url
p58
Vhttp://pbs.twimg.com/profile_images/615671054472581120/VJrLz8Lq_normal.jpg
p59
sVfollowing
p60
NsVgeo_enabled
p61
I01
sVprofile_banner_url
p62
Vhttps://pbs.twimg.com/profile_banners/482894207/1435622311
p63
sVprofile_background_image_url
p64
Vhttp://abs.twimg.com/images/themes/theme14/bg.gif
p65
sVname
p66
V\u0646\u0648\u0631\u2728.
p67
sVlang
p68
Ven
p69
sVprofile_background_tile
p70
I01
sVfavourites_count
p71
I6
sVscreen_name
p72
Vnwaryowh
p73
sVnotifications
p74
NsVurl
p75
Vhttp://ask.fm/nwaryowh
p76
sVcreated_at
p77
VSat Feb 04 12:26:03 +0000 2012
p78
sVcontributors_enabled
p79
I00
sVtime_zone
p80
VAbu Dhabi
p81
sVprotected
p82
I00
sVdefault_profile
p83
I00
sVis_translator
p84
I00
ssS'contributors_enabled'
p85
I00
sS'profile_text_color'
p86
g38
sS'followers_count'
p87
I680
sS'profile_sidebar_border_color'
p88
g41
sS'location'
p89
g55
sS'default_profile_image'
p90
I00
sS'id_str'
p91
g43
sS'utc_offset'
p92
I14400
sS'statuses_count'
p93
I15390
sS'description'
p94
g52
sS'friends_count'
p95
I95
sS'profile_link_color'
p96
g57
sS'profile_image_url'
p97
g59
sS'notifications'
p98
NsS'geo_enabled'
p99
I01
sS'profile_background_color'
p100
g45
sS'profile_banner_url'
p101
g63
sS'profile_background_image_url'
p102
g65
sS'name'
p103
g67
sS'lang'
p104
g69
sS'following'
p105
I00
sS'profile_background_tile'
p106
I01
sS'favourites_count'
p107
I6
sS'screen_name'
p108
g73
sS'url'
p109
g76
sS'created_at'
p110
cdatetime
datetime
p111
(S'\x07\xdc\x02\x04\x0c\x1a\x03\x00\x00\x00'
p112
tp113
Rp114
sS'profile_background_image_url_https'
p115
g48
sS'time_zone'
p116
g81
sS'protected'
p117
I00
sS'default_profile'
p118
I00
sS'is_translator'
p119
I00
sS'listed_count'
p120
I1
sbsS'filter_level'
p121
Vlow
p122
sS'geo'
p123
(dp124
Vtype
p125
VPoint
p126
sVcoordinates
p127
(lp128
F47.360356
aF8.535853
assg24
I616239438935511040
sS'favorite_count'
p129
I0
sS'source'
p130
VInstagram
p131
sg104
Var
p132
sS'author'
p133
g18
sS'in_reply_to_user_id_str'
p134
Nsg28
(dp135
Vcontributors
p136
NsVtruncated
p137
I00
sVtext
p138
g10
sVin_reply_to_status_id
p139
Nsg33
I616239438935511040
sVfavorite_count
p140
I0
sVsource
p141
V<a href="http://instagram.com" rel="nofollow">Instagram</a>
p142
sVretweeted
p143
I00
sg127
(dp144
g125
VPoint
p145
sg127
(lp146
F8.535853
aF47.360356
assVtimestamp_ms
p147
V1435757906074
p148
sVentities
p149
(dp150
Vuser_mentions
p151
(lp152
sVsymbols
p153
(lp154
sVtrends
p155
(lp156
sVhashtags
p157
(lp158
sVurls
p159
(lp160
(dp161
g75
Vhttps://t.co/UFljTj9h5x
p162
sVindices
p163
(lp164
I86
aI109
asVexpanded_url
p165
Vhttps://instagram.com/p/4mHHdQrWtj/
p166
sVdisplay_url
p167
Vinstagram.com/p/4mHHdQrWtj/
p168
sassVin_reply_to_screen_name
p169
Nsg42
V616239438935511040
p170
sVretweet_count
p171
I0
sVin_reply_to_user_id
p172
NsVfavorited
p173
I00
sVuser
p174
g29
sVgeo
p175
g124
sVin_reply_to_user_id_str
p176
NsVpossibly_sensitive
p177
I00
sg68
g132
sg77
VWed Jul 01 13:38:26 +0000 2015
p178
sVfilter_level
p179
g122
sVin_reply_to_status_id_str
p180
NsVplace
p181
(dp182
Vfull_name
p183
VZurich, Switzerland
p184
sg75
Vhttps://api.twitter.com/1.1/geo/id/3acb748d0f1e9265.json
p185
sVcountry
p186
VSchweiz
p187
sVplace_type
p188
Vcity
p189
sVbounding_box
p190
(dp191
g125
VPolygon
p192
sg127
(lp193
(lp194
(lp195
F8.448081
aF47.320183
aa(lp196
F8.448081
aF47.434721
aa(lp197
F8.625442
aF47.434721
aa(lp198
F8.625442
aF47.320183
aaassVcountry_code
p199
VCH
p200
sVattributes
p201
(dp202
sg33
V3acb748d0f1e9265
p203
sg66
VZurich
p204
sssS'coordinates'
p205
g144
sS'timestamp_ms'
p206
g148
sS'entities'
p207
g150
sS'in_reply_to_status_id_str'
p208
NsS'in_reply_to_screen_name'
p209
Nsg91
g170
sS'retweeted'
p210
I00
sS'place'
p211
g0
(ctweepy.models
Place
p212
g2
Ntp213
Rp214
(dp215
S'full_name'
p216
g184
sg109
g185
sS'country'
p217
g187
sS'place_type'
p218
g189
sS'bounding_box'
p219
g0
(ctweepy.models
BoundingBox
p220
g2
Ntp221
Rp222
(dp223
S'type'
p224
g192
sg205
g193
sbsS'country_code'
p225
g200
sS'attributes'
p226
g202
sg24
g203
sg103
g204
sbsS'retweet_count'
p227
I0
sg110
g111
(S'\x07\xdf\x07\x01\r&\x1a\x00\x00\x00'
p228
tp229
Rp230
sS'in_reply_to_user_id'
p231
Nsb.