ccopy_reg
_reconstructor
p0
(ctweepy.models
Status
p1
c__builtin__
object
p2
Ntp3
Rp4
(dp5
S'contributors'
p6
NsS'truncated'
p7
I00
sS'text'
p8
V@classicoSA \u000a\u000ahttps://t.co/xiPwsGB31G
p9
sS'in_reply_to_status_id'
p10
I616264415940186112
sS'id'
p11
I616265509814730752
sS'favorite_count'
p12
I0
sS'entities'
p13
(dp14
Vuser_mentions
p15
(lp16
(dp17
Vid
p18
I30669540
sVindices
p19
(lp20
I0
aI11
asVid_str
p21
V30669540
p22
sVscreen_name
p23
VclassicoSA
p24
sVname
p25
Vclassico
p26
sasVsymbols
p27
(lp28
sVtrends
p29
(lp30
sVhashtags
p31
(lp32
sVurls
p33
(lp34
(dp35
Vurl
p36
Vhttps://t.co/xiPwsGB31G
p37
sg19
(lp38
I14
aI37
asVexpanded_url
p39
Vhttps://twitter.com/h_alaissa/status/613479014200573952
p40
sVdisplay_url
p41
Vtwitter.com/h_alaissa/stat\u2026
p42
sassS'quoted_status_id'
p43
I613479014200573952
sS'_json'
p44
(dp45
Vcontributors
p46
NsVtruncated
p47
I00
sVtext
p48
V@classicoSA \u000a\u000ahttps://t.co/xiPwsGB31G
p49
sVin_reply_to_status_id
p50
I616264415940186112
sg18
I616265509814730752
sVfavorite_count
p51
I0
sVsource
p52
V<a href="http://twitter.com/download/iphone" rel="nofollow">Twitter for iPhone</a>
p53
sVquoted_status_id
p54
I613479014200573952
sVretweeted
p55
I00
sVcoordinates
p56
NsVtimestamp_ms
p57
V1435764121856
p58
sVquoted_status
p59
(dp60
g46
Nsg47
I00
sg48
V@MovSto \u000a\u000aIs that Michael Fassbrnder ? \u000a\u000aMate this film is gonna be good , hey !
p61
sg50
I613477714830467072
sg18
I613479014200573952
sg51
I0
sg52
V<a href="http://twitter.com/download/iphone" rel="nofollow">Twitter for iPhone</a>
p62
sg55
I00
sg56
NsVentities
p63
(dp64
g15
(lp65
(dp66
g18
I382245758
sg19
(lp67
I0
aI7
asg21
V382245758
p68
sg23
VMovSto
p69
sg25
V\u0641\u064a\u0644\u0645 \u0648 \u0642\u0635\u0629
p70
sasg27
(lp71
sg29
(lp72
sg31
(lp73
sg33
(lp74
ssVin_reply_to_screen_name
p75
VMovSto
p76
sg21
V613479014200573952
p77
sVretweet_count
p78
I0
sVin_reply_to_user_id
p79
I382245758
sVfavorited
p80
I00
sVuser
p81
(dp82
Vfollow_request_sent
p83
NsVprofile_use_background_image
p84
I01
sVdefault_profile_image
p85
I00
sg18
I2225092464
sVverified
p86
I00
sVprofile_image_url_https
p87
Vhttps://pbs.twimg.com/profile_images/613828336129683456/hOVDhs8x_normal.jpg
p88
sVprofile_sidebar_fill_color
p89
VDDEEF6
p90
sVprofile_text_color
p91
V333333
p92
sVfollowers_count
p93
I142
sVprofile_sidebar_border_color
p94
VC0DEED
p95
sg21
V2225092464
p96
sVprofile_background_color
p97
VC0DEED
p98
sVlisted_count
p99
I1
sVprofile_background_image_url_https
p100
Vhttps://abs.twimg.com/images/themes/theme1/bg.png
p101
sVutc_offset
p102
I10800
sVstatuses_count
p103
I3340
sVdescription
p104
V\u0627\u0644\u0642\u0644\u064a\u0644 \u0645\u0646 \u0643\u0644 \u0634\u064a\u0621 \u060c \u0627\u0644\u0631\u062a\u0648\u064a\u062a \u064a\u0639\u0646\u064a \u0627\u0644\u0645\u0648\u0627\u0641\u0642\u0629 .
p105
sVfriends_count
p106
I615
sVlocation
p107
Vksa - southside !~
p108
sVprofile_link_color
p109
V0084B4
p110
sVprofile_image_url
p111
Vhttp://pbs.twimg.com/profile_images/613828336129683456/hOVDhs8x_normal.jpg
p112
sVfollowing
p113
NsVgeo_enabled
p114
I01
sVprofile_banner_url
p115
Vhttps://pbs.twimg.com/profile_banners/2225092464/1435183128
p116
sVprofile_background_image_url
p117
Vhttp://abs.twimg.com/images/themes/theme1/bg.png
p118
sg25
VH | \u0648\u0644\u062f \u0627\u0644\u0639\u064a\u0633\u0649
p119
sVlang
p120
Ven
p121
sVprofile_background_tile
p122
I00
sVfavourites_count
p123
I13321
sg23
VH_alaissa
p124
sVnotifications
p125
Nsg36
Vhttp://share.pho.to/9WJDn/ox/original
p126
sVcreated_at
p127
VSun Dec 01 14:56:32 +0000 2013
p128
sVcontributors_enabled
p129
I00
sVtime_zone
p130
VRiyadh
p131
sVprotected
p132
I00
sVdefault_profile
p133
I01
sVis_translator
p134
I00
ssVgeo
p135
NsVin_reply_to_user_id_str
p136
V382245758
p137
sVpossibly_sensitive
p138
I01
sg120
Ven
p139
sg127
VTue Jun 23 22:49:29 +0000 2015
p140
sVfilter_level
p141
Vlow
p142
sVin_reply_to_status_id_str
p143
V613477714830467072
p144
sVplace
p145
Nssg63
g14
sg75
VclassicoSA
p146
sg21
V616265509814730752
p147
sg78
I0
sg79
I30669540
sg80
I00
sg81
(dp148
g83
Nsg84
I01
sg85
I00
sg18
I2225092464
sg86
I00
sg87
Vhttps://pbs.twimg.com/profile_images/613828336129683456/hOVDhs8x_normal.jpg
p149
sg89
VDDEEF6
p150
sg91
V333333
p151
sg93
I142
sg94
VC0DEED
p152
sg21
V2225092464
p153
sg97
VC0DEED
p154
sg99
I1
sg100
Vhttps://abs.twimg.com/images/themes/theme1/bg.png
p155
sg102
I10800
sg103
I3341
sg104
V\u0627\u0644\u0642\u0644\u064a\u0644 \u0645\u0646 \u0643\u0644 \u0634\u064a\u0621 \u060c \u0627\u0644\u0631\u062a\u0648\u064a\u062a \u064a\u0639\u0646\u064a \u0627\u0644\u0645\u0648\u0627\u0641\u0642\u0629 .
p156
sg106
I615
sg107
Vksa - southside !~
p157
sg109
V0084B4
p158
sg111
Vhttp://pbs.twimg.com/profile_images/613828336129683456/hOVDhs8x_normal.jpg
p159
sg113
Nsg114
I01
sg115
Vhttps://pbs.twimg.com/profile_banners/2225092464/1435183128
p160
sg117
Vhttp://abs.twimg.com/images/themes/theme1/bg.png
p161
sg25
VH | \u0648\u0644\u062f \u0627\u0644\u0639\u064a\u0633\u0649
p162
sg120
Ven
p163
sg122
I00
sg123
I13321
sg23
VH_alaissa
p164
sg125
Nsg36
Vhttp://share.pho.to/9WJDn/ox/original
p165
sg127
VSun Dec 01 14:56:32 +0000 2013
p166
sg129
I00
sg130
VRiyadh
p167
sg132
I00
sg133
I01
sg134
I00
ssg135
Nsg136
V30669540
p168
sg138
I01
sg120
Vund
p169
sg127
VWed Jul 01 15:22:01 +0000 2015
p170
sVquoted_status_id_str
p171
V613479014200573952
p172
sg141
Vlow
p173
sg143
V616264415940186112
p174
sg145
(dp175
Vfull_name
p176
VZurich, Switzerland
p177
sg36
Vhttps://api.twitter.com/1.1/geo/id/3acb748d0f1e9265.json
p178
sVcountry
p179
VSchweiz
p180
sVplace_type
p181
Vcity
p182
sVbounding_box
p183
(dp184
Vtype
p185
VPolygon
p186
sg56
(lp187
(lp188
(lp189
F8.448081
aF47.320183
aa(lp190
F8.448081
aF47.434721
aa(lp191
F8.625442
aF47.434721
aa(lp192
F8.625442
aF47.320183
aaassVcountry_code
p193
VCH
p194
sVattributes
p195
(dp196
sg18
V3acb748d0f1e9265
p197
sg25
VZurich
p198
sssS'coordinates'
p199
NsS'timestamp_ms'
p200
g58
sS'quoted_status'
p201
g60
sS'source'
p202
VTwitter for iPhone
p203
sS'in_reply_to_screen_name'
p204
g146
sS'id_str'
p205
g147
sS'retweet_count'
p206
I0
sS'in_reply_to_user_id'
p207
I30669540
sS'favorited'
p208
I00
sS'source_url'
p209
Vhttp://twitter.com/download/iphone
p210
sS'user'
p211
g0
(ctweepy.models
User
p212
g2
Ntp213
Rp214
(dp215
S'follow_request_sent'
p216
NsS'profile_use_background_image'
p217
I01
sS'profile_sidebar_fill_color'
p218
g150
sg11
I2225092464
sS'verified'
p219
I00
sS'profile_image_url_https'
p220
g149
sg44
g148
sS'contributors_enabled'
p221
I00
sS'profile_text_color'
p222
g151
sS'followers_count'
p223
I142
sS'profile_sidebar_border_color'
p224
g152
sS'location'
p225
g157
sS'default_profile_image'
p226
I00
sg205
g153
sS'utc_offset'
p227
I10800
sS'statuses_count'
p228
I3341
sS'description'
p229
g156
sS'friends_count'
p230
I615
sS'profile_link_color'
p231
g158
sS'profile_image_url'
p232
g159
sS'notifications'
p233
NsS'geo_enabled'
p234
I01
sS'profile_background_color'
p235
g154
sS'profile_banner_url'
p236
g160
sS'profile_background_image_url'
p237
g161
sS'name'
p238
g162
sS'lang'
p239
g163
sS'following'
p240
I00
sS'profile_background_tile'
p241
I00
sS'favourites_count'
p242
I13321
sS'screen_name'
p243
g164
sS'url'
p244
g165
sS'created_at'
p245
cdatetime
datetime
p246
(S'\x07\xdd\x0c\x01\x0e8 \x00\x00\x00'
p247
tp248
Rp249
sS'profile_background_image_url_https'
p250
g155
sS'time_zone'
p251
g167
sS'protected'
p252
I00
sS'default_profile'
p253
I01
sS'is_translator'
p254
I00
sS'listed_count'
p255
I1
sbsS'geo'
p256
NsS'in_reply_to_user_id_str'
p257
g168
sS'possibly_sensitive'
p258
I01
sg239
g169
sg245
g246
(S'\x07\xdf\x07\x01\x0f\x16\x01\x00\x00\x00'
p259
tp260
Rp261
sS'author'
p262
g214
sS'quoted_status_id_str'
p263
g172
sS'filter_level'
p264
g173
sS'in_reply_to_status_id_str'
p265
g174
sS'place'
p266
g0
(ctweepy.models
Place
p267
g2
Ntp268
Rp269
(dp270
S'full_name'
p271
g177
sg244
g178
sS'country'
p272
g180
sS'place_type'
p273
g182
sS'bounding_box'
p274
g0
(ctweepy.models
BoundingBox
p275
g2
Ntp276
Rp277
(dp278
S'type'
p279
g186
sg199
g187
sbsS'country_code'
p280
g194
sS'attributes'
p281
g196
sg11
g197
sg238
g198
sbsS'retweeted'
p282
I00
sb.