ccopy_reg
_reconstructor
p0
(ctweepy.models
Status
p1
c__builtin__
object
p2
Ntp3
Rp4
(dp5
S'favorited'
p6
I00
sS'contributors'
p7
NsS'truncated'
p8
I00
sS'text'
p9
V@brittneyyclancy @LuLulugilbert I miss this!!
p10
sS'source_url'
p11
Vhttp://twitter.com/download/iphone
p12
sS'possibly_sensitive'
p13
I00
sS'in_reply_to_status_id'
p14
I616602646875516928
sS'user'
p15
g0
(ctweepy.models
User
p16
g2
Ntp17
Rp18
(dp19
S'follow_request_sent'
p20
NsS'profile_use_background_image'
p21
I01
sS'profile_sidebar_fill_color'
p22
VDDEEF6
p23
sS'id'
p24
I1876079912
sS'verified'
p25
I00
sS'profile_image_url_https'
p26
Vhttps://pbs.twimg.com/profile_images/616353367028297728/e6X_VGZE_normal.jpg
p27
sS'_json'
p28
(dp29
Vfollow_request_sent
p30
NsVprofile_use_background_image
p31
I01
sVdefault_profile_image
p32
I00
sVid
p33
I1876079912
sVverified
p34
I00
sVprofile_image_url_https
p35
g27
sVprofile_sidebar_fill_color
p36
g23
sVprofile_text_color
p37
V333333
p38
sVfollowers_count
p39
I693
sVprofile_sidebar_border_color
p40
VC0DEED
p41
sVid_str
p42
V1876079912
p43
sVprofile_background_color
p44
VC0DEED
p45
sVlisted_count
p46
I1
sVprofile_background_image_url_https
p47
Vhttps://abs.twimg.com/images/themes/theme1/bg.png
p48
sVutc_offset
p49
NsVstatuses_count
p50
I11809
sVdescription
p51
VReal So Cal\u26bd\ufe0f
p52
sVfriends_count
p53
I535
sVlocation
p54
V
p55
sVprofile_link_color
p56
V0084B4
p57
sVprofile_image_url
p58
Vhttp://pbs.twimg.com/profile_images/616353367028297728/e6X_VGZE_normal.jpg
p59
sVfollowing
p60
NsVgeo_enabled
p61
I01
sVprofile_banner_url
p62
Vhttps://pbs.twimg.com/profile_banners/1876079912/1435648404
p63
sVprofile_background_image_url
p64
Vhttp://abs.twimg.com/images/themes/theme1/bg.png
p65
sVname
p66
VKen
p67
sVlang
p68
Ven
p69
sVprofile_background_tile
p70
I00
sVfavourites_count
p71
I12870
sVscreen_name
p72
VKendall_allen21
p73
sVnotifications
p74
NsVurl
p75
NsVcreated_at
p76
VTue Sep 17 16:25:16 +0000 2013
p77
sVcontributors_enabled
p78
I00
sVtime_zone
p79
NsVprotected
p80
I00
sVdefault_profile
p81
I01
sVis_translator
p82
I00
ssS'contributors_enabled'
p83
I00
sS'profile_text_color'
p84
g38
sS'followers_count'
p85
I693
sS'profile_sidebar_border_color'
p86
g41
sS'location'
p87
g55
sS'default_profile_image'
p88
I00
sS'id_str'
p89
g43
sS'utc_offset'
p90
NsS'statuses_count'
p91
I11809
sS'description'
p92
g52
sS'friends_count'
p93
I535
sS'profile_link_color'
p94
g57
sS'profile_image_url'
p95
g59
sS'notifications'
p96
NsS'geo_enabled'
p97
I01
sS'profile_background_color'
p98
g45
sS'profile_banner_url'
p99
g63
sS'profile_background_image_url'
p100
g65
sS'name'
p101
g67
sS'lang'
p102
g69
sS'following'
p103
I00
sS'profile_background_tile'
p104
I00
sS'favourites_count'
p105
I12870
sS'screen_name'
p106
g73
sS'url'
p107
NsS'created_at'
p108
cdatetime
datetime
p109
(S'\x07\xdd\t\x11\x10\x19\x10\x00\x00\x00'
p110
tp111
Rp112
sS'profile_background_image_url_https'
p113
g48
sS'time_zone'
p114
NsS'protected'
p115
I00
sS'default_profile'
p116
I01
sS'is_translator'
p117
I00
sS'listed_count'
p118
I1
sbsS'filter_level'
p119
Vlow
p120
sS'geo'
p121
Nsg24
I616604472949796864
sS'favorite_count'
p122
I0
sS'source'
p123
VTwitter for iPhone
p124
sg102
Ven
p125
sS'author'
p126
g18
sS'in_reply_to_user_id_str'
p127
V1950680186
p128
sg28
(dp129
Vcontributors
p130
NsVtruncated
p131
I00
sVtext
p132
g10
sVin_reply_to_status_id
p133
I616602646875516928
sg33
I616604472949796864
sVfavorite_count
p134
I0
sVsource
p135
V<a href="http://twitter.com/download/iphone" rel="nofollow">Twitter for iPhone</a>
p136
sVretweeted
p137
I00
sVcoordinates
p138
NsVtimestamp_ms
p139
V1435844936965
p140
sVentities
p141
(dp142
Vuser_mentions
p143
(lp144
(dp145
g33
I1950680186
sVindices
p146
(lp147
I0
aI16
asg42
V1950680186
p148
sg72
Vbrittneyyclancy
p149
sg66
Vbritt
p150
sa(dp151
g33
I1932745358
sg146
(lp152
I17
aI31
asg42
V1932745358
p153
sg72
VLuLulugilbert
p154
sg66
Vlu
p155
sasVsymbols
p156
(lp157
sVtrends
p158
(lp159
sVhashtags
p160
(lp161
sVurls
p162
(lp163
ssVin_reply_to_screen_name
p164
Vbrittneyyclancy
p165
sg42
V616604472949796864
p166
sVretweet_count
p167
I0
sVin_reply_to_user_id
p168
I1950680186
sVfavorited
p169
I00
sVuser
p170
g29
sVgeo
p171
NsVin_reply_to_user_id_str
p172
g128
sVpossibly_sensitive
p173
I00
sg68
g125
sg76
VThu Jul 02 13:48:56 +0000 2015
p174
sVfilter_level
p175
g120
sVin_reply_to_status_id_str
p176
V616602646875516928
p177
sVplace
p178
(dp179
Vfull_name
p180
VZurich, Switzerland
p181
sg75
Vhttps://api.twitter.com/1.1/geo/id/3acb748d0f1e9265.json
p182
sVcountry
p183
VSchweiz
p184
sVplace_type
p185
Vcity
p186
sVbounding_box
p187
(dp188
Vtype
p189
VPolygon
p190
sg138
(lp191
(lp192
(lp193
F8.448081
aF47.320183
aa(lp194
F8.448081
aF47.434721
aa(lp195
F8.625442
aF47.434721
aa(lp196
F8.625442
aF47.320183
aaassVcountry_code
p197
VCH
p198
sVattributes
p199
(dp200
sg33
V3acb748d0f1e9265
p201
sg66
VZurich
p202
sssS'coordinates'
p203
NsS'timestamp_ms'
p204
g140
sS'entities'
p205
g142
sS'in_reply_to_status_id_str'
p206
g177
sS'in_reply_to_screen_name'
p207
g165
sg89
g166
sS'retweeted'
p208
I00
sS'place'
p209
g0
(ctweepy.models
Place
p210
g2
Ntp211
Rp212
(dp213
S'full_name'
p214
g181
sg107
g182
sS'country'
p215
g184
sS'place_type'
p216
g186
sS'bounding_box'
p217
g0
(ctweepy.models
BoundingBox
p218
g2
Ntp219
Rp220
(dp221
S'type'
p222
g190
sg203
g191
sbsS'country_code'
p223
g198
sS'attributes'
p224
g200
sg24
g201
sg101
g202
sbsS'retweet_count'
p225
I0
sg108
g109
(S'\x07\xdf\x07\x02\r08\x00\x00\x00'
p226
tp227
Rp228
sS'in_reply_to_user_id'
p229
I1950680186
sb.