ccopy_reg
_reconstructor
p0
(ctweepy.models
Status
p1
c__builtin__
object
p2
Ntp3
Rp4
(dp5
S'favorited'
p6
I00
sS'contributors'
p7
NsS'truncated'
p8
I00
sS'text'
p9
V#BBQ on afternoon @ #Lochergut, #Zurich.\u000a\u000a#FirstOfJuly http://t.co/rE44utDDcZ
p10
sS'source_url'
p11
Vhttp://twitter.com/download/android
p12
sS'possibly_sensitive'
p13
I00
sS'in_reply_to_status_id'
p14
NsS'user'
p15
g0
(ctweepy.models
User
p16
g2
Ntp17
Rp18
(dp19
S'follow_request_sent'
p20
NsS'profile_use_background_image'
p21
I01
sS'profile_sidebar_fill_color'
p22
VE84F17
p23
sS'id'
p24
I22408286
sS'verified'
p25
I00
sS'profile_image_url_https'
p26
Vhttps://pbs.twimg.com/profile_images/593778267313688578/kQM7mHjl_normal.jpg
p27
sS'_json'
p28
(dp29
Vfollow_request_sent
p30
NsVprofile_use_background_image
p31
I01
sVdefault_profile_image
p32
I00
sVid
p33
I22408286
sVverified
p34
I00
sVprofile_image_url_https
p35
g27
sVprofile_sidebar_fill_color
p36
g23
sVprofile_text_color
p37
V030301
p38
sVfollowers_count
p39
I612
sVprofile_sidebar_border_color
p40
VFFFFFF
p41
sVid_str
p42
V22408286
p43
sVprofile_background_color
p44
V1A12FF
p45
sVlisted_count
p46
I12
sVprofile_background_image_url_https
p47
Vhttps://pbs.twimg.com/profile_background_images/26936294/a.JPG
p48
sVutc_offset
p49
I7200
sVstatuses_count
p50
I8233
sVdescription
p51
V* Ghelo is my nickname * I'm #DJ #BongAguinaldo @ http://www.pinasmusiczone.com * #Blogger @ http://bubong.blogspot.com *#Poet * #Lambily *
p52
sVfriends_count
p53
I850
sVlocation
p54
VZurich, Switzerland
p55
sVprofile_link_color
p56
V4A913C
p57
sVprofile_image_url
p58
Vhttp://pbs.twimg.com/profile_images/593778267313688578/kQM7mHjl_normal.jpg
p59
sVfollowing
p60
NsVgeo_enabled
p61
I01
sVprofile_banner_url
p62
Vhttps://pbs.twimg.com/profile_banners/22408286/1430402720
p63
sVprofile_background_image_url
p64
Vhttp://pbs.twimg.com/profile_background_images/26936294/a.JPG
p65
sVname
p66
VAngelo Zantua
p67
sVlang
p68
Ven
p69
sVprofile_background_tile
p70
I00
sVfavourites_count
p71
I16
sVscreen_name
p72
Vbubong
p73
sVnotifications
p74
NsVurl
p75
Vhttp://instagram.com/bubong
p76
sVcreated_at
p77
VSun Mar 01 21:21:00 +0000 2009
p78
sVcontributors_enabled
p79
I00
sVtime_zone
p80
VBern
p81
sVprotected
p82
I00
sVdefault_profile
p83
I00
sVis_translator
p84
I00
ssS'contributors_enabled'
p85
I00
sS'profile_text_color'
p86
g38
sS'followers_count'
p87
I612
sS'profile_sidebar_border_color'
p88
g41
sS'location'
p89
g55
sS'default_profile_image'
p90
I00
sS'id_str'
p91
g43
sS'utc_offset'
p92
I7200
sS'statuses_count'
p93
I8233
sS'description'
p94
g52
sS'friends_count'
p95
I850
sS'profile_link_color'
p96
g57
sS'profile_image_url'
p97
g59
sS'notifications'
p98
NsS'geo_enabled'
p99
I01
sS'profile_background_color'
p100
g45
sS'profile_banner_url'
p101
g63
sS'profile_background_image_url'
p102
g65
sS'name'
p103
g67
sS'lang'
p104
g69
sS'following'
p105
I00
sS'profile_background_tile'
p106
I00
sS'favourites_count'
p107
I16
sS'screen_name'
p108
g73
sS'url'
p109
g76
sS'created_at'
p110
cdatetime
datetime
p111
(S'\x07\xd9\x03\x01\x15\x15\x00\x00\x00\x00'
p112
tp113
Rp114
sS'profile_background_image_url_https'
p115
g48
sS'time_zone'
p116
g81
sS'protected'
p117
I00
sS'default_profile'
p118
I00
sS'is_translator'
p119
I00
sS'listed_count'
p120
I12
sbsS'filter_level'
p121
Vlow
p122
sS'geo'
p123
Nsg24
I616258004246241280
sS'favorite_count'
p124
I0
sS'source'
p125
VTwitter for Android
p126
sg104
Ven
p127
sS'author'
p128
g18
sS'in_reply_to_user_id_str'
p129
Nsg28
(dp130
Vcontributors
p131
NsVtruncated
p132
I00
sVtext
p133
V#BBQ on afternoon @ #Lochergut, #Zurich.\u000a\u000a#FirstOfJuly http://t.co/rE44utDDcZ
p134
sVin_reply_to_status_id
p135
Nsg33
I616258004246241280
sVfavorite_count
p136
I0
sVsource
p137
V<a href="http://twitter.com/download/android" rel="nofollow">Twitter for Android</a>
p138
sVretweeted
p139
I00
sVcoordinates
p140
NsVtimestamp_ms
p141
V1435762332389
p142
sVentities
p143
(dp144
Vsymbols
p145
(lp146
sVmedia
p147
(lp148
(dp149
Vexpanded_url
p150
Vhttp://twitter.com/bubong/status/616258004246241280/photo/1
p151
sVdisplay_url
p152
Vpic.twitter.com/rE44utDDcZ
p153
sg75
Vhttp://t.co/rE44utDDcZ
p154
sVmedia_url_https
p155
Vhttps://pbs.twimg.com/media/CI1jWubUsAAHXRz.jpg
p156
sg42
V616257966090530816
p157
sVsizes
p158
(dp159
Vsmall
p160
(dp161
Vh
p162
I340
sVresize
p163
Vfit
p164
sVw
p165
I340
ssVlarge
p166
(dp167
g162
I984
sg163
Vfit
p168
sg165
I984
ssVmedium
p169
(dp170
g162
I600
sg163
Vfit
p171
sg165
I600
ssVthumb
p172
(dp173
g162
I150
sg163
Vcrop
p174
sg165
I150
sssVindices
p175
(lp176
I55
aI77
asVtype
p177
Vphoto
p178
sg33
I616257966090530816
sVmedia_url
p179
Vhttp://pbs.twimg.com/media/CI1jWubUsAAHXRz.jpg
p180
sasVhashtags
p181
(lp182
(dp183
g175
(lp184
I0
aI4
asg133
VBBQ
p185
sa(dp186
g175
(lp187
I20
aI30
asg133
VLochergut
p188
sa(dp189
g175
(lp190
I32
aI39
asg133
VZurich
p191
sa(dp192
g175
(lp193
I42
aI54
asg133
VFirstOfJuly
p194
sasVuser_mentions
p195
(lp196
sVtrends
p197
(lp198
sVurls
p199
(lp200
ssVin_reply_to_screen_name
p201
Nsg42
V616258004246241280
p202
sVretweet_count
p203
I0
sVin_reply_to_user_id
p204
NsVfavorited
p205
I00
sVuser
p206
g29
sVgeo
p207
NsVin_reply_to_user_id_str
p208
NsVpossibly_sensitive
p209
I00
sg68
g127
sg77
VWed Jul 01 14:52:12 +0000 2015
p210
sVfilter_level
p211
g122
sVin_reply_to_status_id_str
p212
NsVplace
p213
(dp214
Vfull_name
p215
VZurich, Switzerland
p216
sg75
Vhttps://api.twitter.com/1.1/geo/id/3acb748d0f1e9265.json
p217
sVcountry
p218
VSchweiz
p219
sVplace_type
p220
Vcity
p221
sVbounding_box
p222
(dp223
g177
VPolygon
p224
sg140
(lp225
(lp226
(lp227
F8.448081
aF47.320183
aa(lp228
F8.448081
aF47.434721
aa(lp229
F8.625442
aF47.434721
aa(lp230
F8.625442
aF47.320183
aaassVcountry_code
p231
VCH
p232
sVattributes
p233
(dp234
sg33
V3acb748d0f1e9265
p235
sg66
VZurich
p236
ssVextended_entities
p237
(dp238
g147
(lp239
(dp240
g150
Vhttp://twitter.com/bubong/status/616258004246241280/photo/1
p241
sg152
Vpic.twitter.com/rE44utDDcZ
p242
sg75
Vhttp://t.co/rE44utDDcZ
p243
sg155
Vhttps://pbs.twimg.com/media/CI1jWubUsAAHXRz.jpg
p244
sg42
V616257966090530816
p245
sg158
(dp246
g160
(dp247
g162
I340
sg163
Vfit
p248
sg165
I340
ssg166
(dp249
g162
I984
sg163
Vfit
p250
sg165
I984
ssg169
(dp251
g162
I600
sg163
Vfit
p252
sg165
I600
ssg172
(dp253
g162
I150
sg163
Vcrop
p254
sg165
I150
sssg175
(lp255
I55
aI77
asg177
Vphoto
p256
sg33
I616257966090530816
sg179
Vhttp://pbs.twimg.com/media/CI1jWubUsAAHXRz.jpg
p257
sasssS'coordinates'
p258
NsS'timestamp_ms'
p259
g142
sS'entities'
p260
g144
sS'in_reply_to_status_id_str'
p261
NsS'in_reply_to_screen_name'
p262
Nsg91
g202
sS'extended_entities'
p263
g238
sS'retweeted'
p264
I00
sS'place'
p265
g0
(ctweepy.models
Place
p266
g2
Ntp267
Rp268
(dp269
S'full_name'
p270
g216
sg109
g217
sS'country'
p271
g219
sS'place_type'
p272
g221
sS'bounding_box'
p273
g0
(ctweepy.models
BoundingBox
p274
g2
Ntp275
Rp276
(dp277
S'type'
p278
g224
sg258
g225
sbsS'country_code'
p279
g232
sS'attributes'
p280
g234
sg24
g235
sg103
g236
sbsS'retweet_count'
p281
I0
sg110
g111
(S'\x07\xdf\x07\x01\x0e4\x0c\x00\x00\x00'
p282
tp283
Rp284
sS'in_reply_to_user_id'
p285
Nsb.