ccopy_reg
_reconstructor
p0
(ctweepy.models
Status
p1
c__builtin__
object
p2
Ntp3
Rp4
(dp5
S'favorited'
p6
I00
sS'contributors'
p7
NsS'truncated'
p8
I00
sS'text'
p9
VCheck out our new website http://t.co/tEwL8JTMwY
p10
sS'source_url'
p11
Vhttp://twitter.com
p12
sS'possibly_sensitive'
p13
I00
sS'in_reply_to_status_id'
p14
NsS'user'
p15
g0
(ctweepy.models
User
p16
g2
Ntp17
Rp18
(dp19
S'follow_request_sent'
p20
NsS'profile_use_background_image'
p21
I01
sS'profile_sidebar_fill_color'
p22
VDDEEF6
p23
sS'id'
p24
I498655048
sS'verified'
p25
I00
sS'profile_image_url_https'
p26
Vhttps://pbs.twimg.com/profile_images/378800000312745021/21ebc6ea5dfd31f13918369f4fd007de_normal.jpeg
p27
sS'_json'
p28
(dp29
Vfollow_request_sent
p30
NsVprofile_use_background_image
p31
I01
sVdefault_profile_image
p32
I00
sVid
p33
I498655048
sVverified
p34
I00
sVprofile_image_url_https
p35
g27
sVprofile_sidebar_fill_color
p36
g23
sVprofile_text_color
p37
V333333
p38
sVfollowers_count
p39
I1021
sVprofile_sidebar_border_color
p40
VFFFFFF
p41
sVid_str
p42
V498655048
p43
sVprofile_background_color
p44
VC0DEED
p45
sVlisted_count
p46
I46
sVprofile_background_image_url_https
p47
Vhttps://pbs.twimg.com/profile_background_images/378800000085942307/0abbd81af42b716a99014ea2dd1c23ae.jpeg
p48
sVutc_offset
p49
NsVstatuses_count
p50
I1011
sVdescription
p51
VI'm a Master Scuba Diver, IBM iX Consultant, successful blogger and Social Media admin @scubadiverlife and my face adorns a few Dive industry adverts!
p52
sVfriends_count
p53
I1273
sVlocation
p54
VSwitzerland
p55
sVprofile_link_color
p56
V0000B3
p57
sVprofile_image_url
p58
Vhttp://pbs.twimg.com/profile_images/378800000312745021/21ebc6ea5dfd31f13918369f4fd007de_normal.jpeg
p59
sVfollowing
p60
NsVgeo_enabled
p61
I01
sVprofile_banner_url
p62
Vhttps://pbs.twimg.com/profile_banners/498655048/1376745808
p63
sVprofile_background_image_url
p64
Vhttp://pbs.twimg.com/profile_background_images/378800000085942307/0abbd81af42b716a99014ea2dd1c23ae.jpeg
p65
sVname
p66
VTrevor Sanford
p67
sVlang
p68
Ven
p69
sVprofile_background_tile
p70
I00
sVfavourites_count
p71
I156
sVscreen_name
p72
VTrevorPADI
p73
sVnotifications
p74
NsVurl
p75
Vhttp://www.thedigitaldiver.com
p76
sVcreated_at
p77
VTue Feb 21 08:41:39 +0000 2012
p78
sVcontributors_enabled
p79
I00
sVtime_zone
p80
NsVprotected
p81
I00
sVdefault_profile
p82
I00
sVis_translator
p83
I00
ssS'contributors_enabled'
p84
I00
sS'profile_text_color'
p85
g38
sS'followers_count'
p86
I1021
sS'profile_sidebar_border_color'
p87
g41
sS'location'
p88
g55
sS'default_profile_image'
p89
I00
sS'id_str'
p90
g43
sS'utc_offset'
p91
NsS'statuses_count'
p92
I1011
sS'description'
p93
g52
sS'friends_count'
p94
I1273
sS'profile_link_color'
p95
g57
sS'profile_image_url'
p96
g59
sS'notifications'
p97
NsS'geo_enabled'
p98
I01
sS'profile_background_color'
p99
g45
sS'profile_banner_url'
p100
g63
sS'profile_background_image_url'
p101
g65
sS'name'
p102
g67
sS'lang'
p103
g69
sS'following'
p104
I00
sS'profile_background_tile'
p105
I00
sS'favourites_count'
p106
I156
sS'screen_name'
p107
g73
sS'url'
p108
g76
sS'created_at'
p109
cdatetime
datetime
p110
(S"\x07\xdc\x02\x15\x08)'\x00\x00\x00"
p111
tp112
Rp113
sS'profile_background_image_url_https'
p114
g48
sS'time_zone'
p115
NsS'protected'
p116
I00
sS'default_profile'
p117
I00
sS'is_translator'
p118
I00
sS'listed_count'
p119
I46
sbsS'filter_level'
p120
Vlow
p121
sS'geo'
p122
Nsg24
I616257716856725504
sS'favorite_count'
p123
I0
sS'source'
p124
VTwitter Web Client
p125
sg103
Ven
p126
sS'author'
p127
g18
sS'in_reply_to_user_id_str'
p128
Nsg28
(dp129
Vcontributors
p130
NsVtruncated
p131
I00
sVtext
p132
g10
sVin_reply_to_status_id
p133
Nsg33
I616257716856725504
sVfavorite_count
p134
I0
sVsource
p135
V<a href="http://twitter.com" rel="nofollow">Twitter Web Client</a>
p136
sVretweeted
p137
I00
sVcoordinates
p138
NsVtimestamp_ms
p139
V1435762263870
p140
sVentities
p141
(dp142
Vuser_mentions
p143
(lp144
sVsymbols
p145
(lp146
sVtrends
p147
(lp148
sVhashtags
p149
(lp150
sVurls
p151
(lp152
(dp153
g75
Vhttp://t.co/tEwL8JTMwY
p154
sVindices
p155
(lp156
I26
aI48
asVexpanded_url
p157
Vhttp://www.ibm.com/ibmix
p158
sVdisplay_url
p159
Vibm.com/ibmix
p160
sassVin_reply_to_screen_name
p161
Nsg42
V616257716856725504
p162
sVretweet_count
p163
I0
sVin_reply_to_user_id
p164
NsVfavorited
p165
I00
sVuser
p166
g29
sVgeo
p167
NsVin_reply_to_user_id_str
p168
NsVpossibly_sensitive
p169
I00
sg68
g126
sg77
VWed Jul 01 14:51:03 +0000 2015
p170
sVfilter_level
p171
g121
sVin_reply_to_status_id_str
p172
NsVplace
p173
(dp174
Vfull_name
p175
VZurich, Switzerland
p176
sg75
Vhttps://api.twitter.com/1.1/geo/id/3acb748d0f1e9265.json
p177
sVcountry
p178
VSchweiz
p179
sVplace_type
p180
Vcity
p181
sVbounding_box
p182
(dp183
Vtype
p184
VPolygon
p185
sg138
(lp186
(lp187
(lp188
F8.448081
aF47.320183
aa(lp189
F8.448081
aF47.434721
aa(lp190
F8.625442
aF47.434721
aa(lp191
F8.625442
aF47.320183
aaassVcountry_code
p192
VCH
p193
sVattributes
p194
(dp195
sg33
V3acb748d0f1e9265
p196
sg66
VZurich
p197
sssS'coordinates'
p198
NsS'timestamp_ms'
p199
g140
sS'entities'
p200
g142
sS'in_reply_to_status_id_str'
p201
NsS'in_reply_to_screen_name'
p202
Nsg90
g162
sS'retweeted'
p203
I00
sS'place'
p204
g0
(ctweepy.models
Place
p205
g2
Ntp206
Rp207
(dp208
S'full_name'
p209
g176
sg108
g177
sS'country'
p210
g179
sS'place_type'
p211
g181
sS'bounding_box'
p212
g0
(ctweepy.models
BoundingBox
p213
g2
Ntp214
Rp215
(dp216
S'type'
p217
g185
sg198
g186
sbsS'country_code'
p218
g193
sS'attributes'
p219
g195
sg24
g196
sg102
g197
sbsS'retweet_count'
p220
I0
sg109
g110
(S'\x07\xdf\x07\x01\x0e3\x03\x00\x00\x00'
p221
tp222
Rp223
sS'in_reply_to_user_id'
p224
Nsb.