ccopy_reg
_reconstructor
p0
(ctweepy.models
Status
p1
c__builtin__
object
p2
Ntp3
Rp4
(dp5
S'contributors'
p6
NsS'truncated'
p7
I00
sS'text'
p8
VFind your own success  https://t.co/cJ8WlItgjG
p9
sS'in_reply_to_status_id'
p10
NsS'id'
p11
I616263616497602560
sS'favorite_count'
p12
I0
sS'entities'
p13
(dp14
Vuser_mentions
p15
(lp16
sVsymbols
p17
(lp18
sVtrends
p19
(lp20
sVhashtags
p21
(lp22
sVurls
p23
(lp24
(dp25
Vurl
p26
Vhttps://t.co/cJ8WlItgjG
p27
sVindices
p28
(lp29
I23
aI46
asVexpanded_url
p30
Vhttps://twitter.com/2thank/status/616263316898316288
p31
sVdisplay_url
p32
Vtwitter.com/2thank/status/\u2026
p33
sassS'quoted_status_id'
p34
I616263316898316288
sS'_json'
p35
(dp36
Vcontributors
p37
NsVtruncated
p38
I00
sVtext
p39
g9
sVin_reply_to_status_id
p40
NsVid
p41
I616263616497602560
sVfavorite_count
p42
I0
sVsource
p43
V<a href="http://twitter.com/download/iphone" rel="nofollow">Twitter for iPhone</a>
p44
sVquoted_status_id
p45
I616263316898316288
sVretweeted
p46
I00
sVcoordinates
p47
NsVtimestamp_ms
p48
V1435763670454
p49
sVquoted_status
p50
(dp51
g37
Nsg38
I00
sg39
VDifferent to each of us... http://t.co/sXAFy1hy78
p52
sg40
Nsg41
I616263316898316288
sg42
I0
sg43
V<a href="http://twitter.com" rel="nofollow">Twitter Web Client</a>
p53
sg46
I00
sg47
NsVentities
p54
(dp55
g17
(lp56
sVmedia
p57
(lp58
(dp59
g30
Vhttp://twitter.com/2thank/status/616263316898316288/photo/1
p60
sg32
Vpic.twitter.com/sXAFy1hy78
p61
sg26
Vhttp://t.co/sXAFy1hy78
p62
sVmedia_url_https
p63
Vhttps://pbs.twimg.com/media/CI1oOHtUsAA0SVC.jpg
p64
sVid_str
p65
V616263315816230912
p66
sVsizes
p67
(dp68
Vlarge
p69
(dp70
Vh
p71
I128
sVresize
p72
Vfit
p73
sVw
p74
I441
ssVsmall
p75
(dp76
g71
I98
sg72
Vfit
p77
sg74
I340
ssVmedium
p78
(dp79
g71
I128
sg72
Vfit
p80
sg74
I441
ssVthumb
p81
(dp82
g71
I128
sg72
Vcrop
p83
sg74
I150
sssg28
(lp84
I27
aI49
asVtype
p85
Vphoto
p86
sg41
I616263315816230912
sVmedia_url
p87
Vhttp://pbs.twimg.com/media/CI1oOHtUsAA0SVC.jpg
p88
sasg21
(lp89
sg15
(lp90
sg19
(lp91
sg23
(lp92
ssVin_reply_to_screen_name
p93
Nsg65
V616263316898316288
p94
sVretweet_count
p95
I0
sVin_reply_to_user_id
p96
NsVfavorited
p97
I00
sVuser
p98
(dp99
Vfollow_request_sent
p100
NsVprofile_use_background_image
p101
I01
sVdefault_profile_image
p102
I00
sg41
I55121922
sVverified
p103
I00
sVprofile_image_url_https
p104
Vhttps://pbs.twimg.com/profile_images/378800000408049627/1b2db9843ac56462b16dfb2e53b120f7_normal.jpeg
p105
sVprofile_sidebar_fill_color
p106
V95E8EC
p107
sVprofile_text_color
p108
V3C3940
p109
sVfollowers_count
p110
I334161
sVprofile_sidebar_border_color
p111
V5ED4DC
p112
sg65
V55121922
p113
sVprofile_background_color
p114
V0099B9
p115
sVlisted_count
p116
I2787
sVprofile_background_image_url_https
p117
Vhttps://abs.twimg.com/images/themes/theme4/bg.gif
p118
sVutc_offset
p119
I-18000
sVstatuses_count
p120
I57042
sVdescription
p121
VThere are many people who should be appreciated, given gratitude and recognition, for who they are, what they do and have achieved in life.
p122
sVfriends_count
p123
I318311
sVlocation
p124
VThank and Smile with me. World
p125
sVprofile_link_color
p126
V0099B9
p127
sVprofile_image_url
p128
Vhttp://pbs.twimg.com/profile_images/378800000408049627/1b2db9843ac56462b16dfb2e53b120f7_normal.jpeg
p129
sVfollowing
p130
NsVgeo_enabled
p131
I00
sVprofile_banner_url
p132
Vhttps://pbs.twimg.com/profile_banners/55121922/1398350215
p133
sVprofile_background_image_url
p134
Vhttp://abs.twimg.com/images/themes/theme4/bg.gif
p135
sVname
p136
VAppreciate Gratitude
p137
sVlang
p138
Ven
p139
sVprofile_background_tile
p140
I00
sVfavourites_count
p141
I1414
sVscreen_name
p142
V2thank
p143
sVnotifications
p144
Nsg26
NsVcreated_at
p145
VThu Jul 09 03:00:57 +0000 2009
p146
sVcontributors_enabled
p147
I00
sVtime_zone
p148
VCentral Time (US & Canada)
p149
sVprotected
p150
I00
sVdefault_profile
p151
I00
sVis_translator
p152
I00
ssVgeo
p153
NsVin_reply_to_user_id_str
p154
NsVpossibly_sensitive
p155
I00
sg138
Ven
p156
sg145
VWed Jul 01 15:13:19 +0000 2015
p157
sVfilter_level
p158
Vlow
p159
sVin_reply_to_status_id_str
p160
NsVplace
p161
NsVextended_entities
p162
(dp163
g57
(lp164
(dp165
g30
Vhttp://twitter.com/2thank/status/616263316898316288/photo/1
p166
sg32
Vpic.twitter.com/sXAFy1hy78
p167
sg26
Vhttp://t.co/sXAFy1hy78
p168
sg63
Vhttps://pbs.twimg.com/media/CI1oOHtUsAA0SVC.jpg
p169
sg65
V616263315816230912
p170
sg67
(dp171
g69
(dp172
g71
I128
sg72
Vfit
p173
sg74
I441
ssg75
(dp174
g71
I98
sg72
Vfit
p175
sg74
I340
ssg78
(dp176
g71
I128
sg72
Vfit
p177
sg74
I441
ssg81
(dp178
g71
I128
sg72
Vcrop
p179
sg74
I150
sssg28
(lp180
I27
aI49
asg85
Vphoto
p181
sg41
I616263315816230912
sg87
Vhttp://pbs.twimg.com/media/CI1oOHtUsAA0SVC.jpg
p182
sasssg54
g14
sg93
Nsg65
V616263616497602560
p183
sg95
I0
sg96
Nsg97
I00
sg98
(dp184
g100
Nsg101
I00
sg102
I00
sg41
I93762339
sg103
I00
sg104
Vhttps://pbs.twimg.com/profile_images/615072536619974656/LNETfB1Y_normal.jpg
p185
sg106
V252429
p186
sg108
V666666
p187
sg110
I1156
sg111
VFFFFFF
p188
sg65
V93762339
p189
sg114
VF5F7FA
p190
sg116
I63
sg117
Vhttps://pbs.twimg.com/profile_background_images/595570234192306176/zdw1IE1s.jpg
p191
sg119
I7200
sg120
I20765
sg121
VA daily review of travel ideas, trends and lifestyle goodies. A lifestyle blog that wants to me you smile ..
p192
sg123
I1661
sg124
VZurich -Switzerland 
p193
sg126
V69E7F0
p194
sg128
Vhttp://pbs.twimg.com/profile_images/615072536619974656/LNETfB1Y_normal.jpg
p195
sg130
Nsg131
I01
sg132
Vhttps://pbs.twimg.com/profile_banners/93762339/1435395069
p196
sg134
Vhttp://pbs.twimg.com/profile_background_images/595570234192306176/zdw1IE1s.jpg
p197
sg136
VHuellas de Luz Blog
p198
sg138
Ven
p199
sg140
I00
sg141
I804
sg142
Vhuellasdluzblog
p200
sg144
Nsg26
Vhttp://www.huellasdeluzblog.com
p201
sg145
VTue Dec 01 01:46:57 +0000 2009
p202
sg147
I00
sg148
VBern
p203
sg150
I00
sg151
I00
sg152
I00
ssg153
Nsg154
Nsg155
I00
sg138
Ven
p204
sg145
VWed Jul 01 15:14:30 +0000 2015
p205
sVquoted_status_id_str
p206
V616263316898316288
p207
sg158
Vlow
p208
sg160
Nsg161
(dp209
Vfull_name
p210
VZurich, Switzerland
p211
sg26
Vhttps://api.twitter.com/1.1/geo/id/db94c1cccc67c4f4.json
p212
sVcountry
p213
VSchweiz
p214
sVplace_type
p215
Vadmin
p216
sVbounding_box
p217
(dp218
g85
VPolygon
p219
sg47
(lp220
(lp221
(lp222
F8.357749
aF47.159384
aa(lp223
F8.357749
aF47.694503
aa(lp224
F8.984445
aF47.694503
aa(lp225
F8.984445
aF47.159384
aaassVcountry_code
p226
VCH
p227
sVattributes
p228
(dp229
sg41
Vdb94c1cccc67c4f4
p230
sg136
VZurich
p231
sssS'coordinates'
p232
NsS'timestamp_ms'
p233
g49
sS'quoted_status'
p234
g51
sS'source'
p235
VTwitter for iPhone
p236
sS'in_reply_to_screen_name'
p237
NsS'id_str'
p238
g183
sS'retweet_count'
p239
I0
sS'in_reply_to_user_id'
p240
NsS'favorited'
p241
I00
sS'source_url'
p242
Vhttp://twitter.com/download/iphone
p243
sS'user'
p244
g0
(ctweepy.models
User
p245
g2
Ntp246
Rp247
(dp248
S'follow_request_sent'
p249
NsS'profile_use_background_image'
p250
I00
sS'profile_sidebar_fill_color'
p251
g186
sg11
I93762339
sS'verified'
p252
I00
sS'profile_image_url_https'
p253
g185
sg35
g184
sS'contributors_enabled'
p254
I00
sS'profile_text_color'
p255
g187
sS'followers_count'
p256
I1156
sS'profile_sidebar_border_color'
p257
g188
sS'location'
p258
g193
sS'default_profile_image'
p259
I00
sg238
g189
sS'utc_offset'
p260
I7200
sS'statuses_count'
p261
I20765
sS'description'
p262
g192
sS'friends_count'
p263
I1661
sS'profile_link_color'
p264
g194
sS'profile_image_url'
p265
g195
sS'notifications'
p266
NsS'geo_enabled'
p267
I01
sS'profile_background_color'
p268
g190
sS'profile_banner_url'
p269
g196
sS'profile_background_image_url'
p270
g197
sS'name'
p271
g198
sS'lang'
p272
g199
sS'following'
p273
I00
sS'profile_background_tile'
p274
I00
sS'favourites_count'
p275
I804
sS'screen_name'
p276
g200
sS'url'
p277
g201
sS'created_at'
p278
cdatetime
datetime
p279
(S'\x07\xd9\x0c\x01\x01.9\x00\x00\x00'
p280
tp281
Rp282
sS'profile_background_image_url_https'
p283
g191
sS'time_zone'
p284
g203
sS'protected'
p285
I00
sS'default_profile'
p286
I00
sS'is_translator'
p287
I00
sS'listed_count'
p288
I63
sbsS'geo'
p289
NsS'in_reply_to_user_id_str'
p290
NsS'possibly_sensitive'
p291
I00
sg272
g204
sg278
g279
(S'\x07\xdf\x07\x01\x0f\x0e\x1e\x00\x00\x00'
p292
tp293
Rp294
sS'author'
p295
g247
sS'quoted_status_id_str'
p296
g207
sS'filter_level'
p297
g208
sS'in_reply_to_status_id_str'
p298
NsS'place'
p299
g0
(ctweepy.models
Place
p300
g2
Ntp301
Rp302
(dp303
S'full_name'
p304
g211
sg277
g212
sS'country'
p305
g214
sS'place_type'
p306
g216
sS'bounding_box'
p307
g0
(ctweepy.models
BoundingBox
p308
g2
Ntp309
Rp310
(dp311
S'type'
p312
g219
sg232
g220
sbsS'country_code'
p313
g227
sS'attributes'
p314
g229
sg11
g230
sg271
g231
sbsS'retweeted'
p315
I00
sb.