ccopy_reg
_reconstructor
p0
(ctweepy.models
Status
p1
c__builtin__
object
p2
Ntp3
Rp4
(dp5
S'favorited'
p6
I00
sS'contributors'
p7
NsS'truncated'
p8
I00
sS'text'
p9
V@LiveChatSystem using your chat in webinars: really broken. Smileys break, links don't work, Youtube vids don't embed properly... :-(
p10
sS'source_url'
p11
Vhttp://twitter.com
p12
sS'possibly_sensitive'
p13
I00
sS'in_reply_to_status_id'
p14
NsS'user'
p15
g0
(ctweepy.models
User
p16
g2
Ntp17
Rp18
(dp19
S'follow_request_sent'
p20
NsS'profile_use_background_image'
p21
I00
sS'profile_sidebar_fill_color'
p22
VC0DFEC
p23
sS'id'
p24
I179610168
sS'verified'
p25
I00
sS'profile_image_url_https'
p26
Vhttps://pbs.twimg.com/profile_images/2962745477/fdc427f5bcac885b88d9cf04e62e62be_normal.jpeg
p27
sS'_json'
p28
(dp29
Vfollow_request_sent
p30
NsVprofile_use_background_image
p31
I00
sVdefault_profile_image
p32
I00
sVid
p33
I179610168
sVverified
p34
I00
sVprofile_image_url_https
p35
g27
sVprofile_sidebar_fill_color
p36
g23
sVprofile_text_color
p37
V333333
p38
sVfollowers_count
p39
I4004
sVprofile_sidebar_border_color
p40
VFFFFFF
p41
sVid_str
p42
V179610168
p43
sVprofile_background_color
p44
V022330
p45
sVlisted_count
p46
I276
sVprofile_background_image_url_https
p47
Vhttps://pbs.twimg.com/profile_background_images/662602156/00llupzsafyedorin4m4.png
p48
sVutc_offset
p49
I7200
sVstatuses_count
p50
I22524
sVdescription
p51
VKMU-Web-Trainer. Familyteam mit @Jeduta + 2 Kids in 9er-WG. Bass. Whisky. CH/UK/SF. Founder Bassic (sold 2013), @visitrapperswil, @blechschilder
p52
sVfriends_count
p53
I761
sVlocation
p54
VRapperswil, Switzerland
p55
sVprofile_link_color
p56
V0084B4
p57
sVprofile_image_url
p58
Vhttp://pbs.twimg.com/profile_images/2962745477/fdc427f5bcac885b88d9cf04e62e62be_normal.jpeg
p59
sVfollowing
p60
NsVgeo_enabled
p61
I01
sVprofile_banner_url
p62
Vhttps://pbs.twimg.com/profile_banners/179610168/1410044888
p63
sVprofile_background_image_url
p64
Vhttp://pbs.twimg.com/profile_background_images/662602156/00llupzsafyedorin4m4.png
p65
sVname
p66
VSam Steiner
p67
sVlang
p68
Ven
p69
sVprofile_background_tile
p70
I00
sVfavourites_count
p71
I9169
sVscreen_name
p72
Vsamsteiner
p73
sVnotifications
p74
NsVurl
p75
Vhttp://alike.ch
p76
sVcreated_at
p77
VTue Aug 17 18:21:02 +0000 2010
p78
sVcontributors_enabled
p79
I00
sVtime_zone
p80
VBern
p81
sVprotected
p82
I00
sVdefault_profile
p83
I00
sVis_translator
p84
I00
ssS'contributors_enabled'
p85
I00
sS'profile_text_color'
p86
g38
sS'followers_count'
p87
I4004
sS'profile_sidebar_border_color'
p88
g41
sS'location'
p89
g55
sS'default_profile_image'
p90
I00
sS'id_str'
p91
g43
sS'utc_offset'
p92
I7200
sS'statuses_count'
p93
I22524
sS'description'
p94
g52
sS'friends_count'
p95
I761
sS'profile_link_color'
p96
g57
sS'profile_image_url'
p97
g59
sS'notifications'
p98
NsS'geo_enabled'
p99
I01
sS'profile_background_color'
p100
g45
sS'profile_banner_url'
p101
g63
sS'profile_background_image_url'
p102
g65
sS'name'
p103
g67
sS'lang'
p104
g69
sS'following'
p105
I00
sS'profile_background_tile'
p106
I00
sS'favourites_count'
p107
I9169
sS'screen_name'
p108
g73
sS'url'
p109
g76
sS'created_at'
p110
cdatetime
datetime
p111
(S'\x07\xda\x08\x11\x12\x15\x02\x00\x00\x00'
p112
tp113
Rp114
sS'profile_background_image_url_https'
p115
g48
sS'time_zone'
p116
g81
sS'protected'
p117
I00
sS'default_profile'
p118
I00
sS'is_translator'
p119
I00
sS'listed_count'
p120
I276
sbsS'filter_level'
p121
Vlow
p122
sS'geo'
p123
Nsg24
I618745709509103616
sS'favorite_count'
p124
I0
sS'source'
p125
VTwitter Web Client
p126
sg104
Ven
p127
sS'author'
p128
g18
sS'in_reply_to_user_id_str'
p129
V317592579
p130
sg28
(dp131
Vcontributors
p132
NsVtruncated
p133
I00
sVtext
p134
g10
sVin_reply_to_status_id
p135
Nsg33
I618745709509103616
sVfavorite_count
p136
I0
sVsource
p137
V<a href="http://twitter.com" rel="nofollow">Twitter Web Client</a>
p138
sVretweeted
p139
I00
sVcoordinates
p140
NsVtimestamp_ms
p141
V1436355447543
p142
sVentities
p143
(dp144
Vuser_mentions
p145
(lp146
(dp147
g33
I317592579
sVindices
p148
(lp149
I0
aI15
asg42
V317592579
p150
sg72
VLiveChatSystem
p151
sg66
VChatwing
p152
sasVsymbols
p153
(lp154
sVtrends
p155
(lp156
sVhashtags
p157
(lp158
sVurls
p159
(lp160
ssVin_reply_to_screen_name
p161
VLiveChatSystem
p162
sg42
V618745709509103616
p163
sVretweet_count
p164
I0
sVin_reply_to_user_id
p165
I317592579
sVfavorited
p166
I00
sVuser
p167
g29
sVgeo
p168
NsVin_reply_to_user_id_str
p169
g130
sVpossibly_sensitive
p170
I00
sg68
g127
sg77
VWed Jul 08 11:37:27 +0000 2015
p171
sVfilter_level
p172
g122
sVin_reply_to_status_id_str
p173
NsVplace
p174
(dp175
Vfull_name
p176
VZurich, Switzerland
p177
sg75
Vhttps://api.twitter.com/1.1/geo/id/3acb748d0f1e9265.json
p178
sVcountry
p179
VSchweiz
p180
sVplace_type
p181
Vcity
p182
sVbounding_box
p183
(dp184
Vtype
p185
VPolygon
p186
sg140
(lp187
(lp188
(lp189
F8.448081
aF47.320183
aa(lp190
F8.448081
aF47.434721
aa(lp191
F8.625442
aF47.434721
aa(lp192
F8.625442
aF47.320183
aaassVcountry_code
p193
VCH
p194
sVattributes
p195
(dp196
sg33
V3acb748d0f1e9265
p197
sg66
VZurich
p198
sssS'coordinates'
p199
NsS'timestamp_ms'
p200
g142
sS'entities'
p201
g144
sS'in_reply_to_status_id_str'
p202
NsS'in_reply_to_screen_name'
p203
g162
sg91
g163
sS'retweeted'
p204
I00
sS'place'
p205
g0
(ctweepy.models
Place
p206
g2
Ntp207
Rp208
(dp209
S'full_name'
p210
g177
sg109
g178
sS'country'
p211
g180
sS'place_type'
p212
g182
sS'bounding_box'
p213
g0
(ctweepy.models
BoundingBox
p214
g2
Ntp215
Rp216
(dp217
S'type'
p218
g186
sg199
g187
sbsS'country_code'
p219
g194
sS'attributes'
p220
g196
sg24
g197
sg103
g198
sbsS'retweet_count'
p221
I0
sg110
g111
(S'\x07\xdf\x07\x08\x0b%\x1b\x00\x00\x00'
p222
tp223
Rp224
sS'in_reply_to_user_id'
p225
I317592579
sb.