ccopy_reg
_reconstructor
p0
(ctweepy.models
Status
p1
c__builtin__
object
p2
Ntp3
Rp4
(dp5
S'favorited'
p6
I00
sS'contributors'
p7
NsS'truncated'
p8
I00
sS'text'
p9
V#luuuuuunch \u2764\ufe0f #makerel #chilipecorino #basil #cherrytomato love this!!! feels like being on Vacation\u2026 https://t.co/rIWvnJdN9b
p10
sS'source_url'
p11
Vhttp://instagram.com
p12
sS'possibly_sensitive'
p13
I00
sS'in_reply_to_status_id'
p14
NsS'user'
p15
g0
(ctweepy.models
User
p16
g2
Ntp17
Rp18
(dp19
S'follow_request_sent'
p20
NsS'profile_use_background_image'
p21
I01
sS'profile_sidebar_fill_color'
p22
VDDEEF6
p23
sS'id'
p24
I324805864
sS'verified'
p25
I00
sS'profile_image_url_https'
p26
Vhttps://pbs.twimg.com/profile_images/581603815104856064/l9ofQV32_normal.jpg
p27
sS'_json'
p28
(dp29
Vfollow_request_sent
p30
NsVprofile_use_background_image
p31
I01
sVdefault_profile_image
p32
I00
sVid
p33
I324805864
sVverified
p34
I00
sVprofile_image_url_https
p35
g27
sVprofile_sidebar_fill_color
p36
g23
sVprofile_text_color
p37
V333333
p38
sVfollowers_count
p39
I87
sVprofile_sidebar_border_color
p40
VC0DEED
p41
sVid_str
p42
V324805864
p43
sVprofile_background_color
p44
VC0DEED
p45
sVlisted_count
p46
I13
sVprofile_background_image_url_https
p47
Vhttps://abs.twimg.com/images/themes/theme1/bg.png
p48
sVutc_offset
p49
I7200
sVstatuses_count
p50
I1080
sVdescription
p51
NsVfriends_count
p52
I25
sVlocation
p53
VZurich, Switzerland
p54
sVprofile_link_color
p55
V9BA8AD
p56
sVprofile_image_url
p57
Vhttp://pbs.twimg.com/profile_images/581603815104856064/l9ofQV32_normal.jpg
p58
sVfollowing
p59
NsVgeo_enabled
p60
I01
sVprofile_banner_url
p61
Vhttps://pbs.twimg.com/profile_banners/324805864/1427500129
p62
sVprofile_background_image_url
p63
Vhttp://abs.twimg.com/images/themes/theme1/bg.png
p64
sVname
p65
VSylwina Annina
p66
sVlang
p67
Ven
p68
sVprofile_background_tile
p69
I00
sVfavourites_count
p70
I21
sVscreen_name
p71
Vsylwina
p72
sVnotifications
p73
NsVurl
p74
Vhttp://www.sylwina.com
p75
sVcreated_at
p76
VMon Jun 27 07:23:31 +0000 2011
p77
sVcontributors_enabled
p78
I00
sVtime_zone
p79
VParis
p80
sVprotected
p81
I00
sVdefault_profile
p82
I00
sVis_translator
p83
I00
ssS'contributors_enabled'
p84
I00
sS'profile_text_color'
p85
g38
sS'followers_count'
p86
I87
sS'profile_sidebar_border_color'
p87
g41
sS'location'
p88
g54
sS'default_profile_image'
p89
I00
sS'id_str'
p90
g43
sS'utc_offset'
p91
I7200
sS'statuses_count'
p92
I1080
sS'description'
p93
NsS'friends_count'
p94
I25
sS'profile_link_color'
p95
g56
sS'profile_image_url'
p96
g58
sS'notifications'
p97
NsS'geo_enabled'
p98
I01
sS'profile_background_color'
p99
g45
sS'profile_banner_url'
p100
g62
sS'profile_background_image_url'
p101
g64
sS'name'
p102
g66
sS'lang'
p103
g68
sS'following'
p104
I00
sS'profile_background_tile'
p105
I00
sS'favourites_count'
p106
I21
sS'screen_name'
p107
g72
sS'url'
p108
g75
sS'created_at'
p109
cdatetime
datetime
p110
(S'\x07\xdb\x06\x1b\x07\x17\x1f\x00\x00\x00'
p111
tp112
Rp113
sS'profile_background_image_url_https'
p114
g48
sS'time_zone'
p115
g80
sS'protected'
p116
I00
sS'default_profile'
p117
I00
sS'is_translator'
p118
I00
sS'listed_count'
p119
I13
sbsS'filter_level'
p120
Vlow
p121
sS'geo'
p122
(dp123
Vtype
p124
VPoint
p125
sVcoordinates
p126
(lp127
F47.37888
aF8.531133
assg24
I619528303658012672
sS'favorite_count'
p128
I0
sS'source'
p129
VInstagram
p130
sg103
Ven
p131
sS'author'
p132
g18
sS'in_reply_to_user_id_str'
p133
Nsg28
(dp134
Vcontributors
p135
NsVtruncated
p136
I00
sVtext
p137
g10
sVin_reply_to_status_id
p138
Nsg33
I619528303658012672
sVfavorite_count
p139
I0
sVsource
p140
V<a href="http://instagram.com" rel="nofollow">Instagram</a>
p141
sVretweeted
p142
I00
sg126
(dp143
g124
VPoint
p144
sg126
(lp145
F8.531133
aF47.37888
assVtimestamp_ms
p146
V1436542032528
p147
sVentities
p148
(dp149
Vuser_mentions
p150
(lp151
sVsymbols
p152
(lp153
sVtrends
p154
(lp155
sVhashtags
p156
(lp157
(dp158
Vindices
p159
(lp160
I0
aI11
asg137
Vluuuuuunch
p161
sa(dp162
g159
(lp163
I15
aI23
asg137
Vmakerel
p164
sa(dp165
g159
(lp166
I24
aI38
asg137
Vchilipecorino
p167
sa(dp168
g159
(lp169
I39
aI45
asg137
Vbasil
p170
sa(dp171
g159
(lp172
I46
aI59
asg137
Vcherrytomato
p173
sasVurls
p174
(lp175
(dp176
g74
Vhttps://t.co/rIWvnJdN9b
p177
sg159
(lp178
I103
aI126
asVexpanded_url
p179
Vhttps://instagram.com/p/49et96xZ7-/
p180
sVdisplay_url
p181
Vinstagram.com/p/49et96xZ7-/
p182
sassVin_reply_to_screen_name
p183
Nsg42
V619528303658012672
p184
sVretweet_count
p185
I0
sVin_reply_to_user_id
p186
NsVfavorited
p187
I00
sVuser
p188
g29
sVgeo
p189
g123
sVin_reply_to_user_id_str
p190
NsVpossibly_sensitive
p191
I00
sg67
g131
sg76
VFri Jul 10 15:27:12 +0000 2015
p192
sVfilter_level
p193
g121
sVin_reply_to_status_id_str
p194
NsVplace
p195
(dp196
Vfull_name
p197
VZurich, Switzerland
p198
sg74
Vhttps://api.twitter.com/1.1/geo/id/3acb748d0f1e9265.json
p199
sVcountry
p200
VSchweiz
p201
sVplace_type
p202
Vcity
p203
sVbounding_box
p204
(dp205
g124
VPolygon
p206
sg126
(lp207
(lp208
(lp209
F8.448081
aF47.320183
aa(lp210
F8.448081
aF47.434721
aa(lp211
F8.625442
aF47.434721
aa(lp212
F8.625442
aF47.320183
aaassVcountry_code
p213
VCH
p214
sVattributes
p215
(dp216
sg33
V3acb748d0f1e9265
p217
sg65
VZurich
p218
sssS'coordinates'
p219
g143
sS'timestamp_ms'
p220
g147
sS'entities'
p221
g149
sS'in_reply_to_status_id_str'
p222
NsS'in_reply_to_screen_name'
p223
Nsg90
g184
sS'retweeted'
p224
I00
sS'place'
p225
g0
(ctweepy.models
Place
p226
g2
Ntp227
Rp228
(dp229
S'full_name'
p230
g198
sg108
g199
sS'country'
p231
g201
sS'place_type'
p232
g203
sS'bounding_box'
p233
g0
(ctweepy.models
BoundingBox
p234
g2
Ntp235
Rp236
(dp237
S'type'
p238
g206
sg219
g207
sbsS'country_code'
p239
g214
sS'attributes'
p240
g216
sg24
g217
sg102
g218
sbsS'retweet_count'
p241
I0
sg109
g110
(S'\x07\xdf\x07\n\x0f\x1b\x0c\x00\x00\x00'
p242
tp243
Rp244
sS'in_reply_to_user_id'
p245
Nsb.