ccopy_reg
_reconstructor
p0
(ctweepy.models
Status
p1
c__builtin__
object
p2
Ntp3
Rp4
(dp5
S'favorited'
p6
I00
sS'contributors'
p7
NsS'truncated'
p8
I00
sS'text'
p9
V"Just because I don't answer doesn't mean I don't see your tweets" - Justin Bieber
p10
sS'source_url'
p11
Vhttp://twitter.com
p12
sS'possibly_sensitive'
p13
I00
sS'in_reply_to_status_id'
p14
NsS'user'
p15
g0
(ctweepy.models
User
p16
g2
Ntp17
Rp18
(dp19
S'follow_request_sent'
p20
NsS'profile_use_background_image'
p21
I01
sS'profile_sidebar_fill_color'
p22
V7AC3EE
p23
sS'id'
p24
I1545596996
sS'verified'
p25
I00
sS'profile_image_url_https'
p26
Vhttps://pbs.twimg.com/profile_images/620343854353543169/KKV_z4cV_normal.jpg
p27
sS'_json'
p28
(dp29
Vfollow_request_sent
p30
NsVprofile_use_background_image
p31
I01
sVdefault_profile_image
p32
I00
sVid
p33
I1545596996
sVverified
p34
I00
sVprofile_image_url_https
p35
g27
sVprofile_sidebar_fill_color
p36
g23
sVprofile_text_color
p37
V3D1957
p38
sVfollowers_count
p39
I262
sVprofile_sidebar_border_color
p40
V65B0DA
p41
sVid_str
p42
V1545596996
p43
sVprofile_background_color
p44
V1A1B1F
p45
sVlisted_count
p46
I3
sVprofile_background_image_url_https
p47
Vhttps://abs.twimg.com/images/themes/theme9/bg.gif
p48
sVutc_offset
p49
I7200
sVstatuses_count
p50
I6362
sVdescription
p51
Vdance | justin bieber | series
p52
sVfriends_count
p53
I299
sVlocation
p54
VBern/ Chicago
p55
sVprofile_link_color
p56
V89C9FA
p57
sVprofile_image_url
p58
Vhttp://pbs.twimg.com/profile_images/620343854353543169/KKV_z4cV_normal.jpg
p59
sVfollowing
p60
NsVgeo_enabled
p61
I01
sVprofile_banner_url
p62
Vhttps://pbs.twimg.com/profile_banners/1545596996/1429128488
p63
sVprofile_background_image_url
p64
Vhttp://abs.twimg.com/images/themes/theme9/bg.gif
p65
sVname
p66
VTanja Boogie
p67
sVlang
p68
Vde
p69
sVprofile_background_tile
p70
I00
sVfavourites_count
p71
I1233
sVscreen_name
p72
Vtvnjvbieber
p73
sVnotifications
p74
NsVurl
p75
Vhttp://Instagram.com/tanjaboogie
p76
sVcreated_at
p77
VTue Jun 25 12:15:45 +0000 2013
p78
sVcontributors_enabled
p79
I00
sVtime_zone
p80
VAmsterdam
p81
sVprotected
p82
I00
sVdefault_profile
p83
I00
sVis_translator
p84
I00
ssS'contributors_enabled'
p85
I00
sS'profile_text_color'
p86
g38
sS'followers_count'
p87
I262
sS'profile_sidebar_border_color'
p88
g41
sS'location'
p89
g55
sS'default_profile_image'
p90
I00
sS'id_str'
p91
g43
sS'utc_offset'
p92
I7200
sS'statuses_count'
p93
I6362
sS'description'
p94
g52
sS'friends_count'
p95
I299
sS'profile_link_color'
p96
g57
sS'profile_image_url'
p97
g59
sS'notifications'
p98
NsS'geo_enabled'
p99
I01
sS'profile_background_color'
p100
g45
sS'profile_banner_url'
p101
g63
sS'profile_background_image_url'
p102
g65
sS'name'
p103
g67
sS'lang'
p104
g69
sS'following'
p105
I00
sS'profile_background_tile'
p106
I00
sS'favourites_count'
p107
I1233
sS'screen_name'
p108
g73
sS'url'
p109
g76
sS'created_at'
p110
cdatetime
datetime
p111
(S'\x07\xdd\x06\x19\x0c\x0f-\x00\x00\x00'
p112
tp113
Rp114
sS'profile_background_image_url_https'
p115
g48
sS'time_zone'
p116
g81
sS'protected'
p117
I00
sS'default_profile'
p118
I00
sS'is_translator'
p119
I00
sS'listed_count'
p120
I3
sbsS'filter_level'
p121
Vlow
p122
sS'geo'
p123
Nsg24
I620367440313233412
sS'favorite_count'
p124
I0
sS'source'
p125
VTwitter Web Client
p126
sg104
Ven
p127
sS'author'
p128
g18
sS'in_reply_to_user_id_str'
p129
Nsg28
(dp130
Vcontributors
p131
NsVtruncated
p132
I00
sVtext
p133
g10
sVin_reply_to_status_id
p134
Nsg33
I620367440313233412
sVfavorite_count
p135
I0
sVsource
p136
V<a href="http://twitter.com" rel="nofollow">Twitter Web Client</a>
p137
sVretweeted
p138
I00
sVcoordinates
p139
NsVtimestamp_ms
p140
V1436742098297
p141
sVentities
p142
(dp143
Vuser_mentions
p144
(lp145
sVsymbols
p146
(lp147
sVtrends
p148
(lp149
sVhashtags
p150
(lp151
sVurls
p152
(lp153
ssVin_reply_to_screen_name
p154
Nsg42
V620367440313233412
p155
sVretweet_count
p156
I0
sVin_reply_to_user_id
p157
NsVfavorited
p158
I00
sVuser
p159
g29
sVgeo
p160
NsVin_reply_to_user_id_str
p161
NsVpossibly_sensitive
p162
I00
sg68
g127
sg77
VSun Jul 12 23:01:38 +0000 2015
p163
sVfilter_level
p164
g122
sVin_reply_to_status_id_str
p165
NsVplace
p166
(dp167
Vfull_name
p168
VBern, Schweiz
p169
sg75
Vhttps://api.twitter.com/1.1/geo/id/5868d0e0749c9c47.json
p170
sVcountry
p171
VSchweiz
p172
sVplace_type
p173
Vadmin
p174
sVbounding_box
p175
(dp176
Vtype
p177
VPolygon
p178
sg139
(lp179
(lp180
(lp181
F6.861601
aF46.326441
aa(lp182
F6.861601
aF47.34528
aa(lp183
F8.455051
aF47.34528
aa(lp184
F8.455051
aF46.326441
aaassVcountry_code
p185
VCH
p186
sVattributes
p187
(dp188
sg33
V5868d0e0749c9c47
p189
sg66
VBern
p190
sssS'coordinates'
p191
NsS'timestamp_ms'
p192
g141
sS'entities'
p193
g143
sS'in_reply_to_status_id_str'
p194
NsS'in_reply_to_screen_name'
p195
Nsg91
g155
sS'retweeted'
p196
I00
sS'place'
p197
g0
(ctweepy.models
Place
p198
g2
Ntp199
Rp200
(dp201
S'full_name'
p202
g169
sg109
g170
sS'country'
p203
g172
sS'place_type'
p204
g174
sS'bounding_box'
p205
g0
(ctweepy.models
BoundingBox
p206
g2
Ntp207
Rp208
(dp209
S'type'
p210
g178
sg191
g179
sbsS'country_code'
p211
g186
sS'attributes'
p212
g188
sg24
g189
sg103
g190
sbsS'retweet_count'
p213
I0
sg110
g111
(S'\x07\xdf\x07\x0c\x17\x01&\x00\x00\x00'
p214
tp215
Rp216
sS'in_reply_to_user_id'
p217
Nsb.