ccopy_reg
_reconstructor
p0
(ctweepy.models
Status
p1
c__builtin__
object
p2
Ntp3
Rp4
(dp5
S'favorited'
p6
I00
sS'contributors'
p7
NsS'truncated'
p8
I00
sS'text'
p9
VSleep Deprived but Staying Alive-Importance of Sleep in Life After 60 @joanfmoran @sixtyandme http://t.co/fmH7TW67wi http://t.co/CdVJpBOuUZ
p10
sS'source_url'
p11
Vhttp://twitter.com
p12
sS'possibly_sensitive'
p13
I00
sS'in_reply_to_status_id'
p14
NsS'user'
p15
g0
(ctweepy.models
User
p16
g2
Ntp17
Rp18
(dp19
S'follow_request_sent'
p20
NsS'profile_use_background_image'
p21
I01
sS'profile_sidebar_fill_color'
p22
VF3F3F3
p23
sS'id'
p24
I955350608
sS'verified'
p25
I00
sS'profile_image_url_https'
p26
Vhttps://pbs.twimg.com/profile_images/564447504066818048/t1W1zL6G_normal.png
p27
sS'_json'
p28
(dp29
Vfollow_request_sent
p30
NsVprofile_use_background_image
p31
I01
sVdefault_profile_image
p32
I00
sVid
p33
I955350608
sVverified
p34
I00
sVprofile_image_url_https
p35
g27
sVprofile_sidebar_fill_color
p36
g23
sVprofile_text_color
p37
V333333
p38
sVfollowers_count
p39
I3623
sVprofile_sidebar_border_color
p40
VDFDFDF
p41
sVid_str
p42
V955350608
p43
sVprofile_background_color
p44
VEBEBEB
p45
sVlisted_count
p46
I112
sVprofile_background_image_url_https
p47
Vhttps://abs.twimg.com/images/themes/theme7/bg.gif
p48
sVutc_offset
p49
NsVstatuses_count
p50
I12153
sVdescription
p51
VSixty and Me is a global community of 100,000 women over 60. Helping boomer women to live healthy, independent and financially secure lives. By Margaret Manning
p52
sVfriends_count
p53
I1781
sVlocation
p54
VSwitzerland 
p55
sVprofile_link_color
p56
V990000
p57
sVprofile_image_url
p58
Vhttp://pbs.twimg.com/profile_images/564447504066818048/t1W1zL6G_normal.png
p59
sVfollowing
p60
NsVgeo_enabled
p61
I01
sVprofile_banner_url
p62
Vhttps://pbs.twimg.com/profile_banners/955350608/1423417866
p63
sVprofile_background_image_url
p64
Vhttp://abs.twimg.com/images/themes/theme7/bg.gif
p65
sVname
p66
VSixty and Me 
p67
sVlang
p68
Ven
p69
sVprofile_background_tile
p70
I00
sVfavourites_count
p71
I256
sVscreen_name
p72
Vsixtyandme
p73
sVnotifications
p74
NsVurl
p75
Vhttp://sixtyandme.com
p76
sVcreated_at
p77
VSun Nov 18 11:54:24 +0000 2012
p78
sVcontributors_enabled
p79
I00
sVtime_zone
p80
NsVprotected
p81
I00
sVdefault_profile
p82
I00
sVis_translator
p83
I00
ssS'contributors_enabled'
p84
I00
sS'profile_text_color'
p85
g38
sS'followers_count'
p86
I3623
sS'profile_sidebar_border_color'
p87
g41
sS'location'
p88
g55
sS'default_profile_image'
p89
I00
sS'id_str'
p90
g43
sS'utc_offset'
p91
NsS'statuses_count'
p92
I12153
sS'description'
p93
g52
sS'friends_count'
p94
I1781
sS'profile_link_color'
p95
g57
sS'profile_image_url'
p96
g59
sS'notifications'
p97
NsS'geo_enabled'
p98
I01
sS'profile_background_color'
p99
g45
sS'profile_banner_url'
p100
g63
sS'profile_background_image_url'
p101
g65
sS'name'
p102
g67
sS'lang'
p103
g69
sS'following'
p104
I00
sS'profile_background_tile'
p105
I00
sS'favourites_count'
p106
I256
sS'screen_name'
p107
g73
sS'url'
p108
g76
sS'created_at'
p109
cdatetime
datetime
p110
(S'\x07\xdc\x0b\x12\x0b6\x18\x00\x00\x00'
p111
tp112
Rp113
sS'profile_background_image_url_https'
p114
g48
sS'time_zone'
p115
NsS'protected'
p116
I00
sS'default_profile'
p117
I00
sS'is_translator'
p118
I00
sS'listed_count'
p119
I112
sbsS'filter_level'
p120
Vlow
p121
sS'geo'
p122
Nsg24
I621234258288484352
sS'favorite_count'
p123
I0
sS'source'
p124
VTwitter Web Client
p125
sg103
Ven
p126
sS'author'
p127
g18
sS'in_reply_to_user_id_str'
p128
Nsg28
(dp129
Vcontributors
p130
NsVtruncated
p131
I00
sVtext
p132
g10
sVin_reply_to_status_id
p133
Nsg33
I621234258288484352
sVfavorite_count
p134
I0
sVsource
p135
V<a href="http://twitter.com" rel="nofollow">Twitter Web Client</a>
p136
sVretweeted
p137
I00
sVcoordinates
p138
NsVtimestamp_ms
p139
V1436948763807
p140
sVentities
p141
(dp142
Vsymbols
p143
(lp144
sVmedia
p145
(lp146
(dp147
Vexpanded_url
p148
Vhttp://twitter.com/sixtyandme/status/621234258288484352/photo/1
p149
sVdisplay_url
p150
Vpic.twitter.com/CdVJpBOuUZ
p151
sg75
Vhttp://t.co/CdVJpBOuUZ
p152
sVmedia_url_https
p153
Vhttps://pbs.twimg.com/media/CJ8RQ_3UcAANByJ.jpg
p154
sg42
V621234257319456768
p155
sVsizes
p156
(dp157
Vlarge
p158
(dp159
Vh
p160
I325
sVresize
p161
Vfit
p162
sVw
p163
I700
ssVsmall
p164
(dp165
g160
I157
sg161
Vfit
p166
sg163
I340
ssVmedium
p167
(dp168
g160
I278
sg161
Vfit
p169
sg163
I600
ssVthumb
p170
(dp171
g160
I150
sg161
Vcrop
p172
sg163
I150
sssVindices
p173
(lp174
I117
aI139
asVtype
p175
Vphoto
p176
sg33
I621234257319456768
sVmedia_url
p177
Vhttp://pbs.twimg.com/media/CJ8RQ_3UcAANByJ.jpg
p178
sasVhashtags
p179
(lp180
sVuser_mentions
p181
(lp182
(dp183
g33
I223288901
sg173
(lp184
I70
aI81
asg42
V223288901
p185
sg72
Vjoanfmoran
p186
sg66
VJoan Frances Moran
p187
sa(dp188
g33
I955350608
sg173
(lp189
I82
aI93
asg42
V955350608
p190
sg72
Vsixtyandme
p191
sg66
VSixty and Me 
p192
sasVtrends
p193
(lp194
sVurls
p195
(lp196
(dp197
g75
Vhttp://t.co/fmH7TW67wi
p198
sg173
(lp199
I94
aI116
asg148
Vhttp://sixtyandme.com/sleep-deprivation-the-importance-of-sleep-in-life-after-60/
p200
sg150
Vsixtyandme.com/sleep-deprivat\u2026
p201
sassVin_reply_to_screen_name
p202
Nsg42
V621234258288484352
p203
sVretweet_count
p204
I0
sVin_reply_to_user_id
p205
NsVfavorited
p206
I00
sVuser
p207
g29
sVgeo
p208
NsVin_reply_to_user_id_str
p209
NsVpossibly_sensitive
p210
I00
sg68
g126
sg77
VWed Jul 15 08:26:03 +0000 2015
p211
sVfilter_level
p212
g121
sVin_reply_to_status_id_str
p213
NsVplace
p214
(dp215
Vfull_name
p216
VZurich, Switzerland
p217
sg75
Vhttps://api.twitter.com/1.1/geo/id/3acb748d0f1e9265.json
p218
sVcountry
p219
VSchweiz
p220
sVplace_type
p221
Vcity
p222
sVbounding_box
p223
(dp224
g175
VPolygon
p225
sg138
(lp226
(lp227
(lp228
F8.448081
aF47.320183
aa(lp229
F8.448081
aF47.434721
aa(lp230
F8.625442
aF47.434721
aa(lp231
F8.625442
aF47.320183
aaassVcountry_code
p232
VCH
p233
sVattributes
p234
(dp235
sg33
V3acb748d0f1e9265
p236
sg66
VZurich
p237
ssVextended_entities
p238
(dp239
g145
(lp240
(dp241
g148
Vhttp://twitter.com/sixtyandme/status/621234258288484352/photo/1
p242
sg150
Vpic.twitter.com/CdVJpBOuUZ
p243
sg75
Vhttp://t.co/CdVJpBOuUZ
p244
sg153
Vhttps://pbs.twimg.com/media/CJ8RQ_3UcAANByJ.jpg
p245
sg42
V621234257319456768
p246
sg156
(dp247
g158
(dp248
g160
I325
sg161
Vfit
p249
sg163
I700
ssg164
(dp250
g160
I157
sg161
Vfit
p251
sg163
I340
ssg167
(dp252
g160
I278
sg161
Vfit
p253
sg163
I600
ssg170
(dp254
g160
I150
sg161
Vcrop
p255
sg163
I150
sssg173
(lp256
I117
aI139
asg175
Vphoto
p257
sg33
I621234257319456768
sg177
Vhttp://pbs.twimg.com/media/CJ8RQ_3UcAANByJ.jpg
p258
sasssS'coordinates'
p259
NsS'timestamp_ms'
p260
g140
sS'entities'
p261
g142
sS'in_reply_to_status_id_str'
p262
NsS'in_reply_to_screen_name'
p263
Nsg90
g203
sS'extended_entities'
p264
g239
sS'retweeted'
p265
I00
sS'place'
p266
g0
(ctweepy.models
Place
p267
g2
Ntp268
Rp269
(dp270
S'full_name'
p271
g217
sg108
g218
sS'country'
p272
g220
sS'place_type'
p273
g222
sS'bounding_box'
p274
g0
(ctweepy.models
BoundingBox
p275
g2
Ntp276
Rp277
(dp278
S'type'
p279
g225
sg259
g226
sbsS'country_code'
p280
g233
sS'attributes'
p281
g235
sg24
g236
sg102
g237
sbsS'retweet_count'
p282
I0
sg109
g110
(S'\x07\xdf\x07\x0f\x08\x1a\x03\x00\x00\x00'
p283
tp284
Rp285
sS'in_reply_to_user_id'
p286
Nsb.