ccopy_reg
_reconstructor
p0
(ctweepy.models
Status
p1
c__builtin__
object
p2
Ntp3
Rp4
(dp5
S'favorited'
p6
I00
sS'contributors'
p7
NsS'truncated'
p8
I00
sS'text'
p9
VWe start at 5 pm. Feel free to come (or at least keep fingers cross)\u000a#FEPSAC2015 http://t.co/qFNtozouHb
p10
sS'source_url'
p11
Vhttp://twitter.com/download/android
p12
sS'possibly_sensitive'
p13
I00
sS'in_reply_to_status_id'
p14
NsS'user'
p15
g0
(ctweepy.models
User
p16
g2
Ntp17
Rp18
(dp19
S'follow_request_sent'
p20
NsS'profile_use_background_image'
p21
I01
sS'profile_sidebar_fill_color'
p22
VE3E2DE
p23
sS'id'
p24
I254496664
sS'verified'
p25
I00
sS'profile_image_url_https'
p26
Vhttps://pbs.twimg.com/profile_images/1686910257/Pukszta_Natalia_normal.jpg
p27
sS'_json'
p28
(dp29
Vfollow_request_sent
p30
NsVprofile_use_background_image
p31
I01
sVdefault_profile_image
p32
I00
sVid
p33
I254496664
sVverified
p34
I00
sVprofile_image_url_https
p35
g27
sVprofile_sidebar_fill_color
p36
g23
sVprofile_text_color
p37
V634047
p38
sVfollowers_count
p39
I29
sVprofile_sidebar_border_color
p40
VD3D2CF
p41
sVid_str
p42
V254496664
p43
sVprofile_background_color
p44
VEDECE9
p45
sVlisted_count
p46
I2
sVprofile_background_image_url_https
p47
Vhttps://abs.twimg.com/images/themes/theme3/bg.gif
p48
sVutc_offset
p49
I7200
sVstatuses_count
p50
I42
sVdescription
p51
VI am sport psychologist and the psychological skills coach.\u000aI am also PhD student at The Jozef Pilsudski Univesity of Physical Activity in Warsaw.
p52
sVfriends_count
p53
I50
sVlocation
p54
VWarsaw
p55
sVprofile_link_color
p56
V088253
p57
sVprofile_image_url
p58
Vhttp://pbs.twimg.com/profile_images/1686910257/Pukszta_Natalia_normal.jpg
p59
sVfollowing
p60
NsVgeo_enabled
p61
I01
sVprofile_background_image_url
p62
Vhttp://abs.twimg.com/images/themes/theme3/bg.gif
p63
sVname
p64
VNatalia Koperska
p65
sVlang
p66
Ven
p67
sVprofile_background_tile
p68
I00
sVfavourites_count
p69
I0
sVscreen_name
p70
VNataliaKoperska
p71
sVnotifications
p72
NsVurl
p73
Vhttp://www.psychologsportu.net.pl
p74
sVcreated_at
p75
VSat Feb 19 11:49:12 +0000 2011
p76
sVcontributors_enabled
p77
I00
sVtime_zone
p78
VWarsaw
p79
sVprotected
p80
I00
sVdefault_profile
p81
I00
sVis_translator
p82
I00
ssS'contributors_enabled'
p83
I00
sS'profile_text_color'
p84
g38
sS'followers_count'
p85
I29
sS'profile_sidebar_border_color'
p86
g41
sS'location'
p87
g55
sS'default_profile_image'
p88
I00
sS'id_str'
p89
g43
sS'utc_offset'
p90
I7200
sS'statuses_count'
p91
I42
sS'description'
p92
VI am sport psychologist and the psychological skills coach.\u000aI am also PhD student at The Jozef Pilsudski Univesity of Physical Activity in Warsaw.
p93
sS'friends_count'
p94
I50
sS'profile_link_color'
p95
g57
sS'profile_image_url'
p96
g59
sS'notifications'
p97
NsS'geo_enabled'
p98
I01
sS'profile_background_color'
p99
g45
sS'profile_background_image_url'
p100
g63
sS'name'
p101
g65
sS'lang'
p102
g67
sS'following'
p103
I00
sS'profile_background_tile'
p104
I00
sS'favourites_count'
p105
I0
sS'screen_name'
p106
g71
sS'url'
p107
g74
sS'created_at'
p108
cdatetime
datetime
p109
(S'\x07\xdb\x02\x13\x0b1\x0c\x00\x00\x00'
p110
tp111
Rp112
sS'profile_background_image_url_https'
p113
g48
sS'time_zone'
p114
g79
sS'protected'
p115
I00
sS'default_profile'
p116
I00
sS'is_translator'
p117
I00
sS'listed_count'
p118
I2
sbsS'filter_level'
p119
Vlow
p120
sS'geo'
p121
Nsg24
I621320352359161859
sS'favorite_count'
p122
I0
sS'source'
p123
VTwitter for Android
p124
sg102
Ven
p125
sS'author'
p126
g18
sS'in_reply_to_user_id_str'
p127
Nsg28
(dp128
Vcontributors
p129
NsVtruncated
p130
I00
sVtext
p131
VWe start at 5 pm. Feel free to come (or at least keep fingers cross)\u000a#FEPSAC2015 http://t.co/qFNtozouHb
p132
sVin_reply_to_status_id
p133
Nsg33
I621320352359161859
sVfavorite_count
p134
I0
sVsource
p135
V<a href="http://twitter.com/download/android" rel="nofollow">Twitter for Android</a>
p136
sVretweeted
p137
I00
sVcoordinates
p138
NsVtimestamp_ms
p139
V1436969290233
p140
sVentities
p141
(dp142
Vsymbols
p143
(lp144
sVmedia
p145
(lp146
(dp147
Vexpanded_url
p148
Vhttp://twitter.com/NataliaKoperska/status/621320352359161859/photo/1
p149
sVdisplay_url
p150
Vpic.twitter.com/qFNtozouHb
p151
sg73
Vhttp://t.co/qFNtozouHb
p152
sVmedia_url_https
p153
Vhttps://pbs.twimg.com/media/CJ9fgptXAAAeUPv.jpg
p154
sg42
V621320288156975104
p155
sVsizes
p156
(dp157
Vsmall
p158
(dp159
Vh
p160
I340
sVresize
p161
Vfit
p162
sVw
p163
I340
ssVlarge
p164
(dp165
g160
I1024
sg161
Vfit
p166
sg163
I1024
ssVmedium
p167
(dp168
g160
I600
sg161
Vfit
p169
sg163
I600
ssVthumb
p170
(dp171
g160
I150
sg161
Vcrop
p172
sg163
I150
sssVindices
p173
(lp174
I81
aI103
asVtype
p175
Vphoto
p176
sg33
I621320288156975104
sVmedia_url
p177
Vhttp://pbs.twimg.com/media/CJ9fgptXAAAeUPv.jpg
p178
sasVhashtags
p179
(lp180
(dp181
g173
(lp182
I69
aI80
asg131
VFEPSAC2015
p183
sasVuser_mentions
p184
(lp185
sVtrends
p186
(lp187
sVurls
p188
(lp189
ssVin_reply_to_screen_name
p190
Nsg42
V621320352359161859
p191
sVretweet_count
p192
I0
sVin_reply_to_user_id
p193
NsVfavorited
p194
I00
sVuser
p195
g29
sVgeo
p196
NsVin_reply_to_user_id_str
p197
NsVpossibly_sensitive
p198
I00
sg66
g125
sg75
VWed Jul 15 14:08:10 +0000 2015
p199
sVfilter_level
p200
g120
sVin_reply_to_status_id_str
p201
NsVplace
p202
(dp203
Vfull_name
p204
VBerne, Switzerland
p205
sg73
Vhttps://api.twitter.com/1.1/geo/id/5868d0e0749c9c47.json
p206
sVcountry
p207
VSchweiz
p208
sVplace_type
p209
Vadmin
p210
sVbounding_box
p211
(dp212
g175
VPolygon
p213
sg138
(lp214
(lp215
(lp216
F6.861601
aF46.326441
aa(lp217
F6.861601
aF47.34528
aa(lp218
F8.455051
aF47.34528
aa(lp219
F8.455051
aF46.326441
aaassVcountry_code
p220
VCH
p221
sVattributes
p222
(dp223
sg33
V5868d0e0749c9c47
p224
sg64
VBern
p225
ssVextended_entities
p226
(dp227
g145
(lp228
(dp229
g148
Vhttp://twitter.com/NataliaKoperska/status/621320352359161859/photo/1
p230
sg150
Vpic.twitter.com/qFNtozouHb
p231
sg73
Vhttp://t.co/qFNtozouHb
p232
sg153
Vhttps://pbs.twimg.com/media/CJ9fgptXAAAeUPv.jpg
p233
sg42
V621320288156975104
p234
sg156
(dp235
g158
(dp236
g160
I340
sg161
Vfit
p237
sg163
I340
ssg164
(dp238
g160
I1024
sg161
Vfit
p239
sg163
I1024
ssg167
(dp240
g160
I600
sg161
Vfit
p241
sg163
I600
ssg170
(dp242
g160
I150
sg161
Vcrop
p243
sg163
I150
sssg173
(lp244
I81
aI103
asg175
Vphoto
p245
sg33
I621320288156975104
sg177
Vhttp://pbs.twimg.com/media/CJ9fgptXAAAeUPv.jpg
p246
sasssS'coordinates'
p247
NsS'timestamp_ms'
p248
g140
sS'entities'
p249
g142
sS'in_reply_to_status_id_str'
p250
NsS'in_reply_to_screen_name'
p251
Nsg89
g191
sS'extended_entities'
p252
g227
sS'retweeted'
p253
I00
sS'place'
p254
g0
(ctweepy.models
Place
p255
g2
Ntp256
Rp257
(dp258
S'full_name'
p259
g205
sg107
g206
sS'country'
p260
g208
sS'place_type'
p261
g210
sS'bounding_box'
p262
g0
(ctweepy.models
BoundingBox
p263
g2
Ntp264
Rp265
(dp266
S'type'
p267
g213
sg247
g214
sbsS'country_code'
p268
g221
sS'attributes'
p269
g223
sg24
g224
sg101
g225
sbsS'retweet_count'
p270
I0
sg108
g109
(S'\x07\xdf\x07\x0f\x0e\x08\n\x00\x00\x00'
p271
tp272
Rp273
sS'in_reply_to_user_id'
p274
Nsb.