ccopy_reg
_reconstructor
p0
(ctweepy.models
Status
p1
c__builtin__
object
p2
Ntp3
Rp4
(dp5
S'favorited'
p6
I00
sS'contributors'
p7
NsS'truncated'
p8
I00
sS'text'
p9
V#ViernesDeGanarSeguidores .. #BuenViernes http://t.co/PwdvEJzPWb
p10
sS'source_url'
p11
Vhttp://twitter.com/download/iphone
p12
sS'possibly_sensitive'
p13
I00
sS'in_reply_to_status_id'
p14
NsS'user'
p15
g0
(ctweepy.models
User
p16
g2
Ntp17
Rp18
(dp19
S'follow_request_sent'
p20
NsS'profile_use_background_image'
p21
I00
sS'profile_sidebar_fill_color'
p22
V252429
p23
sS'id'
p24
I93762339
sS'verified'
p25
I00
sS'profile_image_url_https'
p26
Vhttps://pbs.twimg.com/profile_images/615072536619974656/LNETfB1Y_normal.jpg
p27
sS'_json'
p28
(dp29
Vfollow_request_sent
p30
NsVprofile_use_background_image
p31
I00
sVdefault_profile_image
p32
I00
sVid
p33
I93762339
sVverified
p34
I00
sVprofile_image_url_https
p35
g27
sVprofile_sidebar_fill_color
p36
g23
sVprofile_text_color
p37
V666666
p38
sVfollowers_count
p39
I1153
sVprofile_sidebar_border_color
p40
VFFFFFF
p41
sVid_str
p42
V93762339
p43
sVprofile_background_color
p44
VF5F7FA
p45
sVlisted_count
p46
I65
sVprofile_background_image_url_https
p47
Vhttps://pbs.twimg.com/profile_background_images/595570234192306176/zdw1IE1s.jpg
p48
sVutc_offset
p49
I7200
sVstatuses_count
p50
I20898
sVdescription
p51
VA daily review of travel ideas, trends and lifestyle goodies. A lifestyle blog that wants to me you smile ..
p52
sVfriends_count
p53
I1667
sVlocation
p54
VZurich -Switzerland 
p55
sVprofile_link_color
p56
V69E7F0
p57
sVprofile_image_url
p58
Vhttp://pbs.twimg.com/profile_images/615072536619974656/LNETfB1Y_normal.jpg
p59
sVfollowing
p60
NsVgeo_enabled
p61
I01
sVprofile_banner_url
p62
Vhttps://pbs.twimg.com/profile_banners/93762339/1435395069
p63
sVprofile_background_image_url
p64
Vhttp://pbs.twimg.com/profile_background_images/595570234192306176/zdw1IE1s.jpg
p65
sVname
p66
VHDL Lifestyle Blog
p67
sVlang
p68
Ven
p69
sVprofile_background_tile
p70
I00
sVfavourites_count
p71
I849
sVscreen_name
p72
Vhuellasdluzblog
p73
sVnotifications
p74
NsVurl
p75
Vhttp://www.huellasdeluzblog.com
p76
sVcreated_at
p77
VTue Dec 01 01:46:57 +0000 2009
p78
sVcontributors_enabled
p79
I00
sVtime_zone
p80
VBern
p81
sVprotected
p82
I00
sVdefault_profile
p83
I00
sVis_translator
p84
I00
ssS'contributors_enabled'
p85
I00
sS'profile_text_color'
p86
g38
sS'followers_count'
p87
I1153
sS'profile_sidebar_border_color'
p88
g41
sS'location'
p89
g55
sS'default_profile_image'
p90
I00
sS'id_str'
p91
g43
sS'utc_offset'
p92
I7200
sS'statuses_count'
p93
I20898
sS'description'
p94
g52
sS'friends_count'
p95
I1667
sS'profile_link_color'
p96
g57
sS'profile_image_url'
p97
g59
sS'notifications'
p98
NsS'geo_enabled'
p99
I01
sS'profile_background_color'
p100
g45
sS'profile_banner_url'
p101
g63
sS'profile_background_image_url'
p102
g65
sS'name'
p103
g67
sS'lang'
p104
g69
sS'following'
p105
I00
sS'profile_background_tile'
p106
I00
sS'favourites_count'
p107
I849
sS'screen_name'
p108
g73
sS'url'
p109
g76
sS'created_at'
p110
cdatetime
datetime
p111
(S'\x07\xd9\x0c\x01\x01.9\x00\x00\x00'
p112
tp113
Rp114
sS'profile_background_image_url_https'
p115
g48
sS'time_zone'
p116
g81
sS'protected'
p117
I00
sS'default_profile'
p118
I00
sS'is_translator'
p119
I00
sS'listed_count'
p120
I65
sbsS'filter_level'
p121
Vlow
p122
sS'geo'
p123
Nsg24
I619507106933284864
sS'favorite_count'
p124
I0
sS'source'
p125
VTwitter for iPhone
p126
sg104
Vund
p127
sS'author'
p128
g18
sS'in_reply_to_user_id_str'
p129
Nsg28
(dp130
Vcontributors
p131
NsVtruncated
p132
I00
sVtext
p133
g10
sVin_reply_to_status_id
p134
Nsg33
I619507106933284864
sVfavorite_count
p135
I0
sVsource
p136
V<a href="http://twitter.com/download/iphone" rel="nofollow">Twitter for iPhone</a>
p137
sVretweeted
p138
I00
sVcoordinates
p139
NsVtimestamp_ms
p140
V1436536978835
p141
sVentities
p142
(dp143
Vsymbols
p144
(lp145
sVmedia
p146
(lp147
(dp148
Vexpanded_url
p149
Vhttp://twitter.com/huellasdluzblog/status/619507106933284864/photo/1
p150
sVdisplay_url
p151
Vpic.twitter.com/PwdvEJzPWb
p152
sg75
Vhttp://t.co/PwdvEJzPWb
p153
sVmedia_url_https
p154
Vhttps://pbs.twimg.com/media/CJjubEQXAAAh70v.jpg
p155
sg42
V619507097529679872
p156
sVsizes
p157
(dp158
Vsmall
p159
(dp160
Vh
p161
I453
sVresize
p162
Vfit
p163
sVw
p164
I340
ssVlarge
p165
(dp166
g161
I1024
sg162
Vfit
p167
sg164
I768
ssVmedium
p168
(dp169
g161
I800
sg162
Vfit
p170
sg164
I600
ssVthumb
p171
(dp172
g161
I150
sg162
Vcrop
p173
sg164
I150
sssVindices
p174
(lp175
I42
aI64
asVtype
p176
Vphoto
p177
sg33
I619507097529679872
sVmedia_url
p178
Vhttp://pbs.twimg.com/media/CJjubEQXAAAh70v.jpg
p179
sasVhashtags
p180
(lp181
(dp182
g174
(lp183
I0
aI25
asg133
VViernesDeGanarSeguidores
p184
sa(dp185
g174
(lp186
I29
aI41
asg133
VBuenViernes
p187
sasVuser_mentions
p188
(lp189
sVtrends
p190
(lp191
sVurls
p192
(lp193
ssVin_reply_to_screen_name
p194
Nsg42
V619507106933284864
p195
sVretweet_count
p196
I0
sVin_reply_to_user_id
p197
NsVfavorited
p198
I00
sVuser
p199
g29
sVgeo
p200
NsVin_reply_to_user_id_str
p201
NsVpossibly_sensitive
p202
I00
sg68
g127
sg77
VFri Jul 10 14:02:58 +0000 2015
p203
sVfilter_level
p204
g122
sVin_reply_to_status_id_str
p205
NsVplace
p206
(dp207
Vfull_name
p208
VZurich, Switzerland
p209
sg75
Vhttps://api.twitter.com/1.1/geo/id/db94c1cccc67c4f4.json
p210
sVcountry
p211
VSchweiz
p212
sVplace_type
p213
Vadmin
p214
sVbounding_box
p215
(dp216
g176
VPolygon
p217
sg139
(lp218
(lp219
(lp220
F8.357749
aF47.159384
aa(lp221
F8.357749
aF47.694503
aa(lp222
F8.984445
aF47.694503
aa(lp223
F8.984445
aF47.159384
aaassVcountry_code
p224
VCH
p225
sVattributes
p226
(dp227
sg33
Vdb94c1cccc67c4f4
p228
sg66
VZurich
p229
ssVextended_entities
p230
(dp231
g146
(lp232
(dp233
g149
Vhttp://twitter.com/huellasdluzblog/status/619507106933284864/photo/1
p234
sg151
Vpic.twitter.com/PwdvEJzPWb
p235
sg75
Vhttp://t.co/PwdvEJzPWb
p236
sg154
Vhttps://pbs.twimg.com/media/CJjubEQXAAAh70v.jpg
p237
sg42
V619507097529679872
p238
sg157
(dp239
g159
(dp240
g161
I453
sg162
Vfit
p241
sg164
I340
ssg165
(dp242
g161
I1024
sg162
Vfit
p243
sg164
I768
ssg168
(dp244
g161
I800
sg162
Vfit
p245
sg164
I600
ssg171
(dp246
g161
I150
sg162
Vcrop
p247
sg164
I150
sssg174
(lp248
I42
aI64
asg176
Vphoto
p249
sg33
I619507097529679872
sg178
Vhttp://pbs.twimg.com/media/CJjubEQXAAAh70v.jpg
p250
sasssS'coordinates'
p251
NsS'timestamp_ms'
p252
g141
sS'entities'
p253
g143
sS'in_reply_to_status_id_str'
p254
NsS'in_reply_to_screen_name'
p255
Nsg91
g195
sS'extended_entities'
p256
g231
sS'retweeted'
p257
I00
sS'place'
p258
g0
(ctweepy.models
Place
p259
g2
Ntp260
Rp261
(dp262
S'full_name'
p263
g209
sg109
g210
sS'country'
p264
g212
sS'place_type'
p265
g214
sS'bounding_box'
p266
g0
(ctweepy.models
BoundingBox
p267
g2
Ntp268
Rp269
(dp270
S'type'
p271
g217
sg251
g218
sbsS'country_code'
p272
g225
sS'attributes'
p273
g227
sg24
g228
sg103
g229
sbsS'retweet_count'
p274
I0
sg110
g111
(S'\x07\xdf\x07\n\x0e\x02:\x00\x00\x00'
p275
tp276
Rp277
sS'in_reply_to_user_id'
p278
Nsb.