ccopy_reg
_reconstructor
p0
(ctweepy.models
Status
p1
c__builtin__
object
p2
Ntp3
Rp4
(dp5
S'favorited'
p6
I00
sS'contributors'
p7
NsS'truncated'
p8
I00
sS'text'
p9
V@isaozturk1976 @UNICEF \u000a\u0644\u0627 \u062a\u0635\u0627\u0644\u062d\u000a\u000a\u0645\u0639\u0631\u0643\u0629 \u0627\u0644\u0641\u0631\u0642\u0627\u0646 : \u0627\u0644\u0641\u0627\u0635\u0644\u0629\u000a\u000a\u0648 \u0644\u0627 \u0635\u0648\u062a \u064a\u0639\u0644\u0648 \u0641\u0648\u0642 \u0635\u0648\u062a \u0627\u0644\u0645\u0642\u0627\u0648\u0645\u0629 http://t.co/B3y5o14xOa
p10
sS'source_url'
p11
Vhttp://twitter.com
p12
sS'possibly_sensitive'
p13
I00
sS'in_reply_to_status_id'
p14
I618942146893246464
sS'user'
p15
g0
(ctweepy.models
User
p16
g2
Ntp17
Rp18
(dp19
S'follow_request_sent'
p20
NsS'profile_use_background_image'
p21
I01
sS'profile_sidebar_fill_color'
p22
VDDEEF6
p23
sS'id'
p24
I2661333835
sS'verified'
p25
I00
sS'profile_image_url_https'
p26
Vhttps://pbs.twimg.com/profile_images/618820259982630912/AwP3crJk_normal.jpg
p27
sS'_json'
p28
(dp29
Vfollow_request_sent
p30
NsVprofile_use_background_image
p31
I01
sVdefault_profile_image
p32
I00
sVid
p33
I2661333835
sVverified
p34
I00
sVprofile_image_url_https
p35
g27
sVprofile_sidebar_fill_color
p36
g23
sVprofile_text_color
p37
V333333
p38
sVfollowers_count
p39
I2
sVprofile_sidebar_border_color
p40
VC0DEED
p41
sVid_str
p42
V2661333835
p43
sVprofile_background_color
p44
VC0DEED
p45
sVlisted_count
p46
I0
sVprofile_background_image_url_https
p47
Vhttps://abs.twimg.com/images/themes/theme1/bg.png
p48
sVutc_offset
p49
NsVstatuses_count
p50
I185
sVdescription
p51
NsVfriends_count
p52
I16
sVlocation
p53
V
p54
sVprofile_link_color
p55
V0084B4
p56
sVprofile_image_url
p57
Vhttp://pbs.twimg.com/profile_images/618820259982630912/AwP3crJk_normal.jpg
p58
sVfollowing
p59
NsVgeo_enabled
p60
I01
sVprofile_banner_url
p61
Vhttps://pbs.twimg.com/profile_banners/2661333835/1436373197
p62
sVprofile_background_image_url
p63
Vhttp://abs.twimg.com/images/themes/theme1/bg.png
p64
sVname
p65
VHosni Guermassi
p66
sVlang
p67
Vfr
p68
sVprofile_background_tile
p69
I00
sVfavourites_count
p70
I1
sVscreen_name
p71
Vzohramoud
p72
sVnotifications
p73
NsVurl
p74
NsVcreated_at
p75
VSun Jul 20 02:10:18 +0000 2014
p76
sVcontributors_enabled
p77
I00
sVtime_zone
p78
NsVprotected
p79
I00
sVdefault_profile
p80
I01
sVis_translator
p81
I00
ssS'contributors_enabled'
p82
I00
sS'profile_text_color'
p83
g38
sS'followers_count'
p84
I2
sS'profile_sidebar_border_color'
p85
g41
sS'location'
p86
g54
sS'default_profile_image'
p87
I00
sS'id_str'
p88
g43
sS'utc_offset'
p89
NsS'statuses_count'
p90
I185
sS'description'
p91
NsS'friends_count'
p92
I16
sS'profile_link_color'
p93
g56
sS'profile_image_url'
p94
g58
sS'notifications'
p95
NsS'geo_enabled'
p96
I01
sS'profile_background_color'
p97
g45
sS'profile_banner_url'
p98
g62
sS'profile_background_image_url'
p99
g64
sS'name'
p100
g66
sS'lang'
p101
g68
sS'following'
p102
I00
sS'profile_background_tile'
p103
I00
sS'favourites_count'
p104
I1
sS'screen_name'
p105
g72
sS'url'
p106
NsS'created_at'
p107
cdatetime
datetime
p108
(S'\x07\xde\x07\x14\x02\n\x12\x00\x00\x00'
p109
tp110
Rp111
sS'profile_background_image_url_https'
p112
g48
sS'time_zone'
p113
NsS'protected'
p114
I00
sS'default_profile'
p115
I01
sS'is_translator'
p116
I00
sS'listed_count'
p117
I0
sbsS'filter_level'
p118
Vlow
p119
sS'geo'
p120
Nsg24
I618943778020323328
sS'favorite_count'
p121
I0
sS'source'
p122
VTwitter Web Client
p123
sg101
Var
p124
sS'author'
p125
g18
sS'in_reply_to_user_id_str'
p126
V1555334641
p127
sg28
(dp128
Vcontributors
p129
NsVtruncated
p130
I00
sVtext
p131
V@isaozturk1976 @UNICEF \u000a\u0644\u0627 \u062a\u0635\u0627\u0644\u062d\u000a\u000a\u0645\u0639\u0631\u0643\u0629 \u0627\u0644\u0641\u0631\u0642\u0627\u0646 : \u0627\u0644\u0641\u0627\u0635\u0644\u0629\u000a\u000a\u0648 \u0644\u0627 \u0635\u0648\u062a \u064a\u0639\u0644\u0648 \u0641\u0648\u0642 \u0635\u0648\u062a \u0627\u0644\u0645\u0642\u0627\u0648\u0645\u0629 http://t.co/B3y5o14xOa
p132
sVin_reply_to_status_id
p133
I618942146893246464
sg33
I618943778020323328
sVfavorite_count
p134
I0
sVsource
p135
V<a href="http://twitter.com" rel="nofollow">Twitter Web Client</a>
p136
sVretweeted
p137
I00
sVcoordinates
p138
NsVtimestamp_ms
p139
V1436402670756
p140
sVentities
p141
(dp142
Vsymbols
p143
(lp144
sVmedia
p145
(lp146
(dp147
Vexpanded_url
p148
Vhttp://twitter.com/zohramoud/status/618943778020323328/photo/1
p149
sVdisplay_url
p150
Vpic.twitter.com/B3y5o14xOa
p151
sg74
Vhttp://t.co/B3y5o14xOa
p152
sVmedia_url_https
p153
Vhttps://pbs.twimg.com/media/CJbuFeXUcAEKFO3.jpg
p154
sg42
V618943776627650561
p155
sVsizes
p156
(dp157
Vsmall
p158
(dp159
Vh
p160
I196
sVresize
p161
Vfit
p162
sVw
p163
I340
ssVlarge
p164
(dp165
g160
I375
sg161
Vfit
p166
sg163
I650
ssVmedium
p167
(dp168
g160
I346
sg161
Vfit
p169
sg163
I600
ssVthumb
p170
(dp171
g160
I150
sg161
Vcrop
p172
sg163
I150
sssVindices
p173
(lp174
I90
aI112
asVtype
p175
Vphoto
p176
sg33
I618943776627650561
sVmedia_url
p177
Vhttp://pbs.twimg.com/media/CJbuFeXUcAEKFO3.jpg
p178
sasVhashtags
p179
(lp180
sVuser_mentions
p181
(lp182
(dp183
g33
I1555334641
sg173
(lp184
I0
aI14
asg42
V1555334641
p185
sg71
Visaozturk1976
p186
sg65
Visaozturk
p187
sa(dp188
g33
I33933259
sg173
(lp189
I15
aI22
asg42
V33933259
p190
sg71
VUNICEF
p191
sg65
VUNICEF
p192
sasVtrends
p193
(lp194
sVurls
p195
(lp196
ssVin_reply_to_screen_name
p197
Visaozturk1976
p198
sg42
V618943778020323328
p199
sVretweet_count
p200
I0
sVin_reply_to_user_id
p201
I1555334641
sVfavorited
p202
I00
sVuser
p203
g29
sVgeo
p204
NsVin_reply_to_user_id_str
p205
g127
sVpossibly_sensitive
p206
I00
sg67
g124
sg75
VThu Jul 09 00:44:30 +0000 2015
p207
sVfilter_level
p208
g119
sVin_reply_to_status_id_str
p209
V618942146893246464
p210
sVplace
p211
(dp212
Vfull_name
p213
VArgovie, Suisse
p214
sg74
Vhttps://api.twitter.com/1.1/geo/id/64c89c3f0e8b8b2e.json
p215
sVcountry
p216
VSchweiz
p217
sVplace_type
p218
Vadmin
p219
sVbounding_box
p220
(dp221
g175
VPolygon
p222
sg138
(lp223
(lp224
(lp225
F7.713449
aF47.137443
aa(lp226
F7.713449
aF47.621039
aa(lp227
F8.455222
aF47.621039
aa(lp228
F8.455222
aF47.137443
aaassVcountry_code
p229
VCH
p230
sVattributes
p231
(dp232
sg33
V64c89c3f0e8b8b2e
p233
sg65
VArgovie
p234
ssVextended_entities
p235
(dp236
g145
(lp237
(dp238
g148
Vhttp://twitter.com/zohramoud/status/618943778020323328/photo/1
p239
sg150
Vpic.twitter.com/B3y5o14xOa
p240
sg74
Vhttp://t.co/B3y5o14xOa
p241
sg153
Vhttps://pbs.twimg.com/media/CJbuFeXUcAEKFO3.jpg
p242
sg42
V618943776627650561
p243
sg156
(dp244
g158
(dp245
g160
I196
sg161
Vfit
p246
sg163
I340
ssg164
(dp247
g160
I375
sg161
Vfit
p248
sg163
I650
ssg167
(dp249
g160
I346
sg161
Vfit
p250
sg163
I600
ssg170
(dp251
g160
I150
sg161
Vcrop
p252
sg163
I150
sssg173
(lp253
I90
aI112
asg175
Vphoto
p254
sg33
I618943776627650561
sg177
Vhttp://pbs.twimg.com/media/CJbuFeXUcAEKFO3.jpg
p255
sasssS'coordinates'
p256
NsS'timestamp_ms'
p257
g140
sS'entities'
p258
g142
sS'in_reply_to_status_id_str'
p259
g210
sS'in_reply_to_screen_name'
p260
g198
sg88
g199
sS'extended_entities'
p261
g236
sS'retweeted'
p262
I00
sS'place'
p263
g0
(ctweepy.models
Place
p264
g2
Ntp265
Rp266
(dp267
S'full_name'
p268
g214
sg106
g215
sS'country'
p269
g217
sS'place_type'
p270
g219
sS'bounding_box'
p271
g0
(ctweepy.models
BoundingBox
p272
g2
Ntp273
Rp274
(dp275
S'type'
p276
g222
sg256
g223
sbsS'country_code'
p277
g230
sS'attributes'
p278
g232
sg24
g233
sg100
g234
sbsS'retweet_count'
p279
I0
sg107
g108
(S'\x07\xdf\x07\t\x00,\x1e\x00\x00\x00'
p280
tp281
Rp282
sS'in_reply_to_user_id'
p283
I1555334641
sb.