ccopy_reg
_reconstructor
p0
(ctweepy.models
Status
p1
c__builtin__
object
p2
Ntp3
Rp4
(dp5
S'favorited'
p6
I00
sS'contributors'
p7
NsS'truncated'
p8
I00
sS'text'
p9
V@phw1205 Outside influences are often like a breath of fresh air, but the risk is always that traditions will be lost. #FutureFrenchFood
p10
sS'source_url'
p11
Vhttp://twitter.com
p12
sS'possibly_sensitive'
p13
I01
sS'in_reply_to_status_id'
p14
I619211168142524416
sS'user'
p15
g0
(ctweepy.models
User
p16
g2
Ntp17
Rp18
(dp19
S'follow_request_sent'
p20
NsS'profile_use_background_image'
p21
I01
sS'profile_sidebar_fill_color'
p22
VDDEEF6
p23
sS'id'
p24
I62246266
sS'verified'
p25
I00
sS'profile_image_url_https'
p26
Vhttps://pbs.twimg.com/profile_images/611211387675758592/SezptZ23_normal.jpg
p27
sS'_json'
p28
(dp29
Vfollow_request_sent
p30
NsVprofile_use_background_image
p31
I01
sVdefault_profile_image
p32
I00
sVid
p33
I62246266
sVverified
p34
I00
sVprofile_image_url_https
p35
g27
sVprofile_sidebar_fill_color
p36
g23
sVprofile_text_color
p37
V333333
p38
sVfollowers_count
p39
I2424
sVprofile_sidebar_border_color
p40
VC0DEED
p41
sVid_str
p42
V62246266
p43
sVprofile_background_color
p44
VC0DEED
p45
sVlisted_count
p46
I166
sVprofile_background_image_url_https
p47
Vhttps://pbs.twimg.com/profile_background_images/155615512/KeikoOikawa.jpg
p48
sVutc_offset
p49
I7200
sVstatuses_count
p50
I30417
sVdescription
p51
VFreelance food writer & editor specialized in French cuisine, writing a book The French & What They Eat. http://t.co/guV7pdhCJg #WhatToEatInFrance #foodwriting
p52
sVfriends_count
p53
I1472
sVlocation
p54
VFrance, Switzerland, U.S.
p55
sVprofile_link_color
p56
V0084B4
p57
sVprofile_image_url
p58
Vhttp://pbs.twimg.com/profile_images/611211387675758592/SezptZ23_normal.jpg
p59
sVfollowing
p60
NsVgeo_enabled
p61
I01
sVprofile_banner_url
p62
Vhttps://pbs.twimg.com/profile_banners/62246266/1372063685
p63
sVprofile_background_image_url
p64
Vhttp://pbs.twimg.com/profile_background_images/155615512/KeikoOikawa.jpg
p65
sVname
p66
VJonell Galloway
p67
sVlang
p68
Ven
p69
sVprofile_background_tile
p70
I00
sVfavourites_count
p71
I48
sVscreen_name
p72
VRamblingEpicure
p73
sVnotifications
p74
NsVurl
p75
Vhttp://theramblingepicure.com
p76
sVcreated_at
p77
VSun Aug 02 11:43:47 +0000 2009
p78
sVcontributors_enabled
p79
I00
sVtime_zone
p80
VBern
p81
sVprotected
p82
I00
sVdefault_profile
p83
I00
sVis_translator
p84
I00
ssS'contributors_enabled'
p85
I00
sS'profile_text_color'
p86
g38
sS'followers_count'
p87
I2424
sS'profile_sidebar_border_color'
p88
g41
sS'location'
p89
g55
sS'default_profile_image'
p90
I00
sS'id_str'
p91
g43
sS'utc_offset'
p92
I7200
sS'statuses_count'
p93
I30417
sS'description'
p94
g52
sS'friends_count'
p95
I1472
sS'profile_link_color'
p96
g57
sS'profile_image_url'
p97
g59
sS'notifications'
p98
NsS'geo_enabled'
p99
I01
sS'profile_background_color'
p100
g45
sS'profile_banner_url'
p101
g63
sS'profile_background_image_url'
p102
g65
sS'name'
p103
g67
sS'lang'
p104
g69
sS'following'
p105
I00
sS'profile_background_tile'
p106
I00
sS'favourites_count'
p107
I48
sS'screen_name'
p108
g73
sS'url'
p109
g76
sS'created_at'
p110
cdatetime
datetime
p111
(S'\x07\xd9\x08\x02\x0b+/\x00\x00\x00'
p112
tp113
Rp114
sS'profile_background_image_url_https'
p115
g48
sS'time_zone'
p116
g81
sS'protected'
p117
I00
sS'default_profile'
p118
I00
sS'is_translator'
p119
I00
sS'listed_count'
p120
I166
sbsS'filter_level'
p121
Vlow
p122
sS'geo'
p123
Nsg24
I619211573035409409
sS'favorite_count'
p124
I0
sS'source'
p125
VTwitter Web Client
p126
sg104
Ven
p127
sS'author'
p128
g18
sS'in_reply_to_user_id_str'
p129
V2720046997
p130
sg28
(dp131
Vcontributors
p132
NsVtruncated
p133
I00
sVtext
p134
g10
sVin_reply_to_status_id
p135
I619211168142524416
sg33
I619211573035409409
sVfavorite_count
p136
I0
sVsource
p137
V<a href="http://twitter.com" rel="nofollow">Twitter Web Client</a>
p138
sVretweeted
p139
I00
sVcoordinates
p140
NsVtimestamp_ms
p141
V1436466518063
p142
sVentities
p143
(dp144
Vuser_mentions
p145
(lp146
(dp147
g33
I2720046997
sVindices
p148
(lp149
I0
aI8
asg42
V2720046997
p150
sg72
Vphw1205
p151
sg66
VPeter White
p152
sasVsymbols
p153
(lp154
sVtrends
p155
(lp156
sVhashtags
p157
(lp158
(dp159
g148
(lp160
I119
aI136
asg134
VFutureFrenchFood
p161
sasVurls
p162
(lp163
ssVin_reply_to_screen_name
p164
Vphw1205
p165
sg42
V619211573035409409
p166
sVretweet_count
p167
I0
sVin_reply_to_user_id
p168
I2720046997
sVfavorited
p169
I00
sVuser
p170
g29
sVgeo
p171
NsVin_reply_to_user_id_str
p172
g130
sVpossibly_sensitive
p173
I01
sg68
g127
sg77
VThu Jul 09 18:28:38 +0000 2015
p174
sVfilter_level
p175
g122
sVin_reply_to_status_id_str
p176
V619211168142524416
p177
sVplace
p178
(dp179
Vfull_name
p180
VZurich, Switzerland
p181
sg75
Vhttps://api.twitter.com/1.1/geo/id/3acb748d0f1e9265.json
p182
sVcountry
p183
VSchweiz
p184
sVplace_type
p185
Vcity
p186
sVbounding_box
p187
(dp188
Vtype
p189
VPolygon
p190
sg140
(lp191
(lp192
(lp193
F8.448081
aF47.320183
aa(lp194
F8.448081
aF47.434721
aa(lp195
F8.625442
aF47.434721
aa(lp196
F8.625442
aF47.320183
aaassVcountry_code
p197
VCH
p198
sVattributes
p199
(dp200
sg33
V3acb748d0f1e9265
p201
sg66
VZurich
p202
sssS'coordinates'
p203
NsS'timestamp_ms'
p204
g142
sS'entities'
p205
g144
sS'in_reply_to_status_id_str'
p206
g177
sS'in_reply_to_screen_name'
p207
g165
sg91
g166
sS'retweeted'
p208
I00
sS'place'
p209
g0
(ctweepy.models
Place
p210
g2
Ntp211
Rp212
(dp213
S'full_name'
p214
g181
sg109
g182
sS'country'
p215
g184
sS'place_type'
p216
g186
sS'bounding_box'
p217
g0
(ctweepy.models
BoundingBox
p218
g2
Ntp219
Rp220
(dp221
S'type'
p222
g190
sg203
g191
sbsS'country_code'
p223
g198
sS'attributes'
p224
g200
sg24
g201
sg103
g202
sbsS'retweet_count'
p225
I0
sg110
g111
(S'\x07\xdf\x07\t\x12\x1c&\x00\x00\x00'
p226
tp227
Rp228
sS'in_reply_to_user_id'
p229
I2720046997
sb.