ccopy_reg
_reconstructor
p0
(ctweepy.models
Status
p1
c__builtin__
object
p2
Ntp3
Rp4
(dp5
S'favorited'
p6
I00
sS'contributors'
p7
NsS'truncated'
p8
I00
sS'text'
p9
VI just finished mountain biking 50.76 km in 1h:55m:28s with #Endomondo #endorphins http://t.co/F3VHTaYsLy
p10
sS'source_url'
p11
Vhttp://www.endomondo.com
p12
sS'possibly_sensitive'
p13
I00
sS'in_reply_to_status_id'
p14
NsS'user'
p15
g0
(ctweepy.models
User
p16
g2
Ntp17
Rp18
(dp19
S'follow_request_sent'
p20
NsS'profile_use_background_image'
p21
I01
sS'profile_sidebar_fill_color'
p22
VDDEEF6
p23
sS'id'
p24
I304942471
sS'verified'
p25
I00
sS'profile_image_url_https'
p26
Vhttps://pbs.twimg.com/profile_images/2539235953/9xa9jlny6aiftf3lfcrq_normal.jpeg
p27
sS'_json'
p28
(dp29
Vfollow_request_sent
p30
NsVprofile_use_background_image
p31
I01
sVdefault_profile_image
p32
I00
sVid
p33
I304942471
sVverified
p34
I00
sVprofile_image_url_https
p35
g27
sVprofile_sidebar_fill_color
p36
g23
sVprofile_text_color
p37
V333333
p38
sVfollowers_count
p39
I5
sVprofile_sidebar_border_color
p40
VC0DEED
p41
sVid_str
p42
V304942471
p43
sVprofile_background_color
p44
VC0DEED
p45
sVlisted_count
p46
I1
sVprofile_background_image_url_https
p47
Vhttps://abs.twimg.com/images/themes/theme1/bg.png
p48
sVutc_offset
p49
I7200
sVstatuses_count
p50
I913
sVdescription
p51
NsVfriends_count
p52
I8
sVlocation
p53
VSwitzerland
p54
sVprofile_link_color
p55
V0084B4
p56
sVprofile_image_url
p57
Vhttp://pbs.twimg.com/profile_images/2539235953/9xa9jlny6aiftf3lfcrq_normal.jpeg
p58
sVfollowing
p59
NsVgeo_enabled
p60
I01
sVprofile_background_image_url
p61
Vhttp://abs.twimg.com/images/themes/theme1/bg.png
p62
sVname
p63
VPhilippe Niederberge
p64
sVlang
p65
Vde
p66
sVprofile_background_tile
p67
I00
sVfavourites_count
p68
I1
sVscreen_name
p69
Veinaphil
p70
sVnotifications
p71
NsVurl
p72
NsVcreated_at
p73
VWed May 25 11:15:45 +0000 2011
p74
sVcontributors_enabled
p75
I00
sVtime_zone
p76
VBern
p77
sVprotected
p78
I00
sVdefault_profile
p79
I01
sVis_translator
p80
I00
ssS'contributors_enabled'
p81
I00
sS'profile_text_color'
p82
g38
sS'followers_count'
p83
I5
sS'profile_sidebar_border_color'
p84
g41
sS'location'
p85
g54
sS'default_profile_image'
p86
I00
sS'id_str'
p87
g43
sS'utc_offset'
p88
I7200
sS'statuses_count'
p89
I913
sS'description'
p90
NsS'friends_count'
p91
I8
sS'profile_link_color'
p92
g56
sS'profile_image_url'
p93
g58
sS'notifications'
p94
NsS'geo_enabled'
p95
I01
sS'profile_background_color'
p96
g45
sS'profile_background_image_url'
p97
g62
sS'name'
p98
g64
sS'lang'
p99
g66
sS'following'
p100
I00
sS'profile_background_tile'
p101
I00
sS'favourites_count'
p102
I1
sS'screen_name'
p103
g70
sS'url'
p104
NsS'created_at'
p105
cdatetime
datetime
p106
(S'\x07\xdb\x05\x19\x0b\x0f-\x00\x00\x00'
p107
tp108
Rp109
sS'profile_background_image_url_https'
p110
g48
sS'time_zone'
p111
g77
sS'protected'
p112
I00
sS'default_profile'
p113
I01
sS'is_translator'
p114
I00
sS'listed_count'
p115
I1
sbsS'filter_level'
p116
Vlow
p117
sS'geo'
p118
(dp119
Vtype
p120
VPoint
p121
sVcoordinates
p122
(lp123
F47.323489
aF8.439553
assg24
I619837385724035073
sS'favorite_count'
p124
I0
sS'source'
p125
VEndomondo
p126
sg99
Ven
p127
sS'author'
p128
g18
sS'in_reply_to_user_id_str'
p129
Nsg28
(dp130
Vcontributors
p131
NsVtruncated
p132
I00
sVtext
p133
g10
sVin_reply_to_status_id
p134
Nsg33
I619837385724035073
sVfavorite_count
p135
I0
sVsource
p136
V<a href="http://www.endomondo.com" rel="nofollow">Endomondo</a>
p137
sVretweeted
p138
I00
sg122
(dp139
g120
VPoint
p140
sg122
(lp141
F8.439553
aF47.323489
assVtimestamp_ms
p142
V1436615723435
p143
sVentities
p144
(dp145
Vuser_mentions
p146
(lp147
sVsymbols
p148
(lp149
sVtrends
p150
(lp151
sVhashtags
p152
(lp153
(dp154
Vindices
p155
(lp156
I60
aI70
asg133
VEndomondo
p157
sa(dp158
g155
(lp159
I71
aI82
asg133
Vendorphins
p160
sasVurls
p161
(lp162
(dp163
g72
Vhttp://t.co/F3VHTaYsLy
p164
sg155
(lp165
I83
aI105
asVexpanded_url
p166
Vhttp://goo.gl/lx8rwU
p167
sVdisplay_url
p168
Vgoo.gl/lx8rwU
p169
sassVin_reply_to_screen_name
p170
Nsg42
V619837385724035073
p171
sVretweet_count
p172
I0
sVin_reply_to_user_id
p173
NsVfavorited
p174
I00
sVuser
p175
g29
sVgeo
p176
g119
sVin_reply_to_user_id_str
p177
NsVpossibly_sensitive
p178
I00
sg65
g127
sg73
VSat Jul 11 11:55:23 +0000 2015
p179
sVfilter_level
p180
g117
sVin_reply_to_status_id_str
p181
NsVplace
p182
(dp183
Vfull_name
p184
VIslisberg, Aargau
p185
sg72
Vhttps://api.twitter.com/1.1/geo/id/69c86d76a4db7828.json
p186
sVcountry
p187
VSchweiz
p188
sVplace_type
p189
Vcity
p190
sVbounding_box
p191
(dp192
g120
VPolygon
p193
sg122
(lp194
(lp195
(lp196
F8.429749
aF47.315009
aa(lp197
F8.429749
aF47.334683
aa(lp198
F8.455222
aF47.334683
aa(lp199
F8.455222
aF47.315009
aaassVcountry_code
p200
VCH
p201
sVattributes
p202
(dp203
sg33
V69c86d76a4db7828
p204
sg63
VIslisberg
p205
sssS'coordinates'
p206
g139
sS'timestamp_ms'
p207
g143
sS'entities'
p208
g145
sS'in_reply_to_status_id_str'
p209
NsS'in_reply_to_screen_name'
p210
Nsg87
g171
sS'retweeted'
p211
I00
sS'place'
p212
g0
(ctweepy.models
Place
p213
g2
Ntp214
Rp215
(dp216
S'full_name'
p217
g185
sg104
g186
sS'country'
p218
g188
sS'place_type'
p219
g190
sS'bounding_box'
p220
g0
(ctweepy.models
BoundingBox
p221
g2
Ntp222
Rp223
(dp224
S'type'
p225
g193
sg206
g194
sbsS'country_code'
p226
g201
sS'attributes'
p227
g203
sg24
g204
sg98
g205
sbsS'retweet_count'
p228
I0
sg105
g106
(S'\x07\xdf\x07\x0b\x0b7\x17\x00\x00\x00'
p229
tp230
Rp231
sS'in_reply_to_user_id'
p232
Nsb.