ccopy_reg
_reconstructor
p0
(ctweepy.models
Status
p1
c__builtin__
object
p2
Ntp3
Rp4
(dp5
S'favorited'
p6
I00
sS'contributors'
p7
NsS'truncated'
p8
I00
sS'text'
p9
VAlways a breathtaking view via @horstwilmes: First ascent of #Matterhorn 150 years ago #dailypic #mountainpic http://t.co/N4hrFJJlJn"
p10
sS'source_url'
p11
Vhttp://twitter.com/download/android
p12
sS'possibly_sensitive'
p13
I00
sS'in_reply_to_status_id'
p14
NsS'user'
p15
g0
(ctweepy.models
User
p16
g2
Ntp17
Rp18
(dp19
S'follow_request_sent'
p20
NsS'profile_use_background_image'
p21
I01
sS'profile_sidebar_fill_color'
p22
VDDEEF6
p23
sS'id'
p24
I79455681
sS'verified'
p25
I00
sS'profile_image_url_https'
p26
Vhttps://pbs.twimg.com/profile_images/2217539556/sme4_normal.jpg
p27
sS'_json'
p28
(dp29
Vfollow_request_sent
p30
NsVprofile_use_background_image
p31
I01
sVdefault_profile_image
p32
I00
sVid
p33
I79455681
sVverified
p34
I00
sVprofile_image_url_https
p35
g27
sVprofile_sidebar_fill_color
p36
g23
sVprofile_text_color
p37
V333333
p38
sVfollowers_count
p39
I5718
sVprofile_sidebar_border_color
p40
VFFFFFF
p41
sVid_str
p42
V79455681
p43
sVprofile_background_color
p44
VACDED6
p45
sVlisted_count
p46
I224
sVprofile_background_image_url_https
p47
Vhttps://pbs.twimg.com/profile_background_images/756432110/154b0ce48c95a6968198fc2b9a1d8d6f.jpeg
p48
sVutc_offset
p49
I7200
sVstatuses_count
p50
I17096
sVdescription
p51
VManaging Director Swiss Representation Dinar Finance Group / Consultant Banking & Social Media / GLP Member
p52
sVfriends_count
p53
I2191
sVlocation
p54
VZurich
p55
sVprofile_link_color
p56
V038543
p57
sVprofile_image_url
p58
Vhttp://pbs.twimg.com/profile_images/2217539556/sme4_normal.jpg
p59
sVfollowing
p60
NsVgeo_enabled
p61
I01
sVprofile_banner_url
p62
Vhttps://pbs.twimg.com/profile_banners/79455681/1355591292
p63
sVprofile_background_image_url
p64
Vhttp://pbs.twimg.com/profile_background_images/756432110/154b0ce48c95a6968198fc2b9a1d8d6f.jpeg
p65
sVname
p66
VMarc Lussy
p67
sVlang
p68
Ven
p69
sVprofile_background_tile
p70
I00
sVfavourites_count
p71
I2751
sVscreen_name
p72
VMarcLussy
p73
sVnotifications
p74
NsVurl
p75
Vhttp://www.dinargroup.com.br/
p76
sVcreated_at
p77
VSat Oct 03 13:02:36 +0000 2009
p78
sVcontributors_enabled
p79
I00
sVtime_zone
p80
VVienna
p81
sVprotected
p82
I00
sVdefault_profile
p83
I00
sVis_translator
p84
I00
ssS'contributors_enabled'
p85
I00
sS'profile_text_color'
p86
g38
sS'followers_count'
p87
I5718
sS'profile_sidebar_border_color'
p88
g41
sS'location'
p89
g55
sS'default_profile_image'
p90
I00
sS'id_str'
p91
g43
sS'utc_offset'
p92
I7200
sS'statuses_count'
p93
I17096
sS'description'
p94
g52
sS'friends_count'
p95
I2191
sS'profile_link_color'
p96
g57
sS'profile_image_url'
p97
g59
sS'notifications'
p98
NsS'geo_enabled'
p99
I01
sS'profile_background_color'
p100
g45
sS'profile_banner_url'
p101
g63
sS'profile_background_image_url'
p102
g65
sS'name'
p103
g67
sS'lang'
p104
g69
sS'following'
p105
I00
sS'profile_background_tile'
p106
I00
sS'favourites_count'
p107
I2751
sS'screen_name'
p108
g73
sS'url'
p109
g76
sS'created_at'
p110
cdatetime
datetime
p111
(S'\x07\xd9\n\x03\r\x02$\x00\x00\x00'
p112
tp113
Rp114
sS'profile_background_image_url_https'
p115
g48
sS'time_zone'
p116
g81
sS'protected'
p117
I00
sS'default_profile'
p118
I00
sS'is_translator'
p119
I00
sS'listed_count'
p120
I224
sbsS'filter_level'
p121
Vlow
p122
sS'geo'
p123
Nsg24
I620846092163411968
sS'favorite_count'
p124
I0
sS'source'
p125
VTwitter for Android
p126
sg104
Ven
p127
sS'author'
p128
g18
sS'in_reply_to_user_id_str'
p129
Nsg28
(dp130
Vcontributors
p131
NsVtruncated
p132
I00
sVtext
p133
g10
sVin_reply_to_status_id
p134
Nsg33
I620846092163411968
sVfavorite_count
p135
I0
sVsource
p136
V<a href="http://twitter.com/download/android" rel="nofollow">Twitter for Android</a>
p137
sVretweeted
p138
I00
sVcoordinates
p139
NsVtimestamp_ms
p140
V1436856217791
p141
sVentities
p142
(dp143
Vsymbols
p144
(lp145
sVmedia
p146
(lp147
(dp148
Vsource_status_id_str
p149
V620827566035873792
p150
sVexpanded_url
p151
Vhttp://twitter.com/horstwilmes/status/620827566035873792/photo/1
p152
sVdisplay_url
p153
Vpic.twitter.com/N4hrFJJlJn
p154
sg75
Vhttp://t.co/N4hrFJJlJn
p155
sVmedia_url_https
p156
Vhttps://pbs.twimg.com/media/CJ2fYcQWwAAmf1I.jpg
p157
sVsource_status_id
p158
I620827566035873792
sg42
V620827565897465856
p159
sVsizes
p160
(dp161
Vlarge
p162
(dp163
Vh
p164
I750
sVresize
p165
Vfit
p166
sVw
p167
I1000
ssVsmall
p168
(dp169
g164
I255
sg165
Vfit
p170
sg167
I340
ssVmedium
p171
(dp172
g164
I450
sg165
Vfit
p173
sg167
I600
ssVthumb
p174
(dp175
g164
I150
sg165
Vcrop
p176
sg167
I150
sssVindices
p177
(lp178
I110
aI132
asVtype
p179
Vphoto
p180
sg33
I620827565897465856
sVmedia_url
p181
Vhttp://pbs.twimg.com/media/CJ2fYcQWwAAmf1I.jpg
p182
sasVhashtags
p183
(lp184
(dp185
g177
(lp186
I61
aI72
asg133
VMatterhorn
p187
sa(dp188
g177
(lp189
I87
aI96
asg133
Vdailypic
p190
sa(dp191
g177
(lp192
I97
aI109
asg133
Vmountainpic
p193
sasVuser_mentions
p194
(lp195
(dp196
g33
I381647842
sg177
(lp197
I31
aI43
asg42
V381647842
p198
sg72
Vhorstwilmes
p199
sg66
VHorst Wilmes
p200
sasVtrends
p201
(lp202
sVurls
p203
(lp204
ssVin_reply_to_screen_name
p205
Nsg42
V620846092163411968
p206
sVretweet_count
p207
I0
sVin_reply_to_user_id
p208
NsVfavorited
p209
I00
sVuser
p210
g29
sVgeo
p211
NsVin_reply_to_user_id_str
p212
NsVpossibly_sensitive
p213
I00
sg68
g127
sg77
VTue Jul 14 06:43:37 +0000 2015
p214
sVfilter_level
p215
g122
sVin_reply_to_status_id_str
p216
NsVplace
p217
(dp218
Vfull_name
p219
VZurich, Switzerland
p220
sg75
Vhttps://api.twitter.com/1.1/geo/id/3acb748d0f1e9265.json
p221
sVcountry
p222
VSchweiz
p223
sVplace_type
p224
Vcity
p225
sVbounding_box
p226
(dp227
g179
VPolygon
p228
sg139
(lp229
(lp230
(lp231
F8.448081
aF47.320183
aa(lp232
F8.448081
aF47.434721
aa(lp233
F8.625442
aF47.434721
aa(lp234
F8.625442
aF47.320183
aaassVcountry_code
p235
VCH
p236
sVattributes
p237
(dp238
sg33
V3acb748d0f1e9265
p239
sg66
VZurich
p240
ssVextended_entities
p241
(dp242
g146
(lp243
(dp244
g149
V620827566035873792
p245
sg151
Vhttp://twitter.com/horstwilmes/status/620827566035873792/photo/1
p246
sg153
Vpic.twitter.com/N4hrFJJlJn
p247
sg75
Vhttp://t.co/N4hrFJJlJn
p248
sg156
Vhttps://pbs.twimg.com/media/CJ2fYcQWwAAmf1I.jpg
p249
sg158
I620827566035873792
sg42
V620827565897465856
p250
sg160
(dp251
g162
(dp252
g164
I750
sg165
Vfit
p253
sg167
I1000
ssg168
(dp254
g164
I255
sg165
Vfit
p255
sg167
I340
ssg171
(dp256
g164
I450
sg165
Vfit
p257
sg167
I600
ssg174
(dp258
g164
I150
sg165
Vcrop
p259
sg167
I150
sssg177
(lp260
I110
aI132
asg179
Vphoto
p261
sg33
I620827565897465856
sg181
Vhttp://pbs.twimg.com/media/CJ2fYcQWwAAmf1I.jpg
p262
sasssS'coordinates'
p263
NsS'timestamp_ms'
p264
g141
sS'entities'
p265
g143
sS'in_reply_to_status_id_str'
p266
NsS'in_reply_to_screen_name'
p267
Nsg91
g206
sS'extended_entities'
p268
g242
sS'retweeted'
p269
I00
sS'place'
p270
g0
(ctweepy.models
Place
p271
g2
Ntp272
Rp273
(dp274
S'full_name'
p275
g220
sg109
g221
sS'country'
p276
g223
sS'place_type'
p277
g225
sS'bounding_box'
p278
g0
(ctweepy.models
BoundingBox
p279
g2
Ntp280
Rp281
(dp282
S'type'
p283
g228
sg263
g229
sbsS'country_code'
p284
g236
sS'attributes'
p285
g238
sg24
g239
sg103
g240
sbsS'retweet_count'
p286
I0
sg110
g111
(S'\x07\xdf\x07\x0e\x06+%\x00\x00\x00'
p287
tp288
Rp289
sS'in_reply_to_user_id'
p290
Nsb.