ccopy_reg
_reconstructor
p0
(ctweepy.models
Status
p1
c__builtin__
object
p2
Ntp3
Rp4
(dp5
S'favorited'
p6
I00
sS'contributors'
p7
NsS'truncated'
p8
I00
sS'text'
p9
V@bmxtopher @ZiLeOHai @ExposingStuff @LaffingTroll @fame_hoe @UnderpantGn0me HAIRY CAREYS ANOOOOOOOOOOSE GOT HIM. http://t.co/i58eC3dkhp LOLO
p10
sS'source_url'
p11
Vhttp://twitter.com
p12
sS'possibly_sensitive'
p13
I00
sS'in_reply_to_status_id'
p14
I621145959720992769
sS'user'
p15
g0
(ctweepy.models
User
p16
g2
Ntp17
Rp18
(dp19
S'follow_request_sent'
p20
NsS'profile_use_background_image'
p21
I00
sS'profile_sidebar_fill_color'
p22
V000000
p23
sS'id'
p24
I2879569993
sS'verified'
p25
I00
sS'profile_image_url_https'
p26
Vhttps://pbs.twimg.com/profile_images/610874208827146241/voSDsKk8_normal.png
p27
sS'_json'
p28
(dp29
Vfollow_request_sent
p30
NsVprofile_use_background_image
p31
I00
sVdefault_profile_image
p32
I00
sVid
p33
I2879569993
sVverified
p34
I00
sVprofile_image_url_https
p35
g27
sVprofile_sidebar_fill_color
p36
g23
sVprofile_text_color
p37
V000000
p38
sVfollowers_count
p39
I250
sVprofile_sidebar_border_color
p40
V000000
p41
sVid_str
p42
V2879569993
p43
sVprofile_background_color
p44
V000000
p45
sVlisted_count
p46
I3
sVprofile_background_image_url_https
p47
Vhttps://abs.twimg.com/images/themes/theme14/bg.gif
p48
sVutc_offset
p49
I-25200
sVstatuses_count
p50
I1415
sVdescription
p51
VNEVER COULD HIDE WHO I AM.  .http://ish.re/JJRT -not me. @PROTONMAIL.COM
p52
sVfriends_count
p53
I282
sVlocation
p54
VRepublic of Mozambique
p55
sVprofile_link_color
p56
VDD2E44
p57
sVprofile_image_url
p58
Vhttp://pbs.twimg.com/profile_images/610874208827146241/voSDsKk8_normal.png
p59
sVfollowing
p60
NsVgeo_enabled
p61
I01
sVprofile_banner_url
p62
Vhttps://pbs.twimg.com/profile_banners/2879569993/1434478513
p63
sVprofile_background_image_url
p64
Vhttp://abs.twimg.com/images/themes/theme14/bg.gif
p65
sVname
p66
VD\u2200MN\u2200L\u308bX 
p67
sVlang
p68
Ven
p69
sVprofile_background_tile
p70
I00
sVfavourites_count
p71
I30
sVscreen_name
p72
VDd0xblack1
p73
sVnotifications
p74
NsVurl
p75
NsVcreated_at
p76
VMon Oct 27 13:04:37 +0000 2014
p77
sVcontributors_enabled
p78
I00
sVtime_zone
p79
VPacific Time (US & Canada)
p80
sVprotected
p81
I00
sVdefault_profile
p82
I00
sVis_translator
p83
I00
ssS'contributors_enabled'
p84
I00
sS'profile_text_color'
p85
g38
sS'followers_count'
p86
I250
sS'profile_sidebar_border_color'
p87
g41
sS'location'
p88
g55
sS'default_profile_image'
p89
I00
sS'id_str'
p90
g43
sS'utc_offset'
p91
I-25200
sS'statuses_count'
p92
I1415
sS'description'
p93
g52
sS'friends_count'
p94
I282
sS'profile_link_color'
p95
g57
sS'profile_image_url'
p96
g59
sS'notifications'
p97
NsS'geo_enabled'
p98
I01
sS'profile_background_color'
p99
g45
sS'profile_banner_url'
p100
g63
sS'profile_background_image_url'
p101
g65
sS'name'
p102
g67
sS'lang'
p103
g69
sS'following'
p104
I00
sS'profile_background_tile'
p105
I00
sS'favourites_count'
p106
I30
sS'screen_name'
p107
g73
sS'url'
p108
NsS'created_at'
p109
cdatetime
datetime
p110
(S'\x07\xde\n\x1b\r\x04%\x00\x00\x00'
p111
tp112
Rp113
sS'profile_background_image_url_https'
p114
g48
sS'time_zone'
p115
g80
sS'protected'
p116
I00
sS'default_profile'
p117
I00
sS'is_translator'
p118
I00
sS'listed_count'
p119
I3
sbsS'filter_level'
p120
Vlow
p121
sS'geo'
p122
Nsg24
I621146550329192448
sS'favorite_count'
p123
I0
sS'source'
p124
VTwitter Web Client
p125
sg103
Ven
p126
sS'author'
p127
g18
sS'in_reply_to_user_id_str'
p128
V3318509770
p129
sg28
(dp130
Vcontributors
p131
NsVtruncated
p132
I00
sVtext
p133
g10
sVin_reply_to_status_id
p134
I621145959720992769
sg33
I621146550329192448
sVfavorite_count
p135
I0
sVsource
p136
V<a href="http://twitter.com" rel="nofollow">Twitter Web Client</a>
p137
sVretweeted
p138
I00
sVcoordinates
p139
NsVtimestamp_ms
p140
V1436927852600
p141
sVentities
p142
(dp143
Vuser_mentions
p144
(lp145
(dp146
g33
I3318509770
sVindices
p147
(lp148
I0
aI10
asg42
V3318509770
p149
sg72
Vbmxtopher
p150
sg66
Vbmxchris
p151
sa(dp152
g33
I2342506544
sg147
(lp153
I11
aI20
asg42
V2342506544
p154
sg72
VZiLeOHai
p155
sg66
VDon't Potato
p156
sa(dp157
g33
I2917065683
sg147
(lp158
I21
aI35
asg42
V2917065683
p159
sg72
VExposingStuff
p160
sg66
VEvan Gardener
p161
sa(dp162
g33
I3316212040
sg147
(lp163
I36
aI49
asg42
V3316212040
p164
sg72
VLaffingTroll
p165
sg66
VU MAD BRO
p166
sa(dp167
g33
I3354051028
sg147
(lp168
I50
aI59
asg42
V3354051028
p169
sg72
Vfame_hoe
p170
sg66
V\u2588\u2588\u2588\u2588\u2588 \u2020 \u2588\u2588\u2588\u2588\u2588 
p171
sa(dp172
g33
I3012161764
sg147
(lp173
I60
aI75
asg42
V3012161764
p174
sg72
VUnderpantGn0me
p175
sg66
VUnderpant Gn0me
p176
sasVsymbols
p177
(lp178
sVtrends
p179
(lp180
sVhashtags
p181
(lp182
sVurls
p183
(lp184
(dp185
g75
Vhttp://t.co/i58eC3dkhp
p186
sg147
(lp187
I113
aI135
asVexpanded_url
p188
Vhttp://prntscr.com/7stq38
p189
sVdisplay_url
p190
Vprntscr.com/7stq38
p191
sassVin_reply_to_screen_name
p192
Vbmxtopher
p193
sg42
V621146550329192448
p194
sVretweet_count
p195
I0
sVin_reply_to_user_id
p196
I3318509770
sVfavorited
p197
I00
sVuser
p198
g29
sVgeo
p199
NsVin_reply_to_user_id_str
p200
g129
sVpossibly_sensitive
p201
I00
sg68
g126
sg76
VWed Jul 15 02:37:32 +0000 2015
p202
sVfilter_level
p203
g121
sVin_reply_to_status_id_str
p204
V621145959720992769
p205
sVplace
p206
(dp207
Vfull_name
p208
VBerne, Switzerland
p209
sg75
Vhttps://api.twitter.com/1.1/geo/id/5868d0e0749c9c47.json
p210
sVcountry
p211
VSchweiz
p212
sVplace_type
p213
Vadmin
p214
sVbounding_box
p215
(dp216
Vtype
p217
VPolygon
p218
sg139
(lp219
(lp220
(lp221
F6.861601
aF46.326441
aa(lp222
F6.861601
aF47.34528
aa(lp223
F8.455051
aF47.34528
aa(lp224
F8.455051
aF46.326441
aaassVcountry_code
p225
VCH
p226
sVattributes
p227
(dp228
sg33
V5868d0e0749c9c47
p229
sg66
VBern
p230
sssS'coordinates'
p231
NsS'timestamp_ms'
p232
g141
sS'entities'
p233
g143
sS'in_reply_to_status_id_str'
p234
g205
sS'in_reply_to_screen_name'
p235
g193
sg90
g194
sS'retweeted'
p236
I00
sS'place'
p237
g0
(ctweepy.models
Place
p238
g2
Ntp239
Rp240
(dp241
S'full_name'
p242
g209
sg108
g210
sS'country'
p243
g212
sS'place_type'
p244
g214
sS'bounding_box'
p245
g0
(ctweepy.models
BoundingBox
p246
g2
Ntp247
Rp248
(dp249
S'type'
p250
g218
sg231
g219
sbsS'country_code'
p251
g226
sS'attributes'
p252
g228
sg24
g229
sg102
g230
sbsS'retweet_count'
p253
I0
sg109
g110
(S'\x07\xdf\x07\x0f\x02% \x00\x00\x00'
p254
tp255
Rp256
sS'in_reply_to_user_id'
p257
I3318509770
sb.