ccopy_reg
_reconstructor
p0
(ctweepy.models
Status
p1
c__builtin__
object
p2
Ntp3
Rp4
(dp5
S'favorited'
p6
I00
sS'contributors'
p7
NsS'truncated'
p8
I00
sS'text'
p9
VHappy Birthday @Talentory !! #Birthday #TalentorySwitzerland #Talentory http://t.co/TxsHQ1OiyX
p10
sS'source_url'
p11
Vhttp://twitter.com
p12
sS'possibly_sensitive'
p13
I00
sS'in_reply_to_status_id'
p14
NsS'user'
p15
g0
(ctweepy.models
User
p16
g2
Ntp17
Rp18
(dp19
S'follow_request_sent'
p20
NsS'profile_use_background_image'
p21
I00
sS'profile_sidebar_fill_color'
p22
VF6F6F6
p23
sS'id'
p24
I77173874
sS'verified'
p25
I00
sS'profile_image_url_https'
p26
Vhttps://pbs.twimg.com/profile_images/605755017312772096/-TDNomDn_normal.jpg
p27
sS'_json'
p28
(dp29
Vfollow_request_sent
p30
NsVprofile_use_background_image
p31
I00
sVdefault_profile_image
p32
I00
sVid
p33
I77173874
sVverified
p34
I00
sVprofile_image_url_https
p35
g27
sVprofile_sidebar_fill_color
p36
g23
sVprofile_text_color
p37
V333333
p38
sVfollowers_count
p39
I784
sVprofile_sidebar_border_color
p40
VEEEEEE
p41
sVid_str
p42
V77173874
p43
sVprofile_background_color
p44
V575357
p45
sVlisted_count
p46
I30
sVprofile_background_image_url_https
p47
Vhttps://pbs.twimg.com/profile_background_images/336781009/logo_TALENTORY_Twitter.jpg
p48
sVutc_offset
p49
I7200
sVstatuses_count
p50
I741
sVdescription
p51
VTALENTORY the leading European B2B recruiting marketplace where Employers meet fast and quality-minded Recruiters.\u000aLike us on Facebook https://t.co/gMmeC8HDLo
p52
sVfriends_count
p53
I1997
sVlocation
p54
VZurich
p55
sVprofile_link_color
p56
V038543
p57
sVprofile_image_url
p58
Vhttp://pbs.twimg.com/profile_images/605755017312772096/-TDNomDn_normal.jpg
p59
sVfollowing
p60
NsVgeo_enabled
p61
I01
sVprofile_banner_url
p62
Vhttps://pbs.twimg.com/profile_banners/77173874/1433258208
p63
sVprofile_background_image_url
p64
Vhttp://pbs.twimg.com/profile_background_images/336781009/logo_TALENTORY_Twitter.jpg
p65
sVname
p66
VTalentory 
p67
sVlang
p68
Ven
p69
sVprofile_background_tile
p70
I00
sVfavourites_count
p71
I79
sVscreen_name
p72
VTalentory
p73
sVnotifications
p74
NsVurl
p75
Vhttps://www.talentory.com
p76
sVcreated_at
p77
VFri Sep 25 09:16:35 +0000 2009
p78
sVcontributors_enabled
p79
I00
sVtime_zone
p80
VBern
p81
sVprotected
p82
I00
sVdefault_profile
p83
I00
sVis_translator
p84
I00
ssS'contributors_enabled'
p85
I00
sS'profile_text_color'
p86
g38
sS'followers_count'
p87
I784
sS'profile_sidebar_border_color'
p88
g41
sS'location'
p89
g55
sS'default_profile_image'
p90
I00
sS'id_str'
p91
g43
sS'utc_offset'
p92
I7200
sS'statuses_count'
p93
I741
sS'description'
p94
VTALENTORY the leading European B2B recruiting marketplace where Employers meet fast and quality-minded Recruiters.\u000aLike us on Facebook https://t.co/gMmeC8HDLo
p95
sS'friends_count'
p96
I1997
sS'profile_link_color'
p97
g57
sS'profile_image_url'
p98
g59
sS'notifications'
p99
NsS'geo_enabled'
p100
I01
sS'profile_background_color'
p101
g45
sS'profile_banner_url'
p102
g63
sS'profile_background_image_url'
p103
g65
sS'name'
p104
g67
sS'lang'
p105
g69
sS'following'
p106
I00
sS'profile_background_tile'
p107
I00
sS'favourites_count'
p108
I79
sS'screen_name'
p109
g73
sS'url'
p110
g76
sS'created_at'
p111
cdatetime
datetime
p112
(S'\x07\xd9\t\x19\t\x10#\x00\x00\x00'
p113
tp114
Rp115
sS'profile_background_image_url_https'
p116
g48
sS'time_zone'
p117
g81
sS'protected'
p118
I00
sS'default_profile'
p119
I00
sS'is_translator'
p120
I00
sS'listed_count'
p121
I30
sbsS'filter_level'
p122
Vlow
p123
sS'geo'
p124
Nsg24
I621284014318612480
sS'favorite_count'
p125
I0
sS'source'
p126
VTwitter Web Client
p127
sg105
Ven
p128
sS'author'
p129
g18
sS'in_reply_to_user_id_str'
p130
Nsg28
(dp131
Vcontributors
p132
NsVtruncated
p133
I00
sVtext
p134
g10
sVin_reply_to_status_id
p135
Nsg33
I621284014318612480
sVfavorite_count
p136
I0
sVsource
p137
V<a href="http://twitter.com" rel="nofollow">Twitter Web Client</a>
p138
sVretweeted
p139
I00
sVcoordinates
p140
NsVtimestamp_ms
p141
V1436960626569
p142
sVentities
p143
(dp144
Vsymbols
p145
(lp146
sVmedia
p147
(lp148
(dp149
Vexpanded_url
p150
Vhttp://twitter.com/Talentory/status/621284014318612480/photo/1
p151
sVdisplay_url
p152
Vpic.twitter.com/TxsHQ1OiyX
p153
sg75
Vhttp://t.co/TxsHQ1OiyX
p154
sVmedia_url_https
p155
Vhttps://pbs.twimg.com/media/CJ8-hJ3UkAAiVUT.jpg
p156
sg42
V621284012904976384
p157
sVsizes
p158
(dp159
Vsmall
p160
(dp161
Vh
p162
I226
sVresize
p163
Vfit
p164
sVw
p165
I340
ssVlarge
p166
(dp167
g162
I682
sg163
Vfit
p168
sg165
I1024
ssVmedium
p169
(dp170
g162
I400
sg163
Vfit
p171
sg165
I600
ssVthumb
p172
(dp173
g162
I150
sg163
Vcrop
p174
sg165
I150
sssVindices
p175
(lp176
I72
aI94
asVtype
p177
Vphoto
p178
sg33
I621284012904976384
sVmedia_url
p179
Vhttp://pbs.twimg.com/media/CJ8-hJ3UkAAiVUT.jpg
p180
sasVhashtags
p181
(lp182
(dp183
g175
(lp184
I29
aI38
asg134
VBirthday
p185
sa(dp186
g175
(lp187
I39
aI60
asg134
VTalentorySwitzerland
p188
sa(dp189
g175
(lp190
I61
aI71
asg134
VTalentory
p191
sasVuser_mentions
p192
(lp193
(dp194
g33
I77173874
sg175
(lp195
I15
aI25
asg42
V77173874
p196
sg72
VTalentory
p197
sg66
VTalentory 
p198
sasVtrends
p199
(lp200
sVurls
p201
(lp202
ssVin_reply_to_screen_name
p203
Nsg42
V621284014318612480
p204
sVretweet_count
p205
I0
sVin_reply_to_user_id
p206
NsVfavorited
p207
I00
sVuser
p208
g29
sVgeo
p209
NsVin_reply_to_user_id_str
p210
NsVpossibly_sensitive
p211
I00
sg68
g128
sg77
VWed Jul 15 11:43:46 +0000 2015
p212
sVfilter_level
p213
g123
sVin_reply_to_status_id_str
p214
NsVplace
p215
(dp216
Vfull_name
p217
VZurich, Switzerland
p218
sg75
Vhttps://api.twitter.com/1.1/geo/id/3acb748d0f1e9265.json
p219
sVcountry
p220
VSchweiz
p221
sVplace_type
p222
Vcity
p223
sVbounding_box
p224
(dp225
g177
VPolygon
p226
sg140
(lp227
(lp228
(lp229
F8.448081
aF47.320183
aa(lp230
F8.448081
aF47.434721
aa(lp231
F8.625442
aF47.434721
aa(lp232
F8.625442
aF47.320183
aaassVcountry_code
p233
VCH
p234
sVattributes
p235
(dp236
sg33
V3acb748d0f1e9265
p237
sg66
VZurich
p238
ssVextended_entities
p239
(dp240
g147
(lp241
(dp242
g150
Vhttp://twitter.com/Talentory/status/621284014318612480/photo/1
p243
sg152
Vpic.twitter.com/TxsHQ1OiyX
p244
sg75
Vhttp://t.co/TxsHQ1OiyX
p245
sg155
Vhttps://pbs.twimg.com/media/CJ8-hJ3UkAAiVUT.jpg
p246
sg42
V621284012904976384
p247
sg158
(dp248
g160
(dp249
g162
I226
sg163
Vfit
p250
sg165
I340
ssg166
(dp251
g162
I682
sg163
Vfit
p252
sg165
I1024
ssg169
(dp253
g162
I400
sg163
Vfit
p254
sg165
I600
ssg172
(dp255
g162
I150
sg163
Vcrop
p256
sg165
I150
sssg175
(lp257
I72
aI94
asg177
Vphoto
p258
sg33
I621284012904976384
sg179
Vhttp://pbs.twimg.com/media/CJ8-hJ3UkAAiVUT.jpg
p259
sasssS'coordinates'
p260
NsS'timestamp_ms'
p261
g142
sS'entities'
p262
g144
sS'in_reply_to_status_id_str'
p263
NsS'in_reply_to_screen_name'
p264
Nsg91
g204
sS'extended_entities'
p265
g240
sS'retweeted'
p266
I00
sS'place'
p267
g0
(ctweepy.models
Place
p268
g2
Ntp269
Rp270
(dp271
S'full_name'
p272
g218
sg110
g219
sS'country'
p273
g221
sS'place_type'
p274
g223
sS'bounding_box'
p275
g0
(ctweepy.models
BoundingBox
p276
g2
Ntp277
Rp278
(dp279
S'type'
p280
g226
sg260
g227
sbsS'country_code'
p281
g234
sS'attributes'
p282
g236
sg24
g237
sg104
g238
sbsS'retweet_count'
p283
I0
sg111
g112
(S'\x07\xdf\x07\x0f\x0b+.\x00\x00\x00'
p284
tp285
Rp286
sS'in_reply_to_user_id'
p287
Nsb.