ccopy_reg
_reconstructor
p0
(ctweepy.models
Status
p1
c__builtin__
object
p2
Ntp3
Rp4
(dp5
S'favorited'
p6
I00
sS'contributors'
p7
NsS'truncated'
p8
I00
sS'text'
p9
VLove is just around the corner, any cozy little corner.\u000aLove is just around the corner when I'm\u2026 https://t.co/ME73Tp95Vt
p10
sS'source_url'
p11
Vhttp://instagram.com
p12
sS'possibly_sensitive'
p13
I00
sS'in_reply_to_status_id'
p14
NsS'user'
p15
g0
(ctweepy.models
User
p16
g2
Ntp17
Rp18
(dp19
S'follow_request_sent'
p20
NsS'profile_use_background_image'
p21
I01
sS'profile_sidebar_fill_color'
p22
VFFFFFF
p23
sS'id'
p24
I968456324
sS'verified'
p25
I00
sS'profile_image_url_https'
p26
Vhttps://pbs.twimg.com/profile_images/614375173278564352/2QiFRre5_normal.jpg
p27
sS'_json'
p28
(dp29
Vfollow_request_sent
p30
NsVprofile_use_background_image
p31
I01
sVdefault_profile_image
p32
I00
sVid
p33
I968456324
sVverified
p34
I00
sVprofile_image_url_https
p35
g27
sVprofile_sidebar_fill_color
p36
g23
sVprofile_text_color
p37
V000000
p38
sVfollowers_count
p39
I2564
sVprofile_sidebar_border_color
p40
VFFFFFF
p41
sVid_str
p42
V968456324
p43
sVprofile_background_color
p44
VFFFFFF
p45
sVlisted_count
p46
I10
sVprofile_background_image_url_https
p47
Vhttps://pbs.twimg.com/profile_background_images/378800000076638867/fbad4d7ee0136a92bf23ff4f51e14b92.png
p48
sVutc_offset
p49
I7200
sVstatuses_count
p50
I8898
sVdescription
p51
VNot your babe. \u000ahttps://www.facebook.com/sarasimplified/
p52
sVfriends_count
p53
I872
sVlocation
p54
VSkopje
p55
sVprofile_link_color
p56
V89C9FA
p57
sVprofile_image_url
p58
Vhttp://pbs.twimg.com/profile_images/614375173278564352/2QiFRre5_normal.jpg
p59
sVfollowing
p60
NsVgeo_enabled
p61
I01
sVprofile_banner_url
p62
Vhttps://pbs.twimg.com/profile_banners/968456324/1379451251
p63
sVprofile_background_image_url
p64
Vhttp://pbs.twimg.com/profile_background_images/378800000076638867/fbad4d7ee0136a92bf23ff4f51e14b92.png
p65
sVname
p66
V\u0421\u0430\u0440\u0430.
p67
sVlang
p68
Ven
p69
sVprofile_background_tile
p70
I01
sVfavourites_count
p71
I12712
sVscreen_name
p72
Vtrnorushka
p73
sVnotifications
p74
NsVurl
p75
Vhttp://sarasimplified.com/
p76
sVcreated_at
p77
VSat Nov 24 17:39:50 +0000 2012
p78
sVcontributors_enabled
p79
I00
sVtime_zone
p80
VAmsterdam
p81
sVprotected
p82
I00
sVdefault_profile
p83
I00
sVis_translator
p84
I00
ssS'contributors_enabled'
p85
I00
sS'profile_text_color'
p86
g38
sS'followers_count'
p87
I2564
sS'profile_sidebar_border_color'
p88
g41
sS'location'
p89
g55
sS'default_profile_image'
p90
I00
sS'id_str'
p91
g43
sS'utc_offset'
p92
I7200
sS'statuses_count'
p93
I8898
sS'description'
p94
VNot your babe. \u000ahttps://www.facebook.com/sarasimplified/
p95
sS'friends_count'
p96
I872
sS'profile_link_color'
p97
g57
sS'profile_image_url'
p98
g59
sS'notifications'
p99
NsS'geo_enabled'
p100
I01
sS'profile_background_color'
p101
g45
sS'profile_banner_url'
p102
g63
sS'profile_background_image_url'
p103
g65
sS'name'
p104
g67
sS'lang'
p105
g69
sS'following'
p106
I00
sS'profile_background_tile'
p107
I01
sS'favourites_count'
p108
I12712
sS'screen_name'
p109
g73
sS'url'
p110
g76
sS'created_at'
p111
cdatetime
datetime
p112
(S"\x07\xdc\x0b\x18\x11'2\x00\x00\x00"
p113
tp114
Rp115
sS'profile_background_image_url_https'
p116
g48
sS'time_zone'
p117
g81
sS'protected'
p118
I00
sS'default_profile'
p119
I00
sS'is_translator'
p120
I00
sS'listed_count'
p121
I10
sbsS'filter_level'
p122
Vlow
p123
sS'geo'
p124
(dp125
Vtype
p126
VPoint
p127
sVcoordinates
p128
(lp129
F47.373815
aF8.532026
assg24
I619998974934695936
sS'favorite_count'
p130
I0
sS'source'
p131
VInstagram
p132
sg105
Ven
p133
sS'author'
p134
g18
sS'in_reply_to_user_id_str'
p135
Nsg28
(dp136
Vcontributors
p137
NsVtruncated
p138
I00
sVtext
p139
VLove is just around the corner, any cozy little corner.\u000aLove is just around the corner when I'm\u2026 https://t.co/ME73Tp95Vt
p140
sVin_reply_to_status_id
p141
Nsg33
I619998974934695936
sVfavorite_count
p142
I0
sVsource
p143
V<a href="http://instagram.com" rel="nofollow">Instagram</a>
p144
sVretweeted
p145
I00
sg128
(dp146
g126
VPoint
p147
sg128
(lp148
F8.532026
aF47.373815
assVtimestamp_ms
p149
V1436654249305
p150
sVentities
p151
(dp152
Vuser_mentions
p153
(lp154
sVsymbols
p155
(lp156
sVtrends
p157
(lp158
sVhashtags
p159
(lp160
sVurls
p161
(lp162
(dp163
g75
Vhttps://t.co/ME73Tp95Vt
p164
sVindices
p165
(lp166
I97
aI120
asVexpanded_url
p167
Vhttps://instagram.com/p/5A0wWCsHsx/
p168
sVdisplay_url
p169
Vinstagram.com/p/5A0wWCsHsx/
p170
sassVin_reply_to_screen_name
p171
Nsg42
V619998974934695936
p172
sVretweet_count
p173
I0
sVin_reply_to_user_id
p174
NsVfavorited
p175
I00
sVuser
p176
g29
sVgeo
p177
g125
sVin_reply_to_user_id_str
p178
NsVpossibly_sensitive
p179
I00
sg68
g133
sg77
VSat Jul 11 22:37:29 +0000 2015
p180
sVfilter_level
p181
g123
sVin_reply_to_status_id_str
p182
NsVplace
p183
(dp184
Vfull_name
p185
VZurich, Switzerland
p186
sg75
Vhttps://api.twitter.com/1.1/geo/id/3acb748d0f1e9265.json
p187
sVcountry
p188
VSchweiz
p189
sVplace_type
p190
Vcity
p191
sVbounding_box
p192
(dp193
g126
VPolygon
p194
sg128
(lp195
(lp196
(lp197
F8.448081
aF47.320183
aa(lp198
F8.448081
aF47.434721
aa(lp199
F8.625442
aF47.434721
aa(lp200
F8.625442
aF47.320183
aaassVcountry_code
p201
VCH
p202
sVattributes
p203
(dp204
sg33
V3acb748d0f1e9265
p205
sg66
VZurich
p206
sssS'coordinates'
p207
g146
sS'timestamp_ms'
p208
g150
sS'entities'
p209
g152
sS'in_reply_to_status_id_str'
p210
NsS'in_reply_to_screen_name'
p211
Nsg91
g172
sS'retweeted'
p212
I00
sS'place'
p213
g0
(ctweepy.models
Place
p214
g2
Ntp215
Rp216
(dp217
S'full_name'
p218
g186
sg110
g187
sS'country'
p219
g189
sS'place_type'
p220
g191
sS'bounding_box'
p221
g0
(ctweepy.models
BoundingBox
p222
g2
Ntp223
Rp224
(dp225
S'type'
p226
g194
sg207
g195
sbsS'country_code'
p227
g202
sS'attributes'
p228
g204
sg24
g205
sg104
g206
sbsS'retweet_count'
p229
I0
sg111
g112
(S'\x07\xdf\x07\x0b\x16%\x1d\x00\x00\x00'
p230
tp231
Rp232
sS'in_reply_to_user_id'
p233
Nsb.