ccopy_reg
_reconstructor
p0
(ctweepy.models
Status
p1
c__builtin__
object
p2
Ntp3
Rp4
(dp5
S'favorited'
p6
I00
sS'contributors'
p7
NsS'truncated'
p8
I00
sS'text'
p9
V#Kwabs\u000a\u000ahttps://t.co/D4m05kxLPV
p10
sS'source_url'
p11
Vhttp://twitter.com
p12
sS'possibly_sensitive'
p13
I00
sS'in_reply_to_status_id'
p14
NsS'user'
p15
g0
(ctweepy.models
User
p16
g2
Ntp17
Rp18
(dp19
S'follow_request_sent'
p20
NsS'profile_use_background_image'
p21
I00
sS'profile_sidebar_fill_color'
p22
V000000
p23
sS'id'
p24
I3301937975
sS'verified'
p25
I00
sS'profile_image_url_https'
p26
Vhttps://pbs.twimg.com/profile_images/620630905984421888/zRXD4ikO_normal.jpg
p27
sS'_json'
p28
(dp29
Vfollow_request_sent
p30
NsVprofile_use_background_image
p31
I00
sVdefault_profile_image
p32
I00
sVid
p33
I3301937975
sVverified
p34
I00
sVprofile_image_url_https
p35
g27
sVprofile_sidebar_fill_color
p36
g23
sVprofile_text_color
p37
V000000
p38
sVfollowers_count
p39
I4
sVprofile_sidebar_border_color
p40
V000000
p41
sVid_str
p42
V3301937975
p43
sVprofile_background_color
p44
V000000
p45
sVlisted_count
p46
I0
sVprofile_background_image_url_https
p47
Vhttps://abs.twimg.com/images/themes/theme1/bg.png
p48
sVutc_offset
p49
NsVstatuses_count
p50
I16
sVdescription
p51
VIt's not that serious, it never is !!!!
p52
sVfriends_count
p53
I67
sVlocation
p54
VZurich, Switzerland
p55
sVprofile_link_color
p56
V3B94D9
p57
sVprofile_image_url
p58
Vhttp://pbs.twimg.com/profile_images/620630905984421888/zRXD4ikO_normal.jpg
p59
sVfollowing
p60
NsVgeo_enabled
p61
I01
sVprofile_banner_url
p62
Vhttps://pbs.twimg.com/profile_banners/3301937975/1436805442
p63
sVprofile_background_image_url
p64
Vhttp://abs.twimg.com/images/themes/theme1/bg.png
p65
sVname
p66
VPrisca Mutesi Dumas
p67
sVlang
p68
Ven
p69
sVprofile_background_tile
p70
I00
sVfavourites_count
p71
I1
sVscreen_name
p72
VDumasMutesi
p73
sVnotifications
p74
NsVurl
p75
NsVcreated_at
p76
VThu May 28 16:59:57 +0000 2015
p77
sVcontributors_enabled
p78
I00
sVtime_zone
p79
NsVprotected
p80
I00
sVdefault_profile
p81
I00
sVis_translator
p82
I00
ssS'contributors_enabled'
p83
I00
sS'profile_text_color'
p84
g38
sS'followers_count'
p85
I4
sS'profile_sidebar_border_color'
p86
g41
sS'location'
p87
g55
sS'default_profile_image'
p88
I00
sS'id_str'
p89
g43
sS'utc_offset'
p90
NsS'statuses_count'
p91
I16
sS'description'
p92
g52
sS'friends_count'
p93
I67
sS'profile_link_color'
p94
g57
sS'profile_image_url'
p95
g59
sS'notifications'
p96
NsS'geo_enabled'
p97
I01
sS'profile_background_color'
p98
g45
sS'profile_banner_url'
p99
g63
sS'profile_background_image_url'
p100
g65
sS'name'
p101
g67
sS'lang'
p102
g69
sS'following'
p103
I00
sS'profile_background_tile'
p104
I00
sS'favourites_count'
p105
I1
sS'screen_name'
p106
g73
sS'url'
p107
NsS'created_at'
p108
cdatetime
datetime
p109
(S'\x07\xdf\x05\x1c\x10;9\x00\x00\x00'
p110
tp111
Rp112
sS'profile_background_image_url_https'
p113
g48
sS'time_zone'
p114
NsS'protected'
p115
I00
sS'default_profile'
p116
I00
sS'is_translator'
p117
I00
sS'listed_count'
p118
I0
sbsS'filter_level'
p119
Vlow
p120
sS'geo'
p121
Nsg24
I620661108806955008
sS'favorite_count'
p122
I0
sS'source'
p123
VTwitter Web Client
p124
sg102
Vund
p125
sS'author'
p126
g18
sS'in_reply_to_user_id_str'
p127
Nsg28
(dp128
Vcontributors
p129
NsVtruncated
p130
I00
sVtext
p131
V#Kwabs\u000a\u000ahttps://t.co/D4m05kxLPV
p132
sVin_reply_to_status_id
p133
Nsg33
I620661108806955008
sVfavorite_count
p134
I0
sVsource
p135
V<a href="http://twitter.com" rel="nofollow">Twitter Web Client</a>
p136
sVretweeted
p137
I00
sVcoordinates
p138
NsVtimestamp_ms
p139
V1436812114322
p140
sVentities
p141
(dp142
Vuser_mentions
p143
(lp144
sVsymbols
p145
(lp146
sVtrends
p147
(lp148
sVhashtags
p149
(lp150
(dp151
Vindices
p152
(lp153
I0
aI6
asg131
VKwabs
p154
sasVurls
p155
(lp156
(dp157
g75
Vhttps://t.co/D4m05kxLPV
p158
sg152
(lp159
I8
aI31
asVexpanded_url
p160
Vhttps://www.youtube.com/watch?v=-QwYcJsr2Wg
p161
sVdisplay_url
p162
Vyoutube.com/watch?v=-QwYcJ\u2026
p163
sassVin_reply_to_screen_name
p164
Nsg42
V620661108806955008
p165
sVretweet_count
p166
I0
sVin_reply_to_user_id
p167
NsVfavorited
p168
I00
sVuser
p169
g29
sVgeo
p170
NsVin_reply_to_user_id_str
p171
NsVpossibly_sensitive
p172
I00
sg68
g125
sg76
VMon Jul 13 18:28:34 +0000 2015
p173
sVfilter_level
p174
g120
sVin_reply_to_status_id_str
p175
NsVplace
p176
(dp177
Vfull_name
p178
VZurich, Switzerland
p179
sg75
Vhttps://api.twitter.com/1.1/geo/id/3acb748d0f1e9265.json
p180
sVcountry
p181
VSchweiz
p182
sVplace_type
p183
Vcity
p184
sVbounding_box
p185
(dp186
Vtype
p187
VPolygon
p188
sg138
(lp189
(lp190
(lp191
F8.448081
aF47.320183
aa(lp192
F8.448081
aF47.434721
aa(lp193
F8.625442
aF47.434721
aa(lp194
F8.625442
aF47.320183
aaassVcountry_code
p195
VCH
p196
sVattributes
p197
(dp198
sg33
V3acb748d0f1e9265
p199
sg66
VZurich
p200
sssS'coordinates'
p201
NsS'timestamp_ms'
p202
g140
sS'entities'
p203
g142
sS'in_reply_to_status_id_str'
p204
NsS'in_reply_to_screen_name'
p205
Nsg89
g165
sS'retweeted'
p206
I00
sS'place'
p207
g0
(ctweepy.models
Place
p208
g2
Ntp209
Rp210
(dp211
S'full_name'
p212
g179
sg107
g180
sS'country'
p213
g182
sS'place_type'
p214
g184
sS'bounding_box'
p215
g0
(ctweepy.models
BoundingBox
p216
g2
Ntp217
Rp218
(dp219
S'type'
p220
g188
sg201
g189
sbsS'country_code'
p221
g196
sS'attributes'
p222
g198
sg24
g199
sg101
g200
sbsS'retweet_count'
p223
I0
sg108
g109
(S'\x07\xdf\x07\r\x12\x1c"\x00\x00\x00'
p224
tp225
Rp226
sS'in_reply_to_user_id'
p227
Nsb.