ccopy_reg
_reconstructor
p0
(ctweepy.models
Status
p1
c__builtin__
object
p2
Ntp3
Rp4
(dp5
S'favorited'
p6
I00
sS'contributors'
p7
NsS'truncated'
p8
I00
sS'text'
p9
V@motto @Giaa_band at @plazazurich (Oct 17, 2015) http://t.co/ngAKX51NQP
p10
sS'source_url'
p11
Vhttp://kickalert.me
p12
sS'possibly_sensitive'
p13
I00
sS'in_reply_to_status_id'
p14
NsS'user'
p15
g0
(ctweepy.models
User
p16
g2
Ntp17
Rp18
(dp19
S'follow_request_sent'
p20
NsS'profile_use_background_image'
p21
I01
sS'profile_sidebar_fill_color'
p22
VDDEEF6
p23
sS'id'
p24
I343197788
sS'verified'
p25
I00
sS'profile_image_url_https'
p26
Vhttps://pbs.twimg.com/profile_images/577481133702537216/C-8X7w95_normal.jpeg
p27
sS'_json'
p28
(dp29
Vfollow_request_sent
p30
NsVprofile_use_background_image
p31
I01
sVdefault_profile_image
p32
I00
sVid
p33
I343197788
sVverified
p34
I00
sVprofile_image_url_https
p35
g27
sVprofile_sidebar_fill_color
p36
g23
sVprofile_text_color
p37
V333333
p38
sVfollowers_count
p39
I1535
sVprofile_sidebar_border_color
p40
VFFFFFF
p41
sVid_str
p42
V343197788
p43
sVprofile_background_color
p44
V000000
p45
sVlisted_count
p46
I110
sVprofile_background_image_url_https
p47
Vhttps://pbs.twimg.com/profile_background_images/378800000065856557/9e5535f20fd8b7f48ce0d8fca10106ea.jpeg
p48
sVutc_offset
p49
NsVstatuses_count
p50
I138713
sVdescription
p51
VGet automatic @ mentions for your tracked artists & locations on @songkick. A project by @mario. To start, register at http://kickalert.me
p52
sVfriends_count
p53
I1
sVlocation
p54
VAt a gig
p55
sVprofile_link_color
p56
V0084B4
p57
sVprofile_image_url
p58
Vhttp://pbs.twimg.com/profile_images/577481133702537216/C-8X7w95_normal.jpeg
p59
sVfollowing
p60
NsVgeo_enabled
p61
I01
sVprofile_banner_url
p62
Vhttps://pbs.twimg.com/profile_banners/343197788/1378201274
p63
sVprofile_background_image_url
p64
Vhttp://pbs.twimg.com/profile_background_images/378800000065856557/9e5535f20fd8b7f48ce0d8fca10106ea.jpeg
p65
sVname
p66
VSongkick alerts
p67
sVlang
p68
Ven
p69
sVprofile_background_tile
p70
I00
sVfavourites_count
p71
I4
sVscreen_name
p72
Vkickalert
p73
sVnotifications
p74
NsVurl
p75
Vhttp://kickalert.me
p76
sVcreated_at
p77
VWed Jul 27 06:09:38 +0000 2011
p78
sVcontributors_enabled
p79
I00
sVtime_zone
p80
NsVprotected
p81
I00
sVdefault_profile
p82
I00
sVis_translator
p83
I00
ssS'contributors_enabled'
p84
I00
sS'profile_text_color'
p85
g38
sS'followers_count'
p86
I1535
sS'profile_sidebar_border_color'
p87
g41
sS'location'
p88
g55
sS'default_profile_image'
p89
I00
sS'id_str'
p90
g43
sS'utc_offset'
p91
NsS'statuses_count'
p92
I138713
sS'description'
p93
g52
sS'friends_count'
p94
I1
sS'profile_link_color'
p95
g57
sS'profile_image_url'
p96
g59
sS'notifications'
p97
NsS'geo_enabled'
p98
I01
sS'profile_background_color'
p99
g45
sS'profile_banner_url'
p100
g63
sS'profile_background_image_url'
p101
g65
sS'name'
p102
g67
sS'lang'
p103
g69
sS'following'
p104
I00
sS'profile_background_tile'
p105
I00
sS'favourites_count'
p106
I4
sS'screen_name'
p107
g73
sS'url'
p108
g76
sS'created_at'
p109
cdatetime
datetime
p110
(S'\x07\xdb\x07\x1b\x06\t&\x00\x00\x00'
p111
tp112
Rp113
sS'profile_background_image_url_https'
p114
g48
sS'time_zone'
p115
NsS'protected'
p116
I00
sS'default_profile'
p117
I00
sS'is_translator'
p118
I00
sS'listed_count'
p119
I110
sbsS'filter_level'
p120
Vlow
p121
sS'geo'
p122
(dp123
Vtype
p124
VPoint
p125
sVcoordinates
p126
(lp127
F47.374124
aF8.524615
assg24
I619736750966095872
sS'favorite_count'
p128
I0
sS'source'
p129
Vkickalert
p130
sg103
Ven
p131
sS'author'
p132
g18
sS'in_reply_to_user_id_str'
p133
V10082112
p134
sg28
(dp135
Vcontributors
p136
NsVtruncated
p137
I00
sVtext
p138
g10
sVin_reply_to_status_id
p139
Nsg33
I619736750966095872
sVfavorite_count
p140
I0
sVsource
p141
V<a href="http://kickalert.me" rel="nofollow">kickalert</a>
p142
sVretweeted
p143
I00
sg126
(dp144
g124
VPoint
p145
sg126
(lp146
F8.524615
aF47.374124
assVtimestamp_ms
p147
V1436591730239
p148
sVentities
p149
(dp150
Vuser_mentions
p151
(lp152
(dp153
g33
I10082112
sVindices
p154
(lp155
I0
aI6
asg42
V10082112
p156
sg72
Vmotto
p157
sg66
VJose Collantes
p158
sa(dp159
g33
I560678817
sg154
(lp160
I7
aI17
asg42
V560678817
p161
sg72
VGiaa_band
p162
sg66
VGod Is An Astronaut
p163
sa(dp164
g33
I188422206
sg154
(lp165
I21
aI33
asg42
V188422206
p166
sg72
VPlazaZurich
p167
sg66
VPlaza Klub Zurich
p168
sasVsymbols
p169
(lp170
sVtrends
p171
(lp172
sVhashtags
p173
(lp174
sVurls
p175
(lp176
(dp177
g75
Vhttp://t.co/ngAKX51NQP
p178
sg154
(lp179
I49
aI71
asVexpanded_url
p180
Vhttp://songkick.rocks/1JVBold
p181
sVdisplay_url
p182
Vsongkick.rocks/1JVBold
p183
sassVin_reply_to_screen_name
p184
Vmotto
p185
sg42
V619736750966095872
p186
sVretweet_count
p187
I0
sVin_reply_to_user_id
p188
I10082112
sVfavorited
p189
I00
sVuser
p190
g29
sVgeo
p191
g123
sVin_reply_to_user_id_str
p192
g134
sVpossibly_sensitive
p193
I00
sg68
g131
sg77
VSat Jul 11 05:15:30 +0000 2015
p194
sVfilter_level
p195
g121
sVin_reply_to_status_id_str
p196
NsVplace
p197
(dp198
Vfull_name
p199
VZurich, Switzerland
p200
sg75
Vhttps://api.twitter.com/1.1/geo/id/3acb748d0f1e9265.json
p201
sVcountry
p202
VSchweiz
p203
sVplace_type
p204
Vcity
p205
sVbounding_box
p206
(dp207
g124
VPolygon
p208
sg126
(lp209
(lp210
(lp211
F8.448081
aF47.320183
aa(lp212
F8.448081
aF47.434721
aa(lp213
F8.625442
aF47.434721
aa(lp214
F8.625442
aF47.320183
aaassVcountry_code
p215
VCH
p216
sVattributes
p217
(dp218
sg33
V3acb748d0f1e9265
p219
sg66
VZurich
p220
sssS'coordinates'
p221
g144
sS'timestamp_ms'
p222
g148
sS'entities'
p223
g150
sS'in_reply_to_status_id_str'
p224
NsS'in_reply_to_screen_name'
p225
g185
sg90
g186
sS'retweeted'
p226
I00
sS'place'
p227
g0
(ctweepy.models
Place
p228
g2
Ntp229
Rp230
(dp231
S'full_name'
p232
g200
sg108
g201
sS'country'
p233
g203
sS'place_type'
p234
g205
sS'bounding_box'
p235
g0
(ctweepy.models
BoundingBox
p236
g2
Ntp237
Rp238
(dp239
S'type'
p240
g208
sg221
g209
sbsS'country_code'
p241
g216
sS'attributes'
p242
g218
sg24
g219
sg102
g220
sbsS'retweet_count'
p243
I0
sg109
g110
(S'\x07\xdf\x07\x0b\x05\x0f\x1e\x00\x00\x00'
p244
tp245
Rp246
sS'in_reply_to_user_id'
p247
I10082112
sb.