ccopy_reg
_reconstructor
p0
(ctweepy.models
Status
p1
c__builtin__
object
p2
Ntp3
Rp4
(dp5
S'contributors'
p6
NsS'truncated'
p7
I00
sS'text'
p8
VGreat News https://t.co/Eh07dfoMwK
p9
sS'in_reply_to_status_id'
p10
NsS'id'
p11
I618758880508706816
sS'favorite_count'
p12
I0
sS'entities'
p13
(dp14
Vuser_mentions
p15
(lp16
sVsymbols
p17
(lp18
sVtrends
p19
(lp20
sVhashtags
p21
(lp22
sVurls
p23
(lp24
(dp25
Vurl
p26
Vhttps://t.co/Eh07dfoMwK
p27
sVindices
p28
(lp29
I11
aI34
asVexpanded_url
p30
Vhttps://twitter.com/rosanwo/status/618758053039616001
p31
sVdisplay_url
p32
Vtwitter.com/rosanwo/status\u2026
p33
sassS'quoted_status_id'
p34
I618758053039616001
sS'_json'
p35
(dp36
Vcontributors
p37
NsVtruncated
p38
I00
sVtext
p39
g9
sVin_reply_to_status_id
p40
NsVid
p41
I618758880508706816
sVfavorite_count
p42
I0
sVsource
p43
V<a href="http://twitter.com/download/iphone" rel="nofollow">Twitter for iPhone</a>
p44
sVquoted_status_id
p45
I618758053039616001
sVretweeted
p46
I00
sVcoordinates
p47
NsVtimestamp_ms
p48
V1436358587754
p49
sVquoted_status
p50
(dp51
g37
Nsg38
I00
sg39
VThe judge has granted Umana #APC the right to inspect ballot boxes which were brought from #AkwaIbom to Abuja by court orders
p52
sg40
Nsg41
I618758053039616001
sg42
I0
sg43
V<a href="http://twitter.com/download/iphone" rel="nofollow">Twitter for iPhone</a>
p53
sg46
I00
sg47
NsVentities
p54
(dp55
g15
(lp56
sg17
(lp57
sg19
(lp58
sg21
(lp59
(dp60
g28
(lp61
I28
aI32
asg39
VAPC
p62
sa(dp63
g28
(lp64
I91
aI100
asg39
VAkwaIbom
p65
sasg23
(lp66
ssVin_reply_to_screen_name
p67
NsVid_str
p68
V618758053039616001
p69
sVretweet_count
p70
I0
sVin_reply_to_user_id
p71
NsVfavorited
p72
I00
sVuser
p73
(dp74
Vfollow_request_sent
p75
NsVprofile_use_background_image
p76
I01
sVdefault_profile_image
p77
I00
sg41
I34288864
sVverified
p78
I00
sVprofile_image_url_https
p79
Vhttps://pbs.twimg.com/profile_images/591128576210120704/K-QWpDya_normal.jpg
p80
sVprofile_sidebar_fill_color
p81
VDDEEF6
p82
sVprofile_text_color
p83
V333333
p84
sVfollowers_count
p85
I64218
sVprofile_sidebar_border_color
p86
VFFFFFF
p87
sg68
V34288864
p88
sVprofile_background_color
p89
VC0DEED
p90
sVlisted_count
p91
I212
sVprofile_background_image_url_https
p92
Vhttps://pbs.twimg.com/profile_background_images/742298358/9c41854fa77d81feb7aa71ca54cfa09a.jpeg
p93
sVutc_offset
p94
I3600
sVstatuses_count
p95
I143796
sVdescription
p96
VCousin Canary..... Proclivity for Nigeria
p97
sVfriends_count
p98
I765
sVlocation
p99
VLondon
p100
sVprofile_link_color
p101
V0084B4
p102
sVprofile_image_url
p103
Vhttp://pbs.twimg.com/profile_images/591128576210120704/K-QWpDya_normal.jpg
p104
sVfollowing
p105
NsVgeo_enabled
p106
I00
sVprofile_banner_url
p107
Vhttps://pbs.twimg.com/profile_banners/34288864/1406817599
p108
sVprofile_background_image_url
p109
Vhttp://pbs.twimg.com/profile_background_images/742298358/9c41854fa77d81feb7aa71ca54cfa09a.jpeg
p110
sVname
p111
VRosanwo
p112
sVlang
p113
Ven
p114
sVprofile_background_tile
p115
I01
sVfavourites_count
p116
I326
sVscreen_name
p117
Vrosanwo
p118
sVnotifications
p119
Nsg26
Vhttp://rosanwo.wordpress.com/
p120
sVcreated_at
p121
VWed Apr 22 14:41:03 +0000 2009
p122
sVcontributors_enabled
p123
I00
sVtime_zone
p124
VLondon
p125
sVprotected
p126
I00
sVdefault_profile
p127
I00
sVis_translator
p128
I00
ssVgeo
p129
NsVin_reply_to_user_id_str
p130
NsVpossibly_sensitive
p131
I00
sg113
Ven
p132
sg121
VWed Jul 08 12:26:30 +0000 2015
p133
sVfilter_level
p134
Vlow
p135
sVin_reply_to_status_id_str
p136
NsVplace
p137
Nssg54
g14
sg67
Nsg68
V618758880508706816
p138
sg70
I0
sg71
Nsg72
I00
sg73
(dp139
g75
Nsg76
I01
sg77
I00
sg41
I271361465
sg78
I00
sg79
Vhttps://pbs.twimg.com/profile_images/605507470363099136/ML2klFEV_normal.jpg
p140
sg81
VDDEEF6
p141
sg83
V333333
p142
sg85
I432
sg86
VC0DEED
p143
sg68
V271361465
p144
sg89
VC0DEED
p145
sg91
I25
sg92
Vhttps://abs.twimg.com/images/themes/theme1/bg.png
p146
sg94
Nsg95
I19197
sg96
VConsummate PR and Corporate Communication buff. Proudly flying Djembe communications flag across the West Africa region
p147
sg98
I596
sg99
V
p148
sg101
V0084B4
p149
sg103
Vhttp://pbs.twimg.com/profile_images/605507470363099136/ML2klFEV_normal.jpg
p150
sg105
Nsg106
I01
sg107
Vhttps://pbs.twimg.com/profile_banners/271361465/1424263426
p151
sg109
Vhttp://abs.twimg.com/images/themes/theme1/bg.png
p152
sg111
VOnome Okwah
p153
sg113
Ven
p154
sg115
I00
sg116
I44
sg117
Vomookwah
p155
sg119
Nsg26
Nsg121
VThu Mar 24 10:38:08 +0000 2011
p156
sg123
I00
sg124
Nsg126
I00
sg127
I01
sg128
I00
ssg129
Nsg130
Nsg131
I00
sg113
Ven
p157
sg121
VWed Jul 08 12:29:47 +0000 2015
p158
sVquoted_status_id_str
p159
V618758053039616001
p160
sg134
Vlow
p161
sg136
Nsg137
(dp162
Vfull_name
p163
VZurich, Switzerland
p164
sg26
Vhttps://api.twitter.com/1.1/geo/id/3acb748d0f1e9265.json
p165
sVcountry
p166
VSchweiz
p167
sVplace_type
p168
Vcity
p169
sVbounding_box
p170
(dp171
Vtype
p172
VPolygon
p173
sg47
(lp174
(lp175
(lp176
F8.448081
aF47.320183
aa(lp177
F8.448081
aF47.434721
aa(lp178
F8.625442
aF47.434721
aa(lp179
F8.625442
aF47.320183
aaassVcountry_code
p180
VCH
p181
sVattributes
p182
(dp183
sg41
V3acb748d0f1e9265
p184
sg111
VZurich
p185
sssS'coordinates'
p186
NsS'timestamp_ms'
p187
g49
sS'quoted_status'
p188
g51
sS'source'
p189
VTwitter for iPhone
p190
sS'in_reply_to_screen_name'
p191
NsS'id_str'
p192
g138
sS'retweet_count'
p193
I0
sS'in_reply_to_user_id'
p194
NsS'favorited'
p195
I00
sS'source_url'
p196
Vhttp://twitter.com/download/iphone
p197
sS'user'
p198
g0
(ctweepy.models
User
p199
g2
Ntp200
Rp201
(dp202
S'follow_request_sent'
p203
NsS'profile_use_background_image'
p204
I01
sS'profile_sidebar_fill_color'
p205
g141
sg11
I271361465
sS'verified'
p206
I00
sS'profile_image_url_https'
p207
g140
sg35
g139
sS'contributors_enabled'
p208
I00
sS'profile_text_color'
p209
g142
sS'followers_count'
p210
I432
sS'profile_sidebar_border_color'
p211
g143
sS'location'
p212
g148
sS'default_profile_image'
p213
I00
sg192
g144
sS'utc_offset'
p214
NsS'statuses_count'
p215
I19197
sS'description'
p216
g147
sS'friends_count'
p217
I596
sS'profile_link_color'
p218
g149
sS'profile_image_url'
p219
g150
sS'notifications'
p220
NsS'geo_enabled'
p221
I01
sS'profile_background_color'
p222
g145
sS'profile_banner_url'
p223
g151
sS'profile_background_image_url'
p224
g152
sS'name'
p225
g153
sS'lang'
p226
g154
sS'following'
p227
I00
sS'profile_background_tile'
p228
I00
sS'favourites_count'
p229
I44
sS'screen_name'
p230
g155
sS'url'
p231
NsS'created_at'
p232
cdatetime
datetime
p233
(S'\x07\xdb\x03\x18\n&\x08\x00\x00\x00'
p234
tp235
Rp236
sS'profile_background_image_url_https'
p237
g146
sS'time_zone'
p238
NsS'protected'
p239
I00
sS'default_profile'
p240
I01
sS'is_translator'
p241
I00
sS'listed_count'
p242
I25
sbsS'geo'
p243
NsS'in_reply_to_user_id_str'
p244
NsS'possibly_sensitive'
p245
I00
sg226
g157
sg232
g233
(S'\x07\xdf\x07\x08\x0c\x1d/\x00\x00\x00'
p246
tp247
Rp248
sS'author'
p249
g201
sS'quoted_status_id_str'
p250
g160
sS'filter_level'
p251
g161
sS'in_reply_to_status_id_str'
p252
NsS'place'
p253
g0
(ctweepy.models
Place
p254
g2
Ntp255
Rp256
(dp257
S'full_name'
p258
g164
sg231
g165
sS'country'
p259
g167
sS'place_type'
p260
g169
sS'bounding_box'
p261
g0
(ctweepy.models
BoundingBox
p262
g2
Ntp263
Rp264
(dp265
S'type'
p266
g173
sg186
g174
sbsS'country_code'
p267
g181
sS'attributes'
p268
g183
sg11
g184
sg225
g185
sbsS'retweeted'
p269
I00
sb.