ccopy_reg
_reconstructor
p0
(ctweepy.models
Status
p1
c__builtin__
object
p2
Ntp3
Rp4
(dp5
S'favorited'
p6
I00
sS'contributors'
p7
NsS'truncated'
p8
I00
sS'text'
p9
V@sffstantris @SimonLeeson1 @keithmc101 @hugh_canning saw Ortrud at La Scala with JK, &amp; also other roles.
p10
sS'source_url'
p11
Vhttp://twitter.com/#!/download/ipad
p12
sS'possibly_sensitive'
p13
I00
sS'in_reply_to_status_id'
p14
I619609908070219776
sS'user'
p15
g0
(ctweepy.models
User
p16
g2
Ntp17
Rp18
(dp19
S'follow_request_sent'
p20
NsS'profile_use_background_image'
p21
I01
sS'profile_sidebar_fill_color'
p22
VDDEEF6
p23
sS'id'
p24
I257387240
sS'verified'
p25
I00
sS'profile_image_url_https'
p26
Vhttps://pbs.twimg.com/profile_images/551334069318201344/RER1oHjk_normal.jpeg
p27
sS'_json'
p28
(dp29
Vfollow_request_sent
p30
NsVprofile_use_background_image
p31
I01
sVdefault_profile_image
p32
I00
sVid
p33
I257387240
sVverified
p34
I00
sVprofile_image_url_https
p35
g27
sVprofile_sidebar_fill_color
p36
g23
sVprofile_text_color
p37
V333333
p38
sVfollowers_count
p39
I1172
sVprofile_sidebar_border_color
p40
VC0DEED
p41
sVid_str
p42
V257387240
p43
sVprofile_background_color
p44
VC0DEED
p45
sVlisted_count
p46
I25
sVprofile_background_image_url_https
p47
Vhttps://abs.twimg.com/images/themes/theme1/bg.png
p48
sVutc_offset
p49
NsVstatuses_count
p50
I11640
sVdescription
p51
VSemi retired but still working to fund itinerant opera addiction, combined with cultural and culinary wanderings.
p52
sVfriends_count
p53
I1863
sVlocation
p54
VLeafy Suburbia
p55
sVprofile_link_color
p56
V0084B4
p57
sVprofile_image_url
p58
Vhttp://pbs.twimg.com/profile_images/551334069318201344/RER1oHjk_normal.jpeg
p59
sVfollowing
p60
NsVgeo_enabled
p61
I01
sVprofile_banner_url
p62
Vhttps://pbs.twimg.com/profile_banners/257387240/1427197683
p63
sVprofile_background_image_url
p64
Vhttp://abs.twimg.com/images/themes/theme1/bg.png
p65
sVname
p66
VJohn Johnston
p67
sVlang
p68
Ven
p69
sVprofile_background_tile
p70
I00
sVfavourites_count
p71
I4301
sVscreen_name
p72
VJohnVecchio
p73
sVnotifications
p74
NsVurl
p75
NsVcreated_at
p76
VFri Feb 25 09:16:47 +0000 2011
p77
sVcontributors_enabled
p78
I00
sVtime_zone
p79
NsVprotected
p80
I00
sVdefault_profile
p81
I01
sVis_translator
p82
I00
ssS'contributors_enabled'
p83
I00
sS'profile_text_color'
p84
g38
sS'followers_count'
p85
I1172
sS'profile_sidebar_border_color'
p86
g41
sS'location'
p87
g55
sS'default_profile_image'
p88
I00
sS'id_str'
p89
g43
sS'utc_offset'
p90
NsS'statuses_count'
p91
I11640
sS'description'
p92
g52
sS'friends_count'
p93
I1863
sS'profile_link_color'
p94
g57
sS'profile_image_url'
p95
g59
sS'notifications'
p96
NsS'geo_enabled'
p97
I01
sS'profile_background_color'
p98
g45
sS'profile_banner_url'
p99
g63
sS'profile_background_image_url'
p100
g65
sS'name'
p101
g67
sS'lang'
p102
g69
sS'following'
p103
I00
sS'profile_background_tile'
p104
I00
sS'favourites_count'
p105
I4301
sS'screen_name'
p106
g73
sS'url'
p107
NsS'created_at'
p108
cdatetime
datetime
p109
(S'\x07\xdb\x02\x19\t\x10/\x00\x00\x00'
p110
tp111
Rp112
sS'profile_background_image_url_https'
p113
g48
sS'time_zone'
p114
NsS'protected'
p115
I00
sS'default_profile'
p116
I01
sS'is_translator'
p117
I00
sS'listed_count'
p118
I25
sbsS'filter_level'
p119
Vlow
p120
sS'geo'
p121
Nsg24
I619610287872864256
sS'favorite_count'
p122
I0
sS'source'
p123
VTwitter for iPad
p124
sg102
Ven
p125
sS'author'
p126
g18
sS'in_reply_to_user_id_str'
p127
V76745928
p128
sg28
(dp129
Vcontributors
p130
NsVtruncated
p131
I00
sVtext
p132
g10
sVin_reply_to_status_id
p133
I619609908070219776
sg33
I619610287872864256
sVfavorite_count
p134
I0
sVsource
p135
V<a href="http://twitter.com/#!/download/ipad" rel="nofollow">Twitter for iPad</a>
p136
sVretweeted
p137
I00
sVcoordinates
p138
NsVtimestamp_ms
p139
V1436561579088
p140
sVentities
p141
(dp142
Vuser_mentions
p143
(lp144
(dp145
g33
I76745928
sVindices
p146
(lp147
I0
aI12
asg42
V76745928
p148
sg72
Vsffstantris
p149
sg66
Vsimon feeney
p150
sa(dp151
g33
I915175843
sg146
(lp152
I13
aI26
asg42
V915175843
p153
sg72
VSimonLeeson1
p154
sg66
VSimon Leeson
p155
sa(dp156
g33
I77777152
sg146
(lp157
I27
aI38
asg42
V77777152
p158
sg72
Vkeithmc101
p159
sg66
VKeith McDonnell
p160
sa(dp161
g33
I2680706465
sg146
(lp162
I39
aI52
asg42
V2680706465
p163
sg72
Vhugh_canning
p164
sg66
VHugh Canning
p165
sasVsymbols
p166
(lp167
sVtrends
p168
(lp169
sVhashtags
p170
(lp171
sVurls
p172
(lp173
ssVin_reply_to_screen_name
p174
Vsffstantris
p175
sg42
V619610287872864256
p176
sVretweet_count
p177
I0
sVin_reply_to_user_id
p178
I76745928
sVfavorited
p179
I00
sVuser
p180
g29
sVgeo
p181
NsVin_reply_to_user_id_str
p182
g128
sVpossibly_sensitive
p183
I00
sg68
g125
sg76
VFri Jul 10 20:52:59 +0000 2015
p184
sVfilter_level
p185
g120
sVin_reply_to_status_id_str
p186
V619609908070219776
p187
sVplace
p188
(dp189
Vfull_name
p190
VZurich, Switzerland
p191
sg75
Vhttps://api.twitter.com/1.1/geo/id/3acb748d0f1e9265.json
p192
sVcountry
p193
VSchweiz
p194
sVplace_type
p195
Vcity
p196
sVbounding_box
p197
(dp198
Vtype
p199
VPolygon
p200
sg138
(lp201
(lp202
(lp203
F8.448081
aF47.320183
aa(lp204
F8.448081
aF47.434721
aa(lp205
F8.625442
aF47.434721
aa(lp206
F8.625442
aF47.320183
aaassVcountry_code
p207
VCH
p208
sVattributes
p209
(dp210
sg33
V3acb748d0f1e9265
p211
sg66
VZurich
p212
sssS'coordinates'
p213
NsS'timestamp_ms'
p214
g140
sS'entities'
p215
g142
sS'in_reply_to_status_id_str'
p216
g187
sS'in_reply_to_screen_name'
p217
g175
sg89
g176
sS'retweeted'
p218
I00
sS'place'
p219
g0
(ctweepy.models
Place
p220
g2
Ntp221
Rp222
(dp223
S'full_name'
p224
g191
sg107
g192
sS'country'
p225
g194
sS'place_type'
p226
g196
sS'bounding_box'
p227
g0
(ctweepy.models
BoundingBox
p228
g2
Ntp229
Rp230
(dp231
S'type'
p232
g200
sg213
g201
sbsS'country_code'
p233
g208
sS'attributes'
p234
g210
sg24
g211
sg101
g212
sbsS'retweet_count'
p235
I0
sg108
g109
(S'\x07\xdf\x07\n\x144;\x00\x00\x00'
p236
tp237
Rp238
sS'in_reply_to_user_id'
p239
I76745928
sb.