ccopy_reg
_reconstructor
p0
(ctweepy.models
Status
p1
c__builtin__
object
p2
Ntp3
Rp4
(dp5
S'favorited'
p6
I00
sS'contributors'
p7
NsS'truncated'
p8
I00
sS'text'
p9
V#ARestaurantWithAView #Zurich #WaldhausKatzensee @ Restaurant Waldhaus Katzensee https://t.co/580myAYXVm
p10
sS'source_url'
p11
Vhttp://instagram.com
p12
sS'possibly_sensitive'
p13
I00
sS'in_reply_to_status_id'
p14
NsS'user'
p15
g0
(ctweepy.models
User
p16
g2
Ntp17
Rp18
(dp19
S'follow_request_sent'
p20
NsS'profile_use_background_image'
p21
I01
sS'profile_sidebar_fill_color'
p22
VDDEEF6
p23
sS'id'
p24
I94590942
sS'verified'
p25
I00
sS'profile_image_url_https'
p26
Vhttps://pbs.twimg.com/profile_images/1090102462/Dodo_hi_normal.jpg
p27
sS'_json'
p28
(dp29
Vfollow_request_sent
p30
NsVprofile_use_background_image
p31
I01
sVdefault_profile_image
p32
I00
sVid
p33
I94590942
sVverified
p34
I00
sVprofile_image_url_https
p35
g27
sVprofile_sidebar_fill_color
p36
g23
sVprofile_text_color
p37
V333333
p38
sVfollowers_count
p39
I17
sVprofile_sidebar_border_color
p40
VC0DEED
p41
sVid_str
p42
V94590942
p43
sVprofile_background_color
p44
VC0DEED
p45
sVlisted_count
p46
I4
sVprofile_background_image_url_https
p47
Vhttps://abs.twimg.com/images/themes/theme1/bg.png
p48
sVutc_offset
p49
I7200
sVstatuses_count
p50
I481
sVdescription
p51
NsVfriends_count
p52
I30
sVlocation
p53
V
p54
sVprofile_link_color
p55
V0084B4
p56
sVprofile_image_url
p57
Vhttp://pbs.twimg.com/profile_images/1090102462/Dodo_hi_normal.jpg
p58
sVfollowing
p59
NsVgeo_enabled
p60
I01
sVprofile_background_image_url
p61
Vhttp://abs.twimg.com/images/themes/theme1/bg.png
p62
sVname
p63
VRobert van Dijk
p64
sVlang
p65
Ven
p66
sVprofile_background_tile
p67
I00
sVfavourites_count
p68
I7
sVscreen_name
p69
Vrobertvdijk
p70
sVnotifications
p71
NsVurl
p72
Vhttp://www.zeroiq.com
p73
sVcreated_at
p74
VFri Dec 04 16:31:23 +0000 2009
p75
sVcontributors_enabled
p76
I00
sVtime_zone
p77
VAmsterdam
p78
sVprotected
p79
I00
sVdefault_profile
p80
I01
sVis_translator
p81
I00
ssS'contributors_enabled'
p82
I00
sS'profile_text_color'
p83
g38
sS'followers_count'
p84
I17
sS'profile_sidebar_border_color'
p85
g41
sS'location'
p86
g54
sS'default_profile_image'
p87
I00
sS'id_str'
p88
g43
sS'utc_offset'
p89
I7200
sS'statuses_count'
p90
I481
sS'description'
p91
NsS'friends_count'
p92
I30
sS'profile_link_color'
p93
g56
sS'profile_image_url'
p94
g58
sS'notifications'
p95
NsS'geo_enabled'
p96
I01
sS'profile_background_color'
p97
g45
sS'profile_background_image_url'
p98
g62
sS'name'
p99
g64
sS'lang'
p100
g66
sS'following'
p101
I00
sS'profile_background_tile'
p102
I00
sS'favourites_count'
p103
I7
sS'screen_name'
p104
g70
sS'url'
p105
g73
sS'created_at'
p106
cdatetime
datetime
p107
(S'\x07\xd9\x0c\x04\x10\x1f\x17\x00\x00\x00'
p108
tp109
Rp110
sS'profile_background_image_url_https'
p111
g48
sS'time_zone'
p112
g78
sS'protected'
p113
I00
sS'default_profile'
p114
I01
sS'is_translator'
p115
I00
sS'listed_count'
p116
I4
sbsS'filter_level'
p117
Vlow
p118
sS'geo'
p119
(dp120
Vtype
p121
VPoint
p122
sVcoordinates
p123
(lp124
F47.42895
aF8.489241
assg24
I618844534273933312
sS'favorite_count'
p125
I0
sS'source'
p126
VInstagram
p127
sg100
Vde
p128
sS'author'
p129
g18
sS'in_reply_to_user_id_str'
p130
Nsg28
(dp131
Vcontributors
p132
NsVtruncated
p133
I00
sVtext
p134
g10
sVin_reply_to_status_id
p135
Nsg33
I618844534273933312
sVfavorite_count
p136
I0
sVsource
p137
V<a href="http://instagram.com" rel="nofollow">Instagram</a>
p138
sVretweeted
p139
I00
sg123
(dp140
g121
VPoint
p141
sg123
(lp142
F8.489241
aF47.42895
assVtimestamp_ms
p143
V1436379009203
p144
sVentities
p145
(dp146
Vuser_mentions
p147
(lp148
sVsymbols
p149
(lp150
sVtrends
p151
(lp152
sVhashtags
p153
(lp154
(dp155
Vindices
p156
(lp157
I0
aI21
asg134
VARestaurantWithAView
p158
sa(dp159
g156
(lp160
I22
aI29
asg134
VZurich
p161
sa(dp162
g156
(lp163
I30
aI48
asg134
VWaldhausKatzensee
p164
sasVurls
p165
(lp166
(dp167
g72
Vhttps://t.co/580myAYXVm
p168
sg156
(lp169
I81
aI104
asVexpanded_url
p170
Vhttps://instagram.com/p/44nxjCJy_d/
p171
sVdisplay_url
p172
Vinstagram.com/p/44nxjCJy_d/
p173
sassVin_reply_to_screen_name
p174
Nsg42
V618844534273933312
p175
sVretweet_count
p176
I0
sVin_reply_to_user_id
p177
NsVfavorited
p178
I00
sVuser
p179
g29
sVgeo
p180
g120
sVin_reply_to_user_id_str
p181
NsVpossibly_sensitive
p182
I00
sg65
g128
sg74
VWed Jul 08 18:10:09 +0000 2015
p183
sVfilter_level
p184
g118
sVin_reply_to_status_id_str
p185
NsVplace
p186
(dp187
Vfull_name
p188
VZurich, Switzerland
p189
sg72
Vhttps://api.twitter.com/1.1/geo/id/3acb748d0f1e9265.json
p190
sVcountry
p191
VSchweiz
p192
sVplace_type
p193
Vcity
p194
sVbounding_box
p195
(dp196
g121
VPolygon
p197
sg123
(lp198
(lp199
(lp200
F8.448081
aF47.320183
aa(lp201
F8.448081
aF47.434721
aa(lp202
F8.625442
aF47.434721
aa(lp203
F8.625442
aF47.320183
aaassVcountry_code
p204
VCH
p205
sVattributes
p206
(dp207
sg33
V3acb748d0f1e9265
p208
sg63
VZurich
p209
sssS'coordinates'
p210
g140
sS'timestamp_ms'
p211
g144
sS'entities'
p212
g146
sS'in_reply_to_status_id_str'
p213
NsS'in_reply_to_screen_name'
p214
Nsg88
g175
sS'retweeted'
p215
I00
sS'place'
p216
g0
(ctweepy.models
Place
p217
g2
Ntp218
Rp219
(dp220
S'full_name'
p221
g189
sg105
g190
sS'country'
p222
g192
sS'place_type'
p223
g194
sS'bounding_box'
p224
g0
(ctweepy.models
BoundingBox
p225
g2
Ntp226
Rp227
(dp228
S'type'
p229
g197
sg210
g198
sbsS'country_code'
p230
g205
sS'attributes'
p231
g207
sg24
g208
sg99
g209
sbsS'retweet_count'
p232
I0
sg106
g107
(S'\x07\xdf\x07\x08\x12\n\t\x00\x00\x00'
p233
tp234
Rp235
sS'in_reply_to_user_id'
p236
Nsb.