ccopy_reg
_reconstructor
p0
(ctweepy.models
Status
p1
c__builtin__
object
p2
Ntp3
Rp4
(dp5
S'favorited'
p6
I00
sS'contributors'
p7
NsS'truncated'
p8
I00
sS'text'
p9
V@isaozturk1976 @UNICEF http://t.co/OeWqwr8hns
p10
sS'source_url'
p11
Vhttp://twitter.com
p12
sS'possibly_sensitive'
p13
I00
sS'in_reply_to_status_id'
p14
I618942146893246464
sS'user'
p15
g0
(ctweepy.models
User
p16
g2
Ntp17
Rp18
(dp19
S'follow_request_sent'
p20
NsS'profile_use_background_image'
p21
I01
sS'profile_sidebar_fill_color'
p22
VDDEEF6
p23
sS'id'
p24
I2661333835
sS'verified'
p25
I00
sS'profile_image_url_https'
p26
Vhttps://pbs.twimg.com/profile_images/618820259982630912/AwP3crJk_normal.jpg
p27
sS'_json'
p28
(dp29
Vfollow_request_sent
p30
NsVprofile_use_background_image
p31
I01
sVdefault_profile_image
p32
I00
sVid
p33
I2661333835
sVverified
p34
I00
sVprofile_image_url_https
p35
g27
sVprofile_sidebar_fill_color
p36
g23
sVprofile_text_color
p37
V333333
p38
sVfollowers_count
p39
I2
sVprofile_sidebar_border_color
p40
VC0DEED
p41
sVid_str
p42
V2661333835
p43
sVprofile_background_color
p44
VC0DEED
p45
sVlisted_count
p46
I0
sVprofile_background_image_url_https
p47
Vhttps://abs.twimg.com/images/themes/theme1/bg.png
p48
sVutc_offset
p49
NsVstatuses_count
p50
I184
sVdescription
p51
NsVfriends_count
p52
I16
sVlocation
p53
V
p54
sVprofile_link_color
p55
V0084B4
p56
sVprofile_image_url
p57
Vhttp://pbs.twimg.com/profile_images/618820259982630912/AwP3crJk_normal.jpg
p58
sVfollowing
p59
NsVgeo_enabled
p60
I01
sVprofile_banner_url
p61
Vhttps://pbs.twimg.com/profile_banners/2661333835/1436373197
p62
sVprofile_background_image_url
p63
Vhttp://abs.twimg.com/images/themes/theme1/bg.png
p64
sVname
p65
VHosni Guermassi
p66
sVlang
p67
Vfr
p68
sVprofile_background_tile
p69
I00
sVfavourites_count
p70
I1
sVscreen_name
p71
Vzohramoud
p72
sVnotifications
p73
NsVurl
p74
NsVcreated_at
p75
VSun Jul 20 02:10:18 +0000 2014
p76
sVcontributors_enabled
p77
I00
sVtime_zone
p78
NsVprotected
p79
I00
sVdefault_profile
p80
I01
sVis_translator
p81
I00
ssS'contributors_enabled'
p82
I00
sS'profile_text_color'
p83
g38
sS'followers_count'
p84
I2
sS'profile_sidebar_border_color'
p85
g41
sS'location'
p86
g54
sS'default_profile_image'
p87
I00
sS'id_str'
p88
g43
sS'utc_offset'
p89
NsS'statuses_count'
p90
I184
sS'description'
p91
NsS'friends_count'
p92
I16
sS'profile_link_color'
p93
g56
sS'profile_image_url'
p94
g58
sS'notifications'
p95
NsS'geo_enabled'
p96
I01
sS'profile_background_color'
p97
g45
sS'profile_banner_url'
p98
g62
sS'profile_background_image_url'
p99
g64
sS'name'
p100
g66
sS'lang'
p101
g68
sS'following'
p102
I00
sS'profile_background_tile'
p103
I00
sS'favourites_count'
p104
I1
sS'screen_name'
p105
g72
sS'url'
p106
NsS'created_at'
p107
cdatetime
datetime
p108
(S'\x07\xde\x07\x14\x02\n\x12\x00\x00\x00'
p109
tp110
Rp111
sS'profile_background_image_url_https'
p112
g48
sS'time_zone'
p113
NsS'protected'
p114
I00
sS'default_profile'
p115
I01
sS'is_translator'
p116
I00
sS'listed_count'
p117
I0
sbsS'filter_level'
p118
Vlow
p119
sS'geo'
p120
Nsg24
I618943652262473728
sS'favorite_count'
p121
I0
sS'source'
p122
VTwitter Web Client
p123
sg101
Vund
p124
sS'author'
p125
g18
sS'in_reply_to_user_id_str'
p126
V1555334641
p127
sg28
(dp128
Vcontributors
p129
NsVtruncated
p130
I00
sVtext
p131
g10
sVin_reply_to_status_id
p132
I618942146893246464
sg33
I618943652262473728
sVfavorite_count
p133
I0
sVsource
p134
V<a href="http://twitter.com" rel="nofollow">Twitter Web Client</a>
p135
sVretweeted
p136
I00
sVcoordinates
p137
NsVtimestamp_ms
p138
V1436402640773
p139
sVentities
p140
(dp141
Vsymbols
p142
(lp143
sVmedia
p144
(lp145
(dp146
Vexpanded_url
p147
Vhttp://twitter.com/zohramoud/status/618943652262473728/photo/1
p148
sVdisplay_url
p149
Vpic.twitter.com/OeWqwr8hns
p150
sg74
Vhttp://t.co/OeWqwr8hns
p151
sVmedia_url_https
p152
Vhttps://pbs.twimg.com/media/CJbt-LQUsAA50Um.jpg
p153
sg42
V618943651238948864
p154
sVsizes
p155
(dp156
Vlarge
p157
(dp158
Vh
p159
I305
sVresize
p160
Vfit
p161
sVw
p162
I500
ssVsmall
p163
(dp164
g159
I207
sg160
Vfit
p165
sg162
I340
ssVmedium
p166
(dp167
g159
I305
sg160
Vfit
p168
sg162
I500
ssVthumb
p169
(dp170
g159
I150
sg160
Vcrop
p171
sg162
I150
sssVindices
p172
(lp173
I23
aI45
asVtype
p174
Vphoto
p175
sg33
I618943651238948864
sVmedia_url
p176
Vhttp://pbs.twimg.com/media/CJbt-LQUsAA50Um.jpg
p177
sasVhashtags
p178
(lp179
sVuser_mentions
p180
(lp181
(dp182
g33
I1555334641
sg172
(lp183
I0
aI14
asg42
V1555334641
p184
sg71
Visaozturk1976
p185
sg65
Visaozturk
p186
sa(dp187
g33
I33933259
sg172
(lp188
I15
aI22
asg42
V33933259
p189
sg71
VUNICEF
p190
sg65
VUNICEF
p191
sasVtrends
p192
(lp193
sVurls
p194
(lp195
ssVin_reply_to_screen_name
p196
Visaozturk1976
p197
sg42
V618943652262473728
p198
sVretweet_count
p199
I0
sVin_reply_to_user_id
p200
I1555334641
sVfavorited
p201
I00
sVuser
p202
g29
sVgeo
p203
NsVin_reply_to_user_id_str
p204
g127
sVpossibly_sensitive
p205
I00
sg67
g124
sg75
VThu Jul 09 00:44:00 +0000 2015
p206
sVfilter_level
p207
g119
sVin_reply_to_status_id_str
p208
V618942146893246464
p209
sVplace
p210
(dp211
Vfull_name
p212
VArgovie, Suisse
p213
sg74
Vhttps://api.twitter.com/1.1/geo/id/64c89c3f0e8b8b2e.json
p214
sVcountry
p215
VSchweiz
p216
sVplace_type
p217
Vadmin
p218
sVbounding_box
p219
(dp220
g174
VPolygon
p221
sg137
(lp222
(lp223
(lp224
F7.713449
aF47.137443
aa(lp225
F7.713449
aF47.621039
aa(lp226
F8.455222
aF47.621039
aa(lp227
F8.455222
aF47.137443
aaassVcountry_code
p228
VCH
p229
sVattributes
p230
(dp231
sg33
V64c89c3f0e8b8b2e
p232
sg65
VArgovie
p233
ssVextended_entities
p234
(dp235
g144
(lp236
(dp237
g147
Vhttp://twitter.com/zohramoud/status/618943652262473728/photo/1
p238
sg149
Vpic.twitter.com/OeWqwr8hns
p239
sg74
Vhttp://t.co/OeWqwr8hns
p240
sg152
Vhttps://pbs.twimg.com/media/CJbt-LQUsAA50Um.jpg
p241
sg42
V618943651238948864
p242
sg155
(dp243
g157
(dp244
g159
I305
sg160
Vfit
p245
sg162
I500
ssg163
(dp246
g159
I207
sg160
Vfit
p247
sg162
I340
ssg166
(dp248
g159
I305
sg160
Vfit
p249
sg162
I500
ssg169
(dp250
g159
I150
sg160
Vcrop
p251
sg162
I150
sssg172
(lp252
I23
aI45
asg174
Vphoto
p253
sg33
I618943651238948864
sg176
Vhttp://pbs.twimg.com/media/CJbt-LQUsAA50Um.jpg
p254
sasssS'coordinates'
p255
NsS'timestamp_ms'
p256
g139
sS'entities'
p257
g141
sS'in_reply_to_status_id_str'
p258
g209
sS'in_reply_to_screen_name'
p259
g197
sg88
g198
sS'extended_entities'
p260
g235
sS'retweeted'
p261
I00
sS'place'
p262
g0
(ctweepy.models
Place
p263
g2
Ntp264
Rp265
(dp266
S'full_name'
p267
g213
sg106
g214
sS'country'
p268
g216
sS'place_type'
p269
g218
sS'bounding_box'
p270
g0
(ctweepy.models
BoundingBox
p271
g2
Ntp272
Rp273
(dp274
S'type'
p275
g221
sg255
g222
sbsS'country_code'
p276
g229
sS'attributes'
p277
g231
sg24
g232
sg100
g233
sbsS'retweet_count'
p278
I0
sg107
g108
(S'\x07\xdf\x07\t\x00,\x00\x00\x00\x00'
p279
tp280
Rp281
sS'in_reply_to_user_id'
p282
I1555334641
sb.