ccopy_reg
_reconstructor
p0
(ctweepy.models
Status
p1
c__builtin__
object
p2
Ntp3
Rp4
(dp5
S'favorited'
p6
I00
sS'contributors'
p7
NsS'truncated'
p8
I00
sS'text'
p9
VGot my first #Swiss speeding ticket for going 4km over. I'm finally Swiss. I've made it. #expat \U0001f60c\U0001f697
p10
sS'source_url'
p11
Vhttp://twitter.com/download/iphone
p12
sS'possibly_sensitive'
p13
I00
sS'in_reply_to_status_id'
p14
NsS'user'
p15
g0
(ctweepy.models
User
p16
g2
Ntp17
Rp18
(dp19
S'follow_request_sent'
p20
NsS'profile_use_background_image'
p21
I00
sS'profile_sidebar_fill_color'
p22
VE3E2DE
p23
sS'id'
p24
I18644237
sS'verified'
p25
I00
sS'profile_image_url_https'
p26
Vhttps://pbs.twimg.com/profile_images/550737171263799296/ltW_F9ZA_normal.jpeg
p27
sS'_json'
p28
(dp29
Vfollow_request_sent
p30
NsVprofile_use_background_image
p31
I00
sVdefault_profile_image
p32
I00
sVid
p33
I18644237
sVverified
p34
I00
sVprofile_image_url_https
p35
g27
sVprofile_sidebar_fill_color
p36
g23
sVprofile_text_color
p37
V634047
p38
sVfollowers_count
p39
I176
sVprofile_sidebar_border_color
p40
VFFFFFF
p41
sVid_str
p42
V18644237
p43
sVprofile_background_color
p44
VEDECE9
p45
sVlisted_count
p46
I17
sVprofile_background_image_url_https
p47
Vhttps://pbs.twimg.com/profile_background_images/668773399/fc5a8b6cbbea87a1d1a0cdb9a6643391.jpeg
p48
sVutc_offset
p49
I7200
sVstatuses_count
p50
I1122
sVdescription
p51
VChicago wife living a Swiss life. Includes travel, fashion, and all things Swiss. Fabulous starts at 400m. #swissmissus
p52
sVfriends_count
p53
I131
sVlocation
p54
VZurich, Switzerland
p55
sVprofile_link_color
p56
VDD2E44
p57
sVprofile_image_url
p58
Vhttp://pbs.twimg.com/profile_images/550737171263799296/ltW_F9ZA_normal.jpeg
p59
sVfollowing
p60
NsVgeo_enabled
p61
I01
sVprofile_banner_url
p62
Vhttps://pbs.twimg.com/profile_banners/18644237/1436019009
p63
sVprofile_background_image_url
p64
Vhttp://pbs.twimg.com/profile_background_images/668773399/fc5a8b6cbbea87a1d1a0cdb9a6643391.jpeg
p65
sVname
p66
VSwiss Missus
p67
sVlang
p68
Ven
p69
sVprofile_background_tile
p70
I00
sVfavourites_count
p71
I196
sVscreen_name
p72
VSwiss_Missus
p73
sVnotifications
p74
NsVurl
p75
Vhttp://www.swissmissus.com
p76
sVcreated_at
p77
VMon Jan 05 20:22:46 +0000 2009
p78
sVcontributors_enabled
p79
I00
sVtime_zone
p80
VBerlin
p81
sVprotected
p82
I00
sVdefault_profile
p83
I00
sVis_translator
p84
I00
ssS'contributors_enabled'
p85
I00
sS'profile_text_color'
p86
g38
sS'followers_count'
p87
I176
sS'profile_sidebar_border_color'
p88
g41
sS'location'
p89
g55
sS'default_profile_image'
p90
I00
sS'id_str'
p91
g43
sS'utc_offset'
p92
I7200
sS'statuses_count'
p93
I1122
sS'description'
p94
g52
sS'friends_count'
p95
I131
sS'profile_link_color'
p96
g57
sS'profile_image_url'
p97
g59
sS'notifications'
p98
NsS'geo_enabled'
p99
I01
sS'profile_background_color'
p100
g45
sS'profile_banner_url'
p101
g63
sS'profile_background_image_url'
p102
g65
sS'name'
p103
g67
sS'lang'
p104
g69
sS'following'
p105
I00
sS'profile_background_tile'
p106
I00
sS'favourites_count'
p107
I196
sS'screen_name'
p108
g73
sS'url'
p109
g76
sS'created_at'
p110
cdatetime
datetime
p111
(S'\x07\xd9\x01\x05\x14\x16.\x00\x00\x00'
p112
tp113
Rp114
sS'profile_background_image_url_https'
p115
g48
sS'time_zone'
p116
g81
sS'protected'
p117
I00
sS'default_profile'
p118
I00
sS'is_translator'
p119
I00
sS'listed_count'
p120
I17
sbsS'filter_level'
p121
Vlow
p122
sS'geo'
p123
Nsg24
I618815387338190849
sS'favorite_count'
p124
I0
sS'source'
p125
VTwitter for iPhone
p126
sg104
Ven
p127
sS'author'
p128
g18
sS'in_reply_to_user_id_str'
p129
Nsg28
(dp130
Vcontributors
p131
NsVtruncated
p132
I00
sVtext
p133
g10
sVin_reply_to_status_id
p134
Nsg33
I618815387338190849
sVfavorite_count
p135
I0
sVsource
p136
V<a href="http://twitter.com/download/iphone" rel="nofollow">Twitter for iPhone</a>
p137
sVretweeted
p138
I00
sVcoordinates
p139
NsVtimestamp_ms
p140
V1436372060032
p141
sVentities
p142
(dp143
Vuser_mentions
p144
(lp145
sVsymbols
p146
(lp147
sVtrends
p148
(lp149
sVhashtags
p150
(lp151
(dp152
Vindices
p153
(lp154
I13
aI19
asg133
VSwiss
p155
sa(dp156
g153
(lp157
I89
aI95
asg133
Vexpat
p158
sasVurls
p159
(lp160
ssVin_reply_to_screen_name
p161
Nsg42
V618815387338190849
p162
sVretweet_count
p163
I0
sVin_reply_to_user_id
p164
NsVfavorited
p165
I00
sVuser
p166
g29
sVgeo
p167
NsVin_reply_to_user_id_str
p168
NsVpossibly_sensitive
p169
I00
sg68
g127
sg77
VWed Jul 08 16:14:20 +0000 2015
p170
sVfilter_level
p171
g122
sVin_reply_to_status_id_str
p172
NsVplace
p173
(dp174
Vfull_name
p175
VZurich, Switzerland
p176
sg75
Vhttps://api.twitter.com/1.1/geo/id/3acb748d0f1e9265.json
p177
sVcountry
p178
VSchweiz
p179
sVplace_type
p180
Vcity
p181
sVbounding_box
p182
(dp183
Vtype
p184
VPolygon
p185
sg139
(lp186
(lp187
(lp188
F8.448081
aF47.320183
aa(lp189
F8.448081
aF47.434721
aa(lp190
F8.625442
aF47.434721
aa(lp191
F8.625442
aF47.320183
aaassVcountry_code
p192
VCH
p193
sVattributes
p194
(dp195
sg33
V3acb748d0f1e9265
p196
sg66
VZurich
p197
sssS'coordinates'
p198
NsS'timestamp_ms'
p199
g141
sS'entities'
p200
g143
sS'in_reply_to_status_id_str'
p201
NsS'in_reply_to_screen_name'
p202
Nsg91
g162
sS'retweeted'
p203
I00
sS'place'
p204
g0
(ctweepy.models
Place
p205
g2
Ntp206
Rp207
(dp208
S'full_name'
p209
g176
sg109
g177
sS'country'
p210
g179
sS'place_type'
p211
g181
sS'bounding_box'
p212
g0
(ctweepy.models
BoundingBox
p213
g2
Ntp214
Rp215
(dp216
S'type'
p217
g185
sg198
g186
sbsS'country_code'
p218
g193
sS'attributes'
p219
g195
sg24
g196
sg103
g197
sbsS'retweet_count'
p220
I0
sg110
g111
(S'\x07\xdf\x07\x08\x10\x0e\x14\x00\x00\x00'
p221
tp222
Rp223
sS'in_reply_to_user_id'
p224
Nsb.