ccopy_reg
_reconstructor
p0
(ctweepy.models
Status
p1
c__builtin__
object
p2
Ntp3
Rp4
(dp5
S'favorited'
p6
I00
sS'contributors'
p7
NsS'truncated'
p8
I00
sS'text'
p9
Vincredible tennis @rogerfederer #Wimbledon2015
p10
sS'source_url'
p11
Vhttp://twitter.com/download/android
p12
sS'possibly_sensitive'
p13
I00
sS'in_reply_to_status_id'
p14
NsS'user'
p15
g0
(ctweepy.models
User
p16
g2
Ntp17
Rp18
(dp19
S'follow_request_sent'
p20
NsS'profile_use_background_image'
p21
I01
sS'profile_sidebar_fill_color'
p22
VDDEEF6
p23
sS'id'
p24
I3288655965
sS'verified'
p25
I00
sS'profile_image_url_https'
p26
Vhttps://pbs.twimg.com/profile_images/600354223625113600/_yKVQdOB_normal.jpg
p27
sS'_json'
p28
(dp29
Vfollow_request_sent
p30
NsVprofile_use_background_image
p31
I01
sVdefault_profile_image
p32
I00
sVid
p33
I3288655965
sVverified
p34
I00
sVprofile_image_url_https
p35
g27
sVprofile_sidebar_fill_color
p36
g23
sVprofile_text_color
p37
V333333
p38
sVfollowers_count
p39
I14
sVprofile_sidebar_border_color
p40
VC0DEED
p41
sVid_str
p42
V3288655965
p43
sVprofile_background_color
p44
VC0DEED
p45
sVlisted_count
p46
I1
sVprofile_background_image_url_https
p47
Vhttps://abs.twimg.com/images/themes/theme1/bg.png
p48
sVutc_offset
p49
NsVstatuses_count
p50
I17
sVdescription
p51
VTPM at Google
p52
sVfriends_count
p53
I43
sVlocation
p54
VZurich, Switzerland
p55
sVprofile_link_color
p56
V0084B4
p57
sVprofile_image_url
p58
Vhttp://pbs.twimg.com/profile_images/600354223625113600/_yKVQdOB_normal.jpg
p59
sVfollowing
p60
NsVgeo_enabled
p61
I01
sVprofile_background_image_url
p62
Vhttp://abs.twimg.com/images/themes/theme1/bg.png
p63
sVname
p64
VThomas Oertli
p65
sVlang
p66
Ven
p67
sVprofile_background_tile
p68
I00
sVfavourites_count
p69
I5
sVscreen_name
p70
Vthomasoertli
p71
sVnotifications
p72
NsVurl
p73
Vhttps://google.com/+ThomasOertli
p74
sVcreated_at
p75
VMon May 18 17:07:28 +0000 2015
p76
sVcontributors_enabled
p77
I00
sVtime_zone
p78
NsVprotected
p79
I00
sVdefault_profile
p80
I01
sVis_translator
p81
I00
ssS'contributors_enabled'
p82
I00
sS'profile_text_color'
p83
g38
sS'followers_count'
p84
I14
sS'profile_sidebar_border_color'
p85
g41
sS'location'
p86
g55
sS'default_profile_image'
p87
I00
sS'id_str'
p88
g43
sS'utc_offset'
p89
NsS'statuses_count'
p90
I17
sS'description'
p91
g52
sS'friends_count'
p92
I43
sS'profile_link_color'
p93
g57
sS'profile_image_url'
p94
g59
sS'notifications'
p95
NsS'geo_enabled'
p96
I01
sS'profile_background_color'
p97
g45
sS'profile_background_image_url'
p98
g63
sS'name'
p99
g65
sS'lang'
p100
g67
sS'following'
p101
I00
sS'profile_background_tile'
p102
I00
sS'favourites_count'
p103
I5
sS'screen_name'
p104
g71
sS'url'
p105
g74
sS'created_at'
p106
cdatetime
datetime
p107
(S'\x07\xdf\x05\x12\x11\x07\x1c\x00\x00\x00'
p108
tp109
Rp110
sS'profile_background_image_url_https'
p111
g48
sS'time_zone'
p112
NsS'protected'
p113
I00
sS'default_profile'
p114
I01
sS'is_translator'
p115
I00
sS'listed_count'
p116
I1
sbsS'filter_level'
p117
Vlow
p118
sS'geo'
p119
Nsg24
I619549812317384704
sS'favorite_count'
p120
I0
sS'source'
p121
VTwitter for Android
p122
sg100
Ven
p123
sS'author'
p124
g18
sS'in_reply_to_user_id_str'
p125
Nsg28
(dp126
Vcontributors
p127
NsVtruncated
p128
I00
sVtext
p129
g10
sVin_reply_to_status_id
p130
Nsg33
I619549812317384704
sVfavorite_count
p131
I0
sVsource
p132
V<a href="http://twitter.com/download/android" rel="nofollow">Twitter for Android</a>
p133
sVretweeted
p134
I00
sVcoordinates
p135
NsVtimestamp_ms
p136
V1436547160592
p137
sVentities
p138
(dp139
Vuser_mentions
p140
(lp141
(dp142
g33
I1337785291
sVindices
p143
(lp144
I18
aI31
asg42
V1337785291
p145
sg70
Vrogerfederer
p146
sg64
VRoger Federer
p147
sasVsymbols
p148
(lp149
sVtrends
p150
(lp151
sVhashtags
p152
(lp153
(dp154
g143
(lp155
I32
aI46
asg129
VWimbledon2015
p156
sasVurls
p157
(lp158
ssVin_reply_to_screen_name
p159
Nsg42
V619549812317384704
p160
sVretweet_count
p161
I0
sVin_reply_to_user_id
p162
NsVfavorited
p163
I00
sVuser
p164
g29
sVgeo
p165
NsVin_reply_to_user_id_str
p166
NsVpossibly_sensitive
p167
I00
sg66
g123
sg75
VFri Jul 10 16:52:40 +0000 2015
p168
sVfilter_level
p169
g118
sVin_reply_to_status_id_str
p170
NsVplace
p171
(dp172
Vfull_name
p173
VZurich, Switzerland
p174
sg73
Vhttps://api.twitter.com/1.1/geo/id/3acb748d0f1e9265.json
p175
sVcountry
p176
VSchweiz
p177
sVplace_type
p178
Vcity
p179
sVbounding_box
p180
(dp181
Vtype
p182
VPolygon
p183
sg135
(lp184
(lp185
(lp186
F8.448081
aF47.320183
aa(lp187
F8.448081
aF47.434721
aa(lp188
F8.625442
aF47.434721
aa(lp189
F8.625442
aF47.320183
aaassVcountry_code
p190
VCH
p191
sVattributes
p192
(dp193
sg33
V3acb748d0f1e9265
p194
sg64
VZurich
p195
sssS'coordinates'
p196
NsS'timestamp_ms'
p197
g137
sS'entities'
p198
g139
sS'in_reply_to_status_id_str'
p199
NsS'in_reply_to_screen_name'
p200
Nsg88
g160
sS'retweeted'
p201
I00
sS'place'
p202
g0
(ctweepy.models
Place
p203
g2
Ntp204
Rp205
(dp206
S'full_name'
p207
g174
sg105
g175
sS'country'
p208
g177
sS'place_type'
p209
g179
sS'bounding_box'
p210
g0
(ctweepy.models
BoundingBox
p211
g2
Ntp212
Rp213
(dp214
S'type'
p215
g183
sg196
g184
sbsS'country_code'
p216
g191
sS'attributes'
p217
g193
sg24
g194
sg99
g195
sbsS'retweet_count'
p218
I0
sg106
g107
(S'\x07\xdf\x07\n\x104(\x00\x00\x00'
p219
tp220
Rp221
sS'in_reply_to_user_id'
p222
Nsb.