ccopy_reg
_reconstructor
p0
(ctweepy.models
Status
p1
c__builtin__
object
p2
Ntp3
Rp4
(dp5
S'favorited'
p6
I00
sS'contributors'
p7
NsS'truncated'
p8
I00
sS'text'
p9
VI will suggest at #ihr review! Any ideas? @G8G20tomkennedy @UNFCCC
p10
sS'source_url'
p11
Vhttp://twitter.com/download/iphone
p12
sS'possibly_sensitive'
p13
I00
sS'in_reply_to_status_id'
p14
I619473619207495680
sS'user'
p15
g0
(ctweepy.models
User
p16
g2
Ntp17
Rp18
(dp19
S'follow_request_sent'
p20
NsS'profile_use_background_image'
p21
I01
sS'profile_sidebar_fill_color'
p22
VDDEEF6
p23
sS'id'
p24
I833820320
sS'verified'
p25
I00
sS'profile_image_url_https'
p26
Vhttps://pbs.twimg.com/profile_images/2627430313/blogger-profile-large-016_normal.jpeg
p27
sS'_json'
p28
(dp29
Vfollow_request_sent
p30
NsVprofile_use_background_image
p31
I01
sVdefault_profile_image
p32
I00
sVid
p33
I833820320
sVverified
p34
I00
sVprofile_image_url_https
p35
g27
sVprofile_sidebar_fill_color
p36
g23
sVprofile_text_color
p37
V333333
p38
sVfollowers_count
p39
I4772
sVprofile_sidebar_border_color
p40
VC0DEED
p41
sVid_str
p42
V833820320
p43
sVprofile_background_color
p44
VC0DEED
p45
sVlisted_count
p46
I259
sVprofile_background_image_url_https
p47
Vhttps://abs.twimg.com/images/themes/theme1/bg.png
p48
sVutc_offset
p49
I7200
sVstatuses_count
p50
I27369
sVdescription
p51
VProfessor Ilona Kickbusch PhD is known for her contributions to innovation in public health, health promotion, global health and health diplomacy.
p52
sVfriends_count
p53
I716
sVlocation
p54
VBern, Switzerland.
p55
sVprofile_link_color
p56
V0084B4
p57
sVprofile_image_url
p58
Vhttp://pbs.twimg.com/profile_images/2627430313/blogger-profile-large-016_normal.jpeg
p59
sVfollowing
p60
NsVgeo_enabled
p61
I01
sVprofile_background_image_url
p62
Vhttp://abs.twimg.com/images/themes/theme1/bg.png
p63
sVname
p64
VIlona Kickbusch
p65
sVlang
p66
Ven
p67
sVprofile_background_tile
p68
I00
sVfavourites_count
p69
I2150
sVscreen_name
p70
VIlonaKickbusch
p71
sVnotifications
p72
NsVurl
p73
Vhttp://www.ilonakickbusch.com/kickbusch/index.php
p74
sVcreated_at
p75
VWed Sep 19 17:48:05 +0000 2012
p76
sVcontributors_enabled
p77
I00
sVtime_zone
p78
VBern
p79
sVprotected
p80
I00
sVdefault_profile
p81
I01
sVis_translator
p82
I00
ssS'contributors_enabled'
p83
I00
sS'profile_text_color'
p84
g38
sS'followers_count'
p85
I4772
sS'profile_sidebar_border_color'
p86
g41
sS'location'
p87
g55
sS'default_profile_image'
p88
I00
sS'id_str'
p89
g43
sS'utc_offset'
p90
I7200
sS'statuses_count'
p91
I27369
sS'description'
p92
g52
sS'friends_count'
p93
I716
sS'profile_link_color'
p94
g57
sS'profile_image_url'
p95
g59
sS'notifications'
p96
NsS'geo_enabled'
p97
I01
sS'profile_background_color'
p98
g45
sS'profile_background_image_url'
p99
g63
sS'name'
p100
g65
sS'lang'
p101
g67
sS'following'
p102
I00
sS'profile_background_tile'
p103
I00
sS'favourites_count'
p104
I2150
sS'screen_name'
p105
g71
sS'url'
p106
g74
sS'created_at'
p107
cdatetime
datetime
p108
(S'\x07\xdc\t\x13\x110\x05\x00\x00\x00'
p109
tp110
Rp111
sS'profile_background_image_url_https'
p112
g48
sS'time_zone'
p113
g79
sS'protected'
p114
I00
sS'default_profile'
p115
I01
sS'is_translator'
p116
I00
sS'listed_count'
p117
I259
sbsS'filter_level'
p118
Vlow
p119
sS'geo'
p120
Nsg24
I619475371889717248
sS'favorite_count'
p121
I0
sS'source'
p122
VTwitter for iPhone
p123
sg101
Ven
p124
sS'author'
p125
g18
sS'in_reply_to_user_id_str'
p126
V2577026907
p127
sg28
(dp128
Vcontributors
p129
NsVtruncated
p130
I00
sVtext
p131
g10
sVin_reply_to_status_id
p132
I619473619207495680
sg33
I619475371889717248
sVfavorite_count
p133
I0
sVsource
p134
V<a href="http://twitter.com/download/iphone" rel="nofollow">Twitter for iPhone</a>
p135
sVretweeted
p136
I00
sVcoordinates
p137
NsVtimestamp_ms
p138
V1436529412611
p139
sVentities
p140
(dp141
Vuser_mentions
p142
(lp143
(dp144
g33
I2577026907
sVindices
p145
(lp146
I42
aI58
asg42
V2577026907
p147
sg70
VG8G20tomkennedy
p148
sg64
VTom
p149
sa(dp150
g33
I17463923
sg145
(lp151
I59
aI66
asg42
V17463923
p152
sg70
VUNFCCC
p153
sg64
VUNFCCC
p154
sasVsymbols
p155
(lp156
sVtrends
p157
(lp158
sVhashtags
p159
(lp160
(dp161
g145
(lp162
I18
aI22
asg131
Vihr
p163
sasVurls
p164
(lp165
ssVin_reply_to_screen_name
p166
VG8G20tomkennedy
p167
sg42
V619475371889717248
p168
sVretweet_count
p169
I0
sVin_reply_to_user_id
p170
I2577026907
sVfavorited
p171
I00
sVuser
p172
g29
sVgeo
p173
NsVin_reply_to_user_id_str
p174
g127
sVpossibly_sensitive
p175
I00
sg66
g124
sg75
VFri Jul 10 11:56:52 +0000 2015
p176
sVfilter_level
p177
g119
sVin_reply_to_status_id_str
p178
V619473619207495680
p179
sVplace
p180
(dp181
Vfull_name
p182
VZurich, Switzerland
p183
sg73
Vhttps://api.twitter.com/1.1/geo/id/3acb748d0f1e9265.json
p184
sVcountry
p185
VSchweiz
p186
sVplace_type
p187
Vcity
p188
sVbounding_box
p189
(dp190
Vtype
p191
VPolygon
p192
sg137
(lp193
(lp194
(lp195
F8.448081
aF47.320183
aa(lp196
F8.448081
aF47.434721
aa(lp197
F8.625442
aF47.434721
aa(lp198
F8.625442
aF47.320183
aaassVcountry_code
p199
VCH
p200
sVattributes
p201
(dp202
sg33
V3acb748d0f1e9265
p203
sg64
VZurich
p204
sssS'coordinates'
p205
NsS'timestamp_ms'
p206
g139
sS'entities'
p207
g141
sS'in_reply_to_status_id_str'
p208
g179
sS'in_reply_to_screen_name'
p209
g167
sg89
g168
sS'retweeted'
p210
I00
sS'place'
p211
g0
(ctweepy.models
Place
p212
g2
Ntp213
Rp214
(dp215
S'full_name'
p216
g183
sg106
g184
sS'country'
p217
g186
sS'place_type'
p218
g188
sS'bounding_box'
p219
g0
(ctweepy.models
BoundingBox
p220
g2
Ntp221
Rp222
(dp223
S'type'
p224
g192
sg205
g193
sbsS'country_code'
p225
g200
sS'attributes'
p226
g202
sg24
g203
sg100
g204
sbsS'retweet_count'
p227
I0
sg107
g108
(S'\x07\xdf\x07\n\x0b84\x00\x00\x00'
p228
tp229
Rp230
sS'in_reply_to_user_id'
p231
I2577026907
sb.