ccopy_reg
_reconstructor
p0
(ctweepy.models
Status
p1
c__builtin__
object
p2
Ntp3
Rp4
(dp5
S'favorited'
p6
I00
sS'contributors'
p7
NsS'truncated'
p8
I00
sS'text'
p9
V@JeanBon_o_o @PatrickPelloux bref, il faut voir timea en vrai pour comprendre et voir qu'elle est qqc de tres bien l j'ai eu cette chance
p10
sS'source_url'
p11
Vhttp://twitter.com
p12
sS'possibly_sensitive'
p13
I00
sS'in_reply_to_status_id'
p14
NsS'user'
p15
g0
(ctweepy.models
User
p16
g2
Ntp17
Rp18
(dp19
S'follow_request_sent'
p20
NsS'profile_use_background_image'
p21
I01
sS'profile_sidebar_fill_color'
p22
V7AC3EE
p23
sS'id'
p24
I2222165912
sS'verified'
p25
I00
sS'profile_image_url_https'
p26
Vhttps://pbs.twimg.com/profile_images/515837137019609089/EgtqlQaM_normal.jpeg
p27
sS'_json'
p28
(dp29
Vfollow_request_sent
p30
NsVprofile_use_background_image
p31
I01
sVdefault_profile_image
p32
I00
sVid
p33
I2222165912
sVverified
p34
I00
sVprofile_image_url_https
p35
g27
sVprofile_sidebar_fill_color
p36
g23
sVprofile_text_color
p37
V3D1957
p38
sVfollowers_count
p39
I61
sVprofile_sidebar_border_color
p40
V65B0DA
p41
sVid_str
p42
V2222165912
p43
sVprofile_background_color
p44
V642D8B
p45
sVlisted_count
p46
I0
sVprofile_background_image_url_https
p47
Vhttps://abs.twimg.com/images/themes/theme10/bg.gif
p48
sVutc_offset
p49
NsVstatuses_count
p50
I1055
sVdescription
p51
VHi all...
p52
sVfriends_count
p53
I295
sVlocation
p54
VArgentine
p55
sVprofile_link_color
p56
VFF0000
p57
sVprofile_image_url
p58
Vhttp://pbs.twimg.com/profile_images/515837137019609089/EgtqlQaM_normal.jpeg
p59
sVfollowing
p60
NsVgeo_enabled
p61
I01
sVprofile_banner_url
p62
Vhttps://pbs.twimg.com/profile_banners/2222165912/1427969257
p63
sVprofile_background_image_url
p64
Vhttp://abs.twimg.com/images/themes/theme10/bg.gif
p65
sVname
p66
VTania Beet 
p67
sVlang
p68
Vfr
p69
sVprofile_background_tile
p70
I01
sVfavourites_count
p71
I308
sVscreen_name
p72
Vtee_bee4
p73
sVnotifications
p74
NsVurl
p75
NsVcreated_at
p76
VFri Nov 29 23:32:19 +0000 2013
p77
sVcontributors_enabled
p78
I00
sVtime_zone
p79
NsVprotected
p80
I00
sVdefault_profile
p81
I00
sVis_translator
p82
I00
ssS'contributors_enabled'
p83
I00
sS'profile_text_color'
p84
g38
sS'followers_count'
p85
I61
sS'profile_sidebar_border_color'
p86
g41
sS'location'
p87
g55
sS'default_profile_image'
p88
I00
sS'id_str'
p89
g43
sS'utc_offset'
p90
NsS'statuses_count'
p91
I1055
sS'description'
p92
g52
sS'friends_count'
p93
I295
sS'profile_link_color'
p94
g57
sS'profile_image_url'
p95
g59
sS'notifications'
p96
NsS'geo_enabled'
p97
I01
sS'profile_background_color'
p98
g45
sS'profile_banner_url'
p99
g63
sS'profile_background_image_url'
p100
g65
sS'name'
p101
g67
sS'lang'
p102
g69
sS'following'
p103
I00
sS'profile_background_tile'
p104
I01
sS'favourites_count'
p105
I308
sS'screen_name'
p106
g73
sS'url'
p107
NsS'created_at'
p108
cdatetime
datetime
p109
(S'\x07\xdd\x0b\x1d\x17 \x13\x00\x00\x00'
p110
tp111
Rp112
sS'profile_background_image_url_https'
p113
g48
sS'time_zone'
p114
NsS'protected'
p115
I00
sS'default_profile'
p116
I00
sS'is_translator'
p117
I00
sS'listed_count'
p118
I0
sbsS'filter_level'
p119
Vlow
p120
sS'geo'
p121
Nsg24
I621085155105615872
sS'favorite_count'
p122
I0
sS'source'
p123
VTwitter Web Client
p124
sg102
Vfr
p125
sS'author'
p126
g18
sS'in_reply_to_user_id_str'
p127
V352094698
p128
sg28
(dp129
Vcontributors
p130
NsVtruncated
p131
I00
sVtext
p132
g10
sVin_reply_to_status_id
p133
Nsg33
I621085155105615872
sVfavorite_count
p134
I0
sVsource
p135
V<a href="http://twitter.com" rel="nofollow">Twitter Web Client</a>
p136
sVretweeted
p137
I00
sVcoordinates
p138
NsVtimestamp_ms
p139
V1436913214838
p140
sVentities
p141
(dp142
Vuser_mentions
p143
(lp144
(dp145
g33
I352094698
sVindices
p146
(lp147
I0
aI12
asg42
V352094698
p148
sg72
VJeanBon_o_o
p149
sg66
VMort en sursis
p150
sa(dp151
g33
I2221572229
sg146
(lp152
I13
aI28
asg42
V2221572229
p153
sg72
VPatrickPelloux
p154
sg66
VPatrick Pelloux 
p155
sasVsymbols
p156
(lp157
sVtrends
p158
(lp159
sVhashtags
p160
(lp161
sVurls
p162
(lp163
ssVin_reply_to_screen_name
p164
VJeanBon_o_o
p165
sg42
V621085155105615872
p166
sVretweet_count
p167
I0
sVin_reply_to_user_id
p168
I352094698
sVfavorited
p169
I00
sVuser
p170
g29
sVgeo
p171
NsVin_reply_to_user_id_str
p172
g128
sVpossibly_sensitive
p173
I00
sg68
g125
sg76
VTue Jul 14 22:33:34 +0000 2015
p174
sVfilter_level
p175
g120
sVin_reply_to_status_id_str
p176
NsVplace
p177
(dp178
Vfull_name
p179
VZurich, Suisse
p180
sg75
Vhttps://api.twitter.com/1.1/geo/id/3acb748d0f1e9265.json
p181
sVcountry
p182
VSchweiz
p183
sVplace_type
p184
Vcity
p185
sVbounding_box
p186
(dp187
Vtype
p188
VPolygon
p189
sg138
(lp190
(lp191
(lp192
F8.448081
aF47.320183
aa(lp193
F8.448081
aF47.434721
aa(lp194
F8.625442
aF47.434721
aa(lp195
F8.625442
aF47.320183
aaassVcountry_code
p196
VCH
p197
sVattributes
p198
(dp199
sg33
V3acb748d0f1e9265
p200
sg66
VZurich
p201
sssS'coordinates'
p202
NsS'timestamp_ms'
p203
g140
sS'entities'
p204
g142
sS'in_reply_to_status_id_str'
p205
NsS'in_reply_to_screen_name'
p206
g165
sg89
g166
sS'retweeted'
p207
I00
sS'place'
p208
g0
(ctweepy.models
Place
p209
g2
Ntp210
Rp211
(dp212
S'full_name'
p213
g180
sg107
g181
sS'country'
p214
g183
sS'place_type'
p215
g185
sS'bounding_box'
p216
g0
(ctweepy.models
BoundingBox
p217
g2
Ntp218
Rp219
(dp220
S'type'
p221
g189
sg202
g190
sbsS'country_code'
p222
g197
sS'attributes'
p223
g199
sg24
g200
sg101
g201
sbsS'retweet_count'
p224
I0
sg108
g109
(S'\x07\xdf\x07\x0e\x16!"\x00\x00\x00'
p225
tp226
Rp227
sS'in_reply_to_user_id'
p228
I352094698
sb.