ccopy_reg
_reconstructor
p0
(ctweepy.models
Status
p1
c__builtin__
object
p2
Ntp3
Rp4
(dp5
S'favorited'
p6
I00
sS'contributors'
p7
NsS'truncated'
p8
I00
sS'text'
p9
VCan't read any of these signs to buy food and I'm starving #europeproblems
p10
sS'source_url'
p11
Vhttp://twitter.com/download/iphone
p12
sS'possibly_sensitive'
p13
I00
sS'in_reply_to_status_id'
p14
NsS'user'
p15
g0
(ctweepy.models
User
p16
g2
Ntp17
Rp18
(dp19
S'follow_request_sent'
p20
NsS'profile_use_background_image'
p21
I01
sS'profile_sidebar_fill_color'
p22
VDDEEF6
p23
sS'id'
p24
I1422317095
sS'verified'
p25
I00
sS'profile_image_url_https'
p26
Vhttps://pbs.twimg.com/profile_images/584504486061740033/jJeWI-8g_normal.jpg
p27
sS'_json'
p28
(dp29
Vfollow_request_sent
p30
NsVprofile_use_background_image
p31
I01
sVdefault_profile_image
p32
I00
sVid
p33
I1422317095
sVverified
p34
I00
sVprofile_image_url_https
p35
g27
sVprofile_sidebar_fill_color
p36
g23
sVprofile_text_color
p37
V333333
p38
sVfollowers_count
p39
I234
sVprofile_sidebar_border_color
p40
VC0DEED
p41
sVid_str
p42
V1422317095
p43
sVprofile_background_color
p44
VC0DEED
p45
sVlisted_count
p46
I0
sVprofile_background_image_url_https
p47
Vhttps://abs.twimg.com/images/themes/theme1/bg.png
p48
sVutc_offset
p49
NsVstatuses_count
p50
I1331
sVdescription
p51
VUA'19\u000aTexas born Bama bound
p52
sVfriends_count
p53
I317
sVlocation
p54
V
p55
sVprofile_link_color
p56
V0084B4
p57
sVprofile_image_url
p58
Vhttp://pbs.twimg.com/profile_images/584504486061740033/jJeWI-8g_normal.jpg
p59
sVfollowing
p60
NsVgeo_enabled
p61
I01
sVprofile_banner_url
p62
Vhttps://pbs.twimg.com/profile_banners/1422317095/1424273666
p63
sVprofile_background_image_url
p64
Vhttp://abs.twimg.com/images/themes/theme1/bg.png
p65
sVname
p66
VSam Smith
p67
sVlang
p68
Ven
p69
sVprofile_background_tile
p70
I00
sVfavourites_count
p71
I792
sVscreen_name
p72
Vfwabaaa
p73
sVnotifications
p74
NsVurl
p75
NsVcreated_at
p76
VSun May 12 05:24:08 +0000 2013
p77
sVcontributors_enabled
p78
I00
sVtime_zone
p79
NsVprotected
p80
I00
sVdefault_profile
p81
I01
sVis_translator
p82
I00
ssS'contributors_enabled'
p83
I00
sS'profile_text_color'
p84
g38
sS'followers_count'
p85
I234
sS'profile_sidebar_border_color'
p86
g41
sS'location'
p87
g55
sS'default_profile_image'
p88
I00
sS'id_str'
p89
g43
sS'utc_offset'
p90
NsS'statuses_count'
p91
I1331
sS'description'
p92
VUA'19\u000aTexas born Bama bound
p93
sS'friends_count'
p94
I317
sS'profile_link_color'
p95
g57
sS'profile_image_url'
p96
g59
sS'notifications'
p97
NsS'geo_enabled'
p98
I01
sS'profile_background_color'
p99
g45
sS'profile_banner_url'
p100
g63
sS'profile_background_image_url'
p101
g65
sS'name'
p102
g67
sS'lang'
p103
g69
sS'following'
p104
I00
sS'profile_background_tile'
p105
I00
sS'favourites_count'
p106
I792
sS'screen_name'
p107
g73
sS'url'
p108
NsS'created_at'
p109
cdatetime
datetime
p110
(S'\x07\xdd\x05\x0c\x05\x18\x08\x00\x00\x00'
p111
tp112
Rp113
sS'profile_background_image_url_https'
p114
g48
sS'time_zone'
p115
NsS'protected'
p116
I00
sS'default_profile'
p117
I01
sS'is_translator'
p118
I00
sS'listed_count'
p119
I0
sbsS'filter_level'
p120
Vlow
p121
sS'geo'
p122
Nsg24
I621213542440652800
sS'favorite_count'
p123
I0
sS'source'
p124
VTwitter for iPhone
p125
sg103
Ven
p126
sS'author'
p127
g18
sS'in_reply_to_user_id_str'
p128
Nsg28
(dp129
Vcontributors
p130
NsVtruncated
p131
I00
sVtext
p132
g10
sVin_reply_to_status_id
p133
Nsg33
I621213542440652800
sVfavorite_count
p134
I0
sVsource
p135
V<a href="http://twitter.com/download/iphone" rel="nofollow">Twitter for iPhone</a>
p136
sVretweeted
p137
I00
sVcoordinates
p138
NsVtimestamp_ms
p139
V1436943824764
p140
sVentities
p141
(dp142
Vuser_mentions
p143
(lp144
sVsymbols
p145
(lp146
sVtrends
p147
(lp148
sVhashtags
p149
(lp150
(dp151
Vindices
p152
(lp153
I59
aI74
asg132
Veuropeproblems
p154
sasVurls
p155
(lp156
ssVin_reply_to_screen_name
p157
Nsg42
V621213542440652800
p158
sVretweet_count
p159
I0
sVin_reply_to_user_id
p160
NsVfavorited
p161
I00
sVuser
p162
g29
sVgeo
p163
NsVin_reply_to_user_id_str
p164
NsVpossibly_sensitive
p165
I00
sg68
g126
sg76
VWed Jul 15 07:03:44 +0000 2015
p166
sVfilter_level
p167
g121
sVin_reply_to_status_id_str
p168
NsVplace
p169
(dp170
Vfull_name
p171
VZurich, Switzerland
p172
sg75
Vhttps://api.twitter.com/1.1/geo/id/db94c1cccc67c4f4.json
p173
sVcountry
p174
VSchweiz
p175
sVplace_type
p176
Vadmin
p177
sVbounding_box
p178
(dp179
Vtype
p180
VPolygon
p181
sg138
(lp182
(lp183
(lp184
F8.357749
aF47.159384
aa(lp185
F8.357749
aF47.694503
aa(lp186
F8.984445
aF47.694503
aa(lp187
F8.984445
aF47.159384
aaassVcountry_code
p188
VCH
p189
sVattributes
p190
(dp191
sg33
Vdb94c1cccc67c4f4
p192
sg66
VZurich
p193
sssS'coordinates'
p194
NsS'timestamp_ms'
p195
g140
sS'entities'
p196
g142
sS'in_reply_to_status_id_str'
p197
NsS'in_reply_to_screen_name'
p198
Nsg89
g158
sS'retweeted'
p199
I00
sS'place'
p200
g0
(ctweepy.models
Place
p201
g2
Ntp202
Rp203
(dp204
S'full_name'
p205
g172
sg108
g173
sS'country'
p206
g175
sS'place_type'
p207
g177
sS'bounding_box'
p208
g0
(ctweepy.models
BoundingBox
p209
g2
Ntp210
Rp211
(dp212
S'type'
p213
g181
sg194
g182
sbsS'country_code'
p214
g189
sS'attributes'
p215
g191
sg24
g192
sg102
g193
sbsS'retweet_count'
p216
I0
sg109
g110
(S'\x07\xdf\x07\x0f\x07\x03,\x00\x00\x00'
p217
tp218
Rp219
sS'in_reply_to_user_id'
p220
Nsb.