ccopy_reg
_reconstructor
p0
(ctweepy.models
Status
p1
c__builtin__
object
p2
Ntp3
Rp4
(dp5
S'favorited'
p6
I00
sS'contributors'
p7
NsS'truncated'
p8
I00
sS'text'
p9
Vsuch a shame @Loxycylon &amp; @Resoundsound - New Age ain't coming out? https://t.co/WoYrqgu1yN it's still dope but that feel when @docscott31
p10
sS'source_url'
p11
Vhttp://twitter.com
p12
sS'possibly_sensitive'
p13
I00
sS'in_reply_to_status_id'
p14
NsS'user'
p15
g0
(ctweepy.models
User
p16
g2
Ntp17
Rp18
(dp19
S'follow_request_sent'
p20
NsS'profile_use_background_image'
p21
I01
sS'profile_sidebar_fill_color'
p22
VDDEEF6
p23
sS'id'
p24
I277519704
sS'verified'
p25
I00
sS'profile_image_url_https'
p26
Vhttps://pbs.twimg.com/profile_images/1300877996/DR_symbol_logo_mono_300_normal.jpg
p27
sS'_json'
p28
(dp29
Vfollow_request_sent
p30
NsVprofile_use_background_image
p31
I01
sVdefault_profile_image
p32
I00
sVid
p33
I277519704
sVverified
p34
I00
sVprofile_image_url_https
p35
g27
sVprofile_sidebar_fill_color
p36
g23
sVprofile_text_color
p37
V333333
p38
sVfollowers_count
p39
I1077
sVprofile_sidebar_border_color
p40
VC0DEED
p41
sVid_str
p42
V277519704
p43
sVprofile_background_color
p44
VC0DEED
p45
sVlisted_count
p46
I14
sVprofile_background_image_url_https
p47
Vhttps://abs.twimg.com/images/themes/theme1/bg.png
p48
sVutc_offset
p49
I7200
sVstatuses_count
p50
I3430
sVdescription
p51
VDrum & Bass label
p52
sVfriends_count
p53
I429
sVlocation
p54
VZurich, Switzerland
p55
sVprofile_link_color
p56
V0084B4
p57
sVprofile_image_url
p58
Vhttp://pbs.twimg.com/profile_images/1300877996/DR_symbol_logo_mono_300_normal.jpg
p59
sVfollowing
p60
NsVgeo_enabled
p61
I01
sVprofile_banner_url
p62
Vhttps://pbs.twimg.com/profile_banners/277519704/1433363812
p63
sVprofile_background_image_url
p64
Vhttp://abs.twimg.com/images/themes/theme1/bg.png
p65
sVname
p66
VCarlos Demand
p67
sVlang
p68
Ven
p69
sVprofile_background_tile
p70
I00
sVfavourites_count
p71
I35
sVscreen_name
p72
Vdemandrecords
p73
sVnotifications
p74
NsVurl
p75
Vhttp://www.demandrecords.ch
p76
sVcreated_at
p77
VTue Apr 05 14:49:00 +0000 2011
p78
sVcontributors_enabled
p79
I00
sVtime_zone
p80
VBern
p81
sVprotected
p82
I00
sVdefault_profile
p83
I01
sVis_translator
p84
I00
ssS'contributors_enabled'
p85
I00
sS'profile_text_color'
p86
g38
sS'followers_count'
p87
I1077
sS'profile_sidebar_border_color'
p88
g41
sS'location'
p89
g55
sS'default_profile_image'
p90
I00
sS'id_str'
p91
g43
sS'utc_offset'
p92
I7200
sS'statuses_count'
p93
I3430
sS'description'
p94
g52
sS'friends_count'
p95
I429
sS'profile_link_color'
p96
g57
sS'profile_image_url'
p97
g59
sS'notifications'
p98
NsS'geo_enabled'
p99
I01
sS'profile_background_color'
p100
g45
sS'profile_banner_url'
p101
g63
sS'profile_background_image_url'
p102
g65
sS'name'
p103
g67
sS'lang'
p104
g69
sS'following'
p105
I00
sS'profile_background_tile'
p106
I00
sS'favourites_count'
p107
I35
sS'screen_name'
p108
g73
sS'url'
p109
g76
sS'created_at'
p110
cdatetime
datetime
p111
(S'\x07\xdb\x04\x05\x0e1\x00\x00\x00\x00'
p112
tp113
Rp114
sS'profile_background_image_url_https'
p115
g48
sS'time_zone'
p116
g81
sS'protected'
p117
I00
sS'default_profile'
p118
I01
sS'is_translator'
p119
I00
sS'listed_count'
p120
I14
sbsS'filter_level'
p121
Vlow
p122
sS'geo'
p123
Nsg24
I618900576093343744
sS'favorite_count'
p124
I0
sS'source'
p125
VTwitter Web Client
p126
sg104
Ven
p127
sS'author'
p128
g18
sS'in_reply_to_user_id_str'
p129
Nsg28
(dp130
Vcontributors
p131
NsVtruncated
p132
I00
sVtext
p133
g10
sVin_reply_to_status_id
p134
Nsg33
I618900576093343744
sVfavorite_count
p135
I0
sVsource
p136
V<a href="http://twitter.com" rel="nofollow">Twitter Web Client</a>
p137
sVretweeted
p138
I00
sVcoordinates
p139
NsVtimestamp_ms
p140
V1436392370614
p141
sVentities
p142
(dp143
Vuser_mentions
p144
(lp145
(dp146
g33
I36422841
sVindices
p147
(lp148
I13
aI23
asg42
V36422841
p149
sg72
VLoxycylon
p150
sg66
VLoxycylon
p151
sa(dp152
g33
I33523465
sg147
(lp153
I30
aI43
asg42
V33523465
p154
sg72
VResoundsound
p155
sg66
VIlpo Resound
p156
sa(dp157
g33
I41791153
sg147
(lp158
I131
aI142
asg42
V41791153
p159
sg72
Vdocscott31
p160
sg66
VDoc scott
p161
sasVsymbols
p162
(lp163
sVtrends
p164
(lp165
sVhashtags
p166
(lp167
sVurls
p168
(lp169
(dp170
g75
Vhttps://t.co/WoYrqgu1yN
p171
sg147
(lp172
I72
aI95
asVexpanded_url
p173
Vhttps://soundcloud.com/thelevelsmusic/04-the-levels-right-here
p174
sVdisplay_url
p175
Vsoundcloud.com/thelevelsmusic\u2026
p176
sassVin_reply_to_screen_name
p177
Nsg42
V618900576093343744
p178
sVretweet_count
p179
I0
sVin_reply_to_user_id
p180
NsVfavorited
p181
I00
sVuser
p182
g29
sVgeo
p183
NsVin_reply_to_user_id_str
p184
NsVpossibly_sensitive
p185
I00
sg68
g127
sg77
VWed Jul 08 21:52:50 +0000 2015
p186
sVfilter_level
p187
g122
sVin_reply_to_status_id_str
p188
NsVplace
p189
(dp190
Vfull_name
p191
VZurich, Switzerland
p192
sg75
Vhttps://api.twitter.com/1.1/geo/id/3acb748d0f1e9265.json
p193
sVcountry
p194
VSchweiz
p195
sVplace_type
p196
Vcity
p197
sVbounding_box
p198
(dp199
Vtype
p200
VPolygon
p201
sg139
(lp202
(lp203
(lp204
F8.448081
aF47.320183
aa(lp205
F8.448081
aF47.434721
aa(lp206
F8.625442
aF47.434721
aa(lp207
F8.625442
aF47.320183
aaassVcountry_code
p208
VCH
p209
sVattributes
p210
(dp211
sg33
V3acb748d0f1e9265
p212
sg66
VZurich
p213
sssS'coordinates'
p214
NsS'timestamp_ms'
p215
g141
sS'entities'
p216
g143
sS'in_reply_to_status_id_str'
p217
NsS'in_reply_to_screen_name'
p218
Nsg91
g178
sS'retweeted'
p219
I00
sS'place'
p220
g0
(ctweepy.models
Place
p221
g2
Ntp222
Rp223
(dp224
S'full_name'
p225
g192
sg109
g193
sS'country'
p226
g195
sS'place_type'
p227
g197
sS'bounding_box'
p228
g0
(ctweepy.models
BoundingBox
p229
g2
Ntp230
Rp231
(dp232
S'type'
p233
g201
sg214
g202
sbsS'country_code'
p234
g209
sS'attributes'
p235
g211
sg24
g212
sg103
g213
sbsS'retweet_count'
p236
I0
sg110
g111
(S'\x07\xdf\x07\x08\x1542\x00\x00\x00'
p237
tp238
Rp239
sS'in_reply_to_user_id'
p240
Nsb.