ccopy_reg
_reconstructor
p0
(ctweepy.models
Status
p1
c__builtin__
object
p2
Ntp3
Rp4
(dp5
S'favorited'
p6
I00
sS'contributors'
p7
NsS'truncated'
p8
I00
sS'text'
p9
VA little boy's first watch for his 9th birthday. #swatch #zurich (@ swatch flagship store Zh) https://t.co/6rtSVNvTHy http://t.co/Qv8V6D9IJr
p10
sS'source_url'
p11
Vhttp://foursquare.com
p12
sS'possibly_sensitive'
p13
I00
sS'in_reply_to_status_id'
p14
NsS'user'
p15
g0
(ctweepy.models
User
p16
g2
Ntp17
Rp18
(dp19
S'follow_request_sent'
p20
NsS'profile_use_background_image'
p21
I01
sS'profile_sidebar_fill_color'
p22
VDDEEF6
p23
sS'id'
p24
I15400712
sS'verified'
p25
I00
sS'profile_image_url_https'
p26
Vhttps://pbs.twimg.com/profile_images/739589549/derekchad_normal.jpg
p27
sS'_json'
p28
(dp29
Vfollow_request_sent
p30
NsVprofile_use_background_image
p31
I01
sVdefault_profile_image
p32
I00
sVid
p33
I15400712
sVverified
p34
I00
sVprofile_image_url_https
p35
g27
sVprofile_sidebar_fill_color
p36
g23
sVprofile_text_color
p37
V333333
p38
sVfollowers_count
p39
I93
sVprofile_sidebar_border_color
p40
VC0DEED
p41
sVid_str
p42
V15400712
p43
sVprofile_background_color
p44
VC0DEED
p45
sVlisted_count
p46
I4
sVprofile_background_image_url_https
p47
Vhttps://abs.twimg.com/images/themes/theme1/bg.png
p48
sVutc_offset
p49
I-25200
sVstatuses_count
p50
I462
sVdescription
p51
Vgeek, cyclist, solutions engineer at Blackbaud, dog-lover, travel enthusiast, dj
p52
sVfriends_count
p53
I126
sVlocation
p54
ViPhone: 37.765484,-122.431137
p55
sVprofile_link_color
p56
V0084B4
p57
sVprofile_image_url
p58
Vhttp://pbs.twimg.com/profile_images/739589549/derekchad_normal.jpg
p59
sVfollowing
p60
NsVgeo_enabled
p61
I01
sVprofile_banner_url
p62
Vhttps://pbs.twimg.com/profile_banners/15400712/1380707222
p63
sVprofile_background_image_url
p64
Vhttp://abs.twimg.com/images/themes/theme1/bg.png
p65
sVname
p66
Vderekchad
p67
sVlang
p68
Ven
p69
sVprofile_background_tile
p70
I00
sVfavourites_count
p71
I20
sVscreen_name
p72
Vderekchad
p73
sVnotifications
p74
NsVurl
p75
NsVcreated_at
p76
VSat Jul 12 04:33:15 +0000 2008
p77
sVcontributors_enabled
p78
I00
sVtime_zone
p79
VPacific Time (US & Canada)
p80
sVprotected
p81
I00
sVdefault_profile
p82
I01
sVis_translator
p83
I00
ssS'contributors_enabled'
p84
I00
sS'profile_text_color'
p85
g38
sS'followers_count'
p86
I93
sS'profile_sidebar_border_color'
p87
g41
sS'location'
p88
g55
sS'default_profile_image'
p89
I00
sS'id_str'
p90
g43
sS'utc_offset'
p91
I-25200
sS'statuses_count'
p92
I462
sS'description'
p93
g52
sS'friends_count'
p94
I126
sS'profile_link_color'
p95
g57
sS'profile_image_url'
p96
g59
sS'notifications'
p97
NsS'geo_enabled'
p98
I01
sS'profile_background_color'
p99
g45
sS'profile_banner_url'
p100
g63
sS'profile_background_image_url'
p101
g65
sS'name'
p102
g67
sS'lang'
p103
g69
sS'following'
p104
I00
sS'profile_background_tile'
p105
I00
sS'favourites_count'
p106
I20
sS'screen_name'
p107
g73
sS'url'
p108
NsS'created_at'
p109
cdatetime
datetime
p110
(S'\x07\xd8\x07\x0c\x04!\x0f\x00\x00\x00'
p111
tp112
Rp113
sS'profile_background_image_url_https'
p114
g48
sS'time_zone'
p115
g80
sS'protected'
p116
I00
sS'default_profile'
p117
I01
sS'is_translator'
p118
I00
sS'listed_count'
p119
I4
sbsS'filter_level'
p120
Vlow
p121
sS'geo'
p122
(dp123
Vtype
p124
VPoint
p125
sVcoordinates
p126
(lp127
F47.372824
aF8.538396
assg24
I619824346186579968
sS'favorite_count'
p128
I0
sS'source'
p129
VFoursquare
p130
sg103
Ven
p131
sS'author'
p132
g18
sS'in_reply_to_user_id_str'
p133
Nsg28
(dp134
Vcontributors
p135
NsVtruncated
p136
I00
sVtext
p137
g10
sVin_reply_to_status_id
p138
Nsg33
I619824346186579968
sVfavorite_count
p139
I0
sVsource
p140
V<a href="http://foursquare.com" rel="nofollow">Foursquare</a>
p141
sVretweeted
p142
I00
sg126
(dp143
g124
VPoint
p144
sg126
(lp145
F8.538396
aF47.372824
assVtimestamp_ms
p146
V1436612614567
p147
sVentities
p148
(dp149
Vsymbols
p150
(lp151
sVmedia
p152
(lp153
(dp154
Vexpanded_url
p155
Vhttp://twitter.com/derekchad/status/619824346186579968/photo/1
p156
sVdisplay_url
p157
Vpic.twitter.com/Qv8V6D9IJr
p158
sg75
Vhttp://t.co/Qv8V6D9IJr
p159
sVmedia_url_https
p160
Vhttps://pbs.twimg.com/media/CJoO9WmWcAEdNtI.jpg
p161
sg42
V619824345918107649
p162
sVsizes
p163
(dp164
Vlarge
p165
(dp166
Vh
p167
I1365
sVresize
p168
Vfit
p169
sVw
p170
I1024
ssVsmall
p171
(dp172
g167
I453
sg168
Vfit
p173
sg170
I340
ssVmedium
p174
(dp175
g167
I800
sg168
Vfit
p176
sg170
I600
ssVthumb
p177
(dp178
g167
I150
sg168
Vcrop
p179
sg170
I150
sssVindices
p180
(lp181
I118
aI140
asg124
Vphoto
p182
sg33
I619824345918107649
sVmedia_url
p183
Vhttp://pbs.twimg.com/media/CJoO9WmWcAEdNtI.jpg
p184
sasVhashtags
p185
(lp186
(dp187
g180
(lp188
I49
aI56
asg137
Vswatch
p189
sa(dp190
g180
(lp191
I57
aI64
asg137
Vzurich
p192
sasVuser_mentions
p193
(lp194
sVtrends
p195
(lp196
sVurls
p197
(lp198
(dp199
g75
Vhttps://t.co/6rtSVNvTHy
p200
sg180
(lp201
I94
aI117
asg155
Vhttps://www.swarmapp.com/c/7b69xgiD6jv
p202
sg157
Vswarmapp.com/c/7b69xgiD6jv
p203
sassVin_reply_to_screen_name
p204
Nsg42
V619824346186579968
p205
sVretweet_count
p206
I0
sVin_reply_to_user_id
p207
NsVfavorited
p208
I00
sVuser
p209
g29
sVgeo
p210
g123
sVin_reply_to_user_id_str
p211
NsVpossibly_sensitive
p212
I00
sg68
g131
sg76
VSat Jul 11 11:03:34 +0000 2015
p213
sVfilter_level
p214
g121
sVin_reply_to_status_id_str
p215
NsVplace
p216
(dp217
Vfull_name
p218
VZurich, Switzerland
p219
sg75
Vhttps://api.twitter.com/1.1/geo/id/3acb748d0f1e9265.json
p220
sVcountry
p221
VSchweiz
p222
sVplace_type
p223
Vcity
p224
sVbounding_box
p225
(dp226
g124
VPolygon
p227
sg126
(lp228
(lp229
(lp230
F8.448081
aF47.320183
aa(lp231
F8.448081
aF47.434721
aa(lp232
F8.625442
aF47.434721
aa(lp233
F8.625442
aF47.320183
aaassVcountry_code
p234
VCH
p235
sVattributes
p236
(dp237
sg33
V3acb748d0f1e9265
p238
sg66
VZurich
p239
ssVextended_entities
p240
(dp241
g152
(lp242
(dp243
g155
Vhttp://twitter.com/derekchad/status/619824346186579968/photo/1
p244
sg157
Vpic.twitter.com/Qv8V6D9IJr
p245
sg75
Vhttp://t.co/Qv8V6D9IJr
p246
sg160
Vhttps://pbs.twimg.com/media/CJoO9WmWcAEdNtI.jpg
p247
sg42
V619824345918107649
p248
sg163
(dp249
g165
(dp250
g167
I1365
sg168
Vfit
p251
sg170
I1024
ssg171
(dp252
g167
I453
sg168
Vfit
p253
sg170
I340
ssg174
(dp254
g167
I800
sg168
Vfit
p255
sg170
I600
ssg177
(dp256
g167
I150
sg168
Vcrop
p257
sg170
I150
sssg180
(lp258
I118
aI140
asg124
Vphoto
p259
sg33
I619824345918107649
sg183
Vhttp://pbs.twimg.com/media/CJoO9WmWcAEdNtI.jpg
p260
sasssS'coordinates'
p261
g143
sS'timestamp_ms'
p262
g147
sS'entities'
p263
g149
sS'in_reply_to_status_id_str'
p264
NsS'in_reply_to_screen_name'
p265
Nsg90
g205
sS'extended_entities'
p266
g241
sS'retweeted'
p267
I00
sS'place'
p268
g0
(ctweepy.models
Place
p269
g2
Ntp270
Rp271
(dp272
S'full_name'
p273
g219
sg108
g220
sS'country'
p274
g222
sS'place_type'
p275
g224
sS'bounding_box'
p276
g0
(ctweepy.models
BoundingBox
p277
g2
Ntp278
Rp279
(dp280
S'type'
p281
g227
sg261
g228
sbsS'country_code'
p282
g235
sS'attributes'
p283
g237
sg24
g238
sg102
g239
sbsS'retweet_count'
p284
I0
sg109
g110
(S'\x07\xdf\x07\x0b\x0b\x03"\x00\x00\x00'
p285
tp286
Rp287
sS'in_reply_to_user_id'
p288
Nsb.