ccopy_reg
_reconstructor
p0
(ctweepy.models
Status
p1
c__builtin__
object
p2
Ntp3
Rp4
(dp5
S'favorited'
p6
I00
sS'contributors'
p7
NsS'truncated'
p8
I00
sS'text'
p9
V@fame_hoe @bmxtopher @phamphuongnguy2 @ZiLeOHai @fame \u000aMY MOMS EXPORT RAN WITH THE BULLS\u000aYO MOMS EXPORT HAD PIZZA WITH GLEN MILEY\u000a:D
p10
sS'source_url'
p11
Vhttp://twitter.com
p12
sS'possibly_sensitive'
p13
I00
sS'in_reply_to_status_id'
p14
I620748493196390400
sS'user'
p15
g0
(ctweepy.models
User
p16
g2
Ntp17
Rp18
(dp19
S'follow_request_sent'
p20
NsS'profile_use_background_image'
p21
I00
sS'profile_sidebar_fill_color'
p22
V000000
p23
sS'id'
p24
I2879569993
sS'verified'
p25
I00
sS'profile_image_url_https'
p26
Vhttps://pbs.twimg.com/profile_images/610874208827146241/voSDsKk8_normal.png
p27
sS'_json'
p28
(dp29
Vfollow_request_sent
p30
NsVprofile_use_background_image
p31
I00
sVdefault_profile_image
p32
I00
sVid
p33
I2879569993
sVverified
p34
I00
sVprofile_image_url_https
p35
g27
sVprofile_sidebar_fill_color
p36
g23
sVprofile_text_color
p37
V000000
p38
sVfollowers_count
p39
I248
sVprofile_sidebar_border_color
p40
V000000
p41
sVid_str
p42
V2879569993
p43
sVprofile_background_color
p44
V000000
p45
sVlisted_count
p46
I3
sVprofile_background_image_url_https
p47
Vhttps://abs.twimg.com/images/themes/theme14/bg.gif
p48
sVutc_offset
p49
I-25200
sVstatuses_count
p50
I1362
sVdescription
p51
VNEVER COULD HIDE WHO I AM.  .http://ish.re/JJRT -not me.\u000aDAMNALEX@PROTONMAIL.COM
p52
sVfriends_count
p53
I285
sVlocation
p54
VRepublic of Mozambique
p55
sVprofile_link_color
p56
VDD2E44
p57
sVprofile_image_url
p58
Vhttp://pbs.twimg.com/profile_images/610874208827146241/voSDsKk8_normal.png
p59
sVfollowing
p60
NsVgeo_enabled
p61
I01
sVprofile_banner_url
p62
Vhttps://pbs.twimg.com/profile_banners/2879569993/1434478513
p63
sVprofile_background_image_url
p64
Vhttp://abs.twimg.com/images/themes/theme14/bg.gif
p65
sVname
p66
VD\u2200MN\u2200L\u308bX 
p67
sVlang
p68
Ven
p69
sVprofile_background_tile
p70
I00
sVfavourites_count
p71
I30
sVscreen_name
p72
VDd0xblack1
p73
sVnotifications
p74
NsVurl
p75
NsVcreated_at
p76
VMon Oct 27 13:04:37 +0000 2014
p77
sVcontributors_enabled
p78
I00
sVtime_zone
p79
VPacific Time (US & Canada)
p80
sVprotected
p81
I00
sVdefault_profile
p82
I00
sVis_translator
p83
I00
ssS'contributors_enabled'
p84
I00
sS'profile_text_color'
p85
g38
sS'followers_count'
p86
I248
sS'profile_sidebar_border_color'
p87
g41
sS'location'
p88
g55
sS'default_profile_image'
p89
I00
sS'id_str'
p90
g43
sS'utc_offset'
p91
I-25200
sS'statuses_count'
p92
I1362
sS'description'
p93
VNEVER COULD HIDE WHO I AM.  .http://ish.re/JJRT -not me.\u000aDAMNALEX@PROTONMAIL.COM
p94
sS'friends_count'
p95
I285
sS'profile_link_color'
p96
g57
sS'profile_image_url'
p97
g59
sS'notifications'
p98
NsS'geo_enabled'
p99
I01
sS'profile_background_color'
p100
g45
sS'profile_banner_url'
p101
g63
sS'profile_background_image_url'
p102
g65
sS'name'
p103
g67
sS'lang'
p104
g69
sS'following'
p105
I00
sS'profile_background_tile'
p106
I00
sS'favourites_count'
p107
I30
sS'screen_name'
p108
g73
sS'url'
p109
NsS'created_at'
p110
cdatetime
datetime
p111
(S'\x07\xde\n\x1b\r\x04%\x00\x00\x00'
p112
tp113
Rp114
sS'profile_background_image_url_https'
p115
g48
sS'time_zone'
p116
g80
sS'protected'
p117
I00
sS'default_profile'
p118
I00
sS'is_translator'
p119
I00
sS'listed_count'
p120
I3
sbsS'filter_level'
p121
Vlow
p122
sS'geo'
p123
Nsg24
I620750993802829824
sS'favorite_count'
p124
I0
sS'source'
p125
VTwitter Web Client
p126
sg104
Ven
p127
sS'author'
p128
g18
sS'in_reply_to_user_id_str'
p129
V3354051028
p130
sg28
(dp131
Vcontributors
p132
NsVtruncated
p133
I00
sVtext
p134
V@fame_hoe @bmxtopher @phamphuongnguy2 @ZiLeOHai @fame \u000aMY MOMS EXPORT RAN WITH THE BULLS\u000aYO MOMS EXPORT HAD PIZZA WITH GLEN MILEY\u000a:D
p135
sVin_reply_to_status_id
p136
I620748493196390400
sg33
I620750993802829824
sVfavorite_count
p137
I0
sVsource
p138
V<a href="http://twitter.com" rel="nofollow">Twitter Web Client</a>
p139
sVretweeted
p140
I00
sVcoordinates
p141
NsVtimestamp_ms
p142
V1436833544575
p143
sVentities
p144
(dp145
Vuser_mentions
p146
(lp147
(dp148
g33
I3354051028
sVindices
p149
(lp150
I0
aI9
asg42
V3354051028
p151
sg72
Vfame_hoe
p152
sg66
V\u2588\u2588\u2588\u2588\u2588 \u2020 \u2588\u2588\u2588\u2588\u2588 
p153
sa(dp154
g33
I3318509770
sg149
(lp155
I10
aI20
asg42
V3318509770
p156
sg72
Vbmxtopher
p157
sg66
Vbmxchris
p158
sa(dp159
g33
I2950603275
sg149
(lp160
I21
aI37
asg42
V2950603275
p161
sg72
Vphamphuongnguy2
p162
sg66
Vphamphuong
p163
sa(dp164
g33
I2342506544
sg149
(lp165
I38
aI47
asg42
V2342506544
p166
sg72
VZiLeOHai
p167
sg66
VDon't Potato
p168
sa(dp169
g33
I2426199542
sg149
(lp170
I48
aI53
asg42
V2426199542
p171
sg72
Vfame
p172
sg66
VFame
p173
sasVsymbols
p174
(lp175
sVtrends
p176
(lp177
sVhashtags
p178
(lp179
sVurls
p180
(lp181
ssVin_reply_to_screen_name
p182
Vfame_hoe
p183
sg42
V620750993802829824
p184
sVretweet_count
p185
I0
sVin_reply_to_user_id
p186
I3354051028
sVfavorited
p187
I00
sVuser
p188
g29
sVgeo
p189
NsVin_reply_to_user_id_str
p190
g130
sVpossibly_sensitive
p191
I00
sg68
g127
sg76
VTue Jul 14 00:25:44 +0000 2015
p192
sVfilter_level
p193
g122
sVin_reply_to_status_id_str
p194
V620748493196390400
p195
sVplace
p196
(dp197
Vfull_name
p198
VBerne, Switzerland
p199
sg75
Vhttps://api.twitter.com/1.1/geo/id/5868d0e0749c9c47.json
p200
sVcountry
p201
VSchweiz
p202
sVplace_type
p203
Vadmin
p204
sVbounding_box
p205
(dp206
Vtype
p207
VPolygon
p208
sg141
(lp209
(lp210
(lp211
F6.861601
aF46.326441
aa(lp212
F6.861601
aF47.34528
aa(lp213
F8.455051
aF47.34528
aa(lp214
F8.455051
aF46.326441
aaassVcountry_code
p215
VCH
p216
sVattributes
p217
(dp218
sg33
V5868d0e0749c9c47
p219
sg66
VBern
p220
sssS'coordinates'
p221
NsS'timestamp_ms'
p222
g143
sS'entities'
p223
g145
sS'in_reply_to_status_id_str'
p224
g195
sS'in_reply_to_screen_name'
p225
g183
sg90
g184
sS'retweeted'
p226
I00
sS'place'
p227
g0
(ctweepy.models
Place
p228
g2
Ntp229
Rp230
(dp231
S'full_name'
p232
g199
sg109
g200
sS'country'
p233
g202
sS'place_type'
p234
g204
sS'bounding_box'
p235
g0
(ctweepy.models
BoundingBox
p236
g2
Ntp237
Rp238
(dp239
S'type'
p240
g208
sg221
g209
sbsS'country_code'
p241
g216
sS'attributes'
p242
g218
sg24
g219
sg103
g220
sbsS'retweet_count'
p243
I0
sg110
g111
(S'\x07\xdf\x07\x0e\x00\x19,\x00\x00\x00'
p244
tp245
Rp246
sS'in_reply_to_user_id'
p247
I3354051028
sb.