ccopy_reg
_reconstructor
p0
(ctweepy.models
Status
p1
c__builtin__
object
p2
Ntp3
Rp4
(dp5
S'contributors'
p6
NsS'truncated'
p7
I00
sS'text'
p8
VDelightful!  https://t.co/mQx6AgRRxF
p9
sS'in_reply_to_status_id'
p10
NsS'id'
p11
I619400619653267456
sS'favorite_count'
p12
I0
sS'entities'
p13
(dp14
Vuser_mentions
p15
(lp16
sVsymbols
p17
(lp18
sVtrends
p19
(lp20
sVhashtags
p21
(lp22
sVurls
p23
(lp24
(dp25
Vurl
p26
Vhttps://t.co/mQx6AgRRxF
p27
sVindices
p28
(lp29
I13
aI36
asVexpanded_url
p30
Vhttps://twitter.com/craigmod/status/619365402527674369
p31
sVdisplay_url
p32
Vtwitter.com/craigmod/statu\u2026
p33
sassS'quoted_status_id'
p34
I619365402527674369
sS'_json'
p35
(dp36
Vcontributors
p37
NsVtruncated
p38
I00
sVtext
p39
g9
sVin_reply_to_status_id
p40
NsVid
p41
I619400619653267456
sVfavorite_count
p42
I0
sVsource
p43
V<a href="http://twitter.com/download/iphone" rel="nofollow">Twitter for iPhone</a>
p44
sVquoted_status_id
p45
I619365402527674369
sVretweeted
p46
I00
sVcoordinates
p47
NsVtimestamp_ms
p48
V1436511590289
p49
sVquoted_status
p50
(dp51
g37
Nsg38
I00
sg39
VMaybe one of the most beautiful implementations of a "book in browser" I've ever seen:\u000ahttps://t.co/k06L85x5OI\u000a\u000a/via https://t.co/ucAKlSJ43k
p52
sg40
Nsg41
I619365402527674369
sg42
I0
sg43
V<a href="http://itunes.apple.com/us/app/twitter/id409789998?mt=12" rel="nofollow">Twitter for Mac</a>
p53
sg46
I00
sg47
NsVentities
p54
(dp55
g15
(lp56
sg17
(lp57
sg19
(lp58
sg21
(lp59
sg23
(lp60
(dp61
g26
Vhttps://t.co/k06L85x5OI
p62
sg28
(lp63
I87
aI110
asg30
Vhttps://bubbl.in/book/the-solar-system-by-marvin-danig/1
p64
sg32
Vbubbl.in/book/the-solar\u2026
p65
sa(dp66
g26
Vhttps://t.co/ucAKlSJ43k
p67
sg28
(lp68
I117
aI140
asg30
Vhttps://bubbl.in/about
p69
sg32
Vbubbl.in/about
p70
sassVin_reply_to_screen_name
p71
NsVid_str
p72
V619365402527674369
p73
sVretweet_count
p74
I0
sVin_reply_to_user_id
p75
NsVfavorited
p76
I00
sVuser
p77
(dp78
Vfollow_request_sent
p79
NsVprofile_use_background_image
p80
I01
sVdefault_profile_image
p81
I00
sg41
I1835951
sVverified
p82
I00
sVprofile_image_url_https
p83
Vhttps://pbs.twimg.com/profile_images/543307852870217729/vrM-6ys5_normal.jpeg
p84
sVprofile_sidebar_fill_color
p85
VFFBFBD
p86
sVprofile_text_color
p87
V000000
p88
sVfollowers_count
p89
I26831
sVprofile_sidebar_border_color
p90
V000000
p91
sg72
V1835951
p92
sVprofile_background_color
p93
V000000
p94
sVlisted_count
p95
I1906
sVprofile_background_image_url_https
p96
Vhttps://pbs.twimg.com/profile_background_images/433212988/bg-intro.jpeg
p97
sVutc_offset
p98
I32400
sVstatuses_count
p99
I20453
sVdescription
p100
VWriter. Designer. MacDowell fellow. TechFellow. Ex-Flipboard. Peripatetic.
p101
sVfriends_count
p102
I990
sVlocation
p103
VNew York & Tokyo
p104
sVprofile_link_color
p105
V000064
p106
sVprofile_image_url
p107
Vhttp://pbs.twimg.com/profile_images/543307852870217729/vrM-6ys5_normal.jpeg
p108
sVfollowing
p109
NsVgeo_enabled
p110
I01
sVprofile_banner_url
p111
Vhttps://pbs.twimg.com/profile_banners/1835951/1392221059
p112
sVprofile_background_image_url
p113
Vhttp://pbs.twimg.com/profile_background_images/433212988/bg-intro.jpeg
p114
sVname
p115
VCraig Mod
p116
sVlang
p117
Ven
p118
sVprofile_background_tile
p119
I00
sVfavourites_count
p120
I19235
sVscreen_name
p121
Vcraigmod
p122
sVnotifications
p123
Nsg26
Vhttp://craigmod.com/about/
p124
sVcreated_at
p125
VThu Mar 22 04:45:32 +0000 2007
p126
sVcontributors_enabled
p127
I00
sVtime_zone
p128
VTokyo
p129
sVprotected
p130
I00
sVdefault_profile
p131
I00
sVis_translator
p132
I00
ssVgeo
p133
NsVin_reply_to_user_id_str
p134
NsVpossibly_sensitive
p135
I00
sg117
Ven
p136
sg125
VFri Jul 10 04:39:53 +0000 2015
p137
sVfilter_level
p138
Vlow
p139
sVin_reply_to_status_id_str
p140
NsVplace
p141
Nssg54
g14
sg71
Nsg72
V619400619653267456
p142
sg74
I0
sg75
Nsg76
I00
sg77
(dp143
g79
Nsg80
I01
sg81
I00
sg41
I82830800
sg82
I00
sg83
Vhttps://pbs.twimg.com/profile_images/551827664882106369/-BthMPzx_normal.jpeg
p144
sg85
VF6FFD1
p145
sg87
V333333
p146
sg89
I637
sg90
VFFF8AD
p147
sg72
V82830800
p148
sg93
VFFF04D
p149
sg95
I35
sg96
Vhttps://abs.twimg.com/images/themes/theme19/bg.gif
p150
sg98
I7200
sg99
I1864
sg100
VWorking at SwissRe, channel mgmt, Zurich; before: NZZ digital media, Stimmt AG, Neuroinformatics; \u000aenjoys digital stuff, strategy, customer experience, and life
p151
sg102
I529
sg103
VZurich, Switzerland
p152
sg105
V2684B3
p153
sg107
Vhttp://pbs.twimg.com/profile_images/551827664882106369/-BthMPzx_normal.jpeg
p154
sg109
Nsg110
I01
sg111
Vhttps://pbs.twimg.com/profile_banners/82830800/1399591448
p155
sg113
Vhttp://abs.twimg.com/images/themes/theme19/bg.gif
p156
sg115
Vgudrun moeller
p157
sg117
Ven
p158
sg119
I00
sg120
I691
sg121
Vgum_o
p159
sg123
Nsg26
Nsg125
VFri Oct 16 08:21:32 +0000 2009
p160
sg127
I00
sg128
VBern
p161
sg130
I00
sg131
I00
sg132
I00
ssg133
Nsg134
Nsg135
I00
sg117
Ven
p162
sg125
VFri Jul 10 06:59:50 +0000 2015
p163
sVquoted_status_id_str
p164
V619365402527674369
p165
sg138
Vlow
p166
sg140
Nsg141
(dp167
Vfull_name
p168
VZurich, Switzerland
p169
sg26
Vhttps://api.twitter.com/1.1/geo/id/3acb748d0f1e9265.json
p170
sVcountry
p171
VSchweiz
p172
sVplace_type
p173
Vcity
p174
sVbounding_box
p175
(dp176
Vtype
p177
VPolygon
p178
sg47
(lp179
(lp180
(lp181
F8.448081
aF47.320183
aa(lp182
F8.448081
aF47.434721
aa(lp183
F8.625442
aF47.434721
aa(lp184
F8.625442
aF47.320183
aaassVcountry_code
p185
VCH
p186
sVattributes
p187
(dp188
sg41
V3acb748d0f1e9265
p189
sg115
VZurich
p190
sssS'coordinates'
p191
NsS'timestamp_ms'
p192
g49
sS'quoted_status'
p193
g51
sS'source'
p194
VTwitter for iPhone
p195
sS'in_reply_to_screen_name'
p196
NsS'id_str'
p197
g142
sS'retweet_count'
p198
I0
sS'in_reply_to_user_id'
p199
NsS'favorited'
p200
I00
sS'source_url'
p201
Vhttp://twitter.com/download/iphone
p202
sS'user'
p203
g0
(ctweepy.models
User
p204
g2
Ntp205
Rp206
(dp207
S'follow_request_sent'
p208
NsS'profile_use_background_image'
p209
I01
sS'profile_sidebar_fill_color'
p210
g145
sg11
I82830800
sS'verified'
p211
I00
sS'profile_image_url_https'
p212
g144
sg35
g143
sS'contributors_enabled'
p213
I00
sS'profile_text_color'
p214
g146
sS'followers_count'
p215
I637
sS'profile_sidebar_border_color'
p216
g147
sS'location'
p217
g152
sS'default_profile_image'
p218
I00
sg197
g148
sS'utc_offset'
p219
I7200
sS'statuses_count'
p220
I1864
sS'description'
p221
VWorking at SwissRe, channel mgmt, Zurich; before: NZZ digital media, Stimmt AG, Neuroinformatics; \u000aenjoys digital stuff, strategy, customer experience, and life
p222
sS'friends_count'
p223
I529
sS'profile_link_color'
p224
g153
sS'profile_image_url'
p225
g154
sS'notifications'
p226
NsS'geo_enabled'
p227
I01
sS'profile_background_color'
p228
g149
sS'profile_banner_url'
p229
g155
sS'profile_background_image_url'
p230
g156
sS'name'
p231
g157
sS'lang'
p232
g158
sS'following'
p233
I00
sS'profile_background_tile'
p234
I00
sS'favourites_count'
p235
I691
sS'screen_name'
p236
g159
sS'url'
p237
NsS'created_at'
p238
cdatetime
datetime
p239
(S'\x07\xd9\n\x10\x08\x15 \x00\x00\x00'
p240
tp241
Rp242
sS'profile_background_image_url_https'
p243
g150
sS'time_zone'
p244
g161
sS'protected'
p245
I00
sS'default_profile'
p246
I00
sS'is_translator'
p247
I00
sS'listed_count'
p248
I35
sbsS'geo'
p249
NsS'in_reply_to_user_id_str'
p250
NsS'possibly_sensitive'
p251
I00
sg232
g162
sg238
g239
(S'\x07\xdf\x07\n\x06;2\x00\x00\x00'
p252
tp253
Rp254
sS'author'
p255
g206
sS'quoted_status_id_str'
p256
g165
sS'filter_level'
p257
g166
sS'in_reply_to_status_id_str'
p258
NsS'place'
p259
g0
(ctweepy.models
Place
p260
g2
Ntp261
Rp262
(dp263
S'full_name'
p264
g169
sg237
g170
sS'country'
p265
g172
sS'place_type'
p266
g174
sS'bounding_box'
p267
g0
(ctweepy.models
BoundingBox
p268
g2
Ntp269
Rp270
(dp271
S'type'
p272
g178
sg191
g179
sbsS'country_code'
p273
g186
sS'attributes'
p274
g188
sg11
g189
sg231
g190
sbsS'retweeted'
p275
I00
sb.