ccopy_reg
_reconstructor
p0
(ctweepy.models
Status
p1
c__builtin__
object
p2
Ntp3
Rp4
(dp5
S'favorited'
p6
I00
sS'contributors'
p7
NsS'truncated'
p8
I00
sS'text'
p9
V8.8% #Response dank #3D-Mailing mit integrierter #PURL!\u000ahttp://t.co/In68a0ceH9 http://t.co/BxbKJfwnvL
p10
sS'source_url'
p11
Vhttp://twitter.com
p12
sS'possibly_sensitive'
p13
I00
sS'in_reply_to_status_id'
p14
NsS'user'
p15
g0
(ctweepy.models
User
p16
g2
Ntp17
Rp18
(dp19
S'follow_request_sent'
p20
NsS'profile_use_background_image'
p21
I00
sS'profile_sidebar_fill_color'
p22
V000000
p23
sS'id'
p24
I3346550673
sS'verified'
p25
I00
sS'profile_image_url_https'
p26
Vhttps://pbs.twimg.com/profile_images/614449475898228737/W46i8cVN_normal.jpg
p27
sS'_json'
p28
(dp29
Vfollow_request_sent
p30
NsVprofile_use_background_image
p31
I00
sVdefault_profile_image
p32
I00
sVid
p33
I3346550673
sVverified
p34
I00
sVprofile_image_url_https
p35
g27
sVprofile_sidebar_fill_color
p36
g23
sVprofile_text_color
p37
V000000
p38
sVfollowers_count
p39
I2
sVprofile_sidebar_border_color
p40
V000000
p41
sVid_str
p42
V3346550673
p43
sVprofile_background_color
p44
V000000
p45
sVlisted_count
p46
I0
sVprofile_background_image_url_https
p47
Vhttps://abs.twimg.com/images/themes/theme1/bg.png
p48
sVutc_offset
p49
NsVstatuses_count
p50
I1
sVdescription
p51
NsVfriends_count
p52
I3
sVlocation
p53
VLangnau im Emmental, Bern
p54
sVprofile_link_color
p55
VC51C22
p56
sVprofile_image_url
p57
Vhttp://pbs.twimg.com/profile_images/614449475898228737/W46i8cVN_normal.jpg
p58
sVfollowing
p59
NsVgeo_enabled
p60
I01
sVprofile_banner_url
p61
Vhttps://pbs.twimg.com/profile_banners/3346550673/1435332004
p62
sVprofile_background_image_url
p63
Vhttp://abs.twimg.com/images/themes/theme1/bg.png
p64
sVname
p65
VErfolgsgeschichten
p66
sVlang
p67
Vde
p68
sVprofile_background_tile
p69
I00
sVfavourites_count
p70
I0
sVscreen_name
p71
VVoegeliAG
p72
sVnotifications
p73
NsVurl
p74
Vhttp://www.voegeli.ch
p75
sVcreated_at
p76
VFri Jun 26 14:59:18 +0000 2015
p77
sVcontributors_enabled
p78
I00
sVtime_zone
p79
NsVprotected
p80
I00
sVdefault_profile
p81
I00
sVis_translator
p82
I00
ssS'contributors_enabled'
p83
I00
sS'profile_text_color'
p84
g38
sS'followers_count'
p85
I2
sS'profile_sidebar_border_color'
p86
g41
sS'location'
p87
g54
sS'default_profile_image'
p88
I00
sS'id_str'
p89
g43
sS'utc_offset'
p90
NsS'statuses_count'
p91
I1
sS'description'
p92
NsS'friends_count'
p93
I3
sS'profile_link_color'
p94
g56
sS'profile_image_url'
p95
g58
sS'notifications'
p96
NsS'geo_enabled'
p97
I01
sS'profile_background_color'
p98
g45
sS'profile_banner_url'
p99
g62
sS'profile_background_image_url'
p100
g64
sS'name'
p101
g66
sS'lang'
p102
g68
sS'following'
p103
I00
sS'profile_background_tile'
p104
I00
sS'favourites_count'
p105
I0
sS'screen_name'
p106
g72
sS'url'
p107
g75
sS'created_at'
p108
cdatetime
datetime
p109
(S'\x07\xdf\x06\x1a\x0e;\x12\x00\x00\x00'
p110
tp111
Rp112
sS'profile_background_image_url_https'
p113
g48
sS'time_zone'
p114
NsS'protected'
p115
I00
sS'default_profile'
p116
I00
sS'is_translator'
p117
I00
sS'listed_count'
p118
I0
sbsS'filter_level'
p119
Vlow
p120
sS'geo'
p121
Nsg24
I620933715636699136
sS'favorite_count'
p122
I0
sS'source'
p123
VTwitter Web Client
p124
sg102
Vde
p125
sS'author'
p126
g18
sS'in_reply_to_user_id_str'
p127
Nsg28
(dp128
Vcontributors
p129
NsVtruncated
p130
I00
sVtext
p131
V8.8% #Response dank #3D-Mailing mit integrierter #PURL!\u000ahttp://t.co/In68a0ceH9 http://t.co/BxbKJfwnvL
p132
sVin_reply_to_status_id
p133
Nsg33
I620933715636699136
sVfavorite_count
p134
I0
sVsource
p135
V<a href="http://twitter.com" rel="nofollow">Twitter Web Client</a>
p136
sVretweeted
p137
I00
sVcoordinates
p138
NsVtimestamp_ms
p139
V1436877108855
p140
sVentities
p141
(dp142
Vsymbols
p143
(lp144
sVmedia
p145
(lp146
(dp147
Vexpanded_url
p148
Vhttp://twitter.com/VoegeliAG/status/620933715636699136/photo/1
p149
sVdisplay_url
p150
Vpic.twitter.com/BxbKJfwnvL
p151
sg74
Vhttp://t.co/BxbKJfwnvL
p152
sVmedia_url_https
p153
Vhttps://pbs.twimg.com/media/CJ3_7G9VAAACSf4.jpg
p154
sg42
V620933714592202752
p155
sVsizes
p156
(dp157
Vsmall
p158
(dp159
Vh
p160
I223
sVresize
p161
Vfit
p162
sVw
p163
I340
ssVlarge
p164
(dp165
g160
I672
sg161
Vfit
p166
sg163
I1024
ssVmedium
p167
(dp168
g160
I394
sg161
Vfit
p169
sg163
I600
ssVthumb
p170
(dp171
g160
I150
sg161
Vcrop
p172
sg163
I150
sssVindices
p173
(lp174
I79
aI101
asVtype
p175
Vphoto
p176
sg33
I620933714592202752
sVmedia_url
p177
Vhttp://pbs.twimg.com/media/CJ3_7G9VAAACSf4.jpg
p178
sasVhashtags
p179
(lp180
(dp181
g173
(lp182
I5
aI14
asg131
VResponse
p183
sa(dp184
g173
(lp185
I20
aI23
asg131
V3D
p186
sa(dp187
g173
(lp188
I49
aI54
asg131
VPURL
p189
sasVuser_mentions
p190
(lp191
sVtrends
p192
(lp193
sVurls
p194
(lp195
(dp196
g74
Vhttp://t.co/In68a0ceH9
p197
sg173
(lp198
I56
aI78
asg148
Vhttp://www.voegeli.ch/de/club76.html
p199
sg150
Vvoegeli.ch/de/club76.html
p200
sassVin_reply_to_screen_name
p201
Nsg42
V620933715636699136
p202
sVretweet_count
p203
I0
sVin_reply_to_user_id
p204
NsVfavorited
p205
I00
sVuser
p206
g29
sVgeo
p207
NsVin_reply_to_user_id_str
p208
NsVpossibly_sensitive
p209
I00
sg67
g125
sg76
VTue Jul 14 12:31:48 +0000 2015
p210
sVfilter_level
p211
g120
sVin_reply_to_status_id_str
p212
NsVplace
p213
(dp214
Vfull_name
p215
VBern, Schweiz
p216
sg74
Vhttps://api.twitter.com/1.1/geo/id/5868d0e0749c9c47.json
p217
sVcountry
p218
VSchweiz
p219
sVplace_type
p220
Vadmin
p221
sVbounding_box
p222
(dp223
g175
VPolygon
p224
sg138
(lp225
(lp226
(lp227
F6.861601
aF46.326441
aa(lp228
F6.861601
aF47.34528
aa(lp229
F8.455051
aF47.34528
aa(lp230
F8.455051
aF46.326441
aaassVcountry_code
p231
VCH
p232
sVattributes
p233
(dp234
sg33
V5868d0e0749c9c47
p235
sg65
VBern
p236
ssVextended_entities
p237
(dp238
g145
(lp239
(dp240
g148
Vhttp://twitter.com/VoegeliAG/status/620933715636699136/photo/1
p241
sg150
Vpic.twitter.com/BxbKJfwnvL
p242
sg74
Vhttp://t.co/BxbKJfwnvL
p243
sg153
Vhttps://pbs.twimg.com/media/CJ3_7G9VAAACSf4.jpg
p244
sg42
V620933714592202752
p245
sg156
(dp246
g158
(dp247
g160
I223
sg161
Vfit
p248
sg163
I340
ssg164
(dp249
g160
I672
sg161
Vfit
p250
sg163
I1024
ssg167
(dp251
g160
I394
sg161
Vfit
p252
sg163
I600
ssg170
(dp253
g160
I150
sg161
Vcrop
p254
sg163
I150
sssg173
(lp255
I79
aI101
asg175
Vphoto
p256
sg33
I620933714592202752
sg177
Vhttp://pbs.twimg.com/media/CJ3_7G9VAAACSf4.jpg
p257
sasssS'coordinates'
p258
NsS'timestamp_ms'
p259
g140
sS'entities'
p260
g142
sS'in_reply_to_status_id_str'
p261
NsS'in_reply_to_screen_name'
p262
Nsg89
g202
sS'extended_entities'
p263
g238
sS'retweeted'
p264
I00
sS'place'
p265
g0
(ctweepy.models
Place
p266
g2
Ntp267
Rp268
(dp269
S'full_name'
p270
g216
sg107
g217
sS'country'
p271
g219
sS'place_type'
p272
g221
sS'bounding_box'
p273
g0
(ctweepy.models
BoundingBox
p274
g2
Ntp275
Rp276
(dp277
S'type'
p278
g224
sg258
g225
sbsS'country_code'
p279
g232
sS'attributes'
p280
g234
sg24
g235
sg101
g236
sbsS'retweet_count'
p281
I0
sg108
g109
(S'\x07\xdf\x07\x0e\x0c\x1f0\x00\x00\x00'
p282
tp283
Rp284
sS'in_reply_to_user_id'
p285
Nsb.