ccopy_reg
_reconstructor
p0
(ctweepy.models
Status
p1
c__builtin__
object
p2
Ntp3
Rp4
(dp5
S'favorited'
p6
I00
sS'contributors'
p7
NsS'truncated'
p8
I00
sS'text'
p9
V@AlPineGuide beautiful! Take care of Ali!
p10
sS'source_url'
p11
Vhttp://twitter.com/download/iphone
p12
sS'possibly_sensitive'
p13
I00
sS'in_reply_to_status_id'
p14
I620661792914690048
sS'user'
p15
g0
(ctweepy.models
User
p16
g2
Ntp17
Rp18
(dp19
S'follow_request_sent'
p20
NsS'profile_use_background_image'
p21
I01
sS'profile_sidebar_fill_color'
p22
VF6FFD1
p23
sS'id'
p24
I82830800
sS'verified'
p25
I00
sS'profile_image_url_https'
p26
Vhttps://pbs.twimg.com/profile_images/551827664882106369/-BthMPzx_normal.jpeg
p27
sS'_json'
p28
(dp29
Vfollow_request_sent
p30
NsVprofile_use_background_image
p31
I01
sVdefault_profile_image
p32
I00
sVid
p33
I82830800
sVverified
p34
I00
sVprofile_image_url_https
p35
g27
sVprofile_sidebar_fill_color
p36
g23
sVprofile_text_color
p37
V333333
p38
sVfollowers_count
p39
I635
sVprofile_sidebar_border_color
p40
VFFF8AD
p41
sVid_str
p42
V82830800
p43
sVprofile_background_color
p44
VFFF04D
p45
sVlisted_count
p46
I35
sVprofile_background_image_url_https
p47
Vhttps://abs.twimg.com/images/themes/theme19/bg.gif
p48
sVutc_offset
p49
I7200
sVstatuses_count
p50
I1866
sVdescription
p51
VWorking at SwissRe, channel mgmt, Zurich; before: NZZ digital media, Stimmt AG, Neuroinformatics; \u000aenjoys digital stuff, strategy, customer experience, and life
p52
sVfriends_count
p53
I532
sVlocation
p54
VZurich, Switzerland
p55
sVprofile_link_color
p56
V2684B3
p57
sVprofile_image_url
p58
Vhttp://pbs.twimg.com/profile_images/551827664882106369/-BthMPzx_normal.jpeg
p59
sVfollowing
p60
NsVgeo_enabled
p61
I01
sVprofile_banner_url
p62
Vhttps://pbs.twimg.com/profile_banners/82830800/1399591448
p63
sVprofile_background_image_url
p64
Vhttp://abs.twimg.com/images/themes/theme19/bg.gif
p65
sVname
p66
Vgudrun moeller
p67
sVlang
p68
Ven
p69
sVprofile_background_tile
p70
I00
sVfavourites_count
p71
I698
sVscreen_name
p72
Vgum_o
p73
sVnotifications
p74
NsVurl
p75
NsVcreated_at
p76
VFri Oct 16 08:21:32 +0000 2009
p77
sVcontributors_enabled
p78
I00
sVtime_zone
p79
VBern
p80
sVprotected
p81
I00
sVdefault_profile
p82
I00
sVis_translator
p83
I00
ssS'contributors_enabled'
p84
I00
sS'profile_text_color'
p85
g38
sS'followers_count'
p86
I635
sS'profile_sidebar_border_color'
p87
g41
sS'location'
p88
g55
sS'default_profile_image'
p89
I00
sS'id_str'
p90
g43
sS'utc_offset'
p91
I7200
sS'statuses_count'
p92
I1866
sS'description'
p93
VWorking at SwissRe, channel mgmt, Zurich; before: NZZ digital media, Stimmt AG, Neuroinformatics; \u000aenjoys digital stuff, strategy, customer experience, and life
p94
sS'friends_count'
p95
I532
sS'profile_link_color'
p96
g57
sS'profile_image_url'
p97
g59
sS'notifications'
p98
NsS'geo_enabled'
p99
I01
sS'profile_background_color'
p100
g45
sS'profile_banner_url'
p101
g63
sS'profile_background_image_url'
p102
g65
sS'name'
p103
g67
sS'lang'
p104
g69
sS'following'
p105
I00
sS'profile_background_tile'
p106
I00
sS'favourites_count'
p107
I698
sS'screen_name'
p108
g73
sS'url'
p109
NsS'created_at'
p110
cdatetime
datetime
p111
(S'\x07\xd9\n\x10\x08\x15 \x00\x00\x00'
p112
tp113
Rp114
sS'profile_background_image_url_https'
p115
g48
sS'time_zone'
p116
g80
sS'protected'
p117
I00
sS'default_profile'
p118
I00
sS'is_translator'
p119
I00
sS'listed_count'
p120
I35
sbsS'filter_level'
p121
Vlow
p122
sS'geo'
p123
Nsg24
I620698676709695488
sS'favorite_count'
p124
I0
sS'source'
p125
VTwitter for iPhone
p126
sg104
Ven
p127
sS'author'
p128
g18
sS'in_reply_to_user_id_str'
p129
V284696857
p130
sg28
(dp131
Vcontributors
p132
NsVtruncated
p133
I00
sVtext
p134
g10
sVin_reply_to_status_id
p135
I620661792914690048
sg33
I620698676709695488
sVfavorite_count
p136
I0
sVsource
p137
V<a href="http://twitter.com/download/iphone" rel="nofollow">Twitter for iPhone</a>
p138
sVretweeted
p139
I00
sVcoordinates
p140
NsVtimestamp_ms
p141
V1436821071208
p142
sVentities
p143
(dp144
Vuser_mentions
p145
(lp146
(dp147
g33
I284696857
sVindices
p148
(lp149
I0
aI12
asg42
V284696857
p150
sg72
VAlPineGuide
p151
sg66
VAl Powell
p152
sasVsymbols
p153
(lp154
sVtrends
p155
(lp156
sVhashtags
p157
(lp158
sVurls
p159
(lp160
ssVin_reply_to_screen_name
p161
VAlPineGuide
p162
sg42
V620698676709695488
p163
sVretweet_count
p164
I0
sVin_reply_to_user_id
p165
I284696857
sVfavorited
p166
I00
sVuser
p167
g29
sVgeo
p168
NsVin_reply_to_user_id_str
p169
g130
sVpossibly_sensitive
p170
I00
sg68
g127
sg76
VMon Jul 13 20:57:51 +0000 2015
p171
sVfilter_level
p172
g122
sVin_reply_to_status_id_str
p173
V620661792914690048
p174
sVplace
p175
(dp176
Vfull_name
p177
VZurich, Switzerland
p178
sg75
Vhttps://api.twitter.com/1.1/geo/id/3acb748d0f1e9265.json
p179
sVcountry
p180
VSchweiz
p181
sVplace_type
p182
Vcity
p183
sVbounding_box
p184
(dp185
Vtype
p186
VPolygon
p187
sg140
(lp188
(lp189
(lp190
F8.448081
aF47.320183
aa(lp191
F8.448081
aF47.434721
aa(lp192
F8.625442
aF47.434721
aa(lp193
F8.625442
aF47.320183
aaassVcountry_code
p194
VCH
p195
sVattributes
p196
(dp197
sg33
V3acb748d0f1e9265
p198
sg66
VZurich
p199
sssS'coordinates'
p200
NsS'timestamp_ms'
p201
g142
sS'entities'
p202
g144
sS'in_reply_to_status_id_str'
p203
g174
sS'in_reply_to_screen_name'
p204
g162
sg90
g163
sS'retweeted'
p205
I00
sS'place'
p206
g0
(ctweepy.models
Place
p207
g2
Ntp208
Rp209
(dp210
S'full_name'
p211
g178
sg109
g179
sS'country'
p212
g181
sS'place_type'
p213
g183
sS'bounding_box'
p214
g0
(ctweepy.models
BoundingBox
p215
g2
Ntp216
Rp217
(dp218
S'type'
p219
g187
sg200
g188
sbsS'country_code'
p220
g195
sS'attributes'
p221
g197
sg24
g198
sg103
g199
sbsS'retweet_count'
p222
I0
sg110
g111
(S'\x07\xdf\x07\r\x1493\x00\x00\x00'
p223
tp224
Rp225
sS'in_reply_to_user_id'
p226
I284696857
sb.