ccopy_reg
_reconstructor
p0
(ctweepy.models
Status
p1
c__builtin__
object
p2
Ntp3
Rp4
(dp5
S'favorited'
p6
I00
sS'contributors'
p7
NsS'truncated'
p8
I00
sS'text'
p9
V@R4zorKat My type of bird watching.\u000aWhen you see it the BIRD disappears. http://t.co/LbRmboGmuv
p10
sS'source_url'
p11
Vhttp://twitter.com
p12
sS'possibly_sensitive'
p13
I00
sS'in_reply_to_status_id'
p14
I621004944057987073
sS'user'
p15
g0
(ctweepy.models
User
p16
g2
Ntp17
Rp18
(dp19
S'follow_request_sent'
p20
NsS'profile_use_background_image'
p21
I00
sS'profile_sidebar_fill_color'
p22
V000000
p23
sS'id'
p24
I2879569993
sS'verified'
p25
I00
sS'profile_image_url_https'
p26
Vhttps://pbs.twimg.com/profile_images/610874208827146241/voSDsKk8_normal.png
p27
sS'_json'
p28
(dp29
Vfollow_request_sent
p30
NsVprofile_use_background_image
p31
I00
sVdefault_profile_image
p32
I00
sVid
p33
I2879569993
sVverified
p34
I00
sVprofile_image_url_https
p35
g27
sVprofile_sidebar_fill_color
p36
g23
sVprofile_text_color
p37
V000000
p38
sVfollowers_count
p39
I251
sVprofile_sidebar_border_color
p40
V000000
p41
sVid_str
p42
V2879569993
p43
sVprofile_background_color
p44
V000000
p45
sVlisted_count
p46
I3
sVprofile_background_image_url_https
p47
Vhttps://abs.twimg.com/images/themes/theme14/bg.gif
p48
sVutc_offset
p49
I-25200
sVstatuses_count
p50
I1377
sVdescription
p51
VNEVER COULD HIDE WHO I AM.  .http://ish.re/JJRT -not me. @PROTONMAIL.COM
p52
sVfriends_count
p53
I285
sVlocation
p54
VRepublic of Mozambique
p55
sVprofile_link_color
p56
VDD2E44
p57
sVprofile_image_url
p58
Vhttp://pbs.twimg.com/profile_images/610874208827146241/voSDsKk8_normal.png
p59
sVfollowing
p60
NsVgeo_enabled
p61
I01
sVprofile_banner_url
p62
Vhttps://pbs.twimg.com/profile_banners/2879569993/1434478513
p63
sVprofile_background_image_url
p64
Vhttp://abs.twimg.com/images/themes/theme14/bg.gif
p65
sVname
p66
VD\u2200MN\u2200L\u308bX 
p67
sVlang
p68
Ven
p69
sVprofile_background_tile
p70
I00
sVfavourites_count
p71
I30
sVscreen_name
p72
VDd0xblack1
p73
sVnotifications
p74
NsVurl
p75
NsVcreated_at
p76
VMon Oct 27 13:04:37 +0000 2014
p77
sVcontributors_enabled
p78
I00
sVtime_zone
p79
VPacific Time (US & Canada)
p80
sVprotected
p81
I00
sVdefault_profile
p82
I00
sVis_translator
p83
I00
ssS'contributors_enabled'
p84
I00
sS'profile_text_color'
p85
g38
sS'followers_count'
p86
I251
sS'profile_sidebar_border_color'
p87
g41
sS'location'
p88
g55
sS'default_profile_image'
p89
I00
sS'id_str'
p90
g43
sS'utc_offset'
p91
I-25200
sS'statuses_count'
p92
I1377
sS'description'
p93
g52
sS'friends_count'
p94
I285
sS'profile_link_color'
p95
g57
sS'profile_image_url'
p96
g59
sS'notifications'
p97
NsS'geo_enabled'
p98
I01
sS'profile_background_color'
p99
g45
sS'profile_banner_url'
p100
g63
sS'profile_background_image_url'
p101
g65
sS'name'
p102
g67
sS'lang'
p103
g69
sS'following'
p104
I00
sS'profile_background_tile'
p105
I00
sS'favourites_count'
p106
I30
sS'screen_name'
p107
g73
sS'url'
p108
NsS'created_at'
p109
cdatetime
datetime
p110
(S'\x07\xde\n\x1b\r\x04%\x00\x00\x00'
p111
tp112
Rp113
sS'profile_background_image_url_https'
p114
g48
sS'time_zone'
p115
g80
sS'protected'
p116
I00
sS'default_profile'
p117
I00
sS'is_translator'
p118
I00
sS'listed_count'
p119
I3
sbsS'filter_level'
p120
Vlow
p121
sS'geo'
p122
Nsg24
I621006114025439232
sS'favorite_count'
p123
I0
sS'source'
p124
VTwitter Web Client
p125
sg103
Ven
p126
sS'author'
p127
g18
sS'in_reply_to_user_id_str'
p128
V809794610
p129
sg28
(dp130
Vcontributors
p131
NsVtruncated
p132
I00
sVtext
p133
V@R4zorKat My type of bird watching.\u000aWhen you see it the BIRD disappears. http://t.co/LbRmboGmuv
p134
sVin_reply_to_status_id
p135
I621004944057987073
sg33
I621006114025439232
sVfavorite_count
p136
I0
sVsource
p137
V<a href="http://twitter.com" rel="nofollow">Twitter Web Client</a>
p138
sVretweeted
p139
I00
sVcoordinates
p140
NsVtimestamp_ms
p141
V1436894369976
p142
sVentities
p143
(dp144
Vsymbols
p145
(lp146
sVmedia
p147
(lp148
(dp149
Vexpanded_url
p150
Vhttp://twitter.com/Dd0xblack1/status/621006114025439232/photo/1
p151
sVdisplay_url
p152
Vpic.twitter.com/LbRmboGmuv
p153
sg75
Vhttp://t.co/LbRmboGmuv
p154
sVmedia_url_https
p155
Vhttps://pbs.twimg.com/media/CJ5BxJhVAAAsgvI.jpg
p156
sg42
V621006111248809984
p157
sVsizes
p158
(dp159
Vlarge
p160
(dp161
Vh
p162
I480
sVresize
p163
Vfit
p164
sVw
p165
I480
ssVsmall
p166
(dp167
g162
I340
sg163
Vfit
p168
sg165
I340
ssVmedium
p169
(dp170
g162
I480
sg163
Vfit
p171
sg165
I480
ssVthumb
p172
(dp173
g162
I150
sg163
Vcrop
p174
sg165
I150
sssVindices
p175
(lp176
I73
aI95
asVtype
p177
Vphoto
p178
sg33
I621006111248809984
sVmedia_url
p179
Vhttp://pbs.twimg.com/media/CJ5BxJhVAAAsgvI.jpg
p180
sasVhashtags
p181
(lp182
sVuser_mentions
p183
(lp184
(dp185
g33
I809794610
sg175
(lp186
I0
aI9
asg42
V809794610
p187
sg72
VR4zorKat
p188
sg66
V\u26a1DANIEL DENISOV\u26a1
p189
sasVtrends
p190
(lp191
sVurls
p192
(lp193
ssVin_reply_to_screen_name
p194
VR4zorKat
p195
sg42
V621006114025439232
p196
sVretweet_count
p197
I0
sVin_reply_to_user_id
p198
I809794610
sVfavorited
p199
I00
sVuser
p200
g29
sVgeo
p201
NsVin_reply_to_user_id_str
p202
g129
sVpossibly_sensitive
p203
I00
sg68
g126
sg76
VTue Jul 14 17:19:29 +0000 2015
p204
sVfilter_level
p205
g121
sVin_reply_to_status_id_str
p206
V621004944057987073
p207
sVplace
p208
(dp209
Vfull_name
p210
VBerne, Switzerland
p211
sg75
Vhttps://api.twitter.com/1.1/geo/id/5868d0e0749c9c47.json
p212
sVcountry
p213
VSchweiz
p214
sVplace_type
p215
Vadmin
p216
sVbounding_box
p217
(dp218
g177
VPolygon
p219
sg140
(lp220
(lp221
(lp222
F6.861601
aF46.326441
aa(lp223
F6.861601
aF47.34528
aa(lp224
F8.455051
aF47.34528
aa(lp225
F8.455051
aF46.326441
aaassVcountry_code
p226
VCH
p227
sVattributes
p228
(dp229
sg33
V5868d0e0749c9c47
p230
sg66
VBern
p231
ssVextended_entities
p232
(dp233
g147
(lp234
(dp235
g150
Vhttp://twitter.com/Dd0xblack1/status/621006114025439232/photo/1
p236
sg152
Vpic.twitter.com/LbRmboGmuv
p237
sg75
Vhttp://t.co/LbRmboGmuv
p238
sg155
Vhttps://pbs.twimg.com/media/CJ5BxJhVAAAsgvI.jpg
p239
sg42
V621006111248809984
p240
sg158
(dp241
g160
(dp242
g162
I480
sg163
Vfit
p243
sg165
I480
ssg166
(dp244
g162
I340
sg163
Vfit
p245
sg165
I340
ssg169
(dp246
g162
I480
sg163
Vfit
p247
sg165
I480
ssg172
(dp248
g162
I150
sg163
Vcrop
p249
sg165
I150
sssg175
(lp250
I73
aI95
asg177
Vphoto
p251
sg33
I621006111248809984
sg179
Vhttp://pbs.twimg.com/media/CJ5BxJhVAAAsgvI.jpg
p252
sasssS'coordinates'
p253
NsS'timestamp_ms'
p254
g142
sS'entities'
p255
g144
sS'in_reply_to_status_id_str'
p256
g207
sS'in_reply_to_screen_name'
p257
g195
sg90
g196
sS'extended_entities'
p258
g233
sS'retweeted'
p259
I00
sS'place'
p260
g0
(ctweepy.models
Place
p261
g2
Ntp262
Rp263
(dp264
S'full_name'
p265
g211
sg108
g212
sS'country'
p266
g214
sS'place_type'
p267
g216
sS'bounding_box'
p268
g0
(ctweepy.models
BoundingBox
p269
g2
Ntp270
Rp271
(dp272
S'type'
p273
g219
sg253
g220
sbsS'country_code'
p274
g227
sS'attributes'
p275
g229
sg24
g230
sg102
g231
sbsS'retweet_count'
p276
I0
sg109
g110
(S'\x07\xdf\x07\x0e\x11\x13\x1d\x00\x00\x00'
p277
tp278
Rp279
sS'in_reply_to_user_id'
p280
I809794610
sb.