ccopy_reg
_reconstructor
p0
(ctweepy.models
Status
p1
c__builtin__
object
p2
Ntp3
Rp4
(dp5
S'favorited'
p6
I00
sS'contributors'
p7
NsS'truncated'
p8
I00
sS'text'
p9
VHey @barbaraschwede ! You've got a mail ;-)
p10
sS'source_url'
p11
Vhttp://twitter.com/download/iphone
p12
sS'possibly_sensitive'
p13
I00
sS'in_reply_to_status_id'
p14
NsS'user'
p15
g0
(ctweepy.models
User
p16
g2
Ntp17
Rp18
(dp19
S'follow_request_sent'
p20
NsS'profile_use_background_image'
p21
I01
sS'profile_sidebar_fill_color'
p22
V99CC33
p23
sS'id'
p24
I34911952
sS'verified'
p25
I00
sS'profile_image_url_https'
p26
Vhttps://pbs.twimg.com/profile_images/611780218026655744/uGQ-Z0xc_normal.jpg
p27
sS'_json'
p28
(dp29
Vfollow_request_sent
p30
NsVprofile_use_background_image
p31
I01
sVdefault_profile_image
p32
I00
sVid
p33
I34911952
sVverified
p34
I00
sVprofile_image_url_https
p35
g27
sVprofile_sidebar_fill_color
p36
g23
sVprofile_text_color
p37
V3E4415
p38
sVfollowers_count
p39
I1420
sVprofile_sidebar_border_color
p40
VFFFFFF
p41
sVid_str
p42
V34911952
p43
sVprofile_background_color
p44
V352726
p45
sVlisted_count
p46
I195
sVprofile_background_image_url_https
p47
Vhttps://pbs.twimg.com/profile_background_images/372555934/IMGP0003.jpeg
p48
sVutc_offset
p49
I7200
sVstatuses_count
p50
I8343
sVdescription
p51
VProgram Director @FintechFusion Founder & CEO @coteri_es Blogger @startupolic Advisor @ICTInvestorClub and @TechBridgech Passionate + Energizer
p52
sVfriends_count
p53
I63
sVlocation
p54
VSwitzerland
p55
sVprofile_link_color
p56
V1D9D25
p57
sVprofile_image_url
p58
Vhttp://pbs.twimg.com/profile_images/611780218026655744/uGQ-Z0xc_normal.jpg
p59
sVfollowing
p60
NsVgeo_enabled
p61
I01
sVprofile_banner_url
p62
Vhttps://pbs.twimg.com/profile_banners/34911952/1389612180
p63
sVprofile_background_image_url
p64
Vhttp://pbs.twimg.com/profile_background_images/372555934/IMGP0003.jpeg
p65
sVname
p66
VSebastien Flury
p67
sVlang
p68
Ven
p69
sVprofile_background_tile
p70
I00
sVfavourites_count
p71
I568
sVscreen_name
p72
VSebastienFlury
p73
sVnotifications
p74
NsVurl
p75
Vhttp://www.startupolic.com
p76
sVcreated_at
p77
VFri Apr 24 12:27:59 +0000 2009
p78
sVcontributors_enabled
p79
I00
sVtime_zone
p80
VBern
p81
sVprotected
p82
I00
sVdefault_profile
p83
I00
sVis_translator
p84
I00
ssS'contributors_enabled'
p85
I00
sS'profile_text_color'
p86
g38
sS'followers_count'
p87
I1420
sS'profile_sidebar_border_color'
p88
g41
sS'location'
p89
g55
sS'default_profile_image'
p90
I00
sS'id_str'
p91
g43
sS'utc_offset'
p92
I7200
sS'statuses_count'
p93
I8343
sS'description'
p94
g52
sS'friends_count'
p95
I63
sS'profile_link_color'
p96
g57
sS'profile_image_url'
p97
g59
sS'notifications'
p98
NsS'geo_enabled'
p99
I01
sS'profile_background_color'
p100
g45
sS'profile_banner_url'
p101
g63
sS'profile_background_image_url'
p102
g65
sS'name'
p103
g67
sS'lang'
p104
g69
sS'following'
p105
I00
sS'profile_background_tile'
p106
I00
sS'favourites_count'
p107
I568
sS'screen_name'
p108
g73
sS'url'
p109
g76
sS'created_at'
p110
cdatetime
datetime
p111
(S'\x07\xd9\x04\x18\x0c\x1b;\x00\x00\x00'
p112
tp113
Rp114
sS'profile_background_image_url_https'
p115
g48
sS'time_zone'
p116
g81
sS'protected'
p117
I00
sS'default_profile'
p118
I00
sS'is_translator'
p119
I00
sS'listed_count'
p120
I195
sbsS'filter_level'
p121
Vlow
p122
sS'geo'
p123
(dp124
Vtype
p125
VPoint
p126
sVcoordinates
p127
(lp128
F47.365602
aF8.530174
assg24
I618463549057302528
sS'favorite_count'
p129
I0
sS'source'
p130
VTwitter for iPhone
p131
sg104
Ven
p132
sS'author'
p133
g18
sS'in_reply_to_user_id_str'
p134
Nsg28
(dp135
Vcontributors
p136
NsVtruncated
p137
I00
sVtext
p138
g10
sVin_reply_to_status_id
p139
Nsg33
I618463549057302528
sVfavorite_count
p140
I0
sVsource
p141
V<a href="http://twitter.com/download/iphone" rel="nofollow">Twitter for iPhone</a>
p142
sVretweeted
p143
I00
sg127
(dp144
g125
VPoint
p145
sg127
(lp146
F8.530174
aF47.365602
assVtimestamp_ms
p147
V1436288175249
p148
sVentities
p149
(dp150
Vuser_mentions
p151
(lp152
(dp153
g33
I96733851
sVindices
p154
(lp155
I4
aI19
asg42
V96733851
p156
sg72
Vbarbaraschwede
p157
sg66
VBarbara Schwede
p158
sasVsymbols
p159
(lp160
sVtrends
p161
(lp162
sVhashtags
p163
(lp164
sVurls
p165
(lp166
ssVin_reply_to_screen_name
p167
Nsg42
V618463549057302528
p168
sVretweet_count
p169
I0
sVin_reply_to_user_id
p170
NsVfavorited
p171
I00
sVuser
p172
g29
sVgeo
p173
g124
sVin_reply_to_user_id_str
p174
NsVpossibly_sensitive
p175
I00
sg68
g132
sg77
VTue Jul 07 16:56:15 +0000 2015
p176
sVfilter_level
p177
g122
sVin_reply_to_status_id_str
p178
NsVplace
p179
(dp180
Vfull_name
p181
VZurich, Switzerland
p182
sg75
Vhttps://api.twitter.com/1.1/geo/id/3acb748d0f1e9265.json
p183
sVcountry
p184
VSchweiz
p185
sVplace_type
p186
Vcity
p187
sVbounding_box
p188
(dp189
g125
VPolygon
p190
sg127
(lp191
(lp192
(lp193
F8.448081
aF47.320183
aa(lp194
F8.448081
aF47.434721
aa(lp195
F8.625442
aF47.434721
aa(lp196
F8.625442
aF47.320183
aaassVcountry_code
p197
VCH
p198
sVattributes
p199
(dp200
sg33
V3acb748d0f1e9265
p201
sg66
VZurich
p202
sssS'coordinates'
p203
g144
sS'timestamp_ms'
p204
g148
sS'entities'
p205
g150
sS'in_reply_to_status_id_str'
p206
NsS'in_reply_to_screen_name'
p207
Nsg91
g168
sS'retweeted'
p208
I00
sS'place'
p209
g0
(ctweepy.models
Place
p210
g2
Ntp211
Rp212
(dp213
S'full_name'
p214
g182
sg109
g183
sS'country'
p215
g185
sS'place_type'
p216
g187
sS'bounding_box'
p217
g0
(ctweepy.models
BoundingBox
p218
g2
Ntp219
Rp220
(dp221
S'type'
p222
g190
sg203
g191
sbsS'country_code'
p223
g198
sS'attributes'
p224
g200
sg24
g201
sg103
g202
sbsS'retweet_count'
p225
I0
sg110
g111
(S'\x07\xdf\x07\x07\x108\x0f\x00\x00\x00'
p226
tp227
Rp228
sS'in_reply_to_user_id'
p229
Nsb.