ccopy_reg
_reconstructor
p0
(ctweepy.models
Status
p1
c__builtin__
object
p2
Ntp3
Rp4
(dp5
S'favorited'
p6
I00
sS'contributors'
p7
NsS'truncated'
p8
I00
sS'text'
p9
VDriving from Zurich to Erdingen and Back in one day. #erdinger #weissbier #zurich http://t.co/1SqmEqxiWQ
p10
sS'source_url'
p11
Vhttp://twitter.com
p12
sS'possibly_sensitive'
p13
I00
sS'in_reply_to_status_id'
p14
NsS'user'
p15
g0
(ctweepy.models
User
p16
g2
Ntp17
Rp18
(dp19
S'follow_request_sent'
p20
NsS'profile_use_background_image'
p21
I01
sS'profile_sidebar_fill_color'
p22
VFFFFFF
p23
sS'id'
p24
I78114555
sS'verified'
p25
I00
sS'profile_image_url_https'
p26
Vhttps://pbs.twimg.com/profile_images/797442040/portrait_normal.png
p27
sS'_json'
p28
(dp29
Vfollow_request_sent
p30
NsVprofile_use_background_image
p31
I01
sVdefault_profile_image
p32
I00
sVid
p33
I78114555
sVverified
p34
I00
sVprofile_image_url_https
p35
g27
sVprofile_sidebar_fill_color
p36
g23
sVprofile_text_color
p37
V333333
p38
sVfollowers_count
p39
I246
sVprofile_sidebar_border_color
p40
VEEEEEE
p41
sVid_str
p42
V78114555
p43
sVprofile_background_color
p44
VB2DFDA
p45
sVlisted_count
p46
I19
sVprofile_background_image_url_https
p47
Vhttps://abs.twimg.com/images/themes/theme13/bg.gif
p48
sVutc_offset
p49
I7200
sVstatuses_count
p50
I1405
sVdescription
p51
VSplunk Artisan. Because Splunking is an art.
p52
sVfriends_count
p53
I260
sVlocation
p54
V
p55
sVprofile_link_color
p56
V93A644
p57
sVprofile_image_url
p58
Vhttp://pbs.twimg.com/profile_images/797442040/portrait_normal.png
p59
sVfollowing
p60
NsVgeo_enabled
p61
I01
sVprofile_background_image_url
p62
Vhttp://abs.twimg.com/images/themes/theme13/bg.gif
p63
sVname
p64
VMika Borner
p65
sVlang
p66
Ven
p67
sVprofile_background_tile
p68
I00
sVfavourites_count
p69
I171
sVscreen_name
p70
Vmy2ndhead
p71
sVnotifications
p72
NsVurl
p73
Vhttp://my2ndhead.blogspot.com/
p74
sVcreated_at
p75
VMon Sep 28 20:32:33 +0000 2009
p76
sVcontributors_enabled
p77
I00
sVtime_zone
p78
VBern
p79
sVprotected
p80
I00
sVdefault_profile
p81
I00
sVis_translator
p82
I00
ssS'contributors_enabled'
p83
I00
sS'profile_text_color'
p84
g38
sS'followers_count'
p85
I246
sS'profile_sidebar_border_color'
p86
g41
sS'location'
p87
g55
sS'default_profile_image'
p88
I00
sS'id_str'
p89
g43
sS'utc_offset'
p90
I7200
sS'statuses_count'
p91
I1405
sS'description'
p92
g52
sS'friends_count'
p93
I260
sS'profile_link_color'
p94
g57
sS'profile_image_url'
p95
g59
sS'notifications'
p96
NsS'geo_enabled'
p97
I01
sS'profile_background_color'
p98
g45
sS'profile_background_image_url'
p99
g63
sS'name'
p100
g65
sS'lang'
p101
g67
sS'following'
p102
I00
sS'profile_background_tile'
p103
I00
sS'favourites_count'
p104
I171
sS'screen_name'
p105
g71
sS'url'
p106
g74
sS'created_at'
p107
cdatetime
datetime
p108
(S'\x07\xd9\t\x1c\x14 !\x00\x00\x00'
p109
tp110
Rp111
sS'profile_background_image_url_https'
p112
g48
sS'time_zone'
p113
g79
sS'protected'
p114
I00
sS'default_profile'
p115
I00
sS'is_translator'
p116
I00
sS'listed_count'
p117
I19
sbsS'filter_level'
p118
Vlow
p119
sS'geo'
p120
Nsg24
I619488063090204673
sS'favorite_count'
p121
I0
sS'source'
p122
VTwitter Web Client
p123
sg101
Ven
p124
sS'author'
p125
g18
sS'in_reply_to_user_id_str'
p126
Nsg28
(dp127
Vcontributors
p128
NsVtruncated
p129
I00
sVtext
p130
g10
sVin_reply_to_status_id
p131
Nsg33
I619488063090204673
sVfavorite_count
p132
I0
sVsource
p133
V<a href="http://twitter.com" rel="nofollow">Twitter Web Client</a>
p134
sVretweeted
p135
I00
sVcoordinates
p136
NsVtimestamp_ms
p137
V1436532438429
p138
sVentities
p139
(dp140
Vsymbols
p141
(lp142
sVmedia
p143
(lp144
(dp145
Vexpanded_url
p146
Vhttp://twitter.com/my2ndhead/status/619488063090204673/photo/1
p147
sVdisplay_url
p148
Vpic.twitter.com/1SqmEqxiWQ
p149
sg73
Vhttp://t.co/1SqmEqxiWQ
p150
sVmedia_url_https
p151
Vhttps://pbs.twimg.com/media/CJjdD6YUEAApH35.jpg
p152
sg42
V619488008044023808
p153
sVsizes
p154
(dp155
Vsmall
p156
(dp157
Vh
p158
I425
sVresize
p159
Vfit
p160
sVw
p161
I340
ssVlarge
p162
(dp163
g158
I538
sg159
Vfit
p164
sg161
I430
ssVmedium
p165
(dp166
g158
I538
sg159
Vfit
p167
sg161
I430
ssVthumb
p168
(dp169
g158
I150
sg159
Vcrop
p170
sg161
I150
sssVindices
p171
(lp172
I82
aI104
asVtype
p173
Vphoto
p174
sg33
I619488008044023808
sVmedia_url
p175
Vhttp://pbs.twimg.com/media/CJjdD6YUEAApH35.jpg
p176
sasVhashtags
p177
(lp178
(dp179
g171
(lp180
I53
aI62
asg130
Verdinger
p181
sa(dp182
g171
(lp183
I63
aI73
asg130
Vweissbier
p184
sa(dp185
g171
(lp186
I74
aI81
asg130
Vzurich
p187
sasVuser_mentions
p188
(lp189
sVtrends
p190
(lp191
sVurls
p192
(lp193
ssVin_reply_to_screen_name
p194
Nsg42
V619488063090204673
p195
sVretweet_count
p196
I0
sVin_reply_to_user_id
p197
NsVfavorited
p198
I00
sVuser
p199
g29
sVgeo
p200
NsVin_reply_to_user_id_str
p201
NsVpossibly_sensitive
p202
I00
sg66
g124
sg75
VFri Jul 10 12:47:18 +0000 2015
p203
sVfilter_level
p204
g119
sVin_reply_to_status_id_str
p205
NsVplace
p206
(dp207
Vfull_name
p208
VZurich, Switzerland
p209
sg73
Vhttps://api.twitter.com/1.1/geo/id/3acb748d0f1e9265.json
p210
sVcountry
p211
VSchweiz
p212
sVplace_type
p213
Vcity
p214
sVbounding_box
p215
(dp216
g173
VPolygon
p217
sg136
(lp218
(lp219
(lp220
F8.448081
aF47.320183
aa(lp221
F8.448081
aF47.434721
aa(lp222
F8.625442
aF47.434721
aa(lp223
F8.625442
aF47.320183
aaassVcountry_code
p224
VCH
p225
sVattributes
p226
(dp227
sg33
V3acb748d0f1e9265
p228
sg64
VZurich
p229
ssVextended_entities
p230
(dp231
g143
(lp232
(dp233
g146
Vhttp://twitter.com/my2ndhead/status/619488063090204673/photo/1
p234
sg148
Vpic.twitter.com/1SqmEqxiWQ
p235
sg73
Vhttp://t.co/1SqmEqxiWQ
p236
sg151
Vhttps://pbs.twimg.com/media/CJjdD6YUEAApH35.jpg
p237
sg42
V619488008044023808
p238
sg154
(dp239
g156
(dp240
g158
I425
sg159
Vfit
p241
sg161
I340
ssg162
(dp242
g158
I538
sg159
Vfit
p243
sg161
I430
ssg165
(dp244
g158
I538
sg159
Vfit
p245
sg161
I430
ssg168
(dp246
g158
I150
sg159
Vcrop
p247
sg161
I150
sssg171
(lp248
I82
aI104
asg173
Vphoto
p249
sg33
I619488008044023808
sg175
Vhttp://pbs.twimg.com/media/CJjdD6YUEAApH35.jpg
p250
sa(dp251
g146
Vhttp://twitter.com/my2ndhead/status/619488063090204673/photo/1
p252
sg148
Vpic.twitter.com/1SqmEqxiWQ
p253
sg73
Vhttp://t.co/1SqmEqxiWQ
p254
sg151
Vhttps://pbs.twimg.com/media/CJjdHCOVEAE5oE3.jpg
p255
sg42
V619488061689237505
p256
sg154
(dp257
g156
(dp258
g158
I191
sg159
Vfit
p259
sg161
I340
ssg162
(dp260
g158
I576
sg159
Vfit
p261
sg161
I1024
ssg165
(dp262
g158
I337
sg159
Vfit
p263
sg161
I600
ssg168
(dp264
g158
I150
sg159
Vcrop
p265
sg161
I150
sssg171
(lp266
I82
aI104
asg173
Vphoto
p267
sg33
I619488061689237505
sg175
Vhttp://pbs.twimg.com/media/CJjdHCOVEAE5oE3.jpg
p268
sasssS'coordinates'
p269
NsS'timestamp_ms'
p270
g138
sS'entities'
p271
g140
sS'in_reply_to_status_id_str'
p272
NsS'in_reply_to_screen_name'
p273
Nsg89
g195
sS'extended_entities'
p274
g231
sS'retweeted'
p275
I00
sS'place'
p276
g0
(ctweepy.models
Place
p277
g2
Ntp278
Rp279
(dp280
S'full_name'
p281
g209
sg106
g210
sS'country'
p282
g212
sS'place_type'
p283
g214
sS'bounding_box'
p284
g0
(ctweepy.models
BoundingBox
p285
g2
Ntp286
Rp287
(dp288
S'type'
p289
g217
sg269
g218
sbsS'country_code'
p290
g225
sS'attributes'
p291
g227
sg24
g228
sg100
g229
sbsS'retweet_count'
p292
I0
sg107
g108
(S'\x07\xdf\x07\n\x0c/\x12\x00\x00\x00'
p293
tp294
Rp295
sS'in_reply_to_user_id'
p296
Nsb.