ccopy_reg
_reconstructor
p0
(ctweepy.models
Status
p1
c__builtin__
object
p2
Ntp3
Rp4
(dp5
S'favorited'
p6
I00
sS'contributors'
p7
NsS'truncated'
p8
I00
sS'text'
p9
VSeriously sweaty show @LuccaSummerFest last night with @PaoloNutini. Pizza does not rehydrate.
p10
sS'source_url'
p11
Vhttp://twitter.com
p12
sS'possibly_sensitive'
p13
I00
sS'in_reply_to_status_id'
p14
NsS'user'
p15
g0
(ctweepy.models
User
p16
g2
Ntp17
Rp18
(dp19
S'follow_request_sent'
p20
NsS'profile_use_background_image'
p21
I00
sS'profile_sidebar_fill_color'
p22
VDDEEF6
p23
sS'id'
p24
I245116251
sS'verified'
p25
I00
sS'profile_image_url_https'
p26
Vhttps://pbs.twimg.com/profile_images/560279255565627393/Xej-31Y5_normal.jpeg
p27
sS'_json'
p28
(dp29
Vfollow_request_sent
p30
NsVprofile_use_background_image
p31
I00
sVdefault_profile_image
p32
I00
sVid
p33
I245116251
sVverified
p34
I00
sVprofile_image_url_https
p35
g27
sVprofile_sidebar_fill_color
p36
g23
sVprofile_text_color
p37
V333333
p38
sVfollowers_count
p39
I2055
sVprofile_sidebar_border_color
p40
VC0DEED
p41
sVid_str
p42
V245116251
p43
sVprofile_background_color
p44
V111314
p45
sVlisted_count
p46
I37
sVprofile_background_image_url_https
p47
Vhttps://pbs.twimg.com/profile_background_images/199470970/IMG_6967_2.jpg
p48
sVutc_offset
p49
NsVstatuses_count
p50
I2642
sVdescription
p51
VMusician (drums/vocals)... with Jamie Cullum,Paolo Nutini,Tim Minchin,Amy Winehouse,Blue Man Group,Mika,Professor Green.......... and my thing @ArchBirds
p52
sVfriends_count
p53
I169
sVlocation
p54
VLondon, U.K.
p55
sVprofile_link_color
p56
V0084B4
p57
sVprofile_image_url
p58
Vhttp://pbs.twimg.com/profile_images/560279255565627393/Xej-31Y5_normal.jpeg
p59
sVfollowing
p60
NsVgeo_enabled
p61
I01
sVprofile_banner_url
p62
Vhttps://pbs.twimg.com/profile_banners/245116251/1379524718
p63
sVprofile_background_image_url
p64
Vhttp://pbs.twimg.com/profile_background_images/199470970/IMG_6967_2.jpg
p65
sVname
p66
VBrad Webb
p67
sVlang
p68
Ven
p69
sVprofile_background_tile
p70
I01
sVfavourites_count
p71
I11
sVscreen_name
p72
Vbradwebbmusic
p73
sVnotifications
p74
NsVurl
p75
NsVcreated_at
p76
VSun Jan 30 22:46:14 +0000 2011
p77
sVcontributors_enabled
p78
I00
sVtime_zone
p79
NsVprotected
p80
I00
sVdefault_profile
p81
I00
sVis_translator
p82
I00
ssS'contributors_enabled'
p83
I00
sS'profile_text_color'
p84
g38
sS'followers_count'
p85
I2055
sS'profile_sidebar_border_color'
p86
g41
sS'location'
p87
g55
sS'default_profile_image'
p88
I00
sS'id_str'
p89
g43
sS'utc_offset'
p90
NsS'statuses_count'
p91
I2642
sS'description'
p92
g52
sS'friends_count'
p93
I169
sS'profile_link_color'
p94
g57
sS'profile_image_url'
p95
g59
sS'notifications'
p96
NsS'geo_enabled'
p97
I01
sS'profile_background_color'
p98
g45
sS'profile_banner_url'
p99
g63
sS'profile_background_image_url'
p100
g65
sS'name'
p101
g67
sS'lang'
p102
g69
sS'following'
p103
I00
sS'profile_background_tile'
p104
I01
sS'favourites_count'
p105
I11
sS'screen_name'
p106
g73
sS'url'
p107
NsS'created_at'
p108
cdatetime
datetime
p109
(S'\x07\xdb\x01\x1e\x16.\x0e\x00\x00\x00'
p110
tp111
Rp112
sS'profile_background_image_url_https'
p113
g48
sS'time_zone'
p114
NsS'protected'
p115
I00
sS'default_profile'
p116
I00
sS'is_translator'
p117
I00
sS'listed_count'
p118
I37
sbsS'filter_level'
p119
Vlow
p120
sS'geo'
p121
Nsg24
I619093804482719744
sS'favorite_count'
p122
I0
sS'source'
p123
VTwitter Web Client
p124
sg102
Ven
p125
sS'author'
p126
g18
sS'in_reply_to_user_id_str'
p127
Nsg28
(dp128
Vcontributors
p129
NsVtruncated
p130
I00
sVtext
p131
g10
sVin_reply_to_status_id
p132
Nsg33
I619093804482719744
sVfavorite_count
p133
I0
sVsource
p134
V<a href="http://twitter.com" rel="nofollow">Twitter Web Client</a>
p135
sVretweeted
p136
I00
sVcoordinates
p137
NsVtimestamp_ms
p138
V1436438439852
p139
sVentities
p140
(dp141
Vuser_mentions
p142
(lp143
(dp144
g33
I569970202
sVindices
p145
(lp146
I22
aI38
asg42
V569970202
p147
sg72
VLuccaSummerFest
p148
sg66
VLuccaSummerFestival
p149
sa(dp150
g33
I18937428
sg145
(lp151
I55
aI67
asg42
V18937428
p152
sg72
VPaoloNutini
p153
sg66
VPaolo Nutini
p154
sasVsymbols
p155
(lp156
sVtrends
p157
(lp158
sVhashtags
p159
(lp160
sVurls
p161
(lp162
ssVin_reply_to_screen_name
p163
Nsg42
V619093804482719744
p164
sVretweet_count
p165
I0
sVin_reply_to_user_id
p166
NsVfavorited
p167
I00
sVuser
p168
g29
sVgeo
p169
NsVin_reply_to_user_id_str
p170
NsVpossibly_sensitive
p171
I00
sg68
g125
sg76
VThu Jul 09 10:40:39 +0000 2015
p172
sVfilter_level
p173
g120
sVin_reply_to_status_id_str
p174
NsVplace
p175
(dp176
Vfull_name
p177
VZurich, Switzerland
p178
sg75
Vhttps://api.twitter.com/1.1/geo/id/3acb748d0f1e9265.json
p179
sVcountry
p180
VSchweiz
p181
sVplace_type
p182
Vcity
p183
sVbounding_box
p184
(dp185
Vtype
p186
VPolygon
p187
sg137
(lp188
(lp189
(lp190
F8.448081
aF47.320183
aa(lp191
F8.448081
aF47.434721
aa(lp192
F8.625442
aF47.434721
aa(lp193
F8.625442
aF47.320183
aaassVcountry_code
p194
VCH
p195
sVattributes
p196
(dp197
sg33
V3acb748d0f1e9265
p198
sg66
VZurich
p199
sssS'coordinates'
p200
NsS'timestamp_ms'
p201
g139
sS'entities'
p202
g141
sS'in_reply_to_status_id_str'
p203
NsS'in_reply_to_screen_name'
p204
Nsg89
g164
sS'retweeted'
p205
I00
sS'place'
p206
g0
(ctweepy.models
Place
p207
g2
Ntp208
Rp209
(dp210
S'full_name'
p211
g178
sg107
g179
sS'country'
p212
g181
sS'place_type'
p213
g183
sS'bounding_box'
p214
g0
(ctweepy.models
BoundingBox
p215
g2
Ntp216
Rp217
(dp218
S'type'
p219
g187
sg200
g188
sbsS'country_code'
p220
g195
sS'attributes'
p221
g197
sg24
g198
sg101
g199
sbsS'retweet_count'
p222
I0
sg108
g109
(S"\x07\xdf\x07\t\n('\x00\x00\x00"
p223
tp224
Rp225
sS'in_reply_to_user_id'
p226
Nsb.