ccopy_reg
_reconstructor
p0
(ctweepy.models
Status
p1
c__builtin__
object
p2
Ntp3
Rp4
(dp5
S'favorited'
p6
I00
sS'contributors'
p7
NsS'truncated'
p8
I00
sS'text'
p9
VWe make your #DreamHouse come true! STUDIOFORMA's outstanding panorama villa published on AIT http://t.co/BnlyDnAdjN http://t.co/WF0e7rif5U
p10
sS'source_url'
p11
Vhttp://twitter.com
p12
sS'possibly_sensitive'
p13
I00
sS'in_reply_to_status_id'
p14
NsS'user'
p15
g0
(ctweepy.models
User
p16
g2
Ntp17
Rp18
(dp19
S'follow_request_sent'
p20
NsS'profile_use_background_image'
p21
I00
sS'profile_sidebar_fill_color'
p22
VEFEFEF
p23
sS'id'
p24
I1472111922
sS'verified'
p25
I00
sS'profile_image_url_https'
p26
Vhttps://pbs.twimg.com/profile_images/554668878710579201/HL-XSfjP_normal.jpeg
p27
sS'_json'
p28
(dp29
Vfollow_request_sent
p30
NsVprofile_use_background_image
p31
I00
sVdefault_profile_image
p32
I00
sVid
p33
I1472111922
sVverified
p34
I00
sVprofile_image_url_https
p35
g27
sVprofile_sidebar_fill_color
p36
g23
sVprofile_text_color
p37
V333333
p38
sVfollowers_count
p39
I147
sVprofile_sidebar_border_color
p40
VFFFFFF
p41
sVid_str
p42
V1472111922
p43
sVprofile_background_color
p44
V000000
p45
sVlisted_count
p46
I15
sVprofile_background_image_url_https
p47
Vhttps://abs.twimg.com/images/themes/theme14/bg.gif
p48
sVutc_offset
p49
I7200
sVstatuses_count
p50
I815
sVdescription
p51
VSTUDIOFORMA ARCHITECTS is a premium architecture & interior design company with representative offices in Zurich, Paris and Hamburg.
p52
sVfriends_count
p53
I448
sVlocation
p54
VZurich, Switzerland
p55
sVprofile_link_color
p56
V000000
p57
sVprofile_image_url
p58
Vhttp://pbs.twimg.com/profile_images/554668878710579201/HL-XSfjP_normal.jpeg
p59
sVfollowing
p60
NsVgeo_enabled
p61
I01
sVprofile_banner_url
p62
Vhttps://pbs.twimg.com/profile_banners/1472111922/1415108929
p63
sVprofile_background_image_url
p64
Vhttp://abs.twimg.com/images/themes/theme14/bg.gif
p65
sVname
p66
VSTUDIOFORMA
p67
sVlang
p68
Ven
p69
sVprofile_background_tile
p70
I01
sVfavourites_count
p71
I203
sVscreen_name
p72
Vstudioforma_arc
p73
sVnotifications
p74
NsVurl
p75
Vhttp://www.studioforma.ch
p76
sVcreated_at
p77
VFri May 31 13:16:17 +0000 2013
p78
sVcontributors_enabled
p79
I00
sVtime_zone
p80
VBern
p81
sVprotected
p82
I00
sVdefault_profile
p83
I00
sVis_translator
p84
I00
ssS'contributors_enabled'
p85
I00
sS'profile_text_color'
p86
g38
sS'followers_count'
p87
I147
sS'profile_sidebar_border_color'
p88
g41
sS'location'
p89
g55
sS'default_profile_image'
p90
I00
sS'id_str'
p91
g43
sS'utc_offset'
p92
I7200
sS'statuses_count'
p93
I815
sS'description'
p94
g52
sS'friends_count'
p95
I448
sS'profile_link_color'
p96
g57
sS'profile_image_url'
p97
g59
sS'notifications'
p98
NsS'geo_enabled'
p99
I01
sS'profile_background_color'
p100
g45
sS'profile_banner_url'
p101
g63
sS'profile_background_image_url'
p102
g65
sS'name'
p103
g67
sS'lang'
p104
g69
sS'following'
p105
I00
sS'profile_background_tile'
p106
I01
sS'favourites_count'
p107
I203
sS'screen_name'
p108
g73
sS'url'
p109
g76
sS'created_at'
p110
cdatetime
datetime
p111
(S'\x07\xdd\x05\x1f\r\x10\x11\x00\x00\x00'
p112
tp113
Rp114
sS'profile_background_image_url_https'
p115
g48
sS'time_zone'
p116
g81
sS'protected'
p117
I00
sS'default_profile'
p118
I00
sS'is_translator'
p119
I00
sS'listed_count'
p120
I15
sbsS'filter_level'
p121
Vlow
p122
sS'geo'
p123
Nsg24
I618714533926993920
sS'favorite_count'
p124
I0
sS'source'
p125
VTwitter Web Client
p126
sg104
Ven
p127
sS'author'
p128
g18
sS'in_reply_to_user_id_str'
p129
Nsg28
(dp130
Vcontributors
p131
NsVtruncated
p132
I00
sVtext
p133
g10
sVin_reply_to_status_id
p134
Nsg33
I618714533926993920
sVfavorite_count
p135
I0
sVsource
p136
V<a href="http://twitter.com" rel="nofollow">Twitter Web Client</a>
p137
sVretweeted
p138
I00
sVcoordinates
p139
NsVtimestamp_ms
p140
V1436348014705
p141
sVentities
p142
(dp143
Vsymbols
p144
(lp145
sVmedia
p146
(lp147
(dp148
Vexpanded_url
p149
Vhttp://twitter.com/studioforma_arc/status/618714533926993920/photo/1
p150
sVdisplay_url
p151
Vpic.twitter.com/WF0e7rif5U
p152
sg75
Vhttp://t.co/WF0e7rif5U
p153
sVmedia_url_https
p154
Vhttps://pbs.twimg.com/media/CJYdipdWoAAg8BV.jpg
p155
sg42
V618714479891750912
p156
sVsizes
p157
(dp158
Vsmall
p159
(dp160
Vh
p161
I255
sVresize
p162
Vfit
p163
sVw
p164
I340
ssVlarge
p165
(dp166
g161
I591
sg162
Vfit
p167
sg164
I787
ssVmedium
p168
(dp169
g161
I450
sg162
Vfit
p170
sg164
I600
ssVthumb
p171
(dp172
g161
I150
sg162
Vcrop
p173
sg164
I150
sssVindices
p174
(lp175
I117
aI139
asVtype
p176
Vphoto
p177
sg33
I618714479891750912
sVmedia_url
p178
Vhttp://pbs.twimg.com/media/CJYdipdWoAAg8BV.jpg
p179
sasVhashtags
p180
(lp181
(dp182
g174
(lp183
I13
aI24
asg133
VDreamHouse
p184
sasVuser_mentions
p185
(lp186
sVtrends
p187
(lp188
sVurls
p189
(lp190
(dp191
g75
Vhttp://t.co/BnlyDnAdjN
p192
sg174
(lp193
I94
aI116
asg149
Vhttp://www.ait-online.de/newsletter/archiv/2015/nl-24/2015-kw-26-04/
p194
sg151
Vait-online.de/newsletter/arc\u2026
p195
sassVin_reply_to_screen_name
p196
Nsg42
V618714533926993920
p197
sVretweet_count
p198
I0
sVin_reply_to_user_id
p199
NsVfavorited
p200
I00
sVuser
p201
g29
sVgeo
p202
NsVin_reply_to_user_id_str
p203
NsVpossibly_sensitive
p204
I00
sg68
g127
sg77
VWed Jul 08 09:33:34 +0000 2015
p205
sVfilter_level
p206
g122
sVin_reply_to_status_id_str
p207
NsVplace
p208
(dp209
Vfull_name
p210
VZurich, Switzerland
p211
sg75
Vhttps://api.twitter.com/1.1/geo/id/3acb748d0f1e9265.json
p212
sVcountry
p213
VSchweiz
p214
sVplace_type
p215
Vcity
p216
sVbounding_box
p217
(dp218
g176
VPolygon
p219
sg139
(lp220
(lp221
(lp222
F8.448081
aF47.320183
aa(lp223
F8.448081
aF47.434721
aa(lp224
F8.625442
aF47.434721
aa(lp225
F8.625442
aF47.320183
aaassVcountry_code
p226
VCH
p227
sVattributes
p228
(dp229
sg33
V3acb748d0f1e9265
p230
sg66
VZurich
p231
ssVextended_entities
p232
(dp233
g146
(lp234
(dp235
g149
Vhttp://twitter.com/studioforma_arc/status/618714533926993920/photo/1
p236
sg151
Vpic.twitter.com/WF0e7rif5U
p237
sg75
Vhttp://t.co/WF0e7rif5U
p238
sg154
Vhttps://pbs.twimg.com/media/CJYdipdWoAAg8BV.jpg
p239
sg42
V618714479891750912
p240
sg157
(dp241
g159
(dp242
g161
I255
sg162
Vfit
p243
sg164
I340
ssg165
(dp244
g161
I591
sg162
Vfit
p245
sg164
I787
ssg168
(dp246
g161
I450
sg162
Vfit
p247
sg164
I600
ssg171
(dp248
g161
I150
sg162
Vcrop
p249
sg164
I150
sssg174
(lp250
I117
aI139
asg176
Vphoto
p251
sg33
I618714479891750912
sg178
Vhttp://pbs.twimg.com/media/CJYdipdWoAAg8BV.jpg
p252
sa(dp253
g149
Vhttp://twitter.com/studioforma_arc/status/618714533926993920/photo/1
p254
sg151
Vpic.twitter.com/WF0e7rif5U
p255
sg75
Vhttp://t.co/WF0e7rif5U
p256
sg154
Vhttps://pbs.twimg.com/media/CJYdluAXAAAraTR.jpg
p257
sg42
V618714532651925504
p258
sg157
(dp259
g159
(dp260
g161
I255
sg162
Vfit
p261
sg164
I340
ssg165
(dp262
g161
I768
sg162
Vfit
p263
sg164
I1024
ssg168
(dp264
g161
I450
sg162
Vfit
p265
sg164
I600
ssg171
(dp266
g161
I150
sg162
Vcrop
p267
sg164
I150
sssg174
(lp268
I117
aI139
asg176
Vphoto
p269
sg33
I618714532651925504
sg178
Vhttp://pbs.twimg.com/media/CJYdluAXAAAraTR.jpg
p270
sa(dp271
g149
Vhttp://twitter.com/studioforma_arc/status/618714533926993920/photo/1
p272
sg151
Vpic.twitter.com/WF0e7rif5U
p273
sg75
Vhttp://t.co/WF0e7rif5U
p274
sg154
Vhttps://pbs.twimg.com/media/CJYdi-aWEAABhIm.jpg
p275
sg42
V618714485516275712
p276
sg157
(dp277
g159
(dp278
g161
I255
sg162
Vfit
p279
sg164
I340
ssg165
(dp280
g161
I591
sg162
Vfit
p281
sg164
I787
ssg168
(dp282
g161
I450
sg162
Vfit
p283
sg164
I600
ssg171
(dp284
g161
I150
sg162
Vcrop
p285
sg164
I150
sssg174
(lp286
I117
aI139
asg176
Vphoto
p287
sg33
I618714485516275712
sg178
Vhttp://pbs.twimg.com/media/CJYdi-aWEAABhIm.jpg
p288
sa(dp289
g149
Vhttp://twitter.com/studioforma_arc/status/618714533926993920/photo/1
p290
sg151
Vpic.twitter.com/WF0e7rif5U
p291
sg75
Vhttp://t.co/WF0e7rif5U
p292
sg154
Vhttps://pbs.twimg.com/media/CJYdim3WUAA2l7K.jpg
p293
sg42
V618714479195475968
p294
sg157
(dp295
g159
(dp296
g161
I255
sg162
Vfit
p297
sg164
I340
ssg165
(dp298
g161
I591
sg162
Vfit
p299
sg164
I787
ssg168
(dp300
g161
I450
sg162
Vfit
p301
sg164
I600
ssg171
(dp302
g161
I150
sg162
Vcrop
p303
sg164
I150
sssg174
(lp304
I117
aI139
asg176
Vphoto
p305
sg33
I618714479195475968
sg178
Vhttp://pbs.twimg.com/media/CJYdim3WUAA2l7K.jpg
p306
sasssS'coordinates'
p307
NsS'timestamp_ms'
p308
g141
sS'entities'
p309
g143
sS'in_reply_to_status_id_str'
p310
NsS'in_reply_to_screen_name'
p311
Nsg91
g197
sS'extended_entities'
p312
g233
sS'retweeted'
p313
I00
sS'place'
p314
g0
(ctweepy.models
Place
p315
g2
Ntp316
Rp317
(dp318
S'full_name'
p319
g211
sg109
g212
sS'country'
p320
g214
sS'place_type'
p321
g216
sS'bounding_box'
p322
g0
(ctweepy.models
BoundingBox
p323
g2
Ntp324
Rp325
(dp326
S'type'
p327
g219
sg307
g220
sbsS'country_code'
p328
g227
sS'attributes'
p329
g229
sg24
g230
sg103
g231
sbsS'retweet_count'
p330
I0
sg110
g111
(S'\x07\xdf\x07\x08\t!"\x00\x00\x00'
p331
tp332
Rp333
sS'in_reply_to_user_id'
p334
Nsb.