ccopy_reg
_reconstructor
p0
(ctweepy.models
Status
p1
c__builtin__
object
p2
Ntp3
Rp4
(dp5
S'favorited'
p6
I00
sS'contributors'
p7
NsS'truncated'
p8
I00
sS'text'
p9
V@GIN3RMOD3 THIS FOLLOWED ME. CAN I KEEP HER?\u000aLOLOLOLOLOLOLOLOLOL http://t.co/cdU3NpXS42
p10
sS'source_url'
p11
Vhttp://twitter.com
p12
sS'possibly_sensitive'
p13
I00
sS'in_reply_to_status_id'
p14
NsS'user'
p15
g0
(ctweepy.models
User
p16
g2
Ntp17
Rp18
(dp19
S'follow_request_sent'
p20
NsS'profile_use_background_image'
p21
I00
sS'profile_sidebar_fill_color'
p22
V000000
p23
sS'id'
p24
I2879569993
sS'verified'
p25
I00
sS'profile_image_url_https'
p26
Vhttps://pbs.twimg.com/profile_images/610874208827146241/voSDsKk8_normal.png
p27
sS'_json'
p28
(dp29
Vfollow_request_sent
p30
NsVprofile_use_background_image
p31
I00
sVdefault_profile_image
p32
I00
sVid
p33
I2879569993
sVverified
p34
I00
sVprofile_image_url_https
p35
g27
sVprofile_sidebar_fill_color
p36
g23
sVprofile_text_color
p37
V000000
p38
sVfollowers_count
p39
I252
sVprofile_sidebar_border_color
p40
V000000
p41
sVid_str
p42
V2879569993
p43
sVprofile_background_color
p44
V000000
p45
sVlisted_count
p46
I3
sVprofile_background_image_url_https
p47
Vhttps://abs.twimg.com/images/themes/theme14/bg.gif
p48
sVutc_offset
p49
NsVstatuses_count
p50
I1309
sVdescription
p51
VNEVER COULD HIDE WHO I AM. \u000a.http://ish.re/JJRT -not me.
p52
sVfriends_count
p53
I277
sVlocation
p54
VRepublic of Mozambique
p55
sVprofile_link_color
p56
VDD2E44
p57
sVprofile_image_url
p58
Vhttp://pbs.twimg.com/profile_images/610874208827146241/voSDsKk8_normal.png
p59
sVfollowing
p60
NsVgeo_enabled
p61
I01
sVprofile_banner_url
p62
Vhttps://pbs.twimg.com/profile_banners/2879569993/1434478513
p63
sVprofile_background_image_url
p64
Vhttp://abs.twimg.com/images/themes/theme14/bg.gif
p65
sVname
p66
VD\u2200MN\u2200L\u308bX 
p67
sVlang
p68
Ven
p69
sVprofile_background_tile
p70
I00
sVfavourites_count
p71
I29
sVscreen_name
p72
VDd0xblack1
p73
sVnotifications
p74
NsVurl
p75
NsVcreated_at
p76
VMon Oct 27 13:04:37 +0000 2014
p77
sVcontributors_enabled
p78
I00
sVtime_zone
p79
NsVprotected
p80
I00
sVdefault_profile
p81
I00
sVis_translator
p82
I00
ssS'contributors_enabled'
p83
I00
sS'profile_text_color'
p84
g38
sS'followers_count'
p85
I252
sS'profile_sidebar_border_color'
p86
g41
sS'location'
p87
g55
sS'default_profile_image'
p88
I00
sS'id_str'
p89
g43
sS'utc_offset'
p90
NsS'statuses_count'
p91
I1309
sS'description'
p92
VNEVER COULD HIDE WHO I AM. \u000a.http://ish.re/JJRT -not me.
p93
sS'friends_count'
p94
I277
sS'profile_link_color'
p95
g57
sS'profile_image_url'
p96
g59
sS'notifications'
p97
NsS'geo_enabled'
p98
I01
sS'profile_background_color'
p99
g45
sS'profile_banner_url'
p100
g63
sS'profile_background_image_url'
p101
g65
sS'name'
p102
g67
sS'lang'
p103
g69
sS'following'
p104
I00
sS'profile_background_tile'
p105
I00
sS'favourites_count'
p106
I29
sS'screen_name'
p107
g73
sS'url'
p108
NsS'created_at'
p109
cdatetime
datetime
p110
(S'\x07\xde\n\x1b\r\x04%\x00\x00\x00'
p111
tp112
Rp113
sS'profile_background_image_url_https'
p114
g48
sS'time_zone'
p115
NsS'protected'
p116
I00
sS'default_profile'
p117
I00
sS'is_translator'
p118
I00
sS'listed_count'
p119
I3
sbsS'filter_level'
p120
Vlow
p121
sS'geo'
p122
Nsg24
I620083718766632960
sS'favorite_count'
p123
I0
sS'source'
p124
VTwitter Web Client
p125
sg103
Ven
p126
sS'author'
p127
g18
sS'in_reply_to_user_id_str'
p128
V3268626204
p129
sg28
(dp130
Vcontributors
p131
NsVtruncated
p132
I00
sVtext
p133
V@GIN3RMOD3 THIS FOLLOWED ME. CAN I KEEP HER?\u000aLOLOLOLOLOLOLOLOLOL http://t.co/cdU3NpXS42
p134
sVin_reply_to_status_id
p135
Nsg33
I620083718766632960
sVfavorite_count
p136
I0
sVsource
p137
V<a href="http://twitter.com" rel="nofollow">Twitter Web Client</a>
p138
sVretweeted
p139
I00
sVcoordinates
p140
NsVtimestamp_ms
p141
V1436674453809
p142
sVentities
p143
(dp144
Vsymbols
p145
(lp146
sVmedia
p147
(lp148
(dp149
Vexpanded_url
p150
Vhttp://twitter.com/Dd0xblack1/status/620083718766632960/photo/1
p151
sVdisplay_url
p152
Vpic.twitter.com/cdU3NpXS42
p153
sg75
Vhttp://t.co/cdU3NpXS42
p154
sVmedia_url_https
p155
Vhttps://pbs.twimg.com/media/CJr62nyWgAEM21V.jpg
p156
sg42
V620083715016916993
p157
sVsizes
p158
(dp159
Vlarge
p160
(dp161
Vh
p162
I512
sVresize
p163
Vfit
p164
sVw
p165
I512
ssVsmall
p166
(dp167
g162
I340
sg163
Vfit
p168
sg165
I340
ssVmedium
p169
(dp170
g162
I512
sg163
Vfit
p171
sg165
I512
ssVthumb
p172
(dp173
g162
I150
sg163
Vcrop
p174
sg165
I150
sssVindices
p175
(lp176
I65
aI87
asVtype
p177
Vphoto
p178
sg33
I620083715016916993
sVmedia_url
p179
Vhttp://pbs.twimg.com/media/CJr62nyWgAEM21V.jpg
p180
sasVhashtags
p181
(lp182
sVuser_mentions
p183
(lp184
(dp185
g33
I3268626204
sg175
(lp186
I0
aI10
asg42
V3268626204
p187
sg72
VGIN3RMOD3
p188
sg66
V\u5350 GINER MODE \u5350
p189
sasVtrends
p190
(lp191
sVurls
p192
(lp193
ssVin_reply_to_screen_name
p194
VGIN3RMOD3
p195
sg42
V620083718766632960
p196
sVretweet_count
p197
I0
sVin_reply_to_user_id
p198
I3268626204
sVfavorited
p199
I00
sVuser
p200
g29
sVgeo
p201
NsVin_reply_to_user_id_str
p202
g129
sVpossibly_sensitive
p203
I00
sg68
g126
sg76
VSun Jul 12 04:14:13 +0000 2015
p204
sVfilter_level
p205
g121
sVin_reply_to_status_id_str
p206
NsVplace
p207
(dp208
Vfull_name
p209
VBerne, Switzerland
p210
sg75
Vhttps://api.twitter.com/1.1/geo/id/5868d0e0749c9c47.json
p211
sVcountry
p212
VSchweiz
p213
sVplace_type
p214
Vadmin
p215
sVbounding_box
p216
(dp217
g177
VPolygon
p218
sg140
(lp219
(lp220
(lp221
F6.861601
aF46.326441
aa(lp222
F6.861601
aF47.34528
aa(lp223
F8.455051
aF47.34528
aa(lp224
F8.455051
aF46.326441
aaassVcountry_code
p225
VCH
p226
sVattributes
p227
(dp228
sg33
V5868d0e0749c9c47
p229
sg66
VBern
p230
ssVextended_entities
p231
(dp232
g147
(lp233
(dp234
g150
Vhttp://twitter.com/Dd0xblack1/status/620083718766632960/photo/1
p235
sg152
Vpic.twitter.com/cdU3NpXS42
p236
sg75
Vhttp://t.co/cdU3NpXS42
p237
sg155
Vhttps://pbs.twimg.com/media/CJr62nyWgAEM21V.jpg
p238
sg42
V620083715016916993
p239
sg158
(dp240
g160
(dp241
g162
I512
sg163
Vfit
p242
sg165
I512
ssg166
(dp243
g162
I340
sg163
Vfit
p244
sg165
I340
ssg169
(dp245
g162
I512
sg163
Vfit
p246
sg165
I512
ssg172
(dp247
g162
I150
sg163
Vcrop
p248
sg165
I150
sssg175
(lp249
I65
aI87
asg177
Vphoto
p250
sg33
I620083715016916993
sg179
Vhttp://pbs.twimg.com/media/CJr62nyWgAEM21V.jpg
p251
sasssS'coordinates'
p252
NsS'timestamp_ms'
p253
g142
sS'entities'
p254
g144
sS'in_reply_to_status_id_str'
p255
NsS'in_reply_to_screen_name'
p256
g195
sg89
g196
sS'extended_entities'
p257
g232
sS'retweeted'
p258
I00
sS'place'
p259
g0
(ctweepy.models
Place
p260
g2
Ntp261
Rp262
(dp263
S'full_name'
p264
g210
sg108
g211
sS'country'
p265
g213
sS'place_type'
p266
g215
sS'bounding_box'
p267
g0
(ctweepy.models
BoundingBox
p268
g2
Ntp269
Rp270
(dp271
S'type'
p272
g218
sg252
g219
sbsS'country_code'
p273
g226
sS'attributes'
p274
g228
sg24
g229
sg102
g230
sbsS'retweet_count'
p275
I0
sg109
g110
(S'\x07\xdf\x07\x0c\x04\x0e\r\x00\x00\x00'
p276
tp277
Rp278
sS'in_reply_to_user_id'
p279
I3268626204
sb.