ccopy_reg
_reconstructor
p0
(ctweepy.models
Status
p1
c__builtin__
object
p2
Ntp3
Rp4
(dp5
S'favorited'
p6
I00
sS'contributors'
p7
NsS'truncated'
p8
I00
sS'text'
p9
V@ToViewTheValley We are sorry, it must be http://t.co/0VTu0Vf6Zx
p10
sS'source_url'
p11
Vhttp://twitter.com
p12
sS'possibly_sensitive'
p13
I00
sS'in_reply_to_status_id'
p14
I617090853270458368
sS'user'
p15
g0
(ctweepy.models
User
p16
g2
Ntp17
Rp18
(dp19
S'follow_request_sent'
p20
NsS'profile_use_background_image'
p21
I01
sS'profile_sidebar_fill_color'
p22
VDDEEF6
p23
sS'id'
p24
I1321851942
sS'verified'
p25
I00
sS'profile_image_url_https'
p26
Vhttps://pbs.twimg.com/profile_images/581405615915859968/CBxgiAGk_normal.jpg
p27
sS'_json'
p28
(dp29
Vfollow_request_sent
p30
NsVprofile_use_background_image
p31
I01
sVdefault_profile_image
p32
I00
sVid
p33
I1321851942
sVverified
p34
I00
sVprofile_image_url_https
p35
g27
sVprofile_sidebar_fill_color
p36
g23
sVprofile_text_color
p37
V333333
p38
sVfollowers_count
p39
I20123
sVprofile_sidebar_border_color
p40
VFFFFFF
p41
sVid_str
p42
V1321851942
p43
sVprofile_background_color
p44
VD3BA6C
p45
sVlisted_count
p46
I157
sVprofile_background_image_url_https
p47
Vhttps://pbs.twimg.com/profile_background_images/460394667259871233/5THVTi_J.jpeg
p48
sVutc_offset
p49
I7200
sVstatuses_count
p50
I13345
sVdescription
p51
VThe Biggest Online History Book of the World.\u000aBOH BOW is a totally free platform for communicating stories, experiences, thoughts and ideas at high level.
p52
sVfriends_count
p53
I19925
sVlocation
p54
VZurich / Switzerland
p55
sVprofile_link_color
p56
V422100
p57
sVprofile_image_url
p58
Vhttp://pbs.twimg.com/profile_images/581405615915859968/CBxgiAGk_normal.jpg
p59
sVfollowing
p60
NsVgeo_enabled
p61
I01
sVprofile_banner_url
p62
Vhttps://pbs.twimg.com/profile_banners/1321851942/1401375972
p63
sVprofile_background_image_url
p64
Vhttp://pbs.twimg.com/profile_background_images/460394667259871233/5THVTi_J.jpeg
p65
sVname
p66
VBOH BOW
p67
sVlang
p68
Ven
p69
sVprofile_background_tile
p70
I01
sVfavourites_count
p71
I1476
sVscreen_name
p72
VBOHBOW_NET
p73
sVnotifications
p74
NsVurl
p75
Vhttp://www.bohbow.net
p76
sVcreated_at
p77
VTue Apr 02 06:16:15 +0000 2013
p78
sVcontributors_enabled
p79
I00
sVtime_zone
p80
VParis
p81
sVprotected
p82
I00
sVdefault_profile
p83
I00
sVis_translator
p84
I00
ssS'contributors_enabled'
p85
I00
sS'profile_text_color'
p86
g38
sS'followers_count'
p87
I20123
sS'profile_sidebar_border_color'
p88
g41
sS'location'
p89
g55
sS'default_profile_image'
p90
I00
sS'id_str'
p91
g43
sS'utc_offset'
p92
I7200
sS'statuses_count'
p93
I13345
sS'description'
p94
VThe Biggest Online History Book of the World.\u000aBOH BOW is a totally free platform for communicating stories, experiences, thoughts and ideas at high level.
p95
sS'friends_count'
p96
I19925
sS'profile_link_color'
p97
g57
sS'profile_image_url'
p98
g59
sS'notifications'
p99
NsS'geo_enabled'
p100
I01
sS'profile_background_color'
p101
g45
sS'profile_banner_url'
p102
g63
sS'profile_background_image_url'
p103
g65
sS'name'
p104
g67
sS'lang'
p105
g69
sS'following'
p106
I00
sS'profile_background_tile'
p107
I01
sS'favourites_count'
p108
I1476
sS'screen_name'
p109
g73
sS'url'
p110
g76
sS'created_at'
p111
cdatetime
datetime
p112
(S'\x07\xdd\x04\x02\x06\x10\x0f\x00\x00\x00'
p113
tp114
Rp115
sS'profile_background_image_url_https'
p116
g48
sS'time_zone'
p117
g81
sS'protected'
p118
I00
sS'default_profile'
p119
I00
sS'is_translator'
p120
I00
sS'listed_count'
p121
I157
sbsS'filter_level'
p122
Vlow
p123
sS'geo'
p124
Nsg24
I619522905177722880
sS'favorite_count'
p125
I0
sS'source'
p126
VTwitter Web Client
p127
sg105
Ven
p128
sS'author'
p129
g18
sS'in_reply_to_user_id_str'
p130
V3254083502
p131
sg28
(dp132
Vcontributors
p133
NsVtruncated
p134
I00
sVtext
p135
g10
sVin_reply_to_status_id
p136
I617090853270458368
sg33
I619522905177722880
sVfavorite_count
p137
I0
sVsource
p138
V<a href="http://twitter.com" rel="nofollow">Twitter Web Client</a>
p139
sVretweeted
p140
I00
sVcoordinates
p141
NsVtimestamp_ms
p142
V1436540745430
p143
sVentities
p144
(dp145
Vuser_mentions
p146
(lp147
(dp148
g33
I3254083502
sVindices
p149
(lp150
I0
aI16
asg42
V3254083502
p151
sg72
VToViewTheValley
p152
sg66
VBruce Benzel
p153
sasVsymbols
p154
(lp155
sVtrends
p156
(lp157
sVhashtags
p158
(lp159
sVurls
p160
(lp161
(dp162
g75
Vhttp://t.co/0VTu0Vf6Zx
p163
sg149
(lp164
I42
aI64
asVexpanded_url
p165
Vhttp://BOHBOW.NET
p166
sVdisplay_url
p167
VBOHBOW.NET
p168
sassVin_reply_to_screen_name
p169
VToViewTheValley
p170
sg42
V619522905177722880
p171
sVretweet_count
p172
I0
sVin_reply_to_user_id
p173
I3254083502
sVfavorited
p174
I00
sVuser
p175
g29
sVgeo
p176
NsVin_reply_to_user_id_str
p177
g131
sVpossibly_sensitive
p178
I00
sg68
g128
sg77
VFri Jul 10 15:05:45 +0000 2015
p179
sVfilter_level
p180
g123
sVin_reply_to_status_id_str
p181
V617090853270458368
p182
sVplace
p183
(dp184
Vfull_name
p185
VZurich, Switzerland
p186
sg75
Vhttps://api.twitter.com/1.1/geo/id/3acb748d0f1e9265.json
p187
sVcountry
p188
VSchweiz
p189
sVplace_type
p190
Vcity
p191
sVbounding_box
p192
(dp193
Vtype
p194
VPolygon
p195
sg141
(lp196
(lp197
(lp198
F8.448081
aF47.320183
aa(lp199
F8.448081
aF47.434721
aa(lp200
F8.625442
aF47.434721
aa(lp201
F8.625442
aF47.320183
aaassVcountry_code
p202
VCH
p203
sVattributes
p204
(dp205
sg33
V3acb748d0f1e9265
p206
sg66
VZurich
p207
sssS'coordinates'
p208
NsS'timestamp_ms'
p209
g143
sS'entities'
p210
g145
sS'in_reply_to_status_id_str'
p211
g182
sS'in_reply_to_screen_name'
p212
g170
sg91
g171
sS'retweeted'
p213
I00
sS'place'
p214
g0
(ctweepy.models
Place
p215
g2
Ntp216
Rp217
(dp218
S'full_name'
p219
g186
sg110
g187
sS'country'
p220
g189
sS'place_type'
p221
g191
sS'bounding_box'
p222
g0
(ctweepy.models
BoundingBox
p223
g2
Ntp224
Rp225
(dp226
S'type'
p227
g195
sg208
g196
sbsS'country_code'
p228
g203
sS'attributes'
p229
g205
sg24
g206
sg104
g207
sbsS'retweet_count'
p230
I0
sg111
g112
(S'\x07\xdf\x07\n\x0f\x05-\x00\x00\x00'
p231
tp232
Rp233
sS'in_reply_to_user_id'
p234
I3254083502
sb.