ccopy_reg
_reconstructor
p0
(ctweepy.models
Status
p1
c__builtin__
object
p2
Ntp3
Rp4
(dp5
S'favorited'
p6
I00
sS'contributors'
p7
NsS'truncated'
p8
I00
sS'text'
p9
VWe all now it's time for #Flash to die, but #advertisers aren't yet ready\u000ahttps://t.co/YVuxiNBKdd http://t.co/EhHH1hvrzV
p10
sS'source_url'
p11
Vhttp://twitter.com
p12
sS'possibly_sensitive'
p13
I00
sS'in_reply_to_status_id'
p14
NsS'user'
p15
g0
(ctweepy.models
User
p16
g2
Ntp17
Rp18
(dp19
S'follow_request_sent'
p20
NsS'profile_use_background_image'
p21
I01
sS'profile_sidebar_fill_color'
p22
V171106
p23
sS'id'
p24
I26820374
sS'verified'
p25
I00
sS'profile_image_url_https'
p26
Vhttps://pbs.twimg.com/profile_images/554348526990536704/cOJtM4gv_normal.jpeg
p27
sS'_json'
p28
(dp29
Vfollow_request_sent
p30
NsVprofile_use_background_image
p31
I01
sVdefault_profile_image
p32
I00
sVid
p33
I26820374
sVverified
p34
I00
sVprofile_image_url_https
p35
g27
sVprofile_sidebar_fill_color
p36
g23
sVprofile_text_color
p37
V8A7302
p38
sVfollowers_count
p39
I1197
sVprofile_sidebar_border_color
p40
V000000
p41
sVid_str
p42
V26820374
p43
sVprofile_background_color
p44
V080707
p45
sVlisted_count
p46
I79
sVprofile_background_image_url_https
p47
Vhttps://pbs.twimg.com/profile_background_images/458707244679315456/WA5BXg8a.png
p48
sVutc_offset
p49
I7200
sVstatuses_count
p50
I2986
sVdescription
p51
VManaging Director @Gamned \u000a #programmatic #advertising #marketingautomation #switzerland
p52
sVfriends_count
p53
I82
sVlocation
p54
VGeneva, Switzerland
p55
sVprofile_link_color
p56
VF73505
p57
sVprofile_image_url
p58
Vhttp://pbs.twimg.com/profile_images/554348526990536704/cOJtM4gv_normal.jpeg
p59
sVfollowing
p60
NsVgeo_enabled
p61
I01
sVprofile_banner_url
p62
Vhttps://pbs.twimg.com/profile_banners/26820374/1398198840
p63
sVprofile_background_image_url
p64
Vhttp://pbs.twimg.com/profile_background_images/458707244679315456/WA5BXg8a.png
p65
sVname
p66
VPierre Berendes
p67
sVlang
p68
Ven
p69
sVprofile_background_tile
p70
I01
sVfavourites_count
p71
I124
sVscreen_name
p72
Vberendes
p73
sVnotifications
p74
NsVurl
p75
Vhttp://www.makazi.com
p76
sVcreated_at
p77
VThu Mar 26 19:02:45 +0000 2009
p78
sVcontributors_enabled
p79
I00
sVtime_zone
p80
VParis
p81
sVprotected
p82
I00
sVdefault_profile
p83
I00
sVis_translator
p84
I00
ssS'contributors_enabled'
p85
I00
sS'profile_text_color'
p86
g38
sS'followers_count'
p87
I1197
sS'profile_sidebar_border_color'
p88
g41
sS'location'
p89
g55
sS'default_profile_image'
p90
I00
sS'id_str'
p91
g43
sS'utc_offset'
p92
I7200
sS'statuses_count'
p93
I2986
sS'description'
p94
VManaging Director @Gamned \u000a #programmatic #advertising #marketingautomation #switzerland
p95
sS'friends_count'
p96
I82
sS'profile_link_color'
p97
g57
sS'profile_image_url'
p98
g59
sS'notifications'
p99
NsS'geo_enabled'
p100
I01
sS'profile_background_color'
p101
g45
sS'profile_banner_url'
p102
g63
sS'profile_background_image_url'
p103
g65
sS'name'
p104
g67
sS'lang'
p105
g69
sS'following'
p106
I00
sS'profile_background_tile'
p107
I01
sS'favourites_count'
p108
I124
sS'screen_name'
p109
g73
sS'url'
p110
g76
sS'created_at'
p111
cdatetime
datetime
p112
(S'\x07\xd9\x03\x1a\x13\x02-\x00\x00\x00'
p113
tp114
Rp115
sS'profile_background_image_url_https'
p116
g48
sS'time_zone'
p117
g81
sS'protected'
p118
I00
sS'default_profile'
p119
I00
sS'is_translator'
p120
I00
sS'listed_count'
p121
I79
sbsS'filter_level'
p122
Vlow
p123
sS'geo'
p124
Nsg24
I621265420323041280
sS'favorite_count'
p125
I0
sS'source'
p126
VTwitter Web Client
p127
sg105
Ven
p128
sS'author'
p129
g18
sS'in_reply_to_user_id_str'
p130
Nsg28
(dp131
Vcontributors
p132
NsVtruncated
p133
I00
sVtext
p134
VWe all now it's time for #Flash to die, but #advertisers aren't yet ready\u000ahttps://t.co/YVuxiNBKdd http://t.co/EhHH1hvrzV
p135
sVin_reply_to_status_id
p136
Nsg33
I621265420323041280
sVfavorite_count
p137
I0
sVsource
p138
V<a href="http://twitter.com" rel="nofollow">Twitter Web Client</a>
p139
sVretweeted
p140
I00
sVcoordinates
p141
NsVtimestamp_ms
p142
V1436956193415
p143
sVentities
p144
(dp145
Vsymbols
p146
(lp147
sVmedia
p148
(lp149
(dp150
Vexpanded_url
p151
Vhttp://twitter.com/berendes/status/621265420323041280/photo/1
p152
sVdisplay_url
p153
Vpic.twitter.com/EhHH1hvrzV
p154
sg75
Vhttp://t.co/EhHH1hvrzV
p155
sVmedia_url_https
p156
Vhttps://pbs.twimg.com/media/CJ8tmkrUMAAY3VE.png
p157
sg42
V621265414304051200
p158
sVsizes
p159
(dp160
Vsmall
p161
(dp162
Vh
p163
I239
sVresize
p164
Vfit
p165
sVw
p166
I340
ssVlarge
p167
(dp168
g163
I302
sg164
Vfit
p169
sg166
I428
ssVmedium
p170
(dp171
g163
I302
sg164
Vfit
p172
sg166
I428
ssVthumb
p173
(dp174
g163
I150
sg164
Vcrop
p175
sg166
I150
sssVindices
p176
(lp177
I98
aI120
asVtype
p178
Vphoto
p179
sg33
I621265414304051200
sVmedia_url
p180
Vhttp://pbs.twimg.com/media/CJ8tmkrUMAAY3VE.png
p181
sasVhashtags
p182
(lp183
(dp184
g176
(lp185
I25
aI31
asg134
VFlash
p186
sa(dp187
g176
(lp188
I44
aI56
asg134
Vadvertisers
p189
sasVuser_mentions
p190
(lp191
sVtrends
p192
(lp193
sVurls
p194
(lp195
(dp196
g75
Vhttps://t.co/YVuxiNBKdd
p197
sg176
(lp198
I74
aI97
asg151
Vhttps://econsultancy.com/blog/66696-it-s-time-for-flash-to-die-but-advertisers-aren-t-quite-ready
p199
sg153
Veconsultancy.com/blog/66696-it-\u2026
p200
sassVin_reply_to_screen_name
p201
Nsg42
V621265420323041280
p202
sVretweet_count
p203
I0
sVin_reply_to_user_id
p204
NsVfavorited
p205
I00
sVuser
p206
g29
sVgeo
p207
NsVin_reply_to_user_id_str
p208
NsVpossibly_sensitive
p209
I00
sg68
g128
sg77
VWed Jul 15 10:29:53 +0000 2015
p210
sVfilter_level
p211
g123
sVin_reply_to_status_id_str
p212
NsVplace
p213
(dp214
Vfull_name
p215
VZurich, Switzerland
p216
sg75
Vhttps://api.twitter.com/1.1/geo/id/3acb748d0f1e9265.json
p217
sVcountry
p218
VSchweiz
p219
sVplace_type
p220
Vcity
p221
sVbounding_box
p222
(dp223
g178
VPolygon
p224
sg141
(lp225
(lp226
(lp227
F8.448081
aF47.320183
aa(lp228
F8.448081
aF47.434721
aa(lp229
F8.625442
aF47.434721
aa(lp230
F8.625442
aF47.320183
aaassVcountry_code
p231
VCH
p232
sVattributes
p233
(dp234
sg33
V3acb748d0f1e9265
p235
sg66
VZurich
p236
ssVextended_entities
p237
(dp238
g148
(lp239
(dp240
g151
Vhttp://twitter.com/berendes/status/621265420323041280/photo/1
p241
sg153
Vpic.twitter.com/EhHH1hvrzV
p242
sg75
Vhttp://t.co/EhHH1hvrzV
p243
sg156
Vhttps://pbs.twimg.com/media/CJ8tmkrUMAAY3VE.png
p244
sg42
V621265414304051200
p245
sg159
(dp246
g161
(dp247
g163
I239
sg164
Vfit
p248
sg166
I340
ssg167
(dp249
g163
I302
sg164
Vfit
p250
sg166
I428
ssg170
(dp251
g163
I302
sg164
Vfit
p252
sg166
I428
ssg173
(dp253
g163
I150
sg164
Vcrop
p254
sg166
I150
sssg176
(lp255
I98
aI120
asg178
Vphoto
p256
sg33
I621265414304051200
sg180
Vhttp://pbs.twimg.com/media/CJ8tmkrUMAAY3VE.png
p257
sasssS'coordinates'
p258
NsS'timestamp_ms'
p259
g143
sS'entities'
p260
g145
sS'in_reply_to_status_id_str'
p261
NsS'in_reply_to_screen_name'
p262
Nsg91
g202
sS'extended_entities'
p263
g238
sS'retweeted'
p264
I00
sS'place'
p265
g0
(ctweepy.models
Place
p266
g2
Ntp267
Rp268
(dp269
S'full_name'
p270
g216
sg110
g217
sS'country'
p271
g219
sS'place_type'
p272
g221
sS'bounding_box'
p273
g0
(ctweepy.models
BoundingBox
p274
g2
Ntp275
Rp276
(dp277
S'type'
p278
g224
sg258
g225
sbsS'country_code'
p279
g232
sS'attributes'
p280
g234
sg24
g235
sg104
g236
sbsS'retweet_count'
p281
I0
sg111
g112
(S'\x07\xdf\x07\x0f\n\x1d5\x00\x00\x00'
p282
tp283
Rp284
sS'in_reply_to_user_id'
p285
Nsb.