ccopy_reg
_reconstructor
p0
(ctweepy.models
Status
p1
c__builtin__
object
p2
Ntp3
Rp4
(dp5
S'favorited'
p6
I00
sS'contributors'
p7
NsS'truncated'
p8
I00
sS'text'
p9
VAnd that is how you win #Wimbledon2015 #FedererVsDjokovic #FeelWimbledon .. What an amazing performance @DjokerNole .. Your inspire us \U0001f603
p10
sS'source_url'
p11
Vhttp://twitter.com/download/iphone
p12
sS'possibly_sensitive'
p13
I00
sS'in_reply_to_status_id'
p14
NsS'user'
p15
g0
(ctweepy.models
User
p16
g2
Ntp17
Rp18
(dp19
S'follow_request_sent'
p20
NsS'profile_use_background_image'
p21
I00
sS'profile_sidebar_fill_color'
p22
V252429
p23
sS'id'
p24
I93762339
sS'verified'
p25
I00
sS'profile_image_url_https'
p26
Vhttps://pbs.twimg.com/profile_images/615072536619974656/LNETfB1Y_normal.jpg
p27
sS'_json'
p28
(dp29
Vfollow_request_sent
p30
NsVprofile_use_background_image
p31
I00
sVdefault_profile_image
p32
I00
sVid
p33
I93762339
sVverified
p34
I00
sVprofile_image_url_https
p35
g27
sVprofile_sidebar_fill_color
p36
g23
sVprofile_text_color
p37
V666666
p38
sVfollowers_count
p39
I1158
sVprofile_sidebar_border_color
p40
VFFFFFF
p41
sVid_str
p42
V93762339
p43
sVprofile_background_color
p44
VF5F7FA
p45
sVlisted_count
p46
I65
sVprofile_background_image_url_https
p47
Vhttps://pbs.twimg.com/profile_background_images/595570234192306176/zdw1IE1s.jpg
p48
sVutc_offset
p49
I7200
sVstatuses_count
p50
I20913
sVdescription
p51
VA daily review of travel ideas, trends and lifestyle goodies. A lifestyle blog that wants to me you smile ..
p52
sVfriends_count
p53
I1667
sVlocation
p54
VZurich -Switzerland 
p55
sVprofile_link_color
p56
V69E7F0
p57
sVprofile_image_url
p58
Vhttp://pbs.twimg.com/profile_images/615072536619974656/LNETfB1Y_normal.jpg
p59
sVfollowing
p60
NsVgeo_enabled
p61
I01
sVprofile_banner_url
p62
Vhttps://pbs.twimg.com/profile_banners/93762339/1435395069
p63
sVprofile_background_image_url
p64
Vhttp://pbs.twimg.com/profile_background_images/595570234192306176/zdw1IE1s.jpg
p65
sVname
p66
VHDL Lifestyle Blog
p67
sVlang
p68
Ven
p69
sVprofile_background_tile
p70
I00
sVfavourites_count
p71
I855
sVscreen_name
p72
Vhuellasdluzblog
p73
sVnotifications
p74
NsVurl
p75
Vhttp://www.huellasdeluzblog.com
p76
sVcreated_at
p77
VTue Dec 01 01:46:57 +0000 2009
p78
sVcontributors_enabled
p79
I00
sVtime_zone
p80
VBern
p81
sVprotected
p82
I00
sVdefault_profile
p83
I00
sVis_translator
p84
I00
ssS'contributors_enabled'
p85
I00
sS'profile_text_color'
p86
g38
sS'followers_count'
p87
I1158
sS'profile_sidebar_border_color'
p88
g41
sS'location'
p89
g55
sS'default_profile_image'
p90
I00
sS'id_str'
p91
g43
sS'utc_offset'
p92
I7200
sS'statuses_count'
p93
I20913
sS'description'
p94
g52
sS'friends_count'
p95
I1667
sS'profile_link_color'
p96
g57
sS'profile_image_url'
p97
g59
sS'notifications'
p98
NsS'geo_enabled'
p99
I01
sS'profile_background_color'
p100
g45
sS'profile_banner_url'
p101
g63
sS'profile_background_image_url'
p102
g65
sS'name'
p103
g67
sS'lang'
p104
g69
sS'following'
p105
I00
sS'profile_background_tile'
p106
I00
sS'favourites_count'
p107
I855
sS'screen_name'
p108
g73
sS'url'
p109
g76
sS'created_at'
p110
cdatetime
datetime
p111
(S'\x07\xd9\x0c\x01\x01.9\x00\x00\x00'
p112
tp113
Rp114
sS'profile_background_image_url_https'
p115
g48
sS'time_zone'
p116
g81
sS'protected'
p117
I00
sS'default_profile'
p118
I00
sS'is_translator'
p119
I00
sS'listed_count'
p120
I65
sbsS'filter_level'
p121
Vlow
p122
sS'geo'
p123
Nsg24
I620275677821054976
sS'favorite_count'
p124
I0
sS'source'
p125
VTwitter for iPhone
p126
sg104
Ven
p127
sS'author'
p128
g18
sS'in_reply_to_user_id_str'
p129
Nsg28
(dp130
Vcontributors
p131
NsVtruncated
p132
I00
sVtext
p133
g10
sVin_reply_to_status_id
p134
Nsg33
I620275677821054976
sVfavorite_count
p135
I0
sVsource
p136
V<a href="http://twitter.com/download/iphone" rel="nofollow">Twitter for iPhone</a>
p137
sVretweeted
p138
I00
sVcoordinates
p139
NsVtimestamp_ms
p140
V1436720220414
p141
sVentities
p142
(dp143
Vuser_mentions
p144
(lp145
(dp146
g33
I259925559
sVindices
p147
(lp148
I104
aI115
asg42
V259925559
p149
sg72
VDjokerNole
p150
sg66
VNovak Djokovic
p151
sasVsymbols
p152
(lp153
sVtrends
p154
(lp155
sVhashtags
p156
(lp157
(dp158
g147
(lp159
I24
aI38
asg133
VWimbledon2015
p160
sa(dp161
g147
(lp162
I39
aI57
asg133
VFedererVsDjokovic
p163
sa(dp164
g147
(lp165
I58
aI72
asg133
VFeelWimbledon
p166
sasVurls
p167
(lp168
ssVin_reply_to_screen_name
p169
Nsg42
V620275677821054976
p170
sVretweet_count
p171
I0
sVin_reply_to_user_id
p172
NsVfavorited
p173
I00
sVuser
p174
g29
sVgeo
p175
NsVin_reply_to_user_id_str
p176
NsVpossibly_sensitive
p177
I00
sg68
g127
sg77
VSun Jul 12 16:57:00 +0000 2015
p178
sVfilter_level
p179
g122
sVin_reply_to_status_id_str
p180
NsVplace
p181
(dp182
Vfull_name
p183
VZurich, Switzerland
p184
sg75
Vhttps://api.twitter.com/1.1/geo/id/db94c1cccc67c4f4.json
p185
sVcountry
p186
VSchweiz
p187
sVplace_type
p188
Vadmin
p189
sVbounding_box
p190
(dp191
Vtype
p192
VPolygon
p193
sg139
(lp194
(lp195
(lp196
F8.357749
aF47.159384
aa(lp197
F8.357749
aF47.694503
aa(lp198
F8.984445
aF47.694503
aa(lp199
F8.984445
aF47.159384
aaassVcountry_code
p200
VCH
p201
sVattributes
p202
(dp203
sg33
Vdb94c1cccc67c4f4
p204
sg66
VZurich
p205
sssS'coordinates'
p206
NsS'timestamp_ms'
p207
g141
sS'entities'
p208
g143
sS'in_reply_to_status_id_str'
p209
NsS'in_reply_to_screen_name'
p210
Nsg91
g170
sS'retweeted'
p211
I00
sS'place'
p212
g0
(ctweepy.models
Place
p213
g2
Ntp214
Rp215
(dp216
S'full_name'
p217
g184
sg109
g185
sS'country'
p218
g187
sS'place_type'
p219
g189
sS'bounding_box'
p220
g0
(ctweepy.models
BoundingBox
p221
g2
Ntp222
Rp223
(dp224
S'type'
p225
g193
sg206
g194
sbsS'country_code'
p226
g201
sS'attributes'
p227
g203
sg24
g204
sg103
g205
sbsS'retweet_count'
p228
I0
sg110
g111
(S'\x07\xdf\x07\x0c\x109\x00\x00\x00\x00'
p229
tp230
Rp231
sS'in_reply_to_user_id'
p232
Nsb.