ccopy_reg
_reconstructor
p0
(ctweepy.models
Status
p1
c__builtin__
object
p2
Ntp3
Rp4
(dp5
S'favorited'
p6
I00
sS'contributors'
p7
NsS'truncated'
p8
I00
sS'text'
p9
V@NathanFillion you got something terribly wrong: you ARE a brilliant actor, nobody makes me cry like you. oops, sounds a bit creepy, lol
p10
sS'source_url'
p11
Vhttp://twitter.com
p12
sS'possibly_sensitive'
p13
I00
sS'in_reply_to_status_id'
p14
NsS'user'
p15
g0
(ctweepy.models
User
p16
g2
Ntp17
Rp18
(dp19
S'follow_request_sent'
p20
NsS'profile_use_background_image'
p21
I00
sS'profile_sidebar_fill_color'
p22
VDDEEF6
p23
sS'id'
p24
I1613167130
sS'verified'
p25
I00
sS'profile_image_url_https'
p26
Vhttps://pbs.twimg.com/profile_images/612109360077012992/dMji8MK8_normal.jpg
p27
sS'_json'
p28
(dp29
Vfollow_request_sent
p30
NsVprofile_use_background_image
p31
I00
sVdefault_profile_image
p32
I00
sVid
p33
I1613167130
sVverified
p34
I00
sVprofile_image_url_https
p35
g27
sVprofile_sidebar_fill_color
p36
g23
sVprofile_text_color
p37
V333333
p38
sVfollowers_count
p39
I396
sVprofile_sidebar_border_color
p40
VFFFFFF
p41
sVid_str
p42
V1613167130
p43
sVprofile_background_color
p44
VC0DEED
p45
sVlisted_count
p46
I11
sVprofile_background_image_url_https
p47
Vhttps://pbs.twimg.com/profile_background_images/603973249425383425/_NhrmLPN.jpg
p48
sVutc_offset
p49
I7200
sVstatuses_count
p50
I9933
sVdescription
p51
VHuge fan of Nathan Fillion. # \u000aNYC lover.  #\u000aOur greatest glory is not in never falling, but in rising every time we fall. Confucius
p52
sVfriends_count
p53
I520
sVlocation
p54
VSwitzerland
p55
sVprofile_link_color
p56
V0084B4
p57
sVprofile_image_url
p58
Vhttp://pbs.twimg.com/profile_images/612109360077012992/dMji8MK8_normal.jpg
p59
sVfollowing
p60
NsVgeo_enabled
p61
I01
sVprofile_banner_url
p62
Vhttps://pbs.twimg.com/profile_banners/1613167130/1432975826
p63
sVprofile_background_image_url
p64
Vhttp://pbs.twimg.com/profile_background_images/603973249425383425/_NhrmLPN.jpg
p65
sVname
p66
VBeth
p67
sVlang
p68
Ven
p69
sVprofile_background_tile
p70
I00
sVfavourites_count
p71
I4193
sVscreen_name
p72
VBeth4gold
p73
sVnotifications
p74
NsVurl
p75
NsVcreated_at
p76
VMon Jul 22 16:19:41 +0000 2013
p77
sVcontributors_enabled
p78
I00
sVtime_zone
p79
VBern
p80
sVprotected
p81
I00
sVdefault_profile
p82
I00
sVis_translator
p83
I00
ssS'contributors_enabled'
p84
I00
sS'profile_text_color'
p85
g38
sS'followers_count'
p86
I396
sS'profile_sidebar_border_color'
p87
g41
sS'location'
p88
g55
sS'default_profile_image'
p89
I00
sS'id_str'
p90
g43
sS'utc_offset'
p91
I7200
sS'statuses_count'
p92
I9933
sS'description'
p93
VHuge fan of Nathan Fillion. # \u000aNYC lover.  #\u000aOur greatest glory is not in never falling, but in rising every time we fall. Confucius
p94
sS'friends_count'
p95
I520
sS'profile_link_color'
p96
g57
sS'profile_image_url'
p97
g59
sS'notifications'
p98
NsS'geo_enabled'
p99
I01
sS'profile_background_color'
p100
g45
sS'profile_banner_url'
p101
g63
sS'profile_background_image_url'
p102
g65
sS'name'
p103
g67
sS'lang'
p104
g69
sS'following'
p105
I00
sS'profile_background_tile'
p106
I00
sS'favourites_count'
p107
I4193
sS'screen_name'
p108
g73
sS'url'
p109
NsS'created_at'
p110
cdatetime
datetime
p111
(S'\x07\xdd\x07\x16\x10\x13)\x00\x00\x00'
p112
tp113
Rp114
sS'profile_background_image_url_https'
p115
g48
sS'time_zone'
p116
g80
sS'protected'
p117
I00
sS'default_profile'
p118
I00
sS'is_translator'
p119
I00
sS'listed_count'
p120
I11
sbsS'filter_level'
p121
Vlow
p122
sS'geo'
p123
Nsg24
I620588717175144448
sS'favorite_count'
p124
I0
sS'source'
p125
VTwitter Web Client
p126
sg104
Ven
p127
sS'author'
p128
g18
sS'in_reply_to_user_id_str'
p129
V31353077
p130
sg28
(dp131
Vcontributors
p132
NsVtruncated
p133
I00
sVtext
p134
g10
sVin_reply_to_status_id
p135
Nsg33
I620588717175144448
sVfavorite_count
p136
I0
sVsource
p137
V<a href="http://twitter.com" rel="nofollow">Twitter Web Client</a>
p138
sVretweeted
p139
I00
sVcoordinates
p140
NsVtimestamp_ms
p141
V1436794854812
p142
sVentities
p143
(dp144
Vuser_mentions
p145
(lp146
(dp147
g33
I31353077
sVindices
p148
(lp149
I0
aI14
asg42
V31353077
p150
sg72
VNathanFillion
p151
sg66
VNathan Fillion
p152
sasVsymbols
p153
(lp154
sVtrends
p155
(lp156
sVhashtags
p157
(lp158
sVurls
p159
(lp160
ssVin_reply_to_screen_name
p161
VNathanFillion
p162
sg42
V620588717175144448
p163
sVretweet_count
p164
I0
sVin_reply_to_user_id
p165
I31353077
sVfavorited
p166
I00
sVuser
p167
g29
sVgeo
p168
NsVin_reply_to_user_id_str
p169
g130
sVpossibly_sensitive
p170
I00
sg68
g127
sg76
VMon Jul 13 13:40:54 +0000 2015
p171
sVfilter_level
p172
g122
sVin_reply_to_status_id_str
p173
NsVplace
p174
(dp175
Vfull_name
p176
VBerne, Switzerland
p177
sg75
Vhttps://api.twitter.com/1.1/geo/id/5868d0e0749c9c47.json
p178
sVcountry
p179
VSchweiz
p180
sVplace_type
p181
Vadmin
p182
sVbounding_box
p183
(dp184
Vtype
p185
VPolygon
p186
sg140
(lp187
(lp188
(lp189
F6.861601
aF46.326441
aa(lp190
F6.861601
aF47.34528
aa(lp191
F8.455051
aF47.34528
aa(lp192
F8.455051
aF46.326441
aaassVcountry_code
p193
VCH
p194
sVattributes
p195
(dp196
sg33
V5868d0e0749c9c47
p197
sg66
VBern
p198
sssS'coordinates'
p199
NsS'timestamp_ms'
p200
g142
sS'entities'
p201
g144
sS'in_reply_to_status_id_str'
p202
NsS'in_reply_to_screen_name'
p203
g162
sg90
g163
sS'retweeted'
p204
I00
sS'place'
p205
g0
(ctweepy.models
Place
p206
g2
Ntp207
Rp208
(dp209
S'full_name'
p210
g177
sg109
g178
sS'country'
p211
g180
sS'place_type'
p212
g182
sS'bounding_box'
p213
g0
(ctweepy.models
BoundingBox
p214
g2
Ntp215
Rp216
(dp217
S'type'
p218
g186
sg199
g187
sbsS'country_code'
p219
g194
sS'attributes'
p220
g196
sg24
g197
sg103
g198
sbsS'retweet_count'
p221
I0
sg110
g111
(S'\x07\xdf\x07\r\r(6\x00\x00\x00'
p222
tp223
Rp224
sS'in_reply_to_user_id'
p225
I31353077
sb.