ccopy_reg
_reconstructor
p0
(ctweepy.models
Status
p1
c__builtin__
object
p2
Ntp3
Rp4
(dp5
S'favorited'
p6
I00
sS'contributors'
p7
NsS'truncated'
p8
I00
sS'text'
p9
V@doctor_margaret love your latest @huffpost50 piece - have shared with @sixtyandme community - following you now and look forward to more!
p10
sS'source_url'
p11
Vhttp://twitter.com
p12
sS'possibly_sensitive'
p13
I00
sS'in_reply_to_status_id'
p14
NsS'user'
p15
g0
(ctweepy.models
User
p16
g2
Ntp17
Rp18
(dp19
S'follow_request_sent'
p20
NsS'profile_use_background_image'
p21
I01
sS'profile_sidebar_fill_color'
p22
VF3F3F3
p23
sS'id'
p24
I955350608
sS'verified'
p25
I00
sS'profile_image_url_https'
p26
Vhttps://pbs.twimg.com/profile_images/564447504066818048/t1W1zL6G_normal.png
p27
sS'_json'
p28
(dp29
Vfollow_request_sent
p30
NsVprofile_use_background_image
p31
I01
sVdefault_profile_image
p32
I00
sVid
p33
I955350608
sVverified
p34
I00
sVprofile_image_url_https
p35
g27
sVprofile_sidebar_fill_color
p36
g23
sVprofile_text_color
p37
V333333
p38
sVfollowers_count
p39
I3607
sVprofile_sidebar_border_color
p40
VDFDFDF
p41
sVid_str
p42
V955350608
p43
sVprofile_background_color
p44
VEBEBEB
p45
sVlisted_count
p46
I112
sVprofile_background_image_url_https
p47
Vhttps://abs.twimg.com/images/themes/theme7/bg.gif
p48
sVutc_offset
p49
NsVstatuses_count
p50
I12135
sVdescription
p51
VSixty and Me is a global community of 100,000 women over 60. Helping boomer women to live healthy, independent and financially secure lives. By Margaret Manning
p52
sVfriends_count
p53
I1781
sVlocation
p54
VSwitzerland 
p55
sVprofile_link_color
p56
V990000
p57
sVprofile_image_url
p58
Vhttp://pbs.twimg.com/profile_images/564447504066818048/t1W1zL6G_normal.png
p59
sVfollowing
p60
NsVgeo_enabled
p61
I01
sVprofile_banner_url
p62
Vhttps://pbs.twimg.com/profile_banners/955350608/1423417866
p63
sVprofile_background_image_url
p64
Vhttp://abs.twimg.com/images/themes/theme7/bg.gif
p65
sVname
p66
VSixty and Me 
p67
sVlang
p68
Ven
p69
sVprofile_background_tile
p70
I00
sVfavourites_count
p71
I254
sVscreen_name
p72
Vsixtyandme
p73
sVnotifications
p74
NsVurl
p75
Vhttp://sixtyandme.com
p76
sVcreated_at
p77
VSun Nov 18 11:54:24 +0000 2012
p78
sVcontributors_enabled
p79
I00
sVtime_zone
p80
NsVprotected
p81
I00
sVdefault_profile
p82
I00
sVis_translator
p83
I00
ssS'contributors_enabled'
p84
I00
sS'profile_text_color'
p85
g38
sS'followers_count'
p86
I3607
sS'profile_sidebar_border_color'
p87
g41
sS'location'
p88
g55
sS'default_profile_image'
p89
I00
sS'id_str'
p90
g43
sS'utc_offset'
p91
NsS'statuses_count'
p92
I12135
sS'description'
p93
g52
sS'friends_count'
p94
I1781
sS'profile_link_color'
p95
g57
sS'profile_image_url'
p96
g59
sS'notifications'
p97
NsS'geo_enabled'
p98
I01
sS'profile_background_color'
p99
g45
sS'profile_banner_url'
p100
g63
sS'profile_background_image_url'
p101
g65
sS'name'
p102
g67
sS'lang'
p103
g69
sS'following'
p104
I00
sS'profile_background_tile'
p105
I00
sS'favourites_count'
p106
I254
sS'screen_name'
p107
g73
sS'url'
p108
g76
sS'created_at'
p109
cdatetime
datetime
p110
(S'\x07\xdc\x0b\x12\x0b6\x18\x00\x00\x00'
p111
tp112
Rp113
sS'profile_background_image_url_https'
p114
g48
sS'time_zone'
p115
NsS'protected'
p116
I00
sS'default_profile'
p117
I00
sS'is_translator'
p118
I00
sS'listed_count'
p119
I112
sbsS'filter_level'
p120
Vlow
p121
sS'geo'
p122
Nsg24
I620577018720206848
sS'favorite_count'
p123
I0
sS'source'
p124
VTwitter Web Client
p125
sg103
Ven
p126
sS'author'
p127
g18
sS'in_reply_to_user_id_str'
p128
V1018071769
p129
sg28
(dp130
Vcontributors
p131
NsVtruncated
p132
I00
sVtext
p133
g10
sVin_reply_to_status_id
p134
Nsg33
I620577018720206848
sVfavorite_count
p135
I0
sVsource
p136
V<a href="http://twitter.com" rel="nofollow">Twitter Web Client</a>
p137
sVretweeted
p138
I00
sVcoordinates
p139
NsVtimestamp_ms
p140
V1436792065683
p141
sVentities
p142
(dp143
Vuser_mentions
p144
(lp145
(dp146
g33
I1018071769
sVindices
p147
(lp148
I0
aI16
asg42
V1018071769
p149
sg72
Vdoctor_margaret
p150
sg66
VMargaret Rutherford 
p151
sa(dp152
g33
I366563215
sg147
(lp153
I34
aI45
asg42
V366563215
p154
sg72
Vhuffpost50
p155
sg66
VHuff/Post50
p156
sa(dp157
g33
I955350608
sg147
(lp158
I71
aI82
asg42
V955350608
p159
sg72
Vsixtyandme
p160
sg66
VSixty and Me 
p161
sasVsymbols
p162
(lp163
sVtrends
p164
(lp165
sVhashtags
p166
(lp167
sVurls
p168
(lp169
ssVin_reply_to_screen_name
p170
Vdoctor_margaret
p171
sg42
V620577018720206848
p172
sVretweet_count
p173
I0
sVin_reply_to_user_id
p174
I1018071769
sVfavorited
p175
I00
sVuser
p176
g29
sVgeo
p177
NsVin_reply_to_user_id_str
p178
g129
sVpossibly_sensitive
p179
I00
sg68
g126
sg77
VMon Jul 13 12:54:25 +0000 2015
p180
sVfilter_level
p181
g121
sVin_reply_to_status_id_str
p182
NsVplace
p183
(dp184
Vfull_name
p185
VZurich, Switzerland
p186
sg75
Vhttps://api.twitter.com/1.1/geo/id/3acb748d0f1e9265.json
p187
sVcountry
p188
VSchweiz
p189
sVplace_type
p190
Vcity
p191
sVbounding_box
p192
(dp193
Vtype
p194
VPolygon
p195
sg139
(lp196
(lp197
(lp198
F8.448081
aF47.320183
aa(lp199
F8.448081
aF47.434721
aa(lp200
F8.625442
aF47.434721
aa(lp201
F8.625442
aF47.320183
aaassVcountry_code
p202
VCH
p203
sVattributes
p204
(dp205
sg33
V3acb748d0f1e9265
p206
sg66
VZurich
p207
sssS'coordinates'
p208
NsS'timestamp_ms'
p209
g141
sS'entities'
p210
g143
sS'in_reply_to_status_id_str'
p211
NsS'in_reply_to_screen_name'
p212
g171
sg90
g172
sS'retweeted'
p213
I00
sS'place'
p214
g0
(ctweepy.models
Place
p215
g2
Ntp216
Rp217
(dp218
S'full_name'
p219
g186
sg108
g187
sS'country'
p220
g189
sS'place_type'
p221
g191
sS'bounding_box'
p222
g0
(ctweepy.models
BoundingBox
p223
g2
Ntp224
Rp225
(dp226
S'type'
p227
g195
sg208
g196
sbsS'country_code'
p228
g203
sS'attributes'
p229
g205
sg24
g206
sg102
g207
sbsS'retweet_count'
p230
I0
sg109
g110
(S'\x07\xdf\x07\r\x0c6\x19\x00\x00\x00'
p231
tp232
Rp233
sS'in_reply_to_user_id'
p234
I1018071769
sb.