ccopy_reg
_reconstructor
p0
(ctweepy.models
Status
p1
c__builtin__
object
p2
Ntp3
Rp4
(dp5
S'favorited'
p6
I00
sS'contributors'
p7
NsS'truncated'
p8
I00
sS'text'
p9
VLife doesn't get better: row on Lake Zurich+ old friends from Swiss team: wine on lawn, swim +lunch Grasshopper club http://t.co/pfZF4Px6XX
p10
sS'source_url'
p11
Vhttp://twitter.com/download/iphone
p12
sS'possibly_sensitive'
p13
I00
sS'in_reply_to_status_id'
p14
NsS'user'
p15
g0
(ctweepy.models
User
p16
g2
Ntp17
Rp18
(dp19
S'follow_request_sent'
p20
NsS'profile_use_background_image'
p21
I01
sS'profile_sidebar_fill_color'
p22
VDDEEF6
p23
sS'id'
p24
I22464462
sS'verified'
p25
I00
sS'profile_image_url_https'
p26
Vhttps://pbs.twimg.com/profile_images/1368767678/image_normal.jpg
p27
sS'_json'
p28
(dp29
Vfollow_request_sent
p30
NsVprofile_use_background_image
p31
I01
sVdefault_profile_image
p32
I00
sVid
p33
I22464462
sVverified
p34
I00
sVprofile_image_url_https
p35
g27
sVprofile_sidebar_fill_color
p36
g23
sVprofile_text_color
p37
V333333
p38
sVfollowers_count
p39
I3176
sVprofile_sidebar_border_color
p40
VC0DEED
p41
sVid_str
p42
V22464462
p43
sVprofile_background_color
p44
VC0DEED
p45
sVlisted_count
p46
I59
sVprofile_background_image_url_https
p47
Vhttps://abs.twimg.com/images/themes/theme1/bg.png
p48
sVutc_offset
p49
NsVstatuses_count
p50
I8519
sVdescription
p51
VOlympic champion rower, family man, loves to coach, teach history, write,  broadcast - views my own blah blah...
p52
sVfriends_count
p53
I707
sVlocation
p54
VHampton
p55
sVprofile_link_color
p56
V0084B4
p57
sVprofile_image_url
p58
Vhttp://pbs.twimg.com/profile_images/1368767678/image_normal.jpg
p59
sVfollowing
p60
NsVgeo_enabled
p61
I01
sVprofile_background_image_url
p62
Vhttp://abs.twimg.com/images/themes/theme1/bg.png
p63
sVname
p64
Vmartin cross
p65
sVlang
p66
Ven
p67
sVprofile_background_tile
p68
I00
sVfavourites_count
p69
I2066
sVscreen_name
p70
Vmartcrossy
p71
sVnotifications
p72
NsVurl
p73
Vhttp://thebloggingoarsman.com/
p74
sVcreated_at
p75
VMon Mar 02 07:58:19 +0000 2009
p76
sVcontributors_enabled
p77
I00
sVtime_zone
p78
NsVprotected
p79
I00
sVdefault_profile
p80
I01
sVis_translator
p81
I00
ssS'contributors_enabled'
p82
I00
sS'profile_text_color'
p83
g38
sS'followers_count'
p84
I3176
sS'profile_sidebar_border_color'
p85
g41
sS'location'
p86
g55
sS'default_profile_image'
p87
I00
sS'id_str'
p88
g43
sS'utc_offset'
p89
NsS'statuses_count'
p90
I8519
sS'description'
p91
g52
sS'friends_count'
p92
I707
sS'profile_link_color'
p93
g57
sS'profile_image_url'
p94
g59
sS'notifications'
p95
NsS'geo_enabled'
p96
I01
sS'profile_background_color'
p97
g45
sS'profile_background_image_url'
p98
g63
sS'name'
p99
g65
sS'lang'
p100
g67
sS'following'
p101
I00
sS'profile_background_tile'
p102
I00
sS'favourites_count'
p103
I2066
sS'screen_name'
p104
g71
sS'url'
p105
g74
sS'created_at'
p106
cdatetime
datetime
p107
(S'\x07\xd9\x03\x02\x07:\x13\x00\x00\x00'
p108
tp109
Rp110
sS'profile_background_image_url_https'
p111
g48
sS'time_zone'
p112
NsS'protected'
p113
I00
sS'default_profile'
p114
I01
sS'is_translator'
p115
I00
sS'listed_count'
p116
I59
sbsS'filter_level'
p117
Vlow
p118
sS'geo'
p119
(dp120
Vtype
p121
VPoint
p122
sVcoordinates
p123
(lp124
F47.356459
aF8.536284
assg24
I619468307981320192
sS'favorite_count'
p125
I0
sS'source'
p126
VTwitter for iPhone
p127
sg100
Ven
p128
sS'author'
p129
g18
sS'in_reply_to_user_id_str'
p130
Nsg28
(dp131
Vcontributors
p132
NsVtruncated
p133
I00
sVtext
p134
g10
sVin_reply_to_status_id
p135
Nsg33
I619468307981320192
sVfavorite_count
p136
I0
sVsource
p137
V<a href="http://twitter.com/download/iphone" rel="nofollow">Twitter for iPhone</a>
p138
sVretweeted
p139
I00
sg123
(dp140
g121
VPoint
p141
sg123
(lp142
F8.536284
aF47.356459
assVtimestamp_ms
p143
V1436527728444
p144
sVentities
p145
(dp146
Vsymbols
p147
(lp148
sVmedia
p149
(lp150
(dp151
Vexpanded_url
p152
Vhttp://twitter.com/martcrossy/status/619468307981320192/photo/1
p153
sVdisplay_url
p154
Vpic.twitter.com/pfZF4Px6XX
p155
sg73
Vhttp://t.co/pfZF4Px6XX
p156
sVmedia_url_https
p157
Vhttps://pbs.twimg.com/media/CJjLE0gWgAAFDFF.jpg
p158
sg42
V619468232437694464
p159
sVsizes
p160
(dp161
Vsmall
p162
(dp163
Vh
p164
I255
sVresize
p165
Vfit
p166
sVw
p167
I340
ssVlarge
p168
(dp169
g164
I768
sg165
Vfit
p170
sg167
I1024
ssVmedium
p171
(dp172
g164
I450
sg165
Vfit
p173
sg167
I600
ssVthumb
p174
(dp175
g164
I150
sg165
Vcrop
p176
sg167
I150
sssVindices
p177
(lp178
I117
aI139
asg121
Vphoto
p179
sg33
I619468232437694464
sVmedia_url
p180
Vhttp://pbs.twimg.com/media/CJjLE0gWgAAFDFF.jpg
p181
sasVhashtags
p182
(lp183
sVuser_mentions
p184
(lp185
sVtrends
p186
(lp187
sVurls
p188
(lp189
ssVin_reply_to_screen_name
p190
Nsg42
V619468307981320192
p191
sVretweet_count
p192
I0
sVin_reply_to_user_id
p193
NsVfavorited
p194
I00
sVuser
p195
g29
sVgeo
p196
g120
sVin_reply_to_user_id_str
p197
NsVpossibly_sensitive
p198
I00
sg66
g128
sg75
VFri Jul 10 11:28:48 +0000 2015
p199
sVfilter_level
p200
g118
sVin_reply_to_status_id_str
p201
NsVplace
p202
(dp203
Vfull_name
p204
VZurich, Switzerland
p205
sg73
Vhttps://api.twitter.com/1.1/geo/id/3acb748d0f1e9265.json
p206
sVcountry
p207
VSchweiz
p208
sVplace_type
p209
Vcity
p210
sVbounding_box
p211
(dp212
g121
VPolygon
p213
sg123
(lp214
(lp215
(lp216
F8.448081
aF47.320183
aa(lp217
F8.448081
aF47.434721
aa(lp218
F8.625442
aF47.434721
aa(lp219
F8.625442
aF47.320183
aaassVcountry_code
p220
VCH
p221
sVattributes
p222
(dp223
sg33
V3acb748d0f1e9265
p224
sg64
VZurich
p225
ssVextended_entities
p226
(dp227
g149
(lp228
(dp229
g152
Vhttp://twitter.com/martcrossy/status/619468307981320192/photo/1
p230
sg154
Vpic.twitter.com/pfZF4Px6XX
p231
sg73
Vhttp://t.co/pfZF4Px6XX
p232
sg157
Vhttps://pbs.twimg.com/media/CJjLE0gWgAAFDFF.jpg
p233
sg42
V619468232437694464
p234
sg160
(dp235
g162
(dp236
g164
I255
sg165
Vfit
p237
sg167
I340
ssg168
(dp238
g164
I768
sg165
Vfit
p239
sg167
I1024
ssg171
(dp240
g164
I450
sg165
Vfit
p241
sg167
I600
ssg174
(dp242
g164
I150
sg165
Vcrop
p243
sg167
I150
sssg177
(lp244
I117
aI139
asg121
Vphoto
p245
sg33
I619468232437694464
sg180
Vhttp://pbs.twimg.com/media/CJjLE0gWgAAFDFF.jpg
p246
sasssS'coordinates'
p247
g140
sS'timestamp_ms'
p248
g144
sS'entities'
p249
g146
sS'in_reply_to_status_id_str'
p250
NsS'in_reply_to_screen_name'
p251
Nsg88
g191
sS'extended_entities'
p252
g227
sS'retweeted'
p253
I00
sS'place'
p254
g0
(ctweepy.models
Place
p255
g2
Ntp256
Rp257
(dp258
S'full_name'
p259
g205
sg105
g206
sS'country'
p260
g208
sS'place_type'
p261
g210
sS'bounding_box'
p262
g0
(ctweepy.models
BoundingBox
p263
g2
Ntp264
Rp265
(dp266
S'type'
p267
g213
sg247
g214
sbsS'country_code'
p268
g221
sS'attributes'
p269
g223
sg24
g224
sg99
g225
sbsS'retweet_count'
p270
I0
sg106
g107
(S'\x07\xdf\x07\n\x0b\x1c0\x00\x00\x00'
p271
tp272
Rp273
sS'in_reply_to_user_id'
p274
Nsb.