ccopy_reg
_reconstructor
p0
(ctweepy.models
Status
p1
c__builtin__
object
p2
Ntp3
Rp4
(dp5
S'favorited'
p6
I00
sS'contributors'
p7
NsS'truncated'
p8
I00
sS'text'
p9
VIn this Hot Weather,don't forget to stay hydrated &amp; drink lots of water #Healthy #Summer #SummerCamps #safety #first http://t.co/BQLpMsEvGy
p10
sS'source_url'
p11
Vhttp://twitter.com
p12
sS'possibly_sensitive'
p13
I00
sS'in_reply_to_status_id'
p14
NsS'user'
p15
g0
(ctweepy.models
User
p16
g2
Ntp17
Rp18
(dp19
S'follow_request_sent'
p20
NsS'profile_use_background_image'
p21
I01
sS'profile_sidebar_fill_color'
p22
VDDEEF6
p23
sS'id'
p24
I600180316
sS'verified'
p25
I00
sS'profile_image_url_https'
p26
Vhttps://pbs.twimg.com/profile_images/511496377872838658/z5C5K5AI_normal.jpeg
p27
sS'_json'
p28
(dp29
Vfollow_request_sent
p30
NsVprofile_use_background_image
p31
I01
sVdefault_profile_image
p32
I00
sVid
p33
I600180316
sVverified
p34
I00
sVprofile_image_url_https
p35
g27
sVprofile_sidebar_fill_color
p36
g23
sVprofile_text_color
p37
V333333
p38
sVfollowers_count
p39
I100
sVprofile_sidebar_border_color
p40
VFFFFFF
p41
sVid_str
p42
V600180316
p43
sVprofile_background_color
p44
VC0DEED
p45
sVlisted_count
p46
I1
sVprofile_background_image_url_https
p47
Vhttps://pbs.twimg.com/profile_background_images/378800000066701950/baf8a308d6d8e646e8d4de2037f769ce.jpeg
p48
sVutc_offset
p49
I10800
sVstatuses_count
p50
I223
sVdescription
p51
VWe are the largest supplier of grassroots football in Switzerland for Boys & Girls. We offer boys & girls aged 3-13 fun football courses & camps!
p52
sVfriends_count
p53
I208
sVlocation
p54
VSwitzerland
p55
sVprofile_link_color
p56
V4A913C
p57
sVprofile_image_url
p58
Vhttp://pbs.twimg.com/profile_images/511496377872838658/z5C5K5AI_normal.jpeg
p59
sVfollowing
p60
NsVgeo_enabled
p61
I01
sVprofile_banner_url
p62
Vhttps://pbs.twimg.com/profile_banners/600180316/1410533546
p63
sVprofile_background_image_url
p64
Vhttp://pbs.twimg.com/profile_background_images/378800000066701950/baf8a308d6d8e646e8d4de2037f769ce.jpeg
p65
sVname
p66
VInterSoccer 
p67
sVlang
p68
Ven
p69
sVprofile_background_tile
p70
I01
sVfavourites_count
p71
I6
sVscreen_name
p72
VInterSoccer_
p73
sVnotifications
p74
NsVurl
p75
Vhttp://www.intersoccer.ch/
p76
sVcreated_at
p77
VTue Jun 05 15:09:47 +0000 2012
p78
sVcontributors_enabled
p79
I00
sVtime_zone
p80
VAthens
p81
sVprotected
p82
I00
sVdefault_profile
p83
I00
sVis_translator
p84
I00
ssS'contributors_enabled'
p85
I00
sS'profile_text_color'
p86
g38
sS'followers_count'
p87
I100
sS'profile_sidebar_border_color'
p88
g41
sS'location'
p89
g55
sS'default_profile_image'
p90
I00
sS'id_str'
p91
g43
sS'utc_offset'
p92
I10800
sS'statuses_count'
p93
I223
sS'description'
p94
g52
sS'friends_count'
p95
I208
sS'profile_link_color'
p96
g57
sS'profile_image_url'
p97
g59
sS'notifications'
p98
NsS'geo_enabled'
p99
I01
sS'profile_background_color'
p100
g45
sS'profile_banner_url'
p101
g63
sS'profile_background_image_url'
p102
g65
sS'name'
p103
g67
sS'lang'
p104
g69
sS'following'
p105
I00
sS'profile_background_tile'
p106
I01
sS'favourites_count'
p107
I6
sS'screen_name'
p108
g73
sS'url'
p109
g76
sS'created_at'
p110
cdatetime
datetime
p111
(S'\x07\xdc\x06\x05\x0f\t/\x00\x00\x00'
p112
tp113
Rp114
sS'profile_background_image_url_https'
p115
g48
sS'time_zone'
p116
g81
sS'protected'
p117
I00
sS'default_profile'
p118
I00
sS'is_translator'
p119
I00
sS'listed_count'
p120
I1
sbsS'filter_level'
p121
Vlow
p122
sS'geo'
p123
Nsg24
I618431401021558784
sS'favorite_count'
p124
I0
sS'source'
p125
VTwitter Web Client
p126
sg104
Ven
p127
sS'author'
p128
g18
sS'in_reply_to_user_id_str'
p129
Nsg28
(dp130
Vcontributors
p131
NsVtruncated
p132
I00
sVtext
p133
g10
sVin_reply_to_status_id
p134
Nsg33
I618431401021558784
sVfavorite_count
p135
I0
sVsource
p136
V<a href="http://twitter.com" rel="nofollow">Twitter Web Client</a>
p137
sVretweeted
p138
I00
sVcoordinates
p139
NsVtimestamp_ms
p140
V1436280510560
p141
sVentities
p142
(dp143
Vsymbols
p144
(lp145
sVmedia
p146
(lp147
(dp148
Vexpanded_url
p149
Vhttp://twitter.com/InterSoccer_/status/618431401021558784/photo/1
p150
sVdisplay_url
p151
Vpic.twitter.com/BQLpMsEvGy
p152
sg75
Vhttp://t.co/BQLpMsEvGy
p153
sVmedia_url_https
p154
Vhttps://pbs.twimg.com/media/CJUcFOqVAAANPYW.jpg
p155
sg42
V618431399993868288
p156
sVsizes
p157
(dp158
Vlarge
p159
(dp160
Vh
p161
I480
sVresize
p162
Vfit
p163
sVw
p164
I640
ssVsmall
p165
(dp166
g161
I255
sg162
Vfit
p167
sg164
I340
ssVmedium
p168
(dp169
g161
I450
sg162
Vfit
p170
sg164
I600
ssVthumb
p171
(dp172
g161
I150
sg162
Vcrop
p173
sg164
I150
sssVindices
p174
(lp175
I121
aI143
asVtype
p176
Vphoto
p177
sg33
I618431399993868288
sVmedia_url
p178
Vhttp://pbs.twimg.com/media/CJUcFOqVAAANPYW.jpg
p179
sasVhashtags
p180
(lp181
(dp182
g174
(lp183
I76
aI84
asg133
VHealthy
p184
sa(dp185
g174
(lp186
I85
aI92
asg133
VSummer
p187
sa(dp188
g174
(lp189
I93
aI105
asg133
VSummerCamps
p190
sa(dp191
g174
(lp192
I106
aI113
asg133
Vsafety
p193
sa(dp194
g174
(lp195
I114
aI120
asg133
Vfirst
p196
sasVuser_mentions
p197
(lp198
sVtrends
p199
(lp200
sVurls
p201
(lp202
ssVin_reply_to_screen_name
p203
Nsg42
V618431401021558784
p204
sVretweet_count
p205
I0
sVin_reply_to_user_id
p206
NsVfavorited
p207
I00
sVuser
p208
g29
sVgeo
p209
NsVin_reply_to_user_id_str
p210
NsVpossibly_sensitive
p211
I00
sg68
g127
sg77
VTue Jul 07 14:48:30 +0000 2015
p212
sVfilter_level
p213
g122
sVin_reply_to_status_id_str
p214
NsVplace
p215
(dp216
Vfull_name
p217
VZurich, Switzerland
p218
sg75
Vhttps://api.twitter.com/1.1/geo/id/3acb748d0f1e9265.json
p219
sVcountry
p220
VSchweiz
p221
sVplace_type
p222
Vcity
p223
sVbounding_box
p224
(dp225
g176
VPolygon
p226
sg139
(lp227
(lp228
(lp229
F8.448081
aF47.320183
aa(lp230
F8.448081
aF47.434721
aa(lp231
F8.625442
aF47.434721
aa(lp232
F8.625442
aF47.320183
aaassVcountry_code
p233
VCH
p234
sVattributes
p235
(dp236
sg33
V3acb748d0f1e9265
p237
sg66
VZurich
p238
ssVextended_entities
p239
(dp240
g146
(lp241
(dp242
g149
Vhttp://twitter.com/InterSoccer_/status/618431401021558784/photo/1
p243
sg151
Vpic.twitter.com/BQLpMsEvGy
p244
sg75
Vhttp://t.co/BQLpMsEvGy
p245
sg154
Vhttps://pbs.twimg.com/media/CJUcFOqVAAANPYW.jpg
p246
sg42
V618431399993868288
p247
sg157
(dp248
g159
(dp249
g161
I480
sg162
Vfit
p250
sg164
I640
ssg165
(dp251
g161
I255
sg162
Vfit
p252
sg164
I340
ssg168
(dp253
g161
I450
sg162
Vfit
p254
sg164
I600
ssg171
(dp255
g161
I150
sg162
Vcrop
p256
sg164
I150
sssg174
(lp257
I121
aI143
asg176
Vphoto
p258
sg33
I618431399993868288
sg178
Vhttp://pbs.twimg.com/media/CJUcFOqVAAANPYW.jpg
p259
sasssS'coordinates'
p260
NsS'timestamp_ms'
p261
g141
sS'entities'
p262
g143
sS'in_reply_to_status_id_str'
p263
NsS'in_reply_to_screen_name'
p264
Nsg91
g204
sS'extended_entities'
p265
g240
sS'retweeted'
p266
I00
sS'place'
p267
g0
(ctweepy.models
Place
p268
g2
Ntp269
Rp270
(dp271
S'full_name'
p272
g218
sg109
g219
sS'country'
p273
g221
sS'place_type'
p274
g223
sS'bounding_box'
p275
g0
(ctweepy.models
BoundingBox
p276
g2
Ntp277
Rp278
(dp279
S'type'
p280
g226
sg260
g227
sbsS'country_code'
p281
g234
sS'attributes'
p282
g236
sg24
g237
sg103
g238
sbsS'retweet_count'
p283
I0
sg110
g111
(S'\x07\xdf\x07\x07\x0e0\x1e\x00\x00\x00'
p284
tp285
Rp286
sS'in_reply_to_user_id'
p287
Nsb.