ccopy_reg
_reconstructor
p0
(ctweepy.models
Status
p1
c__builtin__
object
p2
Ntp3
Rp4
(dp5
S'favorited'
p6
I00
sS'contributors'
p7
NsS'truncated'
p8
I00
sS'text'
p9
VIs French cuisine dead? Join Twitter chat on Thursday, July 9, 1 pm EST. #FutureFrenchCuisine @mbhide @Mango_Queen @Mike_Gerrard @wmrubel
p10
sS'source_url'
p11
Vhttp://twitter.com
p12
sS'possibly_sensitive'
p13
I01
sS'in_reply_to_status_id'
p14
NsS'user'
p15
g0
(ctweepy.models
User
p16
g2
Ntp17
Rp18
(dp19
S'follow_request_sent'
p20
NsS'profile_use_background_image'
p21
I01
sS'profile_sidebar_fill_color'
p22
VDDEEF6
p23
sS'id'
p24
I62246266
sS'verified'
p25
I00
sS'profile_image_url_https'
p26
Vhttps://pbs.twimg.com/profile_images/611211387675758592/SezptZ23_normal.jpg
p27
sS'_json'
p28
(dp29
Vfollow_request_sent
p30
NsVprofile_use_background_image
p31
I01
sVdefault_profile_image
p32
I00
sVid
p33
I62246266
sVverified
p34
I00
sVprofile_image_url_https
p35
g27
sVprofile_sidebar_fill_color
p36
g23
sVprofile_text_color
p37
V333333
p38
sVfollowers_count
p39
I2413
sVprofile_sidebar_border_color
p40
VC0DEED
p41
sVid_str
p42
V62246266
p43
sVprofile_background_color
p44
VC0DEED
p45
sVlisted_count
p46
I166
sVprofile_background_image_url_https
p47
Vhttps://pbs.twimg.com/profile_background_images/155615512/KeikoOikawa.jpg
p48
sVutc_offset
p49
I7200
sVstatuses_count
p50
I30323
sVdescription
p51
VFreelance food writer & editor specialized in French cuisine, writing a book The French & What They Eat. http://t.co/guV7pdhCJg #WhatToEatInFrance #foodwriting
p52
sVfriends_count
p53
I1460
sVlocation
p54
VFrance, Switzerland, U.S.
p55
sVprofile_link_color
p56
V0084B4
p57
sVprofile_image_url
p58
Vhttp://pbs.twimg.com/profile_images/611211387675758592/SezptZ23_normal.jpg
p59
sVfollowing
p60
NsVgeo_enabled
p61
I01
sVprofile_banner_url
p62
Vhttps://pbs.twimg.com/profile_banners/62246266/1372063685
p63
sVprofile_background_image_url
p64
Vhttp://pbs.twimg.com/profile_background_images/155615512/KeikoOikawa.jpg
p65
sVname
p66
VJonell Galloway
p67
sVlang
p68
Ven
p69
sVprofile_background_tile
p70
I00
sVfavourites_count
p71
I47
sVscreen_name
p72
VRamblingEpicure
p73
sVnotifications
p74
NsVurl
p75
Vhttp://theramblingepicure.com
p76
sVcreated_at
p77
VSun Aug 02 11:43:47 +0000 2009
p78
sVcontributors_enabled
p79
I00
sVtime_zone
p80
VBern
p81
sVprotected
p82
I00
sVdefault_profile
p83
I00
sVis_translator
p84
I00
ssS'contributors_enabled'
p85
I00
sS'profile_text_color'
p86
g38
sS'followers_count'
p87
I2413
sS'profile_sidebar_border_color'
p88
g41
sS'location'
p89
g55
sS'default_profile_image'
p90
I00
sS'id_str'
p91
g43
sS'utc_offset'
p92
I7200
sS'statuses_count'
p93
I30323
sS'description'
p94
g52
sS'friends_count'
p95
I1460
sS'profile_link_color'
p96
g57
sS'profile_image_url'
p97
g59
sS'notifications'
p98
NsS'geo_enabled'
p99
I01
sS'profile_background_color'
p100
g45
sS'profile_banner_url'
p101
g63
sS'profile_background_image_url'
p102
g65
sS'name'
p103
g67
sS'lang'
p104
g69
sS'following'
p105
I00
sS'profile_background_tile'
p106
I00
sS'favourites_count'
p107
I47
sS'screen_name'
p108
g73
sS'url'
p109
g76
sS'created_at'
p110
cdatetime
datetime
p111
(S'\x07\xd9\x08\x02\x0b+/\x00\x00\x00'
p112
tp113
Rp114
sS'profile_background_image_url_https'
p115
g48
sS'time_zone'
p116
g81
sS'protected'
p117
I00
sS'default_profile'
p118
I00
sS'is_translator'
p119
I00
sS'listed_count'
p120
I166
sbsS'filter_level'
p121
Vlow
p122
sS'geo'
p123
Nsg24
I618845072310861826
sS'favorite_count'
p124
I0
sS'source'
p125
VTwitter Web Client
p126
sg104
Ven
p127
sS'author'
p128
g18
sS'in_reply_to_user_id_str'
p129
Nsg28
(dp130
Vcontributors
p131
NsVtruncated
p132
I00
sVtext
p133
g10
sVin_reply_to_status_id
p134
Nsg33
I618845072310861826
sVfavorite_count
p135
I0
sVsource
p136
V<a href="http://twitter.com" rel="nofollow">Twitter Web Client</a>
p137
sVretweeted
p138
I00
sVcoordinates
p139
NsVtimestamp_ms
p140
V1436379137481
p141
sVentities
p142
(dp143
Vuser_mentions
p144
(lp145
(dp146
g33
I19196214
sVindices
p147
(lp148
I94
aI101
asg42
V19196214
p149
sg72
Vmbhide
p150
sg66
VMonica Bhide 
p151
sa(dp152
g33
I40144076
sg147
(lp153
I102
aI114
asg42
V40144076
p154
sg72
VMango_Queen
p155
sg66
VBettyAnnBesaQuirino
p156
sa(dp157
g33
I35578833
sg147
(lp158
I115
aI128
asg42
V35578833
p159
sg72
VMike_Gerrard
p160
sg66
VMike Gerrard
p161
sa(dp162
g33
I356944290
sg147
(lp163
I129
aI137
asg42
V356944290
p164
sg72
Vwmrubel
p165
sg66
VWilliam Rubel
p166
sasVsymbols
p167
(lp168
sVtrends
p169
(lp170
sVhashtags
p171
(lp172
(dp173
g147
(lp174
I73
aI93
asg133
VFutureFrenchCuisine
p175
sasVurls
p176
(lp177
ssVin_reply_to_screen_name
p178
Nsg42
V618845072310861826
p179
sVretweet_count
p180
I0
sVin_reply_to_user_id
p181
NsVfavorited
p182
I00
sVuser
p183
g29
sVgeo
p184
NsVin_reply_to_user_id_str
p185
NsVpossibly_sensitive
p186
I01
sg68
g127
sg77
VWed Jul 08 18:12:17 +0000 2015
p187
sVfilter_level
p188
g122
sVin_reply_to_status_id_str
p189
NsVplace
p190
(dp191
Vfull_name
p192
VZurich, Switzerland
p193
sg75
Vhttps://api.twitter.com/1.1/geo/id/3acb748d0f1e9265.json
p194
sVcountry
p195
VSchweiz
p196
sVplace_type
p197
Vcity
p198
sVbounding_box
p199
(dp200
Vtype
p201
VPolygon
p202
sg139
(lp203
(lp204
(lp205
F8.448081
aF47.320183
aa(lp206
F8.448081
aF47.434721
aa(lp207
F8.625442
aF47.434721
aa(lp208
F8.625442
aF47.320183
aaassVcountry_code
p209
VCH
p210
sVattributes
p211
(dp212
sg33
V3acb748d0f1e9265
p213
sg66
VZurich
p214
sssS'coordinates'
p215
NsS'timestamp_ms'
p216
g141
sS'entities'
p217
g143
sS'in_reply_to_status_id_str'
p218
NsS'in_reply_to_screen_name'
p219
Nsg91
g179
sS'retweeted'
p220
I00
sS'place'
p221
g0
(ctweepy.models
Place
p222
g2
Ntp223
Rp224
(dp225
S'full_name'
p226
g193
sg109
g194
sS'country'
p227
g196
sS'place_type'
p228
g198
sS'bounding_box'
p229
g0
(ctweepy.models
BoundingBox
p230
g2
Ntp231
Rp232
(dp233
S'type'
p234
g202
sg215
g203
sbsS'country_code'
p235
g210
sS'attributes'
p236
g212
sg24
g213
sg103
g214
sbsS'retweet_count'
p237
I0
sg110
g111
(S'\x07\xdf\x07\x08\x12\x0c\x11\x00\x00\x00'
p238
tp239
Rp240
sS'in_reply_to_user_id'
p241
Nsb.