ccopy_reg
_reconstructor
p0
(ctweepy.models
Status
p1
c__builtin__
object
p2
Ntp3
Rp4
(dp5
S'favorited'
p6
I00
sS'contributors'
p7
NsS'truncated'
p8
I00
sS'text'
p9
V#friday #relaxing after a #hard #week #weekend #Zurich #primitivo #limmat #river #swiss #Switzerland\u2026 https://t.co/gNMebdPRD0
p10
sS'source_url'
p11
Vhttp://instagram.com
p12
sS'possibly_sensitive'
p13
I00
sS'in_reply_to_status_id'
p14
NsS'user'
p15
g0
(ctweepy.models
User
p16
g2
Ntp17
Rp18
(dp19
S'follow_request_sent'
p20
NsS'profile_use_background_image'
p21
I00
sS'profile_sidebar_fill_color'
p22
V000000
p23
sS'id'
p24
I2972939609
sS'verified'
p25
I00
sS'profile_image_url_https'
p26
Vhttps://pbs.twimg.com/profile_images/554248352263450624/d92QyN7B_normal.jpeg
p27
sS'_json'
p28
(dp29
Vfollow_request_sent
p30
NsVprofile_use_background_image
p31
I00
sVdefault_profile_image
p32
I00
sVid
p33
I2972939609
sVverified
p34
I00
sVprofile_image_url_https
p35
g27
sVprofile_sidebar_fill_color
p36
g23
sVprofile_text_color
p37
V000000
p38
sVfollowers_count
p39
I107
sVprofile_sidebar_border_color
p40
V000000
p41
sVid_str
p42
V2972939609
p43
sVprofile_background_color
p44
V000000
p45
sVlisted_count
p46
I6
sVprofile_background_image_url_https
p47
Vhttps://abs.twimg.com/images/themes/theme1/bg.png
p48
sVutc_offset
p49
I7200
sVstatuses_count
p50
I429
sVdescription
p51
VBusiness Analyst @ ricardo.ch Zug, Switzerland from Tripolis, Greece
p52
sVfriends_count
p53
I577
sVlocation
p54
VZurich
p55
sVprofile_link_color
p56
V4A913C
p57
sVprofile_image_url
p58
Vhttp://pbs.twimg.com/profile_images/554248352263450624/d92QyN7B_normal.jpeg
p59
sVfollowing
p60
NsVgeo_enabled
p61
I01
sVprofile_banner_url
p62
Vhttps://pbs.twimg.com/profile_banners/2972939609/1435524449
p63
sVprofile_background_image_url
p64
Vhttp://abs.twimg.com/images/themes/theme1/bg.png
p65
sVname
p66
VPetratsis
p67
sVlang
p68
Ven
p69
sVprofile_background_tile
p70
I00
sVfavourites_count
p71
I208
sVscreen_name
p72
Vpetratsis
p73
sVnotifications
p74
NsVurl
p75
NsVcreated_at
p76
VSun Jan 11 12:03:30 +0000 2015
p77
sVcontributors_enabled
p78
I00
sVtime_zone
p79
VBern
p80
sVprotected
p81
I00
sVdefault_profile
p82
I00
sVis_translator
p83
I00
ssS'contributors_enabled'
p84
I00
sS'profile_text_color'
p85
g38
sS'followers_count'
p86
I107
sS'profile_sidebar_border_color'
p87
g41
sS'location'
p88
g55
sS'default_profile_image'
p89
I00
sS'id_str'
p90
g43
sS'utc_offset'
p91
I7200
sS'statuses_count'
p92
I429
sS'description'
p93
g52
sS'friends_count'
p94
I577
sS'profile_link_color'
p95
g57
sS'profile_image_url'
p96
g59
sS'notifications'
p97
NsS'geo_enabled'
p98
I01
sS'profile_background_color'
p99
g45
sS'profile_banner_url'
p100
g63
sS'profile_background_image_url'
p101
g65
sS'name'
p102
g67
sS'lang'
p103
g69
sS'following'
p104
I00
sS'profile_background_tile'
p105
I00
sS'favourites_count'
p106
I208
sS'screen_name'
p107
g73
sS'url'
p108
NsS'created_at'
p109
cdatetime
datetime
p110
(S'\x07\xdf\x01\x0b\x0c\x03\x1e\x00\x00\x00'
p111
tp112
Rp113
sS'profile_background_image_url_https'
p114
g48
sS'time_zone'
p115
g80
sS'protected'
p116
I00
sS'default_profile'
p117
I00
sS'is_translator'
p118
I00
sS'listed_count'
p119
I6
sbsS'filter_level'
p120
Vlow
p121
sS'geo'
p122
(dp123
Vtype
p124
VPoint
p125
sVcoordinates
p126
(lp127
F47.385044
aF8.536122
assg24
I619552988026290176
sS'favorite_count'
p128
I0
sS'source'
p129
VInstagram
p130
sg103
Ven
p131
sS'author'
p132
g18
sS'in_reply_to_user_id_str'
p133
Nsg28
(dp134
Vcontributors
p135
NsVtruncated
p136
I00
sVtext
p137
g10
sVin_reply_to_status_id
p138
Nsg33
I619552988026290176
sVfavorite_count
p139
I0
sVsource
p140
V<a href="http://instagram.com" rel="nofollow">Instagram</a>
p141
sVretweeted
p142
I00
sg126
(dp143
g124
VPoint
p144
sg126
(lp145
F8.536122
aF47.385044
assVtimestamp_ms
p146
V1436547917740
p147
sVentities
p148
(dp149
Vuser_mentions
p150
(lp151
sVsymbols
p152
(lp153
sVtrends
p154
(lp155
sVhashtags
p156
(lp157
(dp158
Vindices
p159
(lp160
I0
aI7
asg137
Vfriday
p161
sa(dp162
g159
(lp163
I8
aI17
asg137
Vrelaxing
p164
sa(dp165
g159
(lp166
I26
aI31
asg137
Vhard
p167
sa(dp168
g159
(lp169
I32
aI37
asg137
Vweek
p170
sa(dp171
g159
(lp172
I38
aI46
asg137
Vweekend
p173
sa(dp174
g159
(lp175
I47
aI54
asg137
VZurich
p176
sa(dp177
g159
(lp178
I55
aI65
asg137
Vprimitivo
p179
sa(dp180
g159
(lp181
I66
aI73
asg137
Vlimmat
p182
sa(dp183
g159
(lp184
I74
aI80
asg137
Vriver
p185
sa(dp186
g159
(lp187
I81
aI87
asg137
Vswiss
p188
sa(dp189
g159
(lp190
I88
aI100
asg137
VSwitzerland
p191
sasVurls
p192
(lp193
(dp194
g75
Vhttps://t.co/gNMebdPRD0
p195
sg159
(lp196
I102
aI125
asVexpanded_url
p197
Vhttps://instagram.com/p/49p8XtLozh/
p198
sVdisplay_url
p199
Vinstagram.com/p/49p8XtLozh/
p200
sassVin_reply_to_screen_name
p201
Nsg42
V619552988026290176
p202
sVretweet_count
p203
I0
sVin_reply_to_user_id
p204
NsVfavorited
p205
I00
sVuser
p206
g29
sVgeo
p207
g123
sVin_reply_to_user_id_str
p208
NsVpossibly_sensitive
p209
I00
sg68
g131
sg76
VFri Jul 10 17:05:17 +0000 2015
p210
sVfilter_level
p211
g121
sVin_reply_to_status_id_str
p212
NsVplace
p213
(dp214
Vfull_name
p215
VZurich, Switzerland
p216
sg75
Vhttps://api.twitter.com/1.1/geo/id/3acb748d0f1e9265.json
p217
sVcountry
p218
VSchweiz
p219
sVplace_type
p220
Vcity
p221
sVbounding_box
p222
(dp223
g124
VPolygon
p224
sg126
(lp225
(lp226
(lp227
F8.448081
aF47.320183
aa(lp228
F8.448081
aF47.434721
aa(lp229
F8.625442
aF47.434721
aa(lp230
F8.625442
aF47.320183
aaassVcountry_code
p231
VCH
p232
sVattributes
p233
(dp234
sg33
V3acb748d0f1e9265
p235
sg66
VZurich
p236
sssS'coordinates'
p237
g143
sS'timestamp_ms'
p238
g147
sS'entities'
p239
g149
sS'in_reply_to_status_id_str'
p240
NsS'in_reply_to_screen_name'
p241
Nsg90
g202
sS'retweeted'
p242
I00
sS'place'
p243
g0
(ctweepy.models
Place
p244
g2
Ntp245
Rp246
(dp247
S'full_name'
p248
g216
sg108
g217
sS'country'
p249
g219
sS'place_type'
p250
g221
sS'bounding_box'
p251
g0
(ctweepy.models
BoundingBox
p252
g2
Ntp253
Rp254
(dp255
S'type'
p256
g224
sg237
g225
sbsS'country_code'
p257
g232
sS'attributes'
p258
g234
sg24
g235
sg102
g236
sbsS'retweet_count'
p259
I0
sg109
g110
(S'\x07\xdf\x07\n\x11\x05\x11\x00\x00\x00'
p260
tp261
Rp262
sS'in_reply_to_user_id'
p263
Nsb.