ccopy_reg
_reconstructor
p0
(ctweepy.models
Status
p1
c__builtin__
object
p2
Ntp3
Rp4
(dp5
S'favorited'
p6
I00
sS'contributors'
p7
NsS'truncated'
p8
I00
sS'text'
p9
VTake note \U0001f44d #streetphotography #streetart #zurich http://t.co/ZD3CtDD69t
p10
sS'source_url'
p11
Vhttp://twitter.com/download/iphone
p12
sS'possibly_sensitive'
p13
I00
sS'in_reply_to_status_id'
p14
NsS'user'
p15
g0
(ctweepy.models
User
p16
g2
Ntp17
Rp18
(dp19
S'follow_request_sent'
p20
NsS'profile_use_background_image'
p21
I01
sS'profile_sidebar_fill_color'
p22
VEFEFEF
p23
sS'id'
p24
I291991611
sS'verified'
p25
I00
sS'profile_image_url_https'
p26
Vhttps://pbs.twimg.com/profile_images/587804013300752384/_vO6SxLX_normal.jpg
p27
sS'_json'
p28
(dp29
Vfollow_request_sent
p30
NsVprofile_use_background_image
p31
I01
sVdefault_profile_image
p32
I00
sVid
p33
I291991611
sVverified
p34
I00
sVprofile_image_url_https
p35
g27
sVprofile_sidebar_fill_color
p36
g23
sVprofile_text_color
p37
V333333
p38
sVfollowers_count
p39
I617
sVprofile_sidebar_border_color
p40
VEEEEEE
p41
sVid_str
p42
V291991611
p43
sVprofile_background_color
p44
V131516
p45
sVlisted_count
p46
I5
sVprofile_background_image_url_https
p47
Vhttps://abs.twimg.com/images/themes/theme14/bg.gif
p48
sVutc_offset
p49
NsVstatuses_count
p50
I4717
sVdescription
p51
VFitness, adventure, travel, golf.
p52
sVfriends_count
p53
I214
sVlocation
p54
VChandlers Ford, UK
p55
sVprofile_link_color
p56
V009999
p57
sVprofile_image_url
p58
Vhttp://pbs.twimg.com/profile_images/587804013300752384/_vO6SxLX_normal.jpg
p59
sVfollowing
p60
NsVgeo_enabled
p61
I01
sVprofile_banner_url
p62
Vhttps://pbs.twimg.com/profile_banners/291991611/1424036827
p63
sVprofile_background_image_url
p64
Vhttp://abs.twimg.com/images/themes/theme14/bg.gif
p65
sVname
p66
VJoe Wenman
p67
sVlang
p68
Ven
p69
sVprofile_background_tile
p70
I01
sVfavourites_count
p71
I953
sVscreen_name
p72
Vjoey_wenners
p73
sVnotifications
p74
NsVurl
p75
NsVcreated_at
p76
VMon May 02 23:07:35 +0000 2011
p77
sVcontributors_enabled
p78
I00
sVtime_zone
p79
NsVprotected
p80
I00
sVdefault_profile
p81
I00
sVis_translator
p82
I00
ssS'contributors_enabled'
p83
I00
sS'profile_text_color'
p84
g38
sS'followers_count'
p85
I617
sS'profile_sidebar_border_color'
p86
g41
sS'location'
p87
g55
sS'default_profile_image'
p88
I00
sS'id_str'
p89
g43
sS'utc_offset'
p90
NsS'statuses_count'
p91
I4717
sS'description'
p92
g52
sS'friends_count'
p93
I214
sS'profile_link_color'
p94
g57
sS'profile_image_url'
p95
g59
sS'notifications'
p96
NsS'geo_enabled'
p97
I01
sS'profile_background_color'
p98
g45
sS'profile_banner_url'
p99
g63
sS'profile_background_image_url'
p100
g65
sS'name'
p101
g67
sS'lang'
p102
g69
sS'following'
p103
I00
sS'profile_background_tile'
p104
I01
sS'favourites_count'
p105
I953
sS'screen_name'
p106
g73
sS'url'
p107
NsS'created_at'
p108
cdatetime
datetime
p109
(S'\x07\xdb\x05\x02\x17\x07#\x00\x00\x00'
p110
tp111
Rp112
sS'profile_background_image_url_https'
p113
g48
sS'time_zone'
p114
NsS'protected'
p115
I00
sS'default_profile'
p116
I00
sS'is_translator'
p117
I00
sS'listed_count'
p118
I5
sbsS'filter_level'
p119
Vlow
p120
sS'geo'
p121
Nsg24
I619277635236024320
sS'favorite_count'
p122
I0
sS'source'
p123
VTwitter for iPhone
p124
sg102
Ven
p125
sS'author'
p126
g18
sS'in_reply_to_user_id_str'
p127
Nsg28
(dp128
Vcontributors
p129
NsVtruncated
p130
I00
sVtext
p131
g10
sVin_reply_to_status_id
p132
Nsg33
I619277635236024320
sVfavorite_count
p133
I0
sVsource
p134
V<a href="http://twitter.com/download/iphone" rel="nofollow">Twitter for iPhone</a>
p135
sVretweeted
p136
I00
sVcoordinates
p137
NsVtimestamp_ms
p138
V1436482268519
p139
sVentities
p140
(dp141
Vsymbols
p142
(lp143
sVmedia
p144
(lp145
(dp146
Vexpanded_url
p147
Vhttp://twitter.com/joey_wenners/status/619277635236024320/photo/1
p148
sVdisplay_url
p149
Vpic.twitter.com/ZD3CtDD69t
p150
sg75
Vhttp://t.co/ZD3CtDD69t
p151
sVmedia_url_https
p152
Vhttps://pbs.twimg.com/media/CJgdt2EUcAAhoI-.jpg
p153
sg42
V619277622208393216
p154
sVsizes
p155
(dp156
Vsmall
p157
(dp158
Vh
p159
I340
sVresize
p160
Vfit
p161
sVw
p162
I340
ssVlarge
p163
(dp164
g159
I1024
sg160
Vfit
p165
sg162
I1024
ssVmedium
p166
(dp167
g159
I600
sg160
Vfit
p168
sg162
I600
ssVthumb
p169
(dp170
g159
I150
sg160
Vcrop
p171
sg162
I150
sssVindices
p172
(lp173
I50
aI72
asVtype
p174
Vphoto
p175
sg33
I619277622208393216
sVmedia_url
p176
Vhttp://pbs.twimg.com/media/CJgdt2EUcAAhoI-.jpg
p177
sasVhashtags
p178
(lp179
(dp180
g172
(lp181
I12
aI30
asg131
Vstreetphotography
p182
sa(dp183
g172
(lp184
I31
aI41
asg131
Vstreetart
p185
sa(dp186
g172
(lp187
I42
aI49
asg131
Vzurich
p188
sasVuser_mentions
p189
(lp190
sVtrends
p191
(lp192
sVurls
p193
(lp194
ssVin_reply_to_screen_name
p195
Nsg42
V619277635236024320
p196
sVretweet_count
p197
I0
sVin_reply_to_user_id
p198
NsVfavorited
p199
I00
sVuser
p200
g29
sVgeo
p201
NsVin_reply_to_user_id_str
p202
NsVpossibly_sensitive
p203
I00
sg68
g125
sg76
VThu Jul 09 22:51:08 +0000 2015
p204
sVfilter_level
p205
g120
sVin_reply_to_status_id_str
p206
NsVplace
p207
(dp208
Vfull_name
p209
VZurich, Switzerland
p210
sg75
Vhttps://api.twitter.com/1.1/geo/id/3acb748d0f1e9265.json
p211
sVcountry
p212
VSchweiz
p213
sVplace_type
p214
Vcity
p215
sVbounding_box
p216
(dp217
g174
VPolygon
p218
sg137
(lp219
(lp220
(lp221
F8.448081
aF47.320183
aa(lp222
F8.448081
aF47.434721
aa(lp223
F8.625442
aF47.434721
aa(lp224
F8.625442
aF47.320183
aaassVcountry_code
p225
VCH
p226
sVattributes
p227
(dp228
sg33
V3acb748d0f1e9265
p229
sg66
VZurich
p230
ssVextended_entities
p231
(dp232
g144
(lp233
(dp234
g147
Vhttp://twitter.com/joey_wenners/status/619277635236024320/photo/1
p235
sg149
Vpic.twitter.com/ZD3CtDD69t
p236
sg75
Vhttp://t.co/ZD3CtDD69t
p237
sg152
Vhttps://pbs.twimg.com/media/CJgdt2EUcAAhoI-.jpg
p238
sg42
V619277622208393216
p239
sg155
(dp240
g157
(dp241
g159
I340
sg160
Vfit
p242
sg162
I340
ssg163
(dp243
g159
I1024
sg160
Vfit
p244
sg162
I1024
ssg166
(dp245
g159
I600
sg160
Vfit
p246
sg162
I600
ssg169
(dp247
g159
I150
sg160
Vcrop
p248
sg162
I150
sssg172
(lp249
I50
aI72
asg174
Vphoto
p250
sg33
I619277622208393216
sg176
Vhttp://pbs.twimg.com/media/CJgdt2EUcAAhoI-.jpg
p251
sasssS'coordinates'
p252
NsS'timestamp_ms'
p253
g139
sS'entities'
p254
g141
sS'in_reply_to_status_id_str'
p255
NsS'in_reply_to_screen_name'
p256
Nsg89
g196
sS'extended_entities'
p257
g232
sS'retweeted'
p258
I00
sS'place'
p259
g0
(ctweepy.models
Place
p260
g2
Ntp261
Rp262
(dp263
S'full_name'
p264
g210
sg107
g211
sS'country'
p265
g213
sS'place_type'
p266
g215
sS'bounding_box'
p267
g0
(ctweepy.models
BoundingBox
p268
g2
Ntp269
Rp270
(dp271
S'type'
p272
g218
sg252
g219
sbsS'country_code'
p273
g226
sS'attributes'
p274
g228
sg24
g229
sg101
g230
sbsS'retweet_count'
p275
I0
sg108
g109
(S'\x07\xdf\x07\t\x163\x08\x00\x00\x00'
p276
tp277
Rp278
sS'in_reply_to_user_id'
p279
Nsb.