ccopy_reg
_reconstructor
p0
(ctweepy.models
Status
p1
c__builtin__
object
p2
Ntp3
Rp4
(dp5
S'favorited'
p6
I00
sS'contributors'
p7
NsS'truncated'
p8
I00
sS'text'
p9
V@dangkyroibo @ZiLeOHai @bmxtopher @fame \u000aNUT VEIN HAHAHAHAHAHAHAHAHAHAHAHA GONNA FAV THIS ONE.\u000a@fame_hoe HAHAHAHAHAHAHAHA NUTTIN A VEIN HAHA
p10
sS'source_url'
p11
Vhttp://twitter.com
p12
sS'possibly_sensitive'
p13
I00
sS'in_reply_to_status_id'
p14
I620759127766110208
sS'user'
p15
g0
(ctweepy.models
User
p16
g2
Ntp17
Rp18
(dp19
S'follow_request_sent'
p20
NsS'profile_use_background_image'
p21
I00
sS'profile_sidebar_fill_color'
p22
V000000
p23
sS'id'
p24
I2879569993
sS'verified'
p25
I00
sS'profile_image_url_https'
p26
Vhttps://pbs.twimg.com/profile_images/610874208827146241/voSDsKk8_normal.png
p27
sS'_json'
p28
(dp29
Vfollow_request_sent
p30
NsVprofile_use_background_image
p31
I00
sVdefault_profile_image
p32
I00
sVid
p33
I2879569993
sVverified
p34
I00
sVprofile_image_url_https
p35
g27
sVprofile_sidebar_fill_color
p36
g23
sVprofile_text_color
p37
V000000
p38
sVfollowers_count
p39
I248
sVprofile_sidebar_border_color
p40
V000000
p41
sVid_str
p42
V2879569993
p43
sVprofile_background_color
p44
V000000
p45
sVlisted_count
p46
I3
sVprofile_background_image_url_https
p47
Vhttps://abs.twimg.com/images/themes/theme14/bg.gif
p48
sVutc_offset
p49
I-25200
sVstatuses_count
p50
I1365
sVdescription
p51
VNEVER COULD HIDE WHO I AM.  .http://ish.re/JJRT -not me. @PROTONMAIL.COM
p52
sVfriends_count
p53
I284
sVlocation
p54
VRepublic of Mozambique
p55
sVprofile_link_color
p56
VDD2E44
p57
sVprofile_image_url
p58
Vhttp://pbs.twimg.com/profile_images/610874208827146241/voSDsKk8_normal.png
p59
sVfollowing
p60
NsVgeo_enabled
p61
I01
sVprofile_banner_url
p62
Vhttps://pbs.twimg.com/profile_banners/2879569993/1434478513
p63
sVprofile_background_image_url
p64
Vhttp://abs.twimg.com/images/themes/theme14/bg.gif
p65
sVname
p66
VD\u2200MN\u2200L\u308bX 
p67
sVlang
p68
Ven
p69
sVprofile_background_tile
p70
I00
sVfavourites_count
p71
I30
sVscreen_name
p72
VDd0xblack1
p73
sVnotifications
p74
NsVurl
p75
NsVcreated_at
p76
VMon Oct 27 13:04:37 +0000 2014
p77
sVcontributors_enabled
p78
I00
sVtime_zone
p79
VPacific Time (US & Canada)
p80
sVprotected
p81
I00
sVdefault_profile
p82
I00
sVis_translator
p83
I00
ssS'contributors_enabled'
p84
I00
sS'profile_text_color'
p85
g38
sS'followers_count'
p86
I248
sS'profile_sidebar_border_color'
p87
g41
sS'location'
p88
g55
sS'default_profile_image'
p89
I00
sS'id_str'
p90
g43
sS'utc_offset'
p91
I-25200
sS'statuses_count'
p92
I1365
sS'description'
p93
g52
sS'friends_count'
p94
I284
sS'profile_link_color'
p95
g57
sS'profile_image_url'
p96
g59
sS'notifications'
p97
NsS'geo_enabled'
p98
I01
sS'profile_background_color'
p99
g45
sS'profile_banner_url'
p100
g63
sS'profile_background_image_url'
p101
g65
sS'name'
p102
g67
sS'lang'
p103
g69
sS'following'
p104
I00
sS'profile_background_tile'
p105
I00
sS'favourites_count'
p106
I30
sS'screen_name'
p107
g73
sS'url'
p108
NsS'created_at'
p109
cdatetime
datetime
p110
(S'\x07\xde\n\x1b\r\x04%\x00\x00\x00'
p111
tp112
Rp113
sS'profile_background_image_url_https'
p114
g48
sS'time_zone'
p115
g80
sS'protected'
p116
I00
sS'default_profile'
p117
I00
sS'is_translator'
p118
I00
sS'listed_count'
p119
I3
sbsS'filter_level'
p120
Vlow
p121
sS'geo'
p122
Nsg24
I620772282269569028
sS'favorite_count'
p123
I0
sS'source'
p124
VTwitter Web Client
p125
sg103
Vnl
p126
sS'author'
p127
g18
sS'in_reply_to_user_id_str'
p128
V1422546763
p129
sg28
(dp130
Vcontributors
p131
NsVtruncated
p132
I00
sVtext
p133
V@dangkyroibo @ZiLeOHai @bmxtopher @fame \u000aNUT VEIN HAHAHAHAHAHAHAHAHAHAHAHA GONNA FAV THIS ONE.\u000a@fame_hoe HAHAHAHAHAHAHAHA NUTTIN A VEIN HAHA
p134
sVin_reply_to_status_id
p135
I620759127766110208
sg33
I620772282269569028
sVfavorite_count
p136
I0
sVsource
p137
V<a href="http://twitter.com" rel="nofollow">Twitter Web Client</a>
p138
sVretweeted
p139
I00
sVcoordinates
p140
NsVtimestamp_ms
p141
V1436838620141
p142
sVentities
p143
(dp144
Vuser_mentions
p145
(lp146
(dp147
g33
I1422546763
sVindices
p148
(lp149
I0
aI12
asg42
V1422546763
p150
sg72
Vdangkyroibo
p151
sg66
Vnhut vien
p152
sa(dp153
g33
I2342506544
sg148
(lp154
I13
aI22
asg42
V2342506544
p155
sg72
VZiLeOHai
p156
sg66
VDon't Potato
p157
sa(dp158
g33
I3318509770
sg148
(lp159
I23
aI33
asg42
V3318509770
p160
sg72
Vbmxtopher
p161
sg66
Vbmxchris
p162
sa(dp163
g33
I2426199542
sg148
(lp164
I34
aI39
asg42
V2426199542
p165
sg72
Vfame
p166
sg66
VFame
p167
sa(dp168
g33
I3354051028
sg148
(lp169
I95
aI104
asg42
V3354051028
p170
sg72
Vfame_hoe
p171
sg66
V\u2588\u2588\u2588\u2588\u2588 \u2020 \u2588\u2588\u2588\u2588\u2588 
p172
sasVsymbols
p173
(lp174
sVtrends
p175
(lp176
sVhashtags
p177
(lp178
sVurls
p179
(lp180
ssVin_reply_to_screen_name
p181
Vdangkyroibo
p182
sg42
V620772282269569028
p183
sVretweet_count
p184
I0
sVin_reply_to_user_id
p185
I1422546763
sVfavorited
p186
I00
sVuser
p187
g29
sVgeo
p188
NsVin_reply_to_user_id_str
p189
g129
sVpossibly_sensitive
p190
I00
sg68
g126
sg76
VTue Jul 14 01:50:20 +0000 2015
p191
sVfilter_level
p192
g121
sVin_reply_to_status_id_str
p193
V620759127766110208
p194
sVplace
p195
(dp196
Vfull_name
p197
VBerne, Switzerland
p198
sg75
Vhttps://api.twitter.com/1.1/geo/id/5868d0e0749c9c47.json
p199
sVcountry
p200
VSchweiz
p201
sVplace_type
p202
Vadmin
p203
sVbounding_box
p204
(dp205
Vtype
p206
VPolygon
p207
sg140
(lp208
(lp209
(lp210
F6.861601
aF46.326441
aa(lp211
F6.861601
aF47.34528
aa(lp212
F8.455051
aF47.34528
aa(lp213
F8.455051
aF46.326441
aaassVcountry_code
p214
VCH
p215
sVattributes
p216
(dp217
sg33
V5868d0e0749c9c47
p218
sg66
VBern
p219
sssS'coordinates'
p220
NsS'timestamp_ms'
p221
g142
sS'entities'
p222
g144
sS'in_reply_to_status_id_str'
p223
g194
sS'in_reply_to_screen_name'
p224
g182
sg90
g183
sS'retweeted'
p225
I00
sS'place'
p226
g0
(ctweepy.models
Place
p227
g2
Ntp228
Rp229
(dp230
S'full_name'
p231
g198
sg108
g199
sS'country'
p232
g201
sS'place_type'
p233
g203
sS'bounding_box'
p234
g0
(ctweepy.models
BoundingBox
p235
g2
Ntp236
Rp237
(dp238
S'type'
p239
g207
sg220
g208
sbsS'country_code'
p240
g215
sS'attributes'
p241
g217
sg24
g218
sg102
g219
sbsS'retweet_count'
p242
I0
sg109
g110
(S'\x07\xdf\x07\x0e\x012\x14\x00\x00\x00'
p243
tp244
Rp245
sS'in_reply_to_user_id'
p246
I1422546763
sb.