ccopy_reg
_reconstructor
p0
(ctweepy.models
Status
p1
c__builtin__
object
p2
Ntp3
Rp4
(dp5
S'favorited'
p6
I00
sS'contributors'
p7
NsS'truncated'
p8
I00
sS'text'
p9
V@dangkyroibo @JNmeba Glen Miley Collier Twitter Spambot Accounts http://t.co/3JDlWROLSw \u000a@FBIJacksonville @Support @twitter \u000a#SPAMMER
p10
sS'source_url'
p11
Vhttp://twitter.com
p12
sS'possibly_sensitive'
p13
I00
sS'in_reply_to_status_id'
p14
I621122771477594112
sS'user'
p15
g0
(ctweepy.models
User
p16
g2
Ntp17
Rp18
(dp19
S'follow_request_sent'
p20
NsS'profile_use_background_image'
p21
I00
sS'profile_sidebar_fill_color'
p22
V000000
p23
sS'id'
p24
I2879569993
sS'verified'
p25
I00
sS'profile_image_url_https'
p26
Vhttps://pbs.twimg.com/profile_images/610874208827146241/voSDsKk8_normal.png
p27
sS'_json'
p28
(dp29
Vfollow_request_sent
p30
NsVprofile_use_background_image
p31
I00
sVdefault_profile_image
p32
I00
sVid
p33
I2879569993
sVverified
p34
I00
sVprofile_image_url_https
p35
g27
sVprofile_sidebar_fill_color
p36
g23
sVprofile_text_color
p37
V000000
p38
sVfollowers_count
p39
I250
sVprofile_sidebar_border_color
p40
V000000
p41
sVid_str
p42
V2879569993
p43
sVprofile_background_color
p44
V000000
p45
sVlisted_count
p46
I3
sVprofile_background_image_url_https
p47
Vhttps://abs.twimg.com/images/themes/theme14/bg.gif
p48
sVutc_offset
p49
I-25200
sVstatuses_count
p50
I1406
sVdescription
p51
VNEVER COULD HIDE WHO I AM.  .http://ish.re/JJRT -not me. @PROTONMAIL.COM
p52
sVfriends_count
p53
I282
sVlocation
p54
VRepublic of Mozambique
p55
sVprofile_link_color
p56
VDD2E44
p57
sVprofile_image_url
p58
Vhttp://pbs.twimg.com/profile_images/610874208827146241/voSDsKk8_normal.png
p59
sVfollowing
p60
NsVgeo_enabled
p61
I01
sVprofile_banner_url
p62
Vhttps://pbs.twimg.com/profile_banners/2879569993/1434478513
p63
sVprofile_background_image_url
p64
Vhttp://abs.twimg.com/images/themes/theme14/bg.gif
p65
sVname
p66
VD\u2200MN\u2200L\u308bX 
p67
sVlang
p68
Ven
p69
sVprofile_background_tile
p70
I00
sVfavourites_count
p71
I30
sVscreen_name
p72
VDd0xblack1
p73
sVnotifications
p74
NsVurl
p75
NsVcreated_at
p76
VMon Oct 27 13:04:37 +0000 2014
p77
sVcontributors_enabled
p78
I00
sVtime_zone
p79
VPacific Time (US & Canada)
p80
sVprotected
p81
I00
sVdefault_profile
p82
I00
sVis_translator
p83
I00
ssS'contributors_enabled'
p84
I00
sS'profile_text_color'
p85
g38
sS'followers_count'
p86
I250
sS'profile_sidebar_border_color'
p87
g41
sS'location'
p88
g55
sS'default_profile_image'
p89
I00
sS'id_str'
p90
g43
sS'utc_offset'
p91
I-25200
sS'statuses_count'
p92
I1406
sS'description'
p93
g52
sS'friends_count'
p94
I282
sS'profile_link_color'
p95
g57
sS'profile_image_url'
p96
g59
sS'notifications'
p97
NsS'geo_enabled'
p98
I01
sS'profile_background_color'
p99
g45
sS'profile_banner_url'
p100
g63
sS'profile_background_image_url'
p101
g65
sS'name'
p102
g67
sS'lang'
p103
g69
sS'following'
p104
I00
sS'profile_background_tile'
p105
I00
sS'favourites_count'
p106
I30
sS'screen_name'
p107
g73
sS'url'
p108
NsS'created_at'
p109
cdatetime
datetime
p110
(S'\x07\xde\n\x1b\r\x04%\x00\x00\x00'
p111
tp112
Rp113
sS'profile_background_image_url_https'
p114
g48
sS'time_zone'
p115
g80
sS'protected'
p116
I00
sS'default_profile'
p117
I00
sS'is_translator'
p118
I00
sS'listed_count'
p119
I3
sbsS'filter_level'
p120
Vlow
p121
sS'geo'
p122
Nsg24
I621134040372871169
sS'favorite_count'
p123
I0
sS'source'
p124
VTwitter Web Client
p125
sg103
Ven
p126
sS'author'
p127
g18
sS'in_reply_to_user_id_str'
p128
V1422546763
p129
sg28
(dp130
Vcontributors
p131
NsVtruncated
p132
I00
sVtext
p133
V@dangkyroibo @JNmeba Glen Miley Collier Twitter Spambot Accounts http://t.co/3JDlWROLSw \u000a@FBIJacksonville @Support @twitter \u000a#SPAMMER
p134
sVin_reply_to_status_id
p135
I621122771477594112
sg33
I621134040372871169
sVfavorite_count
p136
I0
sVsource
p137
V<a href="http://twitter.com" rel="nofollow">Twitter Web Client</a>
p138
sVretweeted
p139
I00
sVcoordinates
p140
NsVtimestamp_ms
p141
V1436924869994
p142
sVentities
p143
(dp144
Vuser_mentions
p145
(lp146
(dp147
g33
I1422546763
sVindices
p148
(lp149
I0
aI12
asg42
V1422546763
p150
sg72
Vdangkyroibo
p151
sg66
Vnhut vien
p152
sa(dp153
g33
I3342096707
sg148
(lp154
I13
aI20
asg42
V3342096707
p155
sg72
VJNmeba
p156
sg66
VK\u2200RTO\u308bSH\u2200
p157
sa(dp158
g33
I349287347
sg148
(lp159
I89
aI105
asg42
V349287347
p160
sg72
VFBIJacksonville
p161
sg66
VFBI Jacksonville
p162
sa(dp163
g33
I17874544
sg148
(lp164
I106
aI114
asg42
V17874544
p165
sg72
VSupport
p166
sg66
VTwitter Support
p167
sa(dp168
g33
I783214
sg148
(lp169
I115
aI123
asg42
V783214
p170
sg72
Vtwitter
p171
sg66
VTwitter
p172
sasVsymbols
p173
(lp174
sVtrends
p175
(lp176
sVhashtags
p177
(lp178
(dp179
g148
(lp180
I125
aI133
asg133
VSPAMMER
p181
sasVurls
p182
(lp183
(dp184
g75
Vhttp://t.co/3JDlWROLSw
p185
sg148
(lp186
I65
aI87
asVexpanded_url
p187
Vhttp://9rie.st/glen-miley-collier-twitter-spambot-accounts/
p188
sVdisplay_url
p189
V9rie.st/glen-miley-col\u2026
p190
sassVin_reply_to_screen_name
p191
Vdangkyroibo
p192
sg42
V621134040372871169
p193
sVretweet_count
p194
I0
sVin_reply_to_user_id
p195
I1422546763
sVfavorited
p196
I00
sVuser
p197
g29
sVgeo
p198
NsVin_reply_to_user_id_str
p199
g129
sVpossibly_sensitive
p200
I00
sg68
g126
sg76
VWed Jul 15 01:47:49 +0000 2015
p201
sVfilter_level
p202
g121
sVin_reply_to_status_id_str
p203
V621122771477594112
p204
sVplace
p205
(dp206
Vfull_name
p207
VBerne, Switzerland
p208
sg75
Vhttps://api.twitter.com/1.1/geo/id/5868d0e0749c9c47.json
p209
sVcountry
p210
VSchweiz
p211
sVplace_type
p212
Vadmin
p213
sVbounding_box
p214
(dp215
Vtype
p216
VPolygon
p217
sg140
(lp218
(lp219
(lp220
F6.861601
aF46.326441
aa(lp221
F6.861601
aF47.34528
aa(lp222
F8.455051
aF47.34528
aa(lp223
F8.455051
aF46.326441
aaassVcountry_code
p224
VCH
p225
sVattributes
p226
(dp227
sg33
V5868d0e0749c9c47
p228
sg66
VBern
p229
sssS'coordinates'
p230
NsS'timestamp_ms'
p231
g142
sS'entities'
p232
g144
sS'in_reply_to_status_id_str'
p233
g204
sS'in_reply_to_screen_name'
p234
g192
sg90
g193
sS'retweeted'
p235
I00
sS'place'
p236
g0
(ctweepy.models
Place
p237
g2
Ntp238
Rp239
(dp240
S'full_name'
p241
g208
sg108
g209
sS'country'
p242
g211
sS'place_type'
p243
g213
sS'bounding_box'
p244
g0
(ctweepy.models
BoundingBox
p245
g2
Ntp246
Rp247
(dp248
S'type'
p249
g217
sg230
g218
sbsS'country_code'
p250
g225
sS'attributes'
p251
g227
sg24
g228
sg102
g229
sbsS'retweet_count'
p252
I0
sg109
g110
(S'\x07\xdf\x07\x0f\x01/1\x00\x00\x00'
p253
tp254
Rp255
sS'in_reply_to_user_id'
p256
I1422546763
sb.