ccopy_reg
_reconstructor
p0
(ctweepy.models
Status
p1
c__builtin__
object
p2
Ntp3
Rp4
(dp5
S'favorited'
p6
I00
sS'contributors'
p7
NsS'truncated'
p8
I00
sS'text'
p9
VLoneliness is a complex problem. Fortunately some of the best ways to deal with it are simple. http://t.co/BK3PsVbRfJ http://t.co/ayhoUDbord
p10
sS'source_url'
p11
Vhttp://twitter.com
p12
sS'possibly_sensitive'
p13
I00
sS'in_reply_to_status_id'
p14
NsS'user'
p15
g0
(ctweepy.models
User
p16
g2
Ntp17
Rp18
(dp19
S'follow_request_sent'
p20
NsS'profile_use_background_image'
p21
I01
sS'profile_sidebar_fill_color'
p22
VF3F3F3
p23
sS'id'
p24
I955350608
sS'verified'
p25
I00
sS'profile_image_url_https'
p26
Vhttps://pbs.twimg.com/profile_images/564447504066818048/t1W1zL6G_normal.png
p27
sS'_json'
p28
(dp29
Vfollow_request_sent
p30
NsVprofile_use_background_image
p31
I01
sVdefault_profile_image
p32
I00
sVid
p33
I955350608
sVverified
p34
I00
sVprofile_image_url_https
p35
g27
sVprofile_sidebar_fill_color
p36
g23
sVprofile_text_color
p37
V333333
p38
sVfollowers_count
p39
I3605
sVprofile_sidebar_border_color
p40
VDFDFDF
p41
sVid_str
p42
V955350608
p43
sVprofile_background_color
p44
VEBEBEB
p45
sVlisted_count
p46
I111
sVprofile_background_image_url_https
p47
Vhttps://abs.twimg.com/images/themes/theme7/bg.gif
p48
sVutc_offset
p49
NsVstatuses_count
p50
I12117
sVdescription
p51
VSixty and Me is a global community of 100,000 women over 60. Helping boomer women to live healthy, independent and financially secure lives. By Margaret Manning
p52
sVfriends_count
p53
I1778
sVlocation
p54
VSwitzerland 
p55
sVprofile_link_color
p56
V990000
p57
sVprofile_image_url
p58
Vhttp://pbs.twimg.com/profile_images/564447504066818048/t1W1zL6G_normal.png
p59
sVfollowing
p60
NsVgeo_enabled
p61
I01
sVprofile_banner_url
p62
Vhttps://pbs.twimg.com/profile_banners/955350608/1423417866
p63
sVprofile_background_image_url
p64
Vhttp://abs.twimg.com/images/themes/theme7/bg.gif
p65
sVname
p66
VSixty and Me 
p67
sVlang
p68
Ven
p69
sVprofile_background_tile
p70
I00
sVfavourites_count
p71
I253
sVscreen_name
p72
Vsixtyandme
p73
sVnotifications
p74
NsVurl
p75
Vhttp://sixtyandme.com
p76
sVcreated_at
p77
VSun Nov 18 11:54:24 +0000 2012
p78
sVcontributors_enabled
p79
I00
sVtime_zone
p80
NsVprotected
p81
I00
sVdefault_profile
p82
I00
sVis_translator
p83
I00
ssS'contributors_enabled'
p84
I00
sS'profile_text_color'
p85
g38
sS'followers_count'
p86
I3605
sS'profile_sidebar_border_color'
p87
g41
sS'location'
p88
g55
sS'default_profile_image'
p89
I00
sS'id_str'
p90
g43
sS'utc_offset'
p91
NsS'statuses_count'
p92
I12117
sS'description'
p93
g52
sS'friends_count'
p94
I1778
sS'profile_link_color'
p95
g57
sS'profile_image_url'
p96
g59
sS'notifications'
p97
NsS'geo_enabled'
p98
I01
sS'profile_background_color'
p99
g45
sS'profile_banner_url'
p100
g63
sS'profile_background_image_url'
p101
g65
sS'name'
p102
g67
sS'lang'
p103
g69
sS'following'
p104
I00
sS'profile_background_tile'
p105
I00
sS'favourites_count'
p106
I253
sS'screen_name'
p107
g73
sS'url'
p108
g76
sS'created_at'
p109
cdatetime
datetime
p110
(S'\x07\xdc\x0b\x12\x0b6\x18\x00\x00\x00'
p111
tp112
Rp113
sS'profile_background_image_url_https'
p114
g48
sS'time_zone'
p115
NsS'protected'
p116
I00
sS'default_profile'
p117
I00
sS'is_translator'
p118
I00
sS'listed_count'
p119
I111
sbsS'filter_level'
p120
Vlow
p121
sS'geo'
p122
Nsg24
I620118262970482688
sS'favorite_count'
p123
I0
sS'source'
p124
VTwitter Web Client
p125
sg103
Ven
p126
sS'author'
p127
g18
sS'in_reply_to_user_id_str'
p128
Nsg28
(dp129
Vcontributors
p130
NsVtruncated
p131
I00
sVtext
p132
g10
sVin_reply_to_status_id
p133
Nsg33
I620118262970482688
sVfavorite_count
p134
I0
sVsource
p135
V<a href="http://twitter.com" rel="nofollow">Twitter Web Client</a>
p136
sVretweeted
p137
I00
sVcoordinates
p138
NsVtimestamp_ms
p139
V1436682689789
p140
sVentities
p141
(dp142
Vsymbols
p143
(lp144
sVmedia
p145
(lp146
(dp147
Vexpanded_url
p148
Vhttp://twitter.com/sixtyandme/status/620118262970482688/photo/1
p149
sVdisplay_url
p150
Vpic.twitter.com/ayhoUDbord
p151
sg75
Vhttp://t.co/ayhoUDbord
p152
sVmedia_url_https
p153
Vhttps://pbs.twimg.com/media/CJsaRhPUMAAhzDj.jpg
p154
sg42
V620118261976281088
p155
sVsizes
p156
(dp157
Vlarge
p158
(dp159
Vh
p160
I300
sVresize
p161
Vfit
p162
sVw
p163
I585
ssVsmall
p164
(dp165
g160
I174
sg161
Vfit
p166
sg163
I340
ssVmedium
p167
(dp168
g160
I300
sg161
Vfit
p169
sg163
I585
ssVthumb
p170
(dp171
g160
I150
sg161
Vcrop
p172
sg163
I150
sssVindices
p173
(lp174
I118
aI140
asVtype
p175
Vphoto
p176
sg33
I620118261976281088
sVmedia_url
p177
Vhttp://pbs.twimg.com/media/CJsaRhPUMAAhzDj.jpg
p178
sasVhashtags
p179
(lp180
sVuser_mentions
p181
(lp182
sVtrends
p183
(lp184
sVurls
p185
(lp186
(dp187
g75
Vhttp://t.co/BK3PsVbRfJ
p188
sg173
(lp189
I95
aI117
asg148
Vhttp://www.boomerly.com/how-to-deal-with-loneliness-after-50/
p190
sg150
Vboomerly.com/how-to-deal-wi\u2026
p191
sassVin_reply_to_screen_name
p192
Nsg42
V620118262970482688
p193
sVretweet_count
p194
I0
sVin_reply_to_user_id
p195
NsVfavorited
p196
I00
sVuser
p197
g29
sVgeo
p198
NsVin_reply_to_user_id_str
p199
NsVpossibly_sensitive
p200
I00
sg68
g126
sg77
VSun Jul 12 06:31:29 +0000 2015
p201
sVfilter_level
p202
g121
sVin_reply_to_status_id_str
p203
NsVplace
p204
(dp205
Vfull_name
p206
VZurich, Switzerland
p207
sg75
Vhttps://api.twitter.com/1.1/geo/id/3acb748d0f1e9265.json
p208
sVcountry
p209
VSchweiz
p210
sVplace_type
p211
Vcity
p212
sVbounding_box
p213
(dp214
g175
VPolygon
p215
sg138
(lp216
(lp217
(lp218
F8.448081
aF47.320183
aa(lp219
F8.448081
aF47.434721
aa(lp220
F8.625442
aF47.434721
aa(lp221
F8.625442
aF47.320183
aaassVcountry_code
p222
VCH
p223
sVattributes
p224
(dp225
sg33
V3acb748d0f1e9265
p226
sg66
VZurich
p227
ssVextended_entities
p228
(dp229
g145
(lp230
(dp231
g148
Vhttp://twitter.com/sixtyandme/status/620118262970482688/photo/1
p232
sg150
Vpic.twitter.com/ayhoUDbord
p233
sg75
Vhttp://t.co/ayhoUDbord
p234
sg153
Vhttps://pbs.twimg.com/media/CJsaRhPUMAAhzDj.jpg
p235
sg42
V620118261976281088
p236
sg156
(dp237
g158
(dp238
g160
I300
sg161
Vfit
p239
sg163
I585
ssg164
(dp240
g160
I174
sg161
Vfit
p241
sg163
I340
ssg167
(dp242
g160
I300
sg161
Vfit
p243
sg163
I585
ssg170
(dp244
g160
I150
sg161
Vcrop
p245
sg163
I150
sssg173
(lp246
I118
aI140
asg175
Vphoto
p247
sg33
I620118261976281088
sg177
Vhttp://pbs.twimg.com/media/CJsaRhPUMAAhzDj.jpg
p248
sasssS'coordinates'
p249
NsS'timestamp_ms'
p250
g140
sS'entities'
p251
g142
sS'in_reply_to_status_id_str'
p252
NsS'in_reply_to_screen_name'
p253
Nsg90
g193
sS'extended_entities'
p254
g229
sS'retweeted'
p255
I00
sS'place'
p256
g0
(ctweepy.models
Place
p257
g2
Ntp258
Rp259
(dp260
S'full_name'
p261
g207
sg108
g208
sS'country'
p262
g210
sS'place_type'
p263
g212
sS'bounding_box'
p264
g0
(ctweepy.models
BoundingBox
p265
g2
Ntp266
Rp267
(dp268
S'type'
p269
g215
sg249
g216
sbsS'country_code'
p270
g223
sS'attributes'
p271
g225
sg24
g226
sg102
g227
sbsS'retweet_count'
p272
I0
sg109
g110
(S'\x07\xdf\x07\x0c\x06\x1f\x1d\x00\x00\x00'
p273
tp274
Rp275
sS'in_reply_to_user_id'
p276
Nsb.