ccopy_reg
_reconstructor
p0
(ctweepy.models
Status
p1
c__builtin__
object
p2
Ntp3
Rp4
(dp5
S'favorited'
p6
I00
sS'contributors'
p7
NsS'truncated'
p8
I00
sS'text'
p9
VAfter a heavy night out in Zurich, brunch at the highest point is a necessity! #travel #utokulm http://t.co/L6dKUJdHFe
p10
sS'source_url'
p11
Vhttp://twitter.com/download/iphone
p12
sS'possibly_sensitive'
p13
I00
sS'in_reply_to_status_id'
p14
NsS'user'
p15
g0
(ctweepy.models
User
p16
g2
Ntp17
Rp18
(dp19
S'follow_request_sent'
p20
NsS'profile_use_background_image'
p21
I01
sS'profile_sidebar_fill_color'
p22
VDDEEF6
p23
sS'id'
p24
I31477981
sS'verified'
p25
I00
sS'profile_image_url_https'
p26
Vhttps://pbs.twimg.com/profile_images/610777260191272960/PI-VpDTw_normal.jpg
p27
sS'_json'
p28
(dp29
Vfollow_request_sent
p30
NsVprofile_use_background_image
p31
I01
sVdefault_profile_image
p32
I00
sVid
p33
I31477981
sVverified
p34
I00
sVprofile_image_url_https
p35
g27
sVprofile_sidebar_fill_color
p36
g23
sVprofile_text_color
p37
V333333
p38
sVfollowers_count
p39
I3258
sVprofile_sidebar_border_color
p40
VC0DEED
p41
sVid_str
p42
V31477981
p43
sVprofile_background_color
p44
VC0DEED
p45
sVlisted_count
p46
I66
sVprofile_background_image_url_https
p47
Vhttps://pbs.twimg.com/profile_background_images/380228701/Aizak-Buyondo.jpg
p48
sVutc_offset
p49
I3600
sVstatuses_count
p50
I8582
sVdescription
p51
VFashion & Travel afficionado for @LuxuriaLife magazine & blogger at http://www.aizakbuyondo.com \u000aContact: info@aizakbuyondo.com
p52
sVfriends_count
p53
I2695
sVlocation
p54
VLondon, NY, Paris, Milan
p55
sVprofile_link_color
p56
V0084B4
p57
sVprofile_image_url
p58
Vhttp://pbs.twimg.com/profile_images/610777260191272960/PI-VpDTw_normal.jpg
p59
sVfollowing
p60
NsVgeo_enabled
p61
I01
sVprofile_banner_url
p62
Vhttps://pbs.twimg.com/profile_banners/31477981/1414361453
p63
sVprofile_background_image_url
p64
Vhttp://pbs.twimg.com/profile_background_images/380228701/Aizak-Buyondo.jpg
p65
sVname
p66
VAizak Buyondo
p67
sVlang
p68
Ven
p69
sVprofile_background_tile
p70
I00
sVfavourites_count
p71
I354
sVscreen_name
p72
VAizakbuyondo1
p73
sVnotifications
p74
NsVurl
p75
Vhttp://aizakbuyondo.com/
p76
sVcreated_at
p77
VWed Apr 15 18:33:40 +0000 2009
p78
sVcontributors_enabled
p79
I00
sVtime_zone
p80
VLondon
p81
sVprotected
p82
I00
sVdefault_profile
p83
I00
sVis_translator
p84
I00
ssS'contributors_enabled'
p85
I00
sS'profile_text_color'
p86
g38
sS'followers_count'
p87
I3258
sS'profile_sidebar_border_color'
p88
g41
sS'location'
p89
g55
sS'default_profile_image'
p90
I00
sS'id_str'
p91
g43
sS'utc_offset'
p92
I3600
sS'statuses_count'
p93
I8582
sS'description'
p94
VFashion & Travel afficionado for @LuxuriaLife magazine & blogger at http://www.aizakbuyondo.com \u000aContact: info@aizakbuyondo.com
p95
sS'friends_count'
p96
I2695
sS'profile_link_color'
p97
g57
sS'profile_image_url'
p98
g59
sS'notifications'
p99
NsS'geo_enabled'
p100
I01
sS'profile_background_color'
p101
g45
sS'profile_banner_url'
p102
g63
sS'profile_background_image_url'
p103
g65
sS'name'
p104
g67
sS'lang'
p105
g69
sS'following'
p106
I00
sS'profile_background_tile'
p107
I00
sS'favourites_count'
p108
I354
sS'screen_name'
p109
g73
sS'url'
p110
g76
sS'created_at'
p111
cdatetime
datetime
p112
(S'\x07\xd9\x04\x0f\x12!(\x00\x00\x00'
p113
tp114
Rp115
sS'profile_background_image_url_https'
p116
g48
sS'time_zone'
p117
g81
sS'protected'
p118
I00
sS'default_profile'
p119
I00
sS'is_translator'
p120
I00
sS'listed_count'
p121
I66
sbsS'filter_level'
p122
Vlow
p123
sS'geo'
p124
Nsg24
I620172825274515456
sS'favorite_count'
p125
I0
sS'source'
p126
VTwitter for iPhone
p127
sg105
Ven
p128
sS'author'
p129
g18
sS'in_reply_to_user_id_str'
p130
Nsg28
(dp131
Vcontributors
p132
NsVtruncated
p133
I00
sVtext
p134
g10
sVin_reply_to_status_id
p135
Nsg33
I620172825274515456
sVfavorite_count
p136
I0
sVsource
p137
V<a href="http://twitter.com/download/iphone" rel="nofollow">Twitter for iPhone</a>
p138
sVretweeted
p139
I00
sVcoordinates
p140
NsVtimestamp_ms
p141
V1436695698456
p142
sVentities
p143
(dp144
Vsymbols
p145
(lp146
sVmedia
p147
(lp148
(dp149
Vexpanded_url
p150
Vhttp://twitter.com/Aizakbuyondo1/status/620172825274515456/photo/1
p151
sVdisplay_url
p152
Vpic.twitter.com/L6dKUJdHFe
p153
sg75
Vhttp://t.co/L6dKUJdHFe
p154
sVmedia_url_https
p155
Vhttps://pbs.twimg.com/media/CJtL3NiWUAAILHT.jpg
p156
sg42
V620172785592193024
p157
sVsizes
p158
(dp159
Vsmall
p160
(dp161
Vh
p162
I340
sVresize
p163
Vfit
p164
sVw
p165
I340
ssVlarge
p166
(dp167
g162
I1024
sg163
Vfit
p168
sg165
I1024
ssVmedium
p169
(dp170
g162
I600
sg163
Vfit
p171
sg165
I600
ssVthumb
p172
(dp173
g162
I150
sg163
Vcrop
p174
sg165
I150
sssVindices
p175
(lp176
I96
aI118
asVtype
p177
Vphoto
p178
sg33
I620172785592193024
sVmedia_url
p179
Vhttp://pbs.twimg.com/media/CJtL3NiWUAAILHT.jpg
p180
sasVhashtags
p181
(lp182
(dp183
g175
(lp184
I79
aI86
asg134
Vtravel
p185
sa(dp186
g175
(lp187
I87
aI95
asg134
Vutokulm
p188
sasVuser_mentions
p189
(lp190
sVtrends
p191
(lp192
sVurls
p193
(lp194
ssVin_reply_to_screen_name
p195
Nsg42
V620172825274515456
p196
sVretweet_count
p197
I0
sVin_reply_to_user_id
p198
NsVfavorited
p199
I00
sVuser
p200
g29
sVgeo
p201
NsVin_reply_to_user_id_str
p202
NsVpossibly_sensitive
p203
I00
sg68
g128
sg77
VSun Jul 12 10:08:18 +0000 2015
p204
sVfilter_level
p205
g123
sVin_reply_to_status_id_str
p206
NsVplace
p207
(dp208
Vfull_name
p209
VZurich, Switzerland
p210
sg75
Vhttps://api.twitter.com/1.1/geo/id/db94c1cccc67c4f4.json
p211
sVcountry
p212
VSchweiz
p213
sVplace_type
p214
Vadmin
p215
sVbounding_box
p216
(dp217
g177
VPolygon
p218
sg140
(lp219
(lp220
(lp221
F8.357749
aF47.159384
aa(lp222
F8.357749
aF47.694503
aa(lp223
F8.984445
aF47.694503
aa(lp224
F8.984445
aF47.159384
aaassVcountry_code
p225
VCH
p226
sVattributes
p227
(dp228
sg33
Vdb94c1cccc67c4f4
p229
sg66
VZurich
p230
ssVextended_entities
p231
(dp232
g147
(lp233
(dp234
g150
Vhttp://twitter.com/Aizakbuyondo1/status/620172825274515456/photo/1
p235
sg152
Vpic.twitter.com/L6dKUJdHFe
p236
sg75
Vhttp://t.co/L6dKUJdHFe
p237
sg155
Vhttps://pbs.twimg.com/media/CJtL3NiWUAAILHT.jpg
p238
sg42
V620172785592193024
p239
sg158
(dp240
g160
(dp241
g162
I340
sg163
Vfit
p242
sg165
I340
ssg166
(dp243
g162
I1024
sg163
Vfit
p244
sg165
I1024
ssg169
(dp245
g162
I600
sg163
Vfit
p246
sg165
I600
ssg172
(dp247
g162
I150
sg163
Vcrop
p248
sg165
I150
sssg175
(lp249
I96
aI118
asg177
Vphoto
p250
sg33
I620172785592193024
sg179
Vhttp://pbs.twimg.com/media/CJtL3NiWUAAILHT.jpg
p251
sasssS'coordinates'
p252
NsS'timestamp_ms'
p253
g142
sS'entities'
p254
g144
sS'in_reply_to_status_id_str'
p255
NsS'in_reply_to_screen_name'
p256
Nsg91
g196
sS'extended_entities'
p257
g232
sS'retweeted'
p258
I00
sS'place'
p259
g0
(ctweepy.models
Place
p260
g2
Ntp261
Rp262
(dp263
S'full_name'
p264
g210
sg110
g211
sS'country'
p265
g213
sS'place_type'
p266
g215
sS'bounding_box'
p267
g0
(ctweepy.models
BoundingBox
p268
g2
Ntp269
Rp270
(dp271
S'type'
p272
g218
sg252
g219
sbsS'country_code'
p273
g226
sS'attributes'
p274
g228
sg24
g229
sg104
g230
sbsS'retweet_count'
p275
I0
sg111
g112
(S'\x07\xdf\x07\x0c\n\x08\x12\x00\x00\x00'
p276
tp277
Rp278
sS'in_reply_to_user_id'
p279
Nsb.