ccopy_reg
_reconstructor
p0
(ctweepy.models
Status
p1
c__builtin__
object
p2
Ntp3
Rp4
(dp5
S'favorited'
p6
I00
sS'contributors'
p7
NsS'truncated'
p8
I00
sS'text'
p9
VHave you noticed how all economics reporters are starting to speak like... errrrr ... ROBERT Peston? EVEN George Osbourne's doing it.
p10
sS'source_url'
p11
Vhttp://twitter.com/download/iphone
p12
sS'possibly_sensitive'
p13
I00
sS'in_reply_to_status_id'
p14
NsS'user'
p15
g0
(ctweepy.models
User
p16
g2
Ntp17
Rp18
(dp19
S'follow_request_sent'
p20
NsS'profile_use_background_image'
p21
I01
sS'profile_sidebar_fill_color'
p22
VDDEEF6
p23
sS'id'
p24
I18695629
sS'verified'
p25
I00
sS'profile_image_url_https'
p26
Vhttps://pbs.twimg.com/profile_images/378800000219846487/6ffc90112263588c61ca5447e266836c_normal.jpeg
p27
sS'_json'
p28
(dp29
Vfollow_request_sent
p30
NsVprofile_use_background_image
p31
I01
sVdefault_profile_image
p32
I00
sVid
p33
I18695629
sVverified
p34
I00
sVprofile_image_url_https
p35
g27
sVprofile_sidebar_fill_color
p36
g23
sVprofile_text_color
p37
V333333
p38
sVfollowers_count
p39
I48
sVprofile_sidebar_border_color
p40
VC0DEED
p41
sVid_str
p42
V18695629
p43
sVprofile_background_color
p44
VC0DEED
p45
sVlisted_count
p46
I1
sVprofile_background_image_url_https
p47
Vhttps://abs.twimg.com/images/themes/theme1/bg.png
p48
sVutc_offset
p49
NsVstatuses_count
p50
I240
sVdescription
p51
NsVfriends_count
p52
I65
sVlocation
p53
V
p54
sVprofile_link_color
p55
V0084B4
p56
sVprofile_image_url
p57
Vhttp://pbs.twimg.com/profile_images/378800000219846487/6ffc90112263588c61ca5447e266836c_normal.jpeg
p58
sVfollowing
p59
NsVgeo_enabled
p60
I01
sVprofile_banner_url
p61
Vhttps://pbs.twimg.com/profile_banners/18695629/1377290162
p62
sVprofile_background_image_url
p63
Vhttp://abs.twimg.com/images/themes/theme1/bg.png
p64
sVname
p65
Vdominicjadams
p66
sVlang
p67
Ven
p68
sVprofile_background_tile
p69
I00
sVfavourites_count
p70
I12
sVscreen_name
p71
Vdominicjadams
p72
sVnotifications
p73
NsVurl
p74
NsVcreated_at
p75
VTue Jan 06 21:11:49 +0000 2009
p76
sVcontributors_enabled
p77
I00
sVtime_zone
p78
NsVprotected
p79
I00
sVdefault_profile
p80
I01
sVis_translator
p81
I00
ssS'contributors_enabled'
p82
I00
sS'profile_text_color'
p83
g38
sS'followers_count'
p84
I48
sS'profile_sidebar_border_color'
p85
g41
sS'location'
p86
g54
sS'default_profile_image'
p87
I00
sS'id_str'
p88
g43
sS'utc_offset'
p89
NsS'statuses_count'
p90
I240
sS'description'
p91
NsS'friends_count'
p92
I65
sS'profile_link_color'
p93
g56
sS'profile_image_url'
p94
g58
sS'notifications'
p95
NsS'geo_enabled'
p96
I01
sS'profile_background_color'
p97
g45
sS'profile_banner_url'
p98
g62
sS'profile_background_image_url'
p99
g64
sS'name'
p100
g66
sS'lang'
p101
g68
sS'following'
p102
I00
sS'profile_background_tile'
p103
I00
sS'favourites_count'
p104
I12
sS'screen_name'
p105
g72
sS'url'
p106
NsS'created_at'
p107
cdatetime
datetime
p108
(S'\x07\xd9\x01\x06\x15\x0b1\x00\x00\x00'
p109
tp110
Rp111
sS'profile_background_image_url_https'
p112
g48
sS'time_zone'
p113
NsS'protected'
p114
I00
sS'default_profile'
p115
I01
sS'is_translator'
p116
I00
sS'listed_count'
p117
I1
sbsS'filter_level'
p118
Vlow
p119
sS'geo'
p120
(dp121
Vtype
p122
VPoint
p123
sVcoordinates
p124
(lp125
F47.375256
aF8.545988
assg24
I619030883014717440
sS'favorite_count'
p126
I0
sS'source'
p127
VTwitter for iPhone
p128
sg101
Ven
p129
sS'author'
p130
g18
sS'in_reply_to_user_id_str'
p131
Nsg28
(dp132
Vcontributors
p133
NsVtruncated
p134
I00
sVtext
p135
g10
sVin_reply_to_status_id
p136
Nsg33
I619030883014717440
sVfavorite_count
p137
I0
sVsource
p138
V<a href="http://twitter.com/download/iphone" rel="nofollow">Twitter for iPhone</a>
p139
sVretweeted
p140
I00
sg124
(dp141
g122
VPoint
p142
sg124
(lp143
F8.545988
aF47.375256
assVtimestamp_ms
p144
V1436423438205
p145
sVentities
p146
(dp147
Vuser_mentions
p148
(lp149
sVsymbols
p150
(lp151
sVtrends
p152
(lp153
sVhashtags
p154
(lp155
sVurls
p156
(lp157
ssVin_reply_to_screen_name
p158
Nsg42
V619030883014717440
p159
sVretweet_count
p160
I0
sVin_reply_to_user_id
p161
NsVfavorited
p162
I00
sVuser
p163
g29
sVgeo
p164
g121
sVin_reply_to_user_id_str
p165
NsVpossibly_sensitive
p166
I00
sg67
g129
sg75
VThu Jul 09 06:30:38 +0000 2015
p167
sVfilter_level
p168
g119
sVin_reply_to_status_id_str
p169
NsVplace
p170
(dp171
Vfull_name
p172
VZurich, Switzerland
p173
sg74
Vhttps://api.twitter.com/1.1/geo/id/3acb748d0f1e9265.json
p174
sVcountry
p175
VSchweiz
p176
sVplace_type
p177
Vcity
p178
sVbounding_box
p179
(dp180
g122
VPolygon
p181
sg124
(lp182
(lp183
(lp184
F8.448081
aF47.320183
aa(lp185
F8.448081
aF47.434721
aa(lp186
F8.625442
aF47.434721
aa(lp187
F8.625442
aF47.320183
aaassVcountry_code
p188
VCH
p189
sVattributes
p190
(dp191
sg33
V3acb748d0f1e9265
p192
sg65
VZurich
p193
sssS'coordinates'
p194
g141
sS'timestamp_ms'
p195
g145
sS'entities'
p196
g147
sS'in_reply_to_status_id_str'
p197
NsS'in_reply_to_screen_name'
p198
Nsg88
g159
sS'retweeted'
p199
I00
sS'place'
p200
g0
(ctweepy.models
Place
p201
g2
Ntp202
Rp203
(dp204
S'full_name'
p205
g173
sg106
g174
sS'country'
p206
g176
sS'place_type'
p207
g178
sS'bounding_box'
p208
g0
(ctweepy.models
BoundingBox
p209
g2
Ntp210
Rp211
(dp212
S'type'
p213
g181
sg194
g182
sbsS'country_code'
p214
g189
sS'attributes'
p215
g191
sg24
g192
sg100
g193
sbsS'retweet_count'
p216
I0
sg107
g108
(S'\x07\xdf\x07\t\x06\x1e&\x00\x00\x00'
p217
tp218
Rp219
sS'in_reply_to_user_id'
p220
Nsb.