ccopy_reg
_reconstructor
p0
(ctweepy.models
Status
p1
c__builtin__
object
p2
Ntp3
Rp4
(dp5
S'favorited'
p6
I00
sS'contributors'
p7
NsS'truncated'
p8
I00
sS'text'
p9
VLassen wir mal alles, wie es ist und gehen am Freitag 4 Wochen in die #Ferien... http://t.co/iiy7NIgvig
p10
sS'source_url'
p11
Vhttp://twitter.com
p12
sS'possibly_sensitive'
p13
I00
sS'in_reply_to_status_id'
p14
NsS'user'
p15
g0
(ctweepy.models
User
p16
g2
Ntp17
Rp18
(dp19
S'follow_request_sent'
p20
NsS'profile_use_background_image'
p21
I01
sS'profile_sidebar_fill_color'
p22
VDDEEF6
p23
sS'id'
p24
I50763806
sS'verified'
p25
I00
sS'profile_image_url_https'
p26
Vhttps://pbs.twimg.com/profile_images/408356930/077_normal.jpg
p27
sS'_json'
p28
(dp29
Vfollow_request_sent
p30
NsVprofile_use_background_image
p31
I01
sVdefault_profile_image
p32
I00
sVid
p33
I50763806
sVverified
p34
I00
sVprofile_image_url_https
p35
g27
sVprofile_sidebar_fill_color
p36
g23
sVprofile_text_color
p37
V333333
p38
sVfollowers_count
p39
I29
sVprofile_sidebar_border_color
p40
VC0DEED
p41
sVid_str
p42
V50763806
p43
sVprofile_background_color
p44
VC0DEED
p45
sVlisted_count
p46
I3
sVprofile_background_image_url_https
p47
Vhttps://abs.twimg.com/images/themes/theme1/bg.png
p48
sVutc_offset
p49
I7200
sVstatuses_count
p50
I945
sVdescription
p51
VHalberstadt, Eilenburg, Bern, World
p52
sVfriends_count
p53
I37
sVlocation
p54
V.de
p55
sVprofile_link_color
p56
V0084B4
p57
sVprofile_image_url
p58
Vhttp://pbs.twimg.com/profile_images/408356930/077_normal.jpg
p59
sVfollowing
p60
NsVgeo_enabled
p61
I01
sVprofile_banner_url
p62
Vhttps://pbs.twimg.com/profile_banners/50763806/1413147599
p63
sVprofile_background_image_url
p64
Vhttp://abs.twimg.com/images/themes/theme1/bg.png
p65
sVname
p66
VMichael Schaeffner
p67
sVlang
p68
Ven
p69
sVprofile_background_tile
p70
I00
sVfavourites_count
p71
I153
sVscreen_name
p72
Vmischaeffner
p73
sVnotifications
p74
NsVurl
p75
NsVcreated_at
p76
VThu Jun 25 20:44:31 +0000 2009
p77
sVcontributors_enabled
p78
I00
sVtime_zone
p79
VBern
p80
sVprotected
p81
I00
sVdefault_profile
p82
I01
sVis_translator
p83
I00
ssS'contributors_enabled'
p84
I00
sS'profile_text_color'
p85
g38
sS'followers_count'
p86
I29
sS'profile_sidebar_border_color'
p87
g41
sS'location'
p88
g55
sS'default_profile_image'
p89
I00
sS'id_str'
p90
g43
sS'utc_offset'
p91
I7200
sS'statuses_count'
p92
I945
sS'description'
p93
g52
sS'friends_count'
p94
I37
sS'profile_link_color'
p95
g57
sS'profile_image_url'
p96
g59
sS'notifications'
p97
NsS'geo_enabled'
p98
I01
sS'profile_background_color'
p99
g45
sS'profile_banner_url'
p100
g63
sS'profile_background_image_url'
p101
g65
sS'name'
p102
g67
sS'lang'
p103
g69
sS'following'
p104
I00
sS'profile_background_tile'
p105
I00
sS'favourites_count'
p106
I153
sS'screen_name'
p107
g73
sS'url'
p108
NsS'created_at'
p109
cdatetime
datetime
p110
(S'\x07\xd9\x06\x19\x14,\x1f\x00\x00\x00'
p111
tp112
Rp113
sS'profile_background_image_url_https'
p114
g48
sS'time_zone'
p115
g80
sS'protected'
p116
I00
sS'default_profile'
p117
I01
sS'is_translator'
p118
I00
sS'listed_count'
p119
I3
sbsS'filter_level'
p120
Vlow
p121
sS'geo'
p122
Nsg24
I618858703274528769
sS'favorite_count'
p123
I0
sS'source'
p124
VTwitter Web Client
p125
sg103
Vde
p126
sS'author'
p127
g18
sS'in_reply_to_user_id_str'
p128
Nsg28
(dp129
Vcontributors
p130
NsVtruncated
p131
I00
sVtext
p132
g10
sVin_reply_to_status_id
p133
Nsg33
I618858703274528769
sVfavorite_count
p134
I0
sVsource
p135
V<a href="http://twitter.com" rel="nofollow">Twitter Web Client</a>
p136
sVretweeted
p137
I00
sVcoordinates
p138
NsVtimestamp_ms
p139
V1436382387356
p140
sVentities
p141
(dp142
Vuser_mentions
p143
(lp144
sVsymbols
p145
(lp146
sVtrends
p147
(lp148
sVhashtags
p149
(lp150
(dp151
Vindices
p152
(lp153
I70
aI77
asg132
VFerien
p154
sasVurls
p155
(lp156
(dp157
g75
Vhttp://t.co/iiy7NIgvig
p158
sg152
(lp159
I81
aI103
asVexpanded_url
p160
Vhttp://meinamerika08.blogspot.com
p161
sVdisplay_url
p162
Vmeinamerika08.blogspot.com
p163
sassVin_reply_to_screen_name
p164
Nsg42
V618858703274528769
p165
sVretweet_count
p166
I0
sVin_reply_to_user_id
p167
NsVfavorited
p168
I00
sVuser
p169
g29
sVgeo
p170
NsVin_reply_to_user_id_str
p171
NsVpossibly_sensitive
p172
I00
sg68
g126
sg76
VWed Jul 08 19:06:27 +0000 2015
p173
sVfilter_level
p174
g121
sVin_reply_to_status_id_str
p175
NsVplace
p176
(dp177
Vfull_name
p178
VBerne, Switzerland
p179
sg75
Vhttps://api.twitter.com/1.1/geo/id/5868d0e0749c9c47.json
p180
sVcountry
p181
VSchweiz
p182
sVplace_type
p183
Vadmin
p184
sVbounding_box
p185
(dp186
Vtype
p187
VPolygon
p188
sg138
(lp189
(lp190
(lp191
F6.861601
aF46.326441
aa(lp192
F6.861601
aF47.34528
aa(lp193
F8.455051
aF47.34528
aa(lp194
F8.455051
aF46.326441
aaassVcountry_code
p195
VCH
p196
sVattributes
p197
(dp198
sg33
V5868d0e0749c9c47
p199
sg66
VBern
p200
sssS'coordinates'
p201
NsS'timestamp_ms'
p202
g140
sS'entities'
p203
g142
sS'in_reply_to_status_id_str'
p204
NsS'in_reply_to_screen_name'
p205
Nsg90
g165
sS'retweeted'
p206
I00
sS'place'
p207
g0
(ctweepy.models
Place
p208
g2
Ntp209
Rp210
(dp211
S'full_name'
p212
g179
sg108
g180
sS'country'
p213
g182
sS'place_type'
p214
g184
sS'bounding_box'
p215
g0
(ctweepy.models
BoundingBox
p216
g2
Ntp217
Rp218
(dp219
S'type'
p220
g188
sg201
g189
sbsS'country_code'
p221
g196
sS'attributes'
p222
g198
sg24
g199
sg102
g200
sbsS'retweet_count'
p223
I0
sg109
g110
(S'\x07\xdf\x07\x08\x13\x06\x1b\x00\x00\x00'
p224
tp225
Rp226
sS'in_reply_to_user_id'
p227
Nsb.