ccopy_reg
_reconstructor
p0
(ctweepy.models
Status
p1
c__builtin__
object
p2
Ntp3
Rp4
(dp5
S'favorited'
p6
I00
sS'contributors'
p7
NsS'truncated'
p8
I00
sS'text'
p9
V@SimplyCosta damn she deleted this :D http://t.co/NFclTAmglN
p10
sS'source_url'
p11
Vhttp://twitter.com
p12
sS'possibly_sensitive'
p13
I00
sS'in_reply_to_status_id'
p14
NsS'user'
p15
g0
(ctweepy.models
User
p16
g2
Ntp17
Rp18
(dp19
S'follow_request_sent'
p20
NsS'profile_use_background_image'
p21
I01
sS'profile_sidebar_fill_color'
p22
VDDEEF6
p23
sS'id'
p24
I26727539
sS'verified'
p25
I00
sS'profile_image_url_https'
p26
Vhttps://pbs.twimg.com/profile_images/618152690112073728/AN0clhZL_normal.jpg
p27
sS'_json'
p28
(dp29
Vfollow_request_sent
p30
NsVprofile_use_background_image
p31
I01
sVdefault_profile_image
p32
I00
sVid
p33
I26727539
sVverified
p34
I00
sVprofile_image_url_https
p35
g27
sVprofile_sidebar_fill_color
p36
g23
sVprofile_text_color
p37
V333333
p38
sVfollowers_count
p39
I1450
sVprofile_sidebar_border_color
p40
VFFFFFF
p41
sVid_str
p42
V26727539
p43
sVprofile_background_color
p44
VC0DEED
p45
sVlisted_count
p46
I16
sVprofile_background_image_url_https
p47
Vhttps://pbs.twimg.com/profile_background_images/444457469222215682/1g2zc6eF.png
p48
sVutc_offset
p49
NsVstatuses_count
p50
I2985
sVdescription
p51
VChelsea FC, Hertha BSC Berlin, Vancouver Canucks, Dallas Cowboys, Dallas Mavericks, Texas Rangers, HC Lugano, WELTMEISTER 1954, 1974, 1990, 2014 DEUTSCHLAND
p52
sVfriends_count
p53
I2001
sVlocation
p54
VZurich, Switzerland
p55
sVprofile_link_color
p56
V0084B4
p57
sVprofile_image_url
p58
Vhttp://pbs.twimg.com/profile_images/618152690112073728/AN0clhZL_normal.jpg
p59
sVfollowing
p60
NsVgeo_enabled
p61
I01
sVprofile_banner_url
p62
Vhttps://pbs.twimg.com/profile_banners/26727539/1423015616
p63
sVprofile_background_image_url
p64
Vhttp://pbs.twimg.com/profile_background_images/444457469222215682/1g2zc6eF.png
p65
sVname
p66
VJoel
p67
sVlang
p68
Ven
p69
sVprofile_background_tile
p70
I01
sVfavourites_count
p71
I2824
sVscreen_name
p72
VJoelinho83
p73
sVnotifications
p74
NsVurl
p75
NsVcreated_at
p76
VThu Mar 26 11:22:21 +0000 2009
p77
sVcontributors_enabled
p78
I00
sVtime_zone
p79
NsVprotected
p80
I00
sVdefault_profile
p81
I00
sVis_translator
p82
I00
ssS'contributors_enabled'
p83
I00
sS'profile_text_color'
p84
g38
sS'followers_count'
p85
I1450
sS'profile_sidebar_border_color'
p86
g41
sS'location'
p87
g55
sS'default_profile_image'
p88
I00
sS'id_str'
p89
g43
sS'utc_offset'
p90
NsS'statuses_count'
p91
I2985
sS'description'
p92
g52
sS'friends_count'
p93
I2001
sS'profile_link_color'
p94
g57
sS'profile_image_url'
p95
g59
sS'notifications'
p96
NsS'geo_enabled'
p97
I01
sS'profile_background_color'
p98
g45
sS'profile_banner_url'
p99
g63
sS'profile_background_image_url'
p100
g65
sS'name'
p101
g67
sS'lang'
p102
g69
sS'following'
p103
I00
sS'profile_background_tile'
p104
I01
sS'favourites_count'
p105
I2824
sS'screen_name'
p106
g73
sS'url'
p107
NsS'created_at'
p108
cdatetime
datetime
p109
(S'\x07\xd9\x03\x1a\x0b\x16\x15\x00\x00\x00'
p110
tp111
Rp112
sS'profile_background_image_url_https'
p113
g48
sS'time_zone'
p114
NsS'protected'
p115
I00
sS'default_profile'
p116
I00
sS'is_translator'
p117
I00
sS'listed_count'
p118
I16
sbsS'filter_level'
p119
Vlow
p120
sS'geo'
p121
Nsg24
I621053588341694464
sS'favorite_count'
p122
I0
sS'source'
p123
VTwitter Web Client
p124
sg102
Ven
p125
sS'author'
p126
g18
sS'in_reply_to_user_id_str'
p127
V2743988559
p128
sg28
(dp129
Vcontributors
p130
NsVtruncated
p131
I00
sVtext
p132
g10
sVin_reply_to_status_id
p133
Nsg33
I621053588341694464
sVfavorite_count
p134
I0
sVsource
p135
V<a href="http://twitter.com" rel="nofollow">Twitter Web Client</a>
p136
sVretweeted
p137
I00
sVcoordinates
p138
NsVtimestamp_ms
p139
V1436905688735
p140
sVentities
p141
(dp142
Vsymbols
p143
(lp144
sVmedia
p145
(lp146
(dp147
Vexpanded_url
p148
Vhttp://twitter.com/Joelinho83/status/621053588341694464/photo/1
p149
sVdisplay_url
p150
Vpic.twitter.com/NFclTAmglN
p151
sg75
Vhttp://t.co/NFclTAmglN
p152
sVmedia_url_https
p153
Vhttps://pbs.twimg.com/media/CJ5s8oEWUAA37qN.jpg
p154
sg42
V621053587427315712
p155
sVsizes
p156
(dp157
Vsmall
p158
(dp159
Vh
p160
I604
sVresize
p161
Vfit
p162
sVw
p163
I340
ssVlarge
p164
(dp165
g160
I960
sg161
Vfit
p166
sg163
I540
ssVmedium
p167
(dp168
g160
I960
sg161
Vfit
p169
sg163
I540
ssVthumb
p170
(dp171
g160
I150
sg161
Vcrop
p172
sg163
I150
sssVindices
p173
(lp174
I38
aI60
asVtype
p175
Vphoto
p176
sg33
I621053587427315712
sVmedia_url
p177
Vhttp://pbs.twimg.com/media/CJ5s8oEWUAA37qN.jpg
p178
sasVhashtags
p179
(lp180
sVuser_mentions
p181
(lp182
(dp183
g33
I2743988559
sg173
(lp184
I0
aI12
asg42
V2743988559
p185
sg72
VSimplyCosta
p186
sg66
VSimplyCosta
p187
sasVtrends
p188
(lp189
sVurls
p190
(lp191
ssVin_reply_to_screen_name
p192
VSimplyCosta
p193
sg42
V621053588341694464
p194
sVretweet_count
p195
I0
sVin_reply_to_user_id
p196
I2743988559
sVfavorited
p197
I00
sVuser
p198
g29
sVgeo
p199
NsVin_reply_to_user_id_str
p200
g128
sVpossibly_sensitive
p201
I00
sg68
g125
sg76
VTue Jul 14 20:28:08 +0000 2015
p202
sVfilter_level
p203
g120
sVin_reply_to_status_id_str
p204
NsVplace
p205
(dp206
Vfull_name
p207
VZurich, Switzerland
p208
sg75
Vhttps://api.twitter.com/1.1/geo/id/3acb748d0f1e9265.json
p209
sVcountry
p210
VSchweiz
p211
sVplace_type
p212
Vcity
p213
sVbounding_box
p214
(dp215
g175
VPolygon
p216
sg138
(lp217
(lp218
(lp219
F8.448081
aF47.320183
aa(lp220
F8.448081
aF47.434721
aa(lp221
F8.625442
aF47.434721
aa(lp222
F8.625442
aF47.320183
aaassVcountry_code
p223
VCH
p224
sVattributes
p225
(dp226
sg33
V3acb748d0f1e9265
p227
sg66
VZurich
p228
ssVextended_entities
p229
(dp230
g145
(lp231
(dp232
g148
Vhttp://twitter.com/Joelinho83/status/621053588341694464/photo/1
p233
sg150
Vpic.twitter.com/NFclTAmglN
p234
sg75
Vhttp://t.co/NFclTAmglN
p235
sg153
Vhttps://pbs.twimg.com/media/CJ5s8oEWUAA37qN.jpg
p236
sg42
V621053587427315712
p237
sg156
(dp238
g158
(dp239
g160
I604
sg161
Vfit
p240
sg163
I340
ssg164
(dp241
g160
I960
sg161
Vfit
p242
sg163
I540
ssg167
(dp243
g160
I960
sg161
Vfit
p244
sg163
I540
ssg170
(dp245
g160
I150
sg161
Vcrop
p246
sg163
I150
sssg173
(lp247
I38
aI60
asg175
Vphoto
p248
sg33
I621053587427315712
sg177
Vhttp://pbs.twimg.com/media/CJ5s8oEWUAA37qN.jpg
p249
sasssS'coordinates'
p250
NsS'timestamp_ms'
p251
g140
sS'entities'
p252
g142
sS'in_reply_to_status_id_str'
p253
NsS'in_reply_to_screen_name'
p254
g193
sg89
g194
sS'extended_entities'
p255
g230
sS'retweeted'
p256
I00
sS'place'
p257
g0
(ctweepy.models
Place
p258
g2
Ntp259
Rp260
(dp261
S'full_name'
p262
g208
sg107
g209
sS'country'
p263
g211
sS'place_type'
p264
g213
sS'bounding_box'
p265
g0
(ctweepy.models
BoundingBox
p266
g2
Ntp267
Rp268
(dp269
S'type'
p270
g216
sg250
g217
sbsS'country_code'
p271
g224
sS'attributes'
p272
g226
sg24
g227
sg101
g228
sbsS'retweet_count'
p273
I0
sg108
g109
(S'\x07\xdf\x07\x0e\x14\x1c\x08\x00\x00\x00'
p274
tp275
Rp276
sS'in_reply_to_user_id'
p277
I2743988559
sb.