ccopy_reg
_reconstructor
p0
(ctweepy.models
Status
p1
c__builtin__
object
p2
Ntp3
Rp4
(dp5
S'favorited'
p6
I00
sS'contributors'
p7
NsS'truncated'
p8
I00
sS'text'
p9
VAt last the Weather broke in Zurich and brought some much needed rain!.. Plus a bit of a break from\u2026 https://t.co/lQrIoPtkdh
p10
sS'source_url'
p11
Vhttp://instagram.com
p12
sS'possibly_sensitive'
p13
I00
sS'in_reply_to_status_id'
p14
NsS'user'
p15
g0
(ctweepy.models
User
p16
g2
Ntp17
Rp18
(dp19
S'follow_request_sent'
p20
NsS'profile_use_background_image'
p21
I01
sS'profile_sidebar_fill_color'
p22
VFFFFFF
p23
sS'id'
p24
I200055472
sS'verified'
p25
I00
sS'profile_image_url_https'
p26
Vhttps://pbs.twimg.com/profile_images/571952269998817280/LLd_2L5__normal.jpeg
p27
sS'_json'
p28
(dp29
Vfollow_request_sent
p30
NsVprofile_use_background_image
p31
I01
sVdefault_profile_image
p32
I00
sVid
p33
I200055472
sVverified
p34
I00
sVprofile_image_url_https
p35
g27
sVprofile_sidebar_fill_color
p36
g23
sVprofile_text_color
p37
V333333
p38
sVfollowers_count
p39
I36199
sVprofile_sidebar_border_color
p40
VFFFFFF
p41
sVid_str
p42
V200055472
p43
sVprofile_background_color
p44
VB2DFDA
p45
sVlisted_count
p46
I313
sVprofile_background_image_url_https
p47
Vhttps://pbs.twimg.com/profile_background_images/477716103217422336/xROsBjsT.jpeg
p48
sVutc_offset
p49
I7200
sVstatuses_count
p50
I38852
sVdescription
p51
VPersonal Trainer and Nutrition Expert. TV, Radio and Magazine features. http://t.co/1qC3Dnah8m Owner of http://t.co/FtpUPKkrub and http://t.co/mMR2ldAqt1
p52
sVfriends_count
p53
I505
sVlocation
p54
VZurich, Switzerland
p55
sVprofile_link_color
p56
V93A644
p57
sVprofile_image_url
p58
Vhttp://pbs.twimg.com/profile_images/571952269998817280/LLd_2L5__normal.jpeg
p59
sVfollowing
p60
NsVgeo_enabled
p61
I01
sVprofile_banner_url
p62
Vhttps://pbs.twimg.com/profile_banners/200055472/1435216448
p63
sVprofile_background_image_url
p64
Vhttp://pbs.twimg.com/profile_background_images/477716103217422336/xROsBjsT.jpeg
p65
sVname
p66
VCindy Landolt
p67
sVlang
p68
Ven
p69
sVprofile_background_tile
p70
I01
sVfavourites_count
p71
I433
sVscreen_name
p72
VCindyTraining
p73
sVnotifications
p74
NsVurl
p75
Vhttp://www.cindytraining.com/
p76
sVcreated_at
p77
VFri Oct 08 10:20:42 +0000 2010
p78
sVcontributors_enabled
p79
I00
sVtime_zone
p80
VBern
p81
sVprotected
p82
I00
sVdefault_profile
p83
I00
sVis_translator
p84
I00
ssS'contributors_enabled'
p85
I00
sS'profile_text_color'
p86
g38
sS'followers_count'
p87
I36199
sS'profile_sidebar_border_color'
p88
g41
sS'location'
p89
g55
sS'default_profile_image'
p90
I00
sS'id_str'
p91
g43
sS'utc_offset'
p92
I7200
sS'statuses_count'
p93
I38852
sS'description'
p94
g52
sS'friends_count'
p95
I505
sS'profile_link_color'
p96
g57
sS'profile_image_url'
p97
g59
sS'notifications'
p98
NsS'geo_enabled'
p99
I01
sS'profile_background_color'
p100
g45
sS'profile_banner_url'
p101
g63
sS'profile_background_image_url'
p102
g65
sS'name'
p103
g67
sS'lang'
p104
g69
sS'following'
p105
I00
sS'profile_background_tile'
p106
I01
sS'favourites_count'
p107
I433
sS'screen_name'
p108
g73
sS'url'
p109
g76
sS'created_at'
p110
cdatetime
datetime
p111
(S'\x07\xda\n\x08\n\x14*\x00\x00\x00'
p112
tp113
Rp114
sS'profile_background_image_url_https'
p115
g48
sS'time_zone'
p116
g81
sS'protected'
p117
I00
sS'default_profile'
p118
I00
sS'is_translator'
p119
I00
sS'listed_count'
p120
I313
sbsS'filter_level'
p121
Vlow
p122
sS'geo'
p123
(dp124
Vtype
p125
VPoint
p126
sVcoordinates
p127
(lp128
F47.364097
aF8.54491
assg24
I618747460626857984
sS'favorite_count'
p129
I0
sS'source'
p130
VInstagram
p131
sg104
Ven
p132
sS'author'
p133
g18
sS'in_reply_to_user_id_str'
p134
Nsg28
(dp135
Vcontributors
p136
NsVtruncated
p137
I00
sVtext
p138
g10
sVin_reply_to_status_id
p139
Nsg33
I618747460626857984
sVfavorite_count
p140
I0
sVsource
p141
V<a href="http://instagram.com" rel="nofollow">Instagram</a>
p142
sVretweeted
p143
I00
sg127
(dp144
g125
VPoint
p145
sg127
(lp146
F8.54491
aF47.364097
assVtimestamp_ms
p147
V1436355865042
p148
sVentities
p149
(dp150
Vuser_mentions
p151
(lp152
sVsymbols
p153
(lp154
sVtrends
p155
(lp156
sVhashtags
p157
(lp158
sVurls
p159
(lp160
(dp161
g75
Vhttps://t.co/lQrIoPtkdh
p162
sVindices
p163
(lp164
I101
aI124
asVexpanded_url
p165
Vhttps://instagram.com/p/437odEQ9AJ/
p166
sVdisplay_url
p167
Vinstagram.com/p/437odEQ9AJ/
p168
sassVin_reply_to_screen_name
p169
Nsg42
V618747460626857984
p170
sVretweet_count
p171
I0
sVin_reply_to_user_id
p172
NsVfavorited
p173
I00
sVuser
p174
g29
sVgeo
p175
g124
sVin_reply_to_user_id_str
p176
NsVpossibly_sensitive
p177
I00
sg68
g132
sg77
VWed Jul 08 11:44:25 +0000 2015
p178
sVfilter_level
p179
g122
sVin_reply_to_status_id_str
p180
NsVplace
p181
(dp182
Vfull_name
p183
VZurich, Switzerland
p184
sg75
Vhttps://api.twitter.com/1.1/geo/id/3acb748d0f1e9265.json
p185
sVcountry
p186
VSchweiz
p187
sVplace_type
p188
Vcity
p189
sVbounding_box
p190
(dp191
g125
VPolygon
p192
sg127
(lp193
(lp194
(lp195
F8.448081
aF47.320183
aa(lp196
F8.448081
aF47.434721
aa(lp197
F8.625442
aF47.434721
aa(lp198
F8.625442
aF47.320183
aaassVcountry_code
p199
VCH
p200
sVattributes
p201
(dp202
sg33
V3acb748d0f1e9265
p203
sg66
VZurich
p204
sssS'coordinates'
p205
g144
sS'timestamp_ms'
p206
g148
sS'entities'
p207
g150
sS'in_reply_to_status_id_str'
p208
NsS'in_reply_to_screen_name'
p209
Nsg91
g170
sS'retweeted'
p210
I00
sS'place'
p211
g0
(ctweepy.models
Place
p212
g2
Ntp213
Rp214
(dp215
S'full_name'
p216
g184
sg109
g185
sS'country'
p217
g187
sS'place_type'
p218
g189
sS'bounding_box'
p219
g0
(ctweepy.models
BoundingBox
p220
g2
Ntp221
Rp222
(dp223
S'type'
p224
g192
sg205
g193
sbsS'country_code'
p225
g200
sS'attributes'
p226
g202
sg24
g203
sg103
g204
sbsS'retweet_count'
p227
I0
sg110
g111
(S'\x07\xdf\x07\x08\x0b,\x19\x00\x00\x00'
p228
tp229
Rp230
sS'in_reply_to_user_id'
p231
Nsb.