ccopy_reg
_reconstructor
p0
(ctweepy.models
Status
p1
c__builtin__
object
p2
Ntp3
Rp4
(dp5
S'contributors'
p6
NsS'truncated'
p7
I00
sS'text'
p8
VSomething seem fishy about this "diaspora BVN" thing. We need to hear from CBN first https://t.co/NG6wJGc3vN
p9
sS'in_reply_to_status_id'
p10
NsS'id'
p11
I618843916079599616
sS'favorite_count'
p12
I0
sS'entities'
p13
(dp14
Vuser_mentions
p15
(lp16
sVsymbols
p17
(lp18
sVtrends
p19
(lp20
sVhashtags
p21
(lp22
sVurls
p23
(lp24
(dp25
Vurl
p26
Vhttps://t.co/NG6wJGc3vN
p27
sVindices
p28
(lp29
I85
aI108
asVexpanded_url
p30
Vhttps://twitter.com/gidi_traffic/status/618843005697527808
p31
sVdisplay_url
p32
Vtwitter.com/gidi_traffic/s\u2026
p33
sassS'quoted_status_id'
p34
I618843005697527808
sS'_json'
p35
(dp36
Vcontributors
p37
NsVtruncated
p38
I00
sVtext
p39
g9
sVin_reply_to_status_id
p40
NsVid
p41
I618843916079599616
sVfavorite_count
p42
I0
sVsource
p43
V<a href="http://twitter.com/download/iphone" rel="nofollow">Twitter for iPhone</a>
p44
sVquoted_status_id
p45
I618843005697527808
sVretweeted
p46
I00
sVcoordinates
p47
NsVtimestamp_ms
p48
V1436378861814
p49
sVquoted_status
p50
(dp51
g37
Nsg38
I00
sg39
VRT @blaqkenny: Bank Verification Number (BVN) Registration For Nigerians In Diaspora @Gidi_Traffic http://t.co/krPEzNoSkw
p52
sg40
Nsg41
I618843005697527808
sg42
I0
sg43
V<a href="http://www.hootsuite.com" rel="nofollow">Hootsuite</a>
p53
sg46
I00
sg47
NsVentities
p54
(dp55
g17
(lp56
sVmedia
p57
(lp58
(dp59
Vsource_status_id_str
p60
V618842651836698625
p61
sg30
Vhttp://twitter.com/blaqkenny/status/618842651836698625/photo/1
p62
sg32
Vpic.twitter.com/krPEzNoSkw
p63
sg26
Vhttp://t.co/krPEzNoSkw
p64
sVmedia_url_https
p65
Vhttps://pbs.twimg.com/media/CJaSFtgUcAAmj2O.jpg
p66
sVsource_status_id
p67
I618842651836698625
sVid_str
p68
V618842625622175744
p69
sVsizes
p70
(dp71
Vsmall
p72
(dp73
Vh
p74
I255
sVresize
p75
Vfit
p76
sVw
p77
I340
ssVlarge
p78
(dp79
g74
I768
sg75
Vfit
p80
sg77
I1024
ssVmedium
p81
(dp82
g74
I450
sg75
Vfit
p83
sg77
I600
ssVthumb
p84
(dp85
g74
I150
sg75
Vcrop
p86
sg77
I150
sssg28
(lp87
I99
aI121
asVtype
p88
Vphoto
p89
sg41
I618842625622175744
sVmedia_url
p90
Vhttp://pbs.twimg.com/media/CJaSFtgUcAAmj2O.jpg
p91
sasg21
(lp92
sg15
(lp93
(dp94
g41
I370035164
sg28
(lp95
I3
aI13
asg68
V370035164
p96
sVscreen_name
p97
Vblaqkenny
p98
sVname
p99
VAkunne
p100
sa(dp101
g41
I378809160
sg28
(lp102
I85
aI98
asg68
V378809160
p103
sg97
VGidi_Traffic
p104
sg99
VGIDITRAFFIC
p105
sasg19
(lp106
sg23
(lp107
ssVin_reply_to_screen_name
p108
Nsg68
V618843005697527808
p109
sVretweet_count
p110
I0
sVin_reply_to_user_id
p111
NsVfavorited
p112
I00
sVuser
p113
(dp114
Vfollow_request_sent
p115
NsVprofile_use_background_image
p116
I01
sVdefault_profile_image
p117
I00
sg41
I378809160
sVverified
p118
I00
sVprofile_image_url_https
p119
Vhttps://pbs.twimg.com/profile_images/603830951408312320/UAD8C183_normal.png
p120
sVprofile_sidebar_fill_color
p121
VE3E2DE
p122
sVprofile_text_color
p123
V634047
p124
sVfollowers_count
p125
I339291
sVprofile_sidebar_border_color
p126
VFFFFFF
p127
sg68
V378809160
p128
sVprofile_background_color
p129
VEDECE9
p130
sVlisted_count
p131
I534
sVprofile_background_image_url_https
p132
Vhttps://pbs.twimg.com/profile_background_images/534968689565499393/D56pDFdq.jpeg
p133
sVutc_offset
p134
I7200
sVstatuses_count
p135
I523190
sVdescription
p136
VGIDITRAFFIC Is Created To Ease Stress By Providing On-The-Go Traffic Updates And Information As Regards General Inquiries. -Lending Each Other An Eye-
p137
sVfriends_count
p138
I5796
sVlocation
p139
VBBM Channel ID- C0013D77D
p140
sVprofile_link_color
p141
VDD2E44
p142
sVprofile_image_url
p143
Vhttp://pbs.twimg.com/profile_images/603830951408312320/UAD8C183_normal.png
p144
sVfollowing
p145
NsVgeo_enabled
p146
I00
sVprofile_banner_url
p147
Vhttps://pbs.twimg.com/profile_banners/378809160/1436268309
p148
sVprofile_background_image_url
p149
Vhttp://pbs.twimg.com/profile_background_images/534968689565499393/D56pDFdq.jpeg
p150
sg99
VGIDITRAFFIC
p151
sVlang
p152
Ven
p153
sVprofile_background_tile
p154
I01
sVfavourites_count
p155
I9422
sg97
VGidi_Traffic
p156
sVnotifications
p157
Nsg26
Vhttp://Giditraffic.com
p158
sVcreated_at
p159
VFri Sep 23 21:09:00 +0000 2011
p160
sVcontributors_enabled
p161
I00
sVtime_zone
p162
VAmsterdam
p163
sVprotected
p164
I00
sVdefault_profile
p165
I00
sVis_translator
p166
I00
ssVgeo
p167
NsVin_reply_to_user_id_str
p168
NsVpossibly_sensitive
p169
I00
sg152
Vde
p170
sg159
VWed Jul 08 18:04:04 +0000 2015
p171
sVfilter_level
p172
Vlow
p173
sVin_reply_to_status_id_str
p174
NsVplace
p175
NsVextended_entities
p176
(dp177
g57
(lp178
(dp179
g60
V618842651836698625
p180
sg30
Vhttp://twitter.com/blaqkenny/status/618842651836698625/photo/1
p181
sg32
Vpic.twitter.com/krPEzNoSkw
p182
sg26
Vhttp://t.co/krPEzNoSkw
p183
sg65
Vhttps://pbs.twimg.com/media/CJaSFtgUcAAmj2O.jpg
p184
sg67
I618842651836698625
sg68
V618842625622175744
p185
sg70
(dp186
g72
(dp187
g74
I255
sg75
Vfit
p188
sg77
I340
ssg78
(dp189
g74
I768
sg75
Vfit
p190
sg77
I1024
ssg81
(dp191
g74
I450
sg75
Vfit
p192
sg77
I600
ssg84
(dp193
g74
I150
sg75
Vcrop
p194
sg77
I150
sssg28
(lp195
I99
aI121
asg88
Vphoto
p196
sg41
I618842625622175744
sg90
Vhttp://pbs.twimg.com/media/CJaSFtgUcAAmj2O.jpg
p197
sasssg54
g14
sg108
Nsg68
V618843916079599616
p198
sg110
I0
sg111
Nsg112
I00
sg113
(dp199
g115
Nsg116
I01
sg117
I00
sg41
I271361465
sg118
I00
sg119
Vhttps://pbs.twimg.com/profile_images/605507470363099136/ML2klFEV_normal.jpg
p200
sg121
VDDEEF6
p201
sg123
V333333
p202
sg125
I434
sg126
VC0DEED
p203
sg68
V271361465
p204
sg129
VC0DEED
p205
sg131
I25
sg132
Vhttps://abs.twimg.com/images/themes/theme1/bg.png
p206
sg134
Nsg135
I19207
sg136
VConsummate PR and Corporate Communication buff. Proudly flying Djembe communications flag across the West Africa region
p207
sg138
I596
sg139
V
p208
sg141
V0084B4
p209
sg143
Vhttp://pbs.twimg.com/profile_images/605507470363099136/ML2klFEV_normal.jpg
p210
sg145
Nsg146
I01
sg147
Vhttps://pbs.twimg.com/profile_banners/271361465/1424263426
p211
sg149
Vhttp://abs.twimg.com/images/themes/theme1/bg.png
p212
sg99
VOnome Okwah
p213
sg152
Ven
p214
sg154
I00
sg155
I44
sg97
Vomookwah
p215
sg157
Nsg26
Nsg159
VThu Mar 24 10:38:08 +0000 2011
p216
sg161
I00
sg162
Nsg164
I00
sg165
I01
sg166
I00
ssg167
Nsg168
Nsg169
I00
sg152
Ven
p217
sg159
VWed Jul 08 18:07:41 +0000 2015
p218
sVquoted_status_id_str
p219
V618843005697527808
p220
sg172
Vlow
p221
sg174
Nsg175
(dp222
Vfull_name
p223
VZurich, Switzerland
p224
sg26
Vhttps://api.twitter.com/1.1/geo/id/3acb748d0f1e9265.json
p225
sVcountry
p226
VSchweiz
p227
sVplace_type
p228
Vcity
p229
sVbounding_box
p230
(dp231
g88
VPolygon
p232
sg47
(lp233
(lp234
(lp235
F8.448081
aF47.320183
aa(lp236
F8.448081
aF47.434721
aa(lp237
F8.625442
aF47.434721
aa(lp238
F8.625442
aF47.320183
aaassVcountry_code
p239
VCH
p240
sVattributes
p241
(dp242
sg41
V3acb748d0f1e9265
p243
sg99
VZurich
p244
sssS'coordinates'
p245
NsS'timestamp_ms'
p246
g49
sS'quoted_status'
p247
g51
sS'source'
p248
VTwitter for iPhone
p249
sS'in_reply_to_screen_name'
p250
NsS'id_str'
p251
g198
sS'retweet_count'
p252
I0
sS'in_reply_to_user_id'
p253
NsS'favorited'
p254
I00
sS'source_url'
p255
Vhttp://twitter.com/download/iphone
p256
sS'user'
p257
g0
(ctweepy.models
User
p258
g2
Ntp259
Rp260
(dp261
S'follow_request_sent'
p262
NsS'profile_use_background_image'
p263
I01
sS'profile_sidebar_fill_color'
p264
g201
sg11
I271361465
sS'verified'
p265
I00
sS'profile_image_url_https'
p266
g200
sg35
g199
sS'contributors_enabled'
p267
I00
sS'profile_text_color'
p268
g202
sS'followers_count'
p269
I434
sS'profile_sidebar_border_color'
p270
g203
sS'location'
p271
g208
sS'default_profile_image'
p272
I00
sg251
g204
sS'utc_offset'
p273
NsS'statuses_count'
p274
I19207
sS'description'
p275
g207
sS'friends_count'
p276
I596
sS'profile_link_color'
p277
g209
sS'profile_image_url'
p278
g210
sS'notifications'
p279
NsS'geo_enabled'
p280
I01
sS'profile_background_color'
p281
g205
sS'profile_banner_url'
p282
g211
sS'profile_background_image_url'
p283
g212
sS'name'
p284
g213
sS'lang'
p285
g214
sS'following'
p286
I00
sS'profile_background_tile'
p287
I00
sS'favourites_count'
p288
I44
sS'screen_name'
p289
g215
sS'url'
p290
NsS'created_at'
p291
cdatetime
datetime
p292
(S'\x07\xdb\x03\x18\n&\x08\x00\x00\x00'
p293
tp294
Rp295
sS'profile_background_image_url_https'
p296
g206
sS'time_zone'
p297
NsS'protected'
p298
I00
sS'default_profile'
p299
I01
sS'is_translator'
p300
I00
sS'listed_count'
p301
I25
sbsS'geo'
p302
NsS'in_reply_to_user_id_str'
p303
NsS'possibly_sensitive'
p304
I00
sg285
g217
sg291
g292
(S'\x07\xdf\x07\x08\x12\x07)\x00\x00\x00'
p305
tp306
Rp307
sS'author'
p308
g260
sS'quoted_status_id_str'
p309
g220
sS'filter_level'
p310
g221
sS'in_reply_to_status_id_str'
p311
NsS'place'
p312
g0
(ctweepy.models
Place
p313
g2
Ntp314
Rp315
(dp316
S'full_name'
p317
g224
sg290
g225
sS'country'
p318
g227
sS'place_type'
p319
g229
sS'bounding_box'
p320
g0
(ctweepy.models
BoundingBox
p321
g2
Ntp322
Rp323
(dp324
S'type'
p325
g232
sg245
g233
sbsS'country_code'
p326
g240
sS'attributes'
p327
g242
sg11
g243
sg284
g244
sbsS'retweeted'
p328
I00
sb.