ccopy_reg
_reconstructor
p0
(ctweepy.models
Status
p1
c__builtin__
object
p2
Ntp3
Rp4
(dp5
S'favorited'
p6
I00
sS'contributors'
p7
NsS'truncated'
p8
I00
sS'text'
p9
Vthe best hot pastrami sandwiches &amp; another cutie at my feet. #hotpastrami #goodtogo #zurich @ GOOD TO GO https://t.co/e8Snclkav3
p10
sS'source_url'
p11
Vhttp://instagram.com
p12
sS'possibly_sensitive'
p13
I00
sS'in_reply_to_status_id'
p14
NsS'user'
p15
g0
(ctweepy.models
User
p16
g2
Ntp17
Rp18
(dp19
S'follow_request_sent'
p20
NsS'profile_use_background_image'
p21
I01
sS'profile_sidebar_fill_color'
p22
VDDEEF6
p23
sS'id'
p24
I144936208
sS'verified'
p25
I00
sS'profile_image_url_https'
p26
Vhttps://pbs.twimg.com/profile_images/3378272568/a1327fc327010b160057fc35d53f8e9d_normal.jpeg
p27
sS'_json'
p28
(dp29
Vfollow_request_sent
p30
NsVprofile_use_background_image
p31
I01
sVdefault_profile_image
p32
I00
sVid
p33
I144936208
sVverified
p34
I00
sVprofile_image_url_https
p35
g27
sVprofile_sidebar_fill_color
p36
g23
sVprofile_text_color
p37
V333333
p38
sVfollowers_count
p39
I553
sVprofile_sidebar_border_color
p40
VFFFFFF
p41
sVid_str
p42
V144936208
p43
sVprofile_background_color
p44
VC0DEED
p45
sVlisted_count
p46
I24
sVprofile_background_image_url_https
p47
Vhttps://pbs.twimg.com/profile_background_images/596234690060619776/DVsPP8ho.jpg
p48
sVutc_offset
p49
I7200
sVstatuses_count
p50
I4153
sVdescription
p51
NsVfriends_count
p52
I590
sVlocation
p53
Vzurich
p54
sVprofile_link_color
p55
VABB8C2
p56
sVprofile_image_url
p57
Vhttp://pbs.twimg.com/profile_images/3378272568/a1327fc327010b160057fc35d53f8e9d_normal.jpeg
p58
sVfollowing
p59
NsVgeo_enabled
p60
I01
sVprofile_banner_url
p61
Vhttps://pbs.twimg.com/profile_banners/144936208/1413457143
p62
sVprofile_background_image_url
p63
Vhttp://pbs.twimg.com/profile_background_images/596234690060619776/DVsPP8ho.jpg
p64
sVname
p65
Vfork and flower
p66
sVlang
p67
Ven
p68
sVprofile_background_tile
p69
I00
sVfavourites_count
p70
I91
sVscreen_name
p71
Vforkandflower
p72
sVnotifications
p73
NsVurl
p74
Vhttp://www.forkandflower.com/
p75
sVcreated_at
p76
VMon May 17 18:10:18 +0000 2010
p77
sVcontributors_enabled
p78
I00
sVtime_zone
p79
VBern
p80
sVprotected
p81
I00
sVdefault_profile
p82
I00
sVis_translator
p83
I00
ssS'contributors_enabled'
p84
I00
sS'profile_text_color'
p85
g38
sS'followers_count'
p86
I553
sS'profile_sidebar_border_color'
p87
g41
sS'location'
p88
g54
sS'default_profile_image'
p89
I00
sS'id_str'
p90
g43
sS'utc_offset'
p91
I7200
sS'statuses_count'
p92
I4153
sS'description'
p93
NsS'friends_count'
p94
I590
sS'profile_link_color'
p95
g56
sS'profile_image_url'
p96
g58
sS'notifications'
p97
NsS'geo_enabled'
p98
I01
sS'profile_background_color'
p99
g45
sS'profile_banner_url'
p100
g62
sS'profile_background_image_url'
p101
g64
sS'name'
p102
g66
sS'lang'
p103
g68
sS'following'
p104
I00
sS'profile_background_tile'
p105
I00
sS'favourites_count'
p106
I91
sS'screen_name'
p107
g72
sS'url'
p108
g75
sS'created_at'
p109
cdatetime
datetime
p110
(S'\x07\xda\x05\x11\x12\n\x12\x00\x00\x00'
p111
tp112
Rp113
sS'profile_background_image_url_https'
p114
g48
sS'time_zone'
p115
g80
sS'protected'
p116
I00
sS'default_profile'
p117
I00
sS'is_translator'
p118
I00
sS'listed_count'
p119
I24
sbsS'filter_level'
p120
Vlow
p121
sS'geo'
p122
(dp123
Vtype
p124
VPoint
p125
sVcoordinates
p126
(lp127
F47.37359
aF8.544316
assg24
I619795044317442048
sS'favorite_count'
p128
I0
sS'source'
p129
VInstagram
p130
sg103
Ven
p131
sS'author'
p132
g18
sS'in_reply_to_user_id_str'
p133
Nsg28
(dp134
Vcontributors
p135
NsVtruncated
p136
I00
sVtext
p137
g10
sVin_reply_to_status_id
p138
Nsg33
I619795044317442048
sVfavorite_count
p139
I0
sVsource
p140
V<a href="http://instagram.com" rel="nofollow">Instagram</a>
p141
sVretweeted
p142
I00
sg126
(dp143
g124
VPoint
p144
sg126
(lp145
F8.544316
aF47.37359
assVtimestamp_ms
p146
V1436605628457
p147
sVentities
p148
(dp149
Vuser_mentions
p150
(lp151
sVsymbols
p152
(lp153
sVtrends
p154
(lp155
sVhashtags
p156
(lp157
(dp158
Vindices
p159
(lp160
I65
aI77
asg137
Vhotpastrami
p161
sa(dp162
g159
(lp163
I78
aI87
asg137
Vgoodtogo
p164
sa(dp165
g159
(lp166
I88
aI95
asg137
Vzurich
p167
sasVurls
p168
(lp169
(dp170
g74
Vhttps://t.co/e8Snclkav3
p171
sg159
(lp172
I109
aI132
asVexpanded_url
p173
Vhttps://instagram.com/p/4_YBMVoJyF/
p174
sVdisplay_url
p175
Vinstagram.com/p/4_YBMVoJyF/
p176
sassVin_reply_to_screen_name
p177
Nsg42
V619795044317442048
p178
sVretweet_count
p179
I0
sVin_reply_to_user_id
p180
NsVfavorited
p181
I00
sVuser
p182
g29
sVgeo
p183
g123
sVin_reply_to_user_id_str
p184
NsVpossibly_sensitive
p185
I00
sg67
g131
sg76
VSat Jul 11 09:07:08 +0000 2015
p186
sVfilter_level
p187
g121
sVin_reply_to_status_id_str
p188
NsVplace
p189
(dp190
Vfull_name
p191
VZurich, Switzerland
p192
sg74
Vhttps://api.twitter.com/1.1/geo/id/3acb748d0f1e9265.json
p193
sVcountry
p194
VSchweiz
p195
sVplace_type
p196
Vcity
p197
sVbounding_box
p198
(dp199
g124
VPolygon
p200
sg126
(lp201
(lp202
(lp203
F8.448081
aF47.320183
aa(lp204
F8.448081
aF47.434721
aa(lp205
F8.625442
aF47.434721
aa(lp206
F8.625442
aF47.320183
aaassVcountry_code
p207
VCH
p208
sVattributes
p209
(dp210
sg33
V3acb748d0f1e9265
p211
sg65
VZurich
p212
sssS'coordinates'
p213
g143
sS'timestamp_ms'
p214
g147
sS'entities'
p215
g149
sS'in_reply_to_status_id_str'
p216
NsS'in_reply_to_screen_name'
p217
Nsg90
g178
sS'retweeted'
p218
I00
sS'place'
p219
g0
(ctweepy.models
Place
p220
g2
Ntp221
Rp222
(dp223
S'full_name'
p224
g192
sg108
g193
sS'country'
p225
g195
sS'place_type'
p226
g197
sS'bounding_box'
p227
g0
(ctweepy.models
BoundingBox
p228
g2
Ntp229
Rp230
(dp231
S'type'
p232
g200
sg213
g201
sbsS'country_code'
p233
g208
sS'attributes'
p234
g210
sg24
g211
sg102
g212
sbsS'retweet_count'
p235
I0
sg109
g110
(S'\x07\xdf\x07\x0b\t\x07\x08\x00\x00\x00'
p236
tp237
Rp238
sS'in_reply_to_user_id'
p239
Nsb.