ccopy_reg
_reconstructor
p0
(ctweepy.models
Status
p1
c__builtin__
object
p2
Ntp3
Rp4
(dp5
S'favorited'
p6
I00
sS'contributors'
p7
NsS'truncated'
p8
I00
sS'text'
p9
VMiHermana #MissingPerson http://t.co/NhsrmNEKf5
p10
sS'source_url'
p11
Vhttp://twitter.com/download/iphone
p12
sS'possibly_sensitive'
p13
I00
sS'in_reply_to_status_id'
p14
NsS'user'
p15
g0
(ctweepy.models
User
p16
g2
Ntp17
Rp18
(dp19
S'follow_request_sent'
p20
NsS'profile_use_background_image'
p21
I01
sS'profile_sidebar_fill_color'
p22
V78C0A8
p23
sS'id'
p24
I446910701
sS'verified'
p25
I00
sS'profile_image_url_https'
p26
Vhttps://pbs.twimg.com/profile_images/378800000768935190/99f363d325fa570714ec85dd3f28cfff_normal.jpeg
p27
sS'_json'
p28
(dp29
Vfollow_request_sent
p30
NsVprofile_use_background_image
p31
I01
sVdefault_profile_image
p32
I00
sVid
p33
I446910701
sVverified
p34
I00
sVprofile_image_url_https
p35
g27
sVprofile_sidebar_fill_color
p36
g23
sVprofile_text_color
p37
V5E412F
p38
sVfollowers_count
p39
I133
sVprofile_sidebar_border_color
p40
VF0A830
p41
sVid_str
p42
V446910701
p43
sVprofile_background_color
p44
VFCEBB6
p45
sVlisted_count
p46
I1
sVprofile_background_image_url_https
p47
Vhttps://pbs.twimg.com/profile_background_images/344918034410066575/0f239b0265bd1d2dbcce3248efd95916.png
p48
sVutc_offset
p49
I7200
sVstatuses_count
p50
I2532
sVdescription
p51
NsVfriends_count
p52
I183
sVlocation
p53
VSuiza/ Palma de Mallorca
p54
sVprofile_link_color
p55
VCE7834
p56
sVprofile_image_url
p57
Vhttp://pbs.twimg.com/profile_images/378800000768935190/99f363d325fa570714ec85dd3f28cfff_normal.jpeg
p58
sVfollowing
p59
NsVgeo_enabled
p60
I01
sVprofile_banner_url
p61
Vhttps://pbs.twimg.com/profile_banners/446910701/1354134341
p62
sVprofile_background_image_url
p63
Vhttp://pbs.twimg.com/profile_background_images/344918034410066575/0f239b0265bd1d2dbcce3248efd95916.png
p64
sVname
p65
VKatherine Brown 
p66
sVlang
p67
Ves
p68
sVprofile_background_tile
p69
I01
sVfavourites_count
p70
I48
sVscreen_name
p71
Vkatheebrown
p72
sVnotifications
p73
NsVurl
p74
NsVcreated_at
p75
VMon Dec 26 08:47:28 +0000 2011
p76
sVcontributors_enabled
p77
I00
sVtime_zone
p78
VAmsterdam
p79
sVprotected
p80
I00
sVdefault_profile
p81
I00
sVis_translator
p82
I00
ssS'contributors_enabled'
p83
I00
sS'profile_text_color'
p84
g38
sS'followers_count'
p85
I133
sS'profile_sidebar_border_color'
p86
g41
sS'location'
p87
g54
sS'default_profile_image'
p88
I00
sS'id_str'
p89
g43
sS'utc_offset'
p90
I7200
sS'statuses_count'
p91
I2532
sS'description'
p92
NsS'friends_count'
p93
I183
sS'profile_link_color'
p94
g56
sS'profile_image_url'
p95
g58
sS'notifications'
p96
NsS'geo_enabled'
p97
I01
sS'profile_background_color'
p98
g45
sS'profile_banner_url'
p99
g62
sS'profile_background_image_url'
p100
g64
sS'name'
p101
g66
sS'lang'
p102
g68
sS'following'
p103
I00
sS'profile_background_tile'
p104
I01
sS'favourites_count'
p105
I48
sS'screen_name'
p106
g72
sS'url'
p107
NsS'created_at'
p108
cdatetime
datetime
p109
(S'\x07\xdb\x0c\x1a\x08/\x1c\x00\x00\x00'
p110
tp111
Rp112
sS'profile_background_image_url_https'
p113
g48
sS'time_zone'
p114
g79
sS'protected'
p115
I00
sS'default_profile'
p116
I00
sS'is_translator'
p117
I00
sS'listed_count'
p118
I1
sbsS'filter_level'
p119
Vlow
p120
sS'geo'
p121
Nsg24
I619963514552217600
sS'favorite_count'
p122
I0
sS'source'
p123
VTwitter for iPhone
p124
sg102
Vfi
p125
sS'author'
p126
g18
sS'in_reply_to_user_id_str'
p127
Nsg28
(dp128
Vcontributors
p129
NsVtruncated
p130
I00
sVtext
p131
g10
sVin_reply_to_status_id
p132
Nsg33
I619963514552217600
sVfavorite_count
p133
I0
sVsource
p134
V<a href="http://twitter.com/download/iphone" rel="nofollow">Twitter for iPhone</a>
p135
sVretweeted
p136
I00
sVcoordinates
p137
NsVtimestamp_ms
p138
V1436645794891
p139
sVentities
p140
(dp141
Vsymbols
p142
(lp143
sVmedia
p144
(lp145
(dp146
Vexpanded_url
p147
Vhttp://twitter.com/katheebrown/status/619963514552217600/photo/1
p148
sVdisplay_url
p149
Vpic.twitter.com/NhsrmNEKf5
p150
sg74
Vhttp://t.co/NhsrmNEKf5
p151
sVmedia_url_https
p152
Vhttps://pbs.twimg.com/media/CJqNhdPW8AELnM6.jpg
p153
sg42
V619963504641110017
p154
sVsizes
p155
(dp156
Vsmall
p157
(dp158
Vh
p159
I226
sVresize
p160
Vfit
p161
sVw
p162
I340
ssVlarge
p163
(dp164
g159
I682
sg160
Vfit
p165
sg162
I1024
ssVmedium
p166
(dp167
g159
I399
sg160
Vfit
p168
sg162
I600
ssVthumb
p169
(dp170
g159
I150
sg160
Vcrop
p171
sg162
I150
sssVindices
p172
(lp173
I25
aI47
asVtype
p174
Vphoto
p175
sg33
I619963504641110017
sVmedia_url
p176
Vhttp://pbs.twimg.com/media/CJqNhdPW8AELnM6.jpg
p177
sasVhashtags
p178
(lp179
(dp180
g172
(lp181
I10
aI24
asg131
VMissingPerson
p182
sasVuser_mentions
p183
(lp184
sVtrends
p185
(lp186
sVurls
p187
(lp188
ssVin_reply_to_screen_name
p189
Nsg42
V619963514552217600
p190
sVretweet_count
p191
I0
sVin_reply_to_user_id
p192
NsVfavorited
p193
I00
sVuser
p194
g29
sVgeo
p195
NsVin_reply_to_user_id_str
p196
NsVpossibly_sensitive
p197
I00
sg67
g125
sg75
VSat Jul 11 20:16:34 +0000 2015
p198
sVfilter_level
p199
g120
sVin_reply_to_status_id_str
p200
NsVplace
p201
(dp202
Vfull_name
p203
VZurich, Suiza
p204
sg74
Vhttps://api.twitter.com/1.1/geo/id/3acb748d0f1e9265.json
p205
sVcountry
p206
VSchweiz
p207
sVplace_type
p208
Vcity
p209
sVbounding_box
p210
(dp211
g174
VPolygon
p212
sg137
(lp213
(lp214
(lp215
F8.448081
aF47.320183
aa(lp216
F8.448081
aF47.434721
aa(lp217
F8.625442
aF47.434721
aa(lp218
F8.625442
aF47.320183
aaassVcountry_code
p219
VCH
p220
sVattributes
p221
(dp222
sg33
V3acb748d0f1e9265
p223
sg65
VZurich
p224
ssVextended_entities
p225
(dp226
g144
(lp227
(dp228
g147
Vhttp://twitter.com/katheebrown/status/619963514552217600/photo/1
p229
sg149
Vpic.twitter.com/NhsrmNEKf5
p230
sg74
Vhttp://t.co/NhsrmNEKf5
p231
sg152
Vhttps://pbs.twimg.com/media/CJqNhdPW8AELnM6.jpg
p232
sg42
V619963504641110017
p233
sg155
(dp234
g157
(dp235
g159
I226
sg160
Vfit
p236
sg162
I340
ssg163
(dp237
g159
I682
sg160
Vfit
p238
sg162
I1024
ssg166
(dp239
g159
I399
sg160
Vfit
p240
sg162
I600
ssg169
(dp241
g159
I150
sg160
Vcrop
p242
sg162
I150
sssg172
(lp243
I25
aI47
asg174
Vphoto
p244
sg33
I619963504641110017
sg176
Vhttp://pbs.twimg.com/media/CJqNhdPW8AELnM6.jpg
p245
sasssS'coordinates'
p246
NsS'timestamp_ms'
p247
g139
sS'entities'
p248
g141
sS'in_reply_to_status_id_str'
p249
NsS'in_reply_to_screen_name'
p250
Nsg89
g190
sS'extended_entities'
p251
g226
sS'retweeted'
p252
I00
sS'place'
p253
g0
(ctweepy.models
Place
p254
g2
Ntp255
Rp256
(dp257
S'full_name'
p258
g204
sg107
g205
sS'country'
p259
g207
sS'place_type'
p260
g209
sS'bounding_box'
p261
g0
(ctweepy.models
BoundingBox
p262
g2
Ntp263
Rp264
(dp265
S'type'
p266
g212
sg246
g213
sbsS'country_code'
p267
g220
sS'attributes'
p268
g222
sg24
g223
sg101
g224
sbsS'retweet_count'
p269
I0
sg108
g109
(S'\x07\xdf\x07\x0b\x14\x10"\x00\x00\x00'
p270
tp271
Rp272
sS'in_reply_to_user_id'
p273
Nsb.