ccopy_reg
_reconstructor
p0
(ctweepy.models
Status
p1
c__builtin__
object
p2
Ntp3
Rp4
(dp5
S'favorited'
p6
I00
sS'contributors'
p7
NsS'truncated'
p8
I00
sS'text'
p9
V@Liane13 Alles Gut @Liane13  ? http://t.co/SxxuruAmc7
p10
sS'source_url'
p11
Vhttp://twitter.com
p12
sS'possibly_sensitive'
p13
I00
sS'in_reply_to_status_id'
p14
I621054103444176896
sS'user'
p15
g0
(ctweepy.models
User
p16
g2
Ntp17
Rp18
(dp19
S'follow_request_sent'
p20
NsS'profile_use_background_image'
p21
I01
sS'profile_sidebar_fill_color'
p22
VDDEEF6
p23
sS'id'
p24
I1019050309
sS'verified'
p25
I00
sS'profile_image_url_https'
p26
Vhttps://pbs.twimg.com/profile_images/3254658310/8d221623a14c71660029cd1bde0cbd82_normal.jpeg
p27
sS'_json'
p28
(dp29
Vfollow_request_sent
p30
NsVprofile_use_background_image
p31
I01
sVdefault_profile_image
p32
I00
sVid
p33
I1019050309
sVverified
p34
I00
sVprofile_image_url_https
p35
g27
sVprofile_sidebar_fill_color
p36
g23
sVprofile_text_color
p37
V0084B4
p38
sVfollowers_count
p39
I8400
sVprofile_sidebar_border_color
p40
VFFFFFF
p41
sVid_str
p42
V1019050309
p43
sVprofile_background_color
p44
V3B94D9
p45
sVlisted_count
p46
I82
sVprofile_background_image_url_https
p47
Vhttps://pbs.twimg.com/profile_background_images/857865871/dea496523dddefe03f5d4d310d72e47c.jpeg
p48
sVutc_offset
p49
I7200
sVstatuses_count
p50
I31677
sVdescription
p51
VDONNEZ MAINTENANT ENFIN LE MONDE AUX ENFANTS! PEACESEEKER.ACTING.#PEACE_FUELER  #EARTH IS FOR WOMEN  AND OUR CHILDREN TO INHERIT!!!
p52
sVfriends_count
p53
I9224
sVlocation
p54
VNot In Stagram.
p55
sVprofile_link_color
p56
V2F2FEB
p57
sVprofile_image_url
p58
Vhttp://pbs.twimg.com/profile_images/3254658310/8d221623a14c71660029cd1bde0cbd82_normal.jpeg
p59
sVfollowing
p60
NsVgeo_enabled
p61
I01
sVprofile_banner_url
p62
Vhttps://pbs.twimg.com/profile_banners/1019050309/1422773906
p63
sVprofile_background_image_url
p64
Vhttp://pbs.twimg.com/profile_background_images/857865871/dea496523dddefe03f5d4d310d72e47c.jpeg
p65
sVname
p66
Vpaul 
p67
sVlang
p68
Ven
p69
sVprofile_background_tile
p70
I00
sVfavourites_count
p71
I5926
sVscreen_name
p72
VJusticeforHall
p73
sVnotifications
p74
NsVurl
p75
Vhttp://about.me/Pauliticker
p76
sVcreated_at
p77
VTue Dec 18 05:09:41 +0000 2012
p78
sVcontributors_enabled
p79
I00
sVtime_zone
p80
VBerlin
p81
sVprotected
p82
I00
sVdefault_profile
p83
I00
sVis_translator
p84
I00
ssS'contributors_enabled'
p85
I00
sS'profile_text_color'
p86
g38
sS'followers_count'
p87
I8400
sS'profile_sidebar_border_color'
p88
g41
sS'location'
p89
g55
sS'default_profile_image'
p90
I00
sS'id_str'
p91
g43
sS'utc_offset'
p92
I7200
sS'statuses_count'
p93
I31677
sS'description'
p94
g52
sS'friends_count'
p95
I9224
sS'profile_link_color'
p96
g57
sS'profile_image_url'
p97
g59
sS'notifications'
p98
NsS'geo_enabled'
p99
I01
sS'profile_background_color'
p100
g45
sS'profile_banner_url'
p101
g63
sS'profile_background_image_url'
p102
g65
sS'name'
p103
g67
sS'lang'
p104
g69
sS'following'
p105
I00
sS'profile_background_tile'
p106
I00
sS'favourites_count'
p107
I5926
sS'screen_name'
p108
g73
sS'url'
p109
g76
sS'created_at'
p110
cdatetime
datetime
p111
(S'\x07\xdc\x0c\x12\x05\t)\x00\x00\x00'
p112
tp113
Rp114
sS'profile_background_image_url_https'
p115
g48
sS'time_zone'
p116
g81
sS'protected'
p117
I00
sS'default_profile'
p118
I00
sS'is_translator'
p119
I00
sS'listed_count'
p120
I82
sbsS'filter_level'
p121
Vlow
p122
sS'geo'
p123
Nsg24
I621062502961541120
sS'favorite_count'
p124
I0
sS'source'
p125
VTwitter Web Client
p126
sg104
Vde
p127
sS'author'
p128
g18
sS'in_reply_to_user_id_str'
p129
V171213946
p130
sg28
(dp131
Vcontributors
p132
NsVtruncated
p133
I00
sVtext
p134
g10
sVin_reply_to_status_id
p135
I621054103444176896
sg33
I621062502961541120
sVfavorite_count
p136
I0
sVsource
p137
V<a href="http://twitter.com" rel="nofollow">Twitter Web Client</a>
p138
sVretweeted
p139
I00
sVcoordinates
p140
NsVtimestamp_ms
p141
V1436907814146
p142
sVentities
p143
(dp144
Vsymbols
p145
(lp146
sVmedia
p147
(lp148
(dp149
Vexpanded_url
p150
Vhttp://twitter.com/JusticeforHall/status/621062502961541120/photo/1
p151
sVdisplay_url
p152
Vpic.twitter.com/SxxuruAmc7
p153
sg75
Vhttp://t.co/SxxuruAmc7
p154
sVmedia_url_https
p155
Vhttps://pbs.twimg.com/media/CJ51DY7WUAAHCmV.jpg
p156
sg42
V621062499715141632
p157
sVsizes
p158
(dp159
Vlarge
p160
(dp161
Vh
p162
I705
sVresize
p163
Vfit
p164
sVw
p165
I1024
ssVsmall
p166
(dp167
g162
I234
sg163
Vfit
p168
sg165
I340
ssVmedium
p169
(dp170
g162
I413
sg163
Vfit
p171
sg165
I600
ssVthumb
p172
(dp173
g162
I150
sg163
Vcrop
p174
sg165
I150
sssVindices
p175
(lp176
I31
aI53
asVtype
p177
Vphoto
p178
sg33
I621062499715141632
sVmedia_url
p179
Vhttp://pbs.twimg.com/media/CJ51DY7WUAAHCmV.jpg
p180
sasVhashtags
p181
(lp182
sVuser_mentions
p183
(lp184
(dp185
g33
I171213946
sg175
(lp186
I0
aI8
asg42
V171213946
p187
sg72
VLiane13
p188
sg66
VLiane
p189
sa(dp190
g33
I171213946
sg175
(lp191
I19
aI27
asg42
V171213946
p192
sg72
VLiane13
p193
sg66
VLiane
p194
sasVtrends
p195
(lp196
sVurls
p197
(lp198
ssVin_reply_to_screen_name
p199
VLiane13
p200
sg42
V621062502961541120
p201
sVretweet_count
p202
I0
sVin_reply_to_user_id
p203
I171213946
sVfavorited
p204
I00
sVuser
p205
g29
sVgeo
p206
NsVin_reply_to_user_id_str
p207
g130
sVpossibly_sensitive
p208
I00
sg68
g127
sg77
VTue Jul 14 21:03:34 +0000 2015
p209
sVfilter_level
p210
g122
sVin_reply_to_status_id_str
p211
V621054103444176896
p212
sVplace
p213
(dp214
Vfull_name
p215
VZurich, Switzerland
p216
sg75
Vhttps://api.twitter.com/1.1/geo/id/3acb748d0f1e9265.json
p217
sVcountry
p218
VSchweiz
p219
sVplace_type
p220
Vcity
p221
sVbounding_box
p222
(dp223
g177
VPolygon
p224
sg140
(lp225
(lp226
(lp227
F8.448081
aF47.320183
aa(lp228
F8.448081
aF47.434721
aa(lp229
F8.625442
aF47.434721
aa(lp230
F8.625442
aF47.320183
aaassVcountry_code
p231
VCH
p232
sVattributes
p233
(dp234
sg33
V3acb748d0f1e9265
p235
sg66
VZurich
p236
ssVextended_entities
p237
(dp238
g147
(lp239
(dp240
g150
Vhttp://twitter.com/JusticeforHall/status/621062502961541120/photo/1
p241
sg152
Vpic.twitter.com/SxxuruAmc7
p242
sg75
Vhttp://t.co/SxxuruAmc7
p243
sg155
Vhttps://pbs.twimg.com/media/CJ51DY7WUAAHCmV.jpg
p244
sg42
V621062499715141632
p245
sg158
(dp246
g160
(dp247
g162
I705
sg163
Vfit
p248
sg165
I1024
ssg166
(dp249
g162
I234
sg163
Vfit
p250
sg165
I340
ssg169
(dp251
g162
I413
sg163
Vfit
p252
sg165
I600
ssg172
(dp253
g162
I150
sg163
Vcrop
p254
sg165
I150
sssg175
(lp255
I31
aI53
asg177
Vphoto
p256
sg33
I621062499715141632
sg179
Vhttp://pbs.twimg.com/media/CJ51DY7WUAAHCmV.jpg
p257
sa(dp258
g150
Vhttp://twitter.com/JusticeforHall/status/621062502961541120/photo/1
p259
sg152
Vpic.twitter.com/SxxuruAmc7
p260
sg75
Vhttp://t.co/SxxuruAmc7
p261
sg155
Vhttps://pbs.twimg.com/media/CJ51DhUWcAAIvY4.jpg
p262
sg42
V621062501967491072
p263
sg158
(dp264
g160
(dp265
g162
I705
sg163
Vfit
p266
sg165
I1024
ssg166
(dp267
g162
I234
sg163
Vfit
p268
sg165
I340
ssg169
(dp269
g162
I413
sg163
Vfit
p270
sg165
I600
ssg172
(dp271
g162
I150
sg163
Vcrop
p272
sg165
I150
sssg175
(lp273
I31
aI53
asg177
Vphoto
p274
sg33
I621062501967491072
sg179
Vhttp://pbs.twimg.com/media/CJ51DhUWcAAIvY4.jpg
p275
sasssS'coordinates'
p276
NsS'timestamp_ms'
p277
g142
sS'entities'
p278
g144
sS'in_reply_to_status_id_str'
p279
g212
sS'in_reply_to_screen_name'
p280
g200
sg91
g201
sS'extended_entities'
p281
g238
sS'retweeted'
p282
I00
sS'place'
p283
g0
(ctweepy.models
Place
p284
g2
Ntp285
Rp286
(dp287
S'full_name'
p288
g216
sg109
g217
sS'country'
p289
g219
sS'place_type'
p290
g221
sS'bounding_box'
p291
g0
(ctweepy.models
BoundingBox
p292
g2
Ntp293
Rp294
(dp295
S'type'
p296
g224
sg276
g225
sbsS'country_code'
p297
g232
sS'attributes'
p298
g234
sg24
g235
sg103
g236
sbsS'retweet_count'
p299
I0
sg110
g111
(S'\x07\xdf\x07\x0e\x15\x03"\x00\x00\x00'
p300
tp301
Rp302
sS'in_reply_to_user_id'
p303
I171213946
sb.