ccopy_reg
_reconstructor
p0
(ctweepy.models
Status
p1
c__builtin__
object
p2
Ntp3
Rp4
(dp5
S'favorited'
p6
I00
sS'contributors'
p7
NsS'truncated'
p8
I00
sS'text'
p9
VBagi yang ingin sensasi outdoor sex disini ada juga penyedianya. Hmm. Minat? Call me, #ehhgimana http://t.co/EZ1hR6VEvv
p10
sS'source_url'
p11
Vhttp://twitter.com/download/iphone
p12
sS'possibly_sensitive'
p13
I00
sS'in_reply_to_status_id'
p14
NsS'user'
p15
g0
(ctweepy.models
User
p16
g2
Ntp17
Rp18
(dp19
S'follow_request_sent'
p20
NsS'profile_use_background_image'
p21
I01
sS'profile_sidebar_fill_color'
p22
VDDEEF6
p23
sS'id'
p24
I2861615840
sS'verified'
p25
I00
sS'profile_image_url_https'
p26
Vhttps://pbs.twimg.com/profile_images/564852475593637888/r1x5RkNq_normal.jpeg
p27
sS'_json'
p28
(dp29
Vfollow_request_sent
p30
NsVprofile_use_background_image
p31
I01
sVdefault_profile_image
p32
I00
sVid
p33
I2861615840
sVverified
p34
I00
sVprofile_image_url_https
p35
g27
sVprofile_sidebar_fill_color
p36
g23
sVprofile_text_color
p37
V333333
p38
sVfollowers_count
p39
I429
sVprofile_sidebar_border_color
p40
VC0DEED
p41
sVid_str
p42
V2861615840
p43
sVprofile_background_color
p44
VC0DEED
p45
sVlisted_count
p46
I1
sVprofile_background_image_url_https
p47
Vhttps://abs.twimg.com/images/themes/theme1/bg.png
p48
sVutc_offset
p49
I25200
sVstatuses_count
p50
I6157
sVdescription
p51
VLaki dewasa. Telat nakal. Calon #gadun. check my fav.
p52
sVfriends_count
p53
I794
sVlocation
p54
VJakarta. Borneo.
p55
sVprofile_link_color
p56
V0084B4
p57
sVprofile_image_url
p58
Vhttp://pbs.twimg.com/profile_images/564852475593637888/r1x5RkNq_normal.jpeg
p59
sVfollowing
p60
NsVgeo_enabled
p61
I01
sVprofile_banner_url
p62
Vhttps://pbs.twimg.com/profile_banners/2861615840/1436920404
p63
sVprofile_background_image_url
p64
Vhttp://abs.twimg.com/images/themes/theme1/bg.png
p65
sVname
p66
VA Lover
p67
sVlang
p68
Ven
p69
sVprofile_background_tile
p70
I00
sVfavourites_count
p71
I257
sVscreen_name
p72
Vhemanperth
p73
sVnotifications
p74
NsVurl
p75
NsVcreated_at
p76
VSat Oct 18 01:29:11 +0000 2014
p77
sVcontributors_enabled
p78
I00
sVtime_zone
p79
VKrasnoyarsk
p80
sVprotected
p81
I00
sVdefault_profile
p82
I01
sVis_translator
p83
I00
ssS'contributors_enabled'
p84
I00
sS'profile_text_color'
p85
g38
sS'followers_count'
p86
I429
sS'profile_sidebar_border_color'
p87
g41
sS'location'
p88
g55
sS'default_profile_image'
p89
I00
sS'id_str'
p90
g43
sS'utc_offset'
p91
I25200
sS'statuses_count'
p92
I6157
sS'description'
p93
g52
sS'friends_count'
p94
I794
sS'profile_link_color'
p95
g57
sS'profile_image_url'
p96
g59
sS'notifications'
p97
NsS'geo_enabled'
p98
I01
sS'profile_background_color'
p99
g45
sS'profile_banner_url'
p100
g63
sS'profile_background_image_url'
p101
g65
sS'name'
p102
g67
sS'lang'
p103
g69
sS'following'
p104
I00
sS'profile_background_tile'
p105
I00
sS'favourites_count'
p106
I257
sS'screen_name'
p107
g73
sS'url'
p108
NsS'created_at'
p109
cdatetime
datetime
p110
(S'\x07\xde\n\x12\x01\x1d\x0b\x00\x00\x00'
p111
tp112
Rp113
sS'profile_background_image_url_https'
p114
g48
sS'time_zone'
p115
g80
sS'protected'
p116
I00
sS'default_profile'
p117
I01
sS'is_translator'
p118
I00
sS'listed_count'
p119
I1
sbsS'filter_level'
p120
Vlow
p121
sS'geo'
p122
Nsg24
I621122651604525056
sS'favorite_count'
p123
I0
sS'source'
p124
VTwitter for iPhone
p125
sg103
Vin
p126
sS'author'
p127
g18
sS'in_reply_to_user_id_str'
p128
Nsg28
(dp129
Vcontributors
p130
NsVtruncated
p131
I00
sVtext
p132
g10
sVin_reply_to_status_id
p133
Nsg33
I621122651604525056
sVfavorite_count
p134
I0
sVsource
p135
V<a href="http://twitter.com/download/iphone" rel="nofollow">Twitter for iPhone</a>
p136
sVretweeted
p137
I00
sVcoordinates
p138
NsVtimestamp_ms
p139
V1436922154700
p140
sVentities
p141
(dp142
Vsymbols
p143
(lp144
sVmedia
p145
(lp146
(dp147
Vexpanded_url
p148
Vhttp://twitter.com/hemanperth/status/621122651604525056/photo/1
p149
sVdisplay_url
p150
Vpic.twitter.com/EZ1hR6VEvv
p151
sg75
Vhttp://t.co/EZ1hR6VEvv
p152
sVmedia_url_https
p153
Vhttps://pbs.twimg.com/media/CJ6rtWQUwAAcFe3.jpg
p154
sg42
V621122594180218880
p155
sVsizes
p156
(dp157
Vsmall
p158
(dp159
Vh
p160
I255
sVresize
p161
Vfit
p162
sVw
p163
I340
ssVlarge
p164
(dp165
g160
I768
sg161
Vfit
p166
sg163
I1024
ssVmedium
p167
(dp168
g160
I450
sg161
Vfit
p169
sg163
I600
ssVthumb
p170
(dp171
g160
I150
sg161
Vcrop
p172
sg163
I150
sssVindices
p173
(lp174
I97
aI119
asVtype
p175
Vphoto
p176
sg33
I621122594180218880
sVmedia_url
p177
Vhttp://pbs.twimg.com/media/CJ6rtWQUwAAcFe3.jpg
p178
sasVhashtags
p179
(lp180
(dp181
g173
(lp182
I86
aI96
asg132
Vehhgimana
p183
sasVuser_mentions
p184
(lp185
sVtrends
p186
(lp187
sVurls
p188
(lp189
ssVin_reply_to_screen_name
p190
Nsg42
V621122651604525056
p191
sVretweet_count
p192
I0
sVin_reply_to_user_id
p193
NsVfavorited
p194
I00
sVuser
p195
g29
sVgeo
p196
NsVin_reply_to_user_id_str
p197
NsVpossibly_sensitive
p198
I00
sg68
g126
sg76
VWed Jul 15 01:02:34 +0000 2015
p199
sVfilter_level
p200
g121
sVin_reply_to_status_id_str
p201
NsVplace
p202
(dp203
Vfull_name
p204
VZurich, Switzerland
p205
sg75
Vhttps://api.twitter.com/1.1/geo/id/db94c1cccc67c4f4.json
p206
sVcountry
p207
VSchweiz
p208
sVplace_type
p209
Vadmin
p210
sVbounding_box
p211
(dp212
g175
VPolygon
p213
sg138
(lp214
(lp215
(lp216
F8.357749
aF47.159384
aa(lp217
F8.357749
aF47.694503
aa(lp218
F8.984445
aF47.694503
aa(lp219
F8.984445
aF47.159384
aaassVcountry_code
p220
VCH
p221
sVattributes
p222
(dp223
sg33
Vdb94c1cccc67c4f4
p224
sg66
VZurich
p225
ssVextended_entities
p226
(dp227
g145
(lp228
(dp229
g148
Vhttp://twitter.com/hemanperth/status/621122651604525056/photo/1
p230
sg150
Vpic.twitter.com/EZ1hR6VEvv
p231
sg75
Vhttp://t.co/EZ1hR6VEvv
p232
sg153
Vhttps://pbs.twimg.com/media/CJ6rtWQUwAAcFe3.jpg
p233
sg42
V621122594180218880
p234
sg156
(dp235
g158
(dp236
g160
I255
sg161
Vfit
p237
sg163
I340
ssg164
(dp238
g160
I768
sg161
Vfit
p239
sg163
I1024
ssg167
(dp240
g160
I450
sg161
Vfit
p241
sg163
I600
ssg170
(dp242
g160
I150
sg161
Vcrop
p243
sg163
I150
sssg173
(lp244
I97
aI119
asg175
Vphoto
p245
sg33
I621122594180218880
sg177
Vhttp://pbs.twimg.com/media/CJ6rtWQUwAAcFe3.jpg
p246
sa(dp247
g148
Vhttp://twitter.com/hemanperth/status/621122651604525056/photo/1
p248
sg150
Vpic.twitter.com/EZ1hR6VEvv
p249
sg75
Vhttp://t.co/EZ1hR6VEvv
p250
sg153
Vhttps://pbs.twimg.com/media/CJ6rtY9UsAACiFR.jpg
p251
sg42
V621122594905829376
p252
sg156
(dp253
g158
(dp254
g160
I255
sg161
Vfit
p255
sg163
I340
ssg164
(dp256
g160
I768
sg161
Vfit
p257
sg163
I1024
ssg167
(dp258
g160
I450
sg161
Vfit
p259
sg163
I600
ssg170
(dp260
g160
I150
sg161
Vcrop
p261
sg163
I150
sssg173
(lp262
I97
aI119
asg175
Vphoto
p263
sg33
I621122594905829376
sg177
Vhttp://pbs.twimg.com/media/CJ6rtY9UsAACiFR.jpg
p264
sa(dp265
g148
Vhttp://twitter.com/hemanperth/status/621122651604525056/photo/1
p266
sg150
Vpic.twitter.com/EZ1hR6VEvv
p267
sg75
Vhttp://t.co/EZ1hR6VEvv
p268
sg153
Vhttps://pbs.twimg.com/media/CJ6rtY9VAAAhSU1.jpg
p269
sg42
V621122594905849856
p270
sg156
(dp271
g158
(dp272
g160
I255
sg161
Vfit
p273
sg163
I340
ssg164
(dp274
g160
I768
sg161
Vfit
p275
sg163
I1024
ssg167
(dp276
g160
I450
sg161
Vfit
p277
sg163
I600
ssg170
(dp278
g160
I150
sg161
Vcrop
p279
sg163
I150
sssg173
(lp280
I97
aI119
asg175
Vphoto
p281
sg33
I621122594905849856
sg177
Vhttp://pbs.twimg.com/media/CJ6rtY9VAAAhSU1.jpg
p282
sasssS'coordinates'
p283
NsS'timestamp_ms'
p284
g140
sS'entities'
p285
g142
sS'in_reply_to_status_id_str'
p286
NsS'in_reply_to_screen_name'
p287
Nsg90
g191
sS'extended_entities'
p288
g227
sS'retweeted'
p289
I00
sS'place'
p290
g0
(ctweepy.models
Place
p291
g2
Ntp292
Rp293
(dp294
S'full_name'
p295
g205
sg108
g206
sS'country'
p296
g208
sS'place_type'
p297
g210
sS'bounding_box'
p298
g0
(ctweepy.models
BoundingBox
p299
g2
Ntp300
Rp301
(dp302
S'type'
p303
g213
sg283
g214
sbsS'country_code'
p304
g221
sS'attributes'
p305
g223
sg24
g224
sg102
g225
sbsS'retweet_count'
p306
I0
sg109
g110
(S'\x07\xdf\x07\x0f\x01\x02"\x00\x00\x00'
p307
tp308
Rp309
sS'in_reply_to_user_id'
p310
Nsb.