ccopy_reg
_reconstructor
p0
(ctweepy.models
Status
p1
c__builtin__
object
p2
Ntp3
Rp4
(dp5
S'favorited'
p6
I00
sS'contributors'
p7
NsS'truncated'
p8
I00
sS'text'
p9
VThank you for the #rock'n'roll @metheridge! You kicked some ass today, girl! http://t.co/5WKWLFFsWX
p10
sS'source_url'
p11
Vhttp://twitter.com/download/iphone
p12
sS'possibly_sensitive'
p13
I00
sS'in_reply_to_status_id'
p14
NsS'user'
p15
g0
(ctweepy.models
User
p16
g2
Ntp17
Rp18
(dp19
S'follow_request_sent'
p20
NsS'profile_use_background_image'
p21
I01
sS'profile_sidebar_fill_color'
p22
VDDEEF6
p23
sS'id'
p24
I29298145
sS'verified'
p25
I00
sS'profile_image_url_https'
p26
Vhttps://pbs.twimg.com/profile_images/603955209203818496/i6MI6h8u_normal.png
p27
sS'_json'
p28
(dp29
Vfollow_request_sent
p30
NsVprofile_use_background_image
p31
I01
sVdefault_profile_image
p32
I00
sVid
p33
I29298145
sVverified
p34
I00
sVprofile_image_url_https
p35
g27
sVprofile_sidebar_fill_color
p36
g23
sVprofile_text_color
p37
V333333
p38
sVfollowers_count
p39
I65
sVprofile_sidebar_border_color
p40
VC0DEED
p41
sVid_str
p42
V29298145
p43
sVprofile_background_color
p44
VC0DEED
p45
sVlisted_count
p46
I4
sVprofile_background_image_url_https
p47
Vhttps://abs.twimg.com/images/themes/theme1/bg.png
p48
sVutc_offset
p49
I7200
sVstatuses_count
p50
I293
sVdescription
p51
VI just looove all things #DigitalMarketing #OnlineMarketing #IoT #SearchEngineMarketing #SocialMedia and the #DigitalRevolution
p52
sVfriends_count
p53
I194
sVlocation
p54
VZurich, Switzerland
p55
sVprofile_link_color
p56
V0084B4
p57
sVprofile_image_url
p58
Vhttp://pbs.twimg.com/profile_images/603955209203818496/i6MI6h8u_normal.png
p59
sVfollowing
p60
NsVgeo_enabled
p61
I01
sVprofile_banner_url
p62
Vhttps://pbs.twimg.com/profile_banners/29298145/1432827431
p63
sVprofile_background_image_url
p64
Vhttp://abs.twimg.com/images/themes/theme1/bg.png
p65
sVname
p66
VChris Ackermann
p67
sVlang
p68
Ven
p69
sVprofile_background_tile
p70
I00
sVfavourites_count
p71
I20
sVscreen_name
p72
Vchrisackermann
p73
sVnotifications
p74
NsVurl
p75
NsVcreated_at
p76
VMon Apr 06 21:28:35 +0000 2009
p77
sVcontributors_enabled
p78
I00
sVtime_zone
p79
VBern
p80
sVprotected
p81
I00
sVdefault_profile
p82
I01
sVis_translator
p83
I00
ssS'contributors_enabled'
p84
I00
sS'profile_text_color'
p85
g38
sS'followers_count'
p86
I65
sS'profile_sidebar_border_color'
p87
g41
sS'location'
p88
g55
sS'default_profile_image'
p89
I00
sS'id_str'
p90
g43
sS'utc_offset'
p91
I7200
sS'statuses_count'
p92
I293
sS'description'
p93
g52
sS'friends_count'
p94
I194
sS'profile_link_color'
p95
g57
sS'profile_image_url'
p96
g59
sS'notifications'
p97
NsS'geo_enabled'
p98
I01
sS'profile_background_color'
p99
g45
sS'profile_banner_url'
p100
g63
sS'profile_background_image_url'
p101
g65
sS'name'
p102
g67
sS'lang'
p103
g69
sS'following'
p104
I00
sS'profile_background_tile'
p105
I00
sS'favourites_count'
p106
I20
sS'screen_name'
p107
g73
sS'url'
p108
NsS'created_at'
p109
cdatetime
datetime
p110
(S'\x07\xd9\x04\x06\x15\x1c#\x00\x00\x00'
p111
tp112
Rp113
sS'profile_background_image_url_https'
p114
g48
sS'time_zone'
p115
g80
sS'protected'
p116
I00
sS'default_profile'
p117
I01
sS'is_translator'
p118
I00
sS'listed_count'
p119
I4
sbsS'filter_level'
p120
Vlow
p121
sS'geo'
p122
Nsg24
I621403606210711552
sS'favorite_count'
p123
I0
sS'source'
p124
VTwitter for iPhone
p125
sg103
Ven
p126
sS'author'
p127
g18
sS'in_reply_to_user_id_str'
p128
Nsg28
(dp129
Vcontributors
p130
NsVtruncated
p131
I00
sVtext
p132
g10
sVin_reply_to_status_id
p133
Nsg33
I621403606210711552
sVfavorite_count
p134
I0
sVsource
p135
V<a href="http://twitter.com/download/iphone" rel="nofollow">Twitter for iPhone</a>
p136
sVretweeted
p137
I00
sVcoordinates
p138
NsVtimestamp_ms
p139
V1436989139498
p140
sVentities
p141
(dp142
Vsymbols
p143
(lp144
sVmedia
p145
(lp146
(dp147
Vexpanded_url
p148
Vhttp://twitter.com/chrisackermann/status/621403606210711552/photo/1
p149
sVdisplay_url
p150
Vpic.twitter.com/5WKWLFFsWX
p151
sg75
Vhttp://t.co/5WKWLFFsWX
p152
sVmedia_url_https
p153
Vhttps://pbs.twimg.com/media/CJ-rRrGWoAAoVAg.jpg
p154
sg42
V621403593715916800
p155
sVsizes
p156
(dp157
Vsmall
p158
(dp159
Vh
p160
I255
sVresize
p161
Vfit
p162
sVw
p163
I340
ssVlarge
p164
(dp165
g160
I768
sg161
Vfit
p166
sg163
I1024
ssVmedium
p167
(dp168
g160
I450
sg161
Vfit
p169
sg163
I600
ssVthumb
p170
(dp171
g160
I150
sg161
Vcrop
p172
sg163
I150
sssVindices
p173
(lp174
I77
aI99
asVtype
p175
Vphoto
p176
sg33
I621403593715916800
sVmedia_url
p177
Vhttp://pbs.twimg.com/media/CJ-rRrGWoAAoVAg.jpg
p178
sasVhashtags
p179
(lp180
(dp181
g173
(lp182
I18
aI23
asg132
Vrock
p183
sasVuser_mentions
p184
(lp185
(dp186
g33
I35885940
sg173
(lp187
I31
aI42
asg42
V35885940
p188
sg72
Vmetheridge
p189
sg66
VMelissa Etheridge
p190
sasVtrends
p191
(lp192
sVurls
p193
(lp194
ssVin_reply_to_screen_name
p195
Nsg42
V621403606210711552
p196
sVretweet_count
p197
I0
sVin_reply_to_user_id
p198
NsVfavorited
p199
I00
sVuser
p200
g29
sVgeo
p201
NsVin_reply_to_user_id_str
p202
NsVpossibly_sensitive
p203
I00
sg68
g126
sg76
VWed Jul 15 19:38:59 +0000 2015
p204
sVfilter_level
p205
g121
sVin_reply_to_status_id_str
p206
NsVplace
p207
(dp208
Vfull_name
p209
VZurich, Switzerland
p210
sg75
Vhttps://api.twitter.com/1.1/geo/id/3acb748d0f1e9265.json
p211
sVcountry
p212
VSchweiz
p213
sVplace_type
p214
Vcity
p215
sVbounding_box
p216
(dp217
g175
VPolygon
p218
sg138
(lp219
(lp220
(lp221
F8.448081
aF47.320183
aa(lp222
F8.448081
aF47.434721
aa(lp223
F8.625442
aF47.434721
aa(lp224
F8.625442
aF47.320183
aaassVcountry_code
p225
VCH
p226
sVattributes
p227
(dp228
sg33
V3acb748d0f1e9265
p229
sg66
VZurich
p230
ssVextended_entities
p231
(dp232
g145
(lp233
(dp234
g148
Vhttp://twitter.com/chrisackermann/status/621403606210711552/photo/1
p235
sg150
Vpic.twitter.com/5WKWLFFsWX
p236
sg75
Vhttp://t.co/5WKWLFFsWX
p237
sg153
Vhttps://pbs.twimg.com/media/CJ-rRrGWoAAoVAg.jpg
p238
sg42
V621403593715916800
p239
sg156
(dp240
g158
(dp241
g160
I255
sg161
Vfit
p242
sg163
I340
ssg164
(dp243
g160
I768
sg161
Vfit
p244
sg163
I1024
ssg167
(dp245
g160
I450
sg161
Vfit
p246
sg163
I600
ssg170
(dp247
g160
I150
sg161
Vcrop
p248
sg163
I150
sssg173
(lp249
I77
aI99
asg175
Vphoto
p250
sg33
I621403593715916800
sg177
Vhttp://pbs.twimg.com/media/CJ-rRrGWoAAoVAg.jpg
p251
sasssS'coordinates'
p252
NsS'timestamp_ms'
p253
g140
sS'entities'
p254
g142
sS'in_reply_to_status_id_str'
p255
NsS'in_reply_to_screen_name'
p256
Nsg90
g196
sS'extended_entities'
p257
g232
sS'retweeted'
p258
I00
sS'place'
p259
g0
(ctweepy.models
Place
p260
g2
Ntp261
Rp262
(dp263
S'full_name'
p264
g210
sg108
g211
sS'country'
p265
g213
sS'place_type'
p266
g215
sS'bounding_box'
p267
g0
(ctweepy.models
BoundingBox
p268
g2
Ntp269
Rp270
(dp271
S'type'
p272
g218
sg252
g219
sbsS'country_code'
p273
g226
sS'attributes'
p274
g228
sg24
g229
sg102
g230
sbsS'retweet_count'
p275
I0
sg109
g110
(S'\x07\xdf\x07\x0f\x13&;\x00\x00\x00'
p276
tp277
Rp278
sS'in_reply_to_user_id'
p279
Nsb.