ccopy_reg
_reconstructor
p0
(ctweepy.models
Status
p1
c__builtin__
object
p2
Ntp3
Rp4
(dp5
S'favorited'
p6
I00
sS'contributors'
p7
NsS'truncated'
p8
I00
sS'text'
p9
VThere is nothing more to say: @Negramaro LIVE! https://t.co/KzFzyM8AoM\u000aSpread the word, they rock!!!!! #negramaro #live #sansiro #italia
p10
sS'source_url'
p11
Vhttp://twitter.com
p12
sS'possibly_sensitive'
p13
I00
sS'in_reply_to_status_id'
p14
NsS'user'
p15
g0
(ctweepy.models
User
p16
g2
Ntp17
Rp18
(dp19
S'follow_request_sent'
p20
NsS'profile_use_background_image'
p21
I00
sS'profile_sidebar_fill_color'
p22
V000000
p23
sS'id'
p24
I40840920
sS'verified'
p25
I00
sS'profile_image_url_https'
p26
Vhttps://pbs.twimg.com/profile_images/3621636918/c27075f096db4d449a353d005182a18b_normal.jpeg
p27
sS'_json'
p28
(dp29
Vfollow_request_sent
p30
NsVprofile_use_background_image
p31
I00
sVdefault_profile_image
p32
I00
sVid
p33
I40840920
sVverified
p34
I00
sVprofile_image_url_https
p35
g27
sVprofile_sidebar_fill_color
p36
g23
sVprofile_text_color
p37
V000000
p38
sVfollowers_count
p39
I164
sVprofile_sidebar_border_color
p40
V000000
p41
sVid_str
p42
V40840920
p43
sVprofile_background_color
p44
V000000
p45
sVlisted_count
p46
I7
sVprofile_background_image_url_https
p47
Vhttps://abs.twimg.com/images/themes/theme9/bg.gif
p48
sVutc_offset
p49
I7200
sVstatuses_count
p50
I346
sVdescription
p51
NsVfriends_count
p52
I189
sVlocation
p53
VSwitzerland
p54
sVprofile_link_color
p55
V3B94D9
p56
sVprofile_image_url
p57
Vhttp://pbs.twimg.com/profile_images/3621636918/c27075f096db4d449a353d005182a18b_normal.jpeg
p58
sVfollowing
p59
NsVgeo_enabled
p60
I01
sVprofile_banner_url
p61
Vhttps://pbs.twimg.com/profile_banners/40840920/1436244175
p62
sVprofile_background_image_url
p63
Vhttp://abs.twimg.com/images/themes/theme9/bg.gif
p64
sVname
p65
VREDEEM
p66
sVlang
p67
Ven
p68
sVprofile_background_tile
p69
I00
sVfavourites_count
p70
I4
sVscreen_name
p71
Vredeemmusic
p72
sVnotifications
p73
NsVurl
p74
Vhttp://www.redeem.ch
p75
sVcreated_at
p76
VMon May 18 08:56:29 +0000 2009
p77
sVcontributors_enabled
p78
I00
sVtime_zone
p79
VBern
p80
sVprotected
p81
I00
sVdefault_profile
p82
I00
sVis_translator
p83
I00
ssS'contributors_enabled'
p84
I00
sS'profile_text_color'
p85
g38
sS'followers_count'
p86
I164
sS'profile_sidebar_border_color'
p87
g41
sS'location'
p88
g54
sS'default_profile_image'
p89
I00
sS'id_str'
p90
g43
sS'utc_offset'
p91
I7200
sS'statuses_count'
p92
I346
sS'description'
p93
NsS'friends_count'
p94
I189
sS'profile_link_color'
p95
g56
sS'profile_image_url'
p96
g58
sS'notifications'
p97
NsS'geo_enabled'
p98
I01
sS'profile_background_color'
p99
g45
sS'profile_banner_url'
p100
g62
sS'profile_background_image_url'
p101
g64
sS'name'
p102
g66
sS'lang'
p103
g68
sS'following'
p104
I00
sS'profile_background_tile'
p105
I00
sS'favourites_count'
p106
I4
sS'screen_name'
p107
g72
sS'url'
p108
g75
sS'created_at'
p109
cdatetime
datetime
p110
(S'\x07\xd9\x05\x12\x088\x1d\x00\x00\x00'
p111
tp112
Rp113
sS'profile_background_image_url_https'
p114
g48
sS'time_zone'
p115
g80
sS'protected'
p116
I00
sS'default_profile'
p117
I00
sS'is_translator'
p118
I00
sS'listed_count'
p119
I7
sbsS'filter_level'
p120
Vlow
p121
sS'geo'
p122
Nsg24
I619104642090336256
sS'favorite_count'
p123
I0
sS'source'
p124
VTwitter Web Client
p125
sg103
Ven
p126
sS'author'
p127
g18
sS'in_reply_to_user_id_str'
p128
Nsg28
(dp129
Vcontributors
p130
NsVtruncated
p131
I00
sVtext
p132
VThere is nothing more to say: @Negramaro LIVE! https://t.co/KzFzyM8AoM\u000aSpread the word, they rock!!!!! #negramaro #live #sansiro #italia
p133
sVin_reply_to_status_id
p134
Nsg33
I619104642090336256
sVfavorite_count
p135
I0
sVsource
p136
V<a href="http://twitter.com" rel="nofollow">Twitter Web Client</a>
p137
sVretweeted
p138
I00
sVcoordinates
p139
NsVtimestamp_ms
p140
V1436441023739
p141
sVentities
p142
(dp143
Vuser_mentions
p144
(lp145
(dp146
g33
I130590435
sVindices
p147
(lp148
I30
aI40
asg42
V130590435
p149
sg71
VNegramaro
p150
sg65
Vnegramaro
p151
sasVsymbols
p152
(lp153
sVtrends
p154
(lp155
sVhashtags
p156
(lp157
(dp158
g147
(lp159
I103
aI113
asg132
Vnegramaro
p160
sa(dp161
g147
(lp162
I114
aI119
asg132
Vlive
p163
sa(dp164
g147
(lp165
I120
aI128
asg132
Vsansiro
p166
sa(dp167
g147
(lp168
I129
aI136
asg132
Vitalia
p169
sasVurls
p170
(lp171
(dp172
g74
Vhttps://t.co/KzFzyM8AoM
p173
sg147
(lp174
I47
aI70
asVexpanded_url
p175
Vhttps://youtu.be/_ArRJJ7UJTs
p176
sVdisplay_url
p177
Vyoutu.be/_ArRJJ7UJTs
p178
sassVin_reply_to_screen_name
p179
Nsg42
V619104642090336256
p180
sVretweet_count
p181
I0
sVin_reply_to_user_id
p182
NsVfavorited
p183
I00
sVuser
p184
g29
sVgeo
p185
NsVin_reply_to_user_id_str
p186
NsVpossibly_sensitive
p187
I00
sg67
g126
sg76
VThu Jul 09 11:23:43 +0000 2015
p188
sVfilter_level
p189
g121
sVin_reply_to_status_id_str
p190
NsVplace
p191
(dp192
Vfull_name
p193
VZurich, Switzerland
p194
sg74
Vhttps://api.twitter.com/1.1/geo/id/3acb748d0f1e9265.json
p195
sVcountry
p196
VSchweiz
p197
sVplace_type
p198
Vcity
p199
sVbounding_box
p200
(dp201
Vtype
p202
VPolygon
p203
sg139
(lp204
(lp205
(lp206
F8.448081
aF47.320183
aa(lp207
F8.448081
aF47.434721
aa(lp208
F8.625442
aF47.434721
aa(lp209
F8.625442
aF47.320183
aaassVcountry_code
p210
VCH
p211
sVattributes
p212
(dp213
sg33
V3acb748d0f1e9265
p214
sg65
VZurich
p215
sssS'coordinates'
p216
NsS'timestamp_ms'
p217
g141
sS'entities'
p218
g143
sS'in_reply_to_status_id_str'
p219
NsS'in_reply_to_screen_name'
p220
Nsg90
g180
sS'retweeted'
p221
I00
sS'place'
p222
g0
(ctweepy.models
Place
p223
g2
Ntp224
Rp225
(dp226
S'full_name'
p227
g194
sg108
g195
sS'country'
p228
g197
sS'place_type'
p229
g199
sS'bounding_box'
p230
g0
(ctweepy.models
BoundingBox
p231
g2
Ntp232
Rp233
(dp234
S'type'
p235
g203
sg216
g204
sbsS'country_code'
p236
g211
sS'attributes'
p237
g213
sg24
g214
sg102
g215
sbsS'retweet_count'
p238
I0
sg109
g110
(S'\x07\xdf\x07\t\x0b\x17+\x00\x00\x00'
p239
tp240
Rp241
sS'in_reply_to_user_id'
p242
Nsb.