ccopy_reg
_reconstructor
p0
(ctweepy.models
Status
p1
c__builtin__
object
p2
Ntp3
Rp4
(dp5
S'favorited'
p6
I00
sS'contributors'
p7
NsS'truncated'
p8
I00
sS'text'
p9
V\u041d\u0435\u043d\u0430\u0441\u043f\u0430\u043d\u0438 \u043e\u0447\u0438. @ ibis Zurich City West https://t.co/repp3fSMx1
p10
sS'source_url'
p11
Vhttp://instagram.com
p12
sS'possibly_sensitive'
p13
I00
sS'in_reply_to_status_id'
p14
NsS'user'
p15
g0
(ctweepy.models
User
p16
g2
Ntp17
Rp18
(dp19
S'follow_request_sent'
p20
NsS'profile_use_background_image'
p21
I01
sS'profile_sidebar_fill_color'
p22
VFFFFFF
p23
sS'id'
p24
I968456324
sS'verified'
p25
I00
sS'profile_image_url_https'
p26
Vhttps://pbs.twimg.com/profile_images/614375173278564352/2QiFRre5_normal.jpg
p27
sS'_json'
p28
(dp29
Vfollow_request_sent
p30
NsVprofile_use_background_image
p31
I01
sVdefault_profile_image
p32
I00
sVid
p33
I968456324
sVverified
p34
I00
sVprofile_image_url_https
p35
g27
sVprofile_sidebar_fill_color
p36
g23
sVprofile_text_color
p37
V000000
p38
sVfollowers_count
p39
I2568
sVprofile_sidebar_border_color
p40
VFFFFFF
p41
sVid_str
p42
V968456324
p43
sVprofile_background_color
p44
VFFFFFF
p45
sVlisted_count
p46
I9
sVprofile_background_image_url_https
p47
Vhttps://pbs.twimg.com/profile_background_images/378800000076638867/fbad4d7ee0136a92bf23ff4f51e14b92.png
p48
sVutc_offset
p49
I7200
sVstatuses_count
p50
I8896
sVdescription
p51
VNot your babe. \u000ahttps://www.facebook.com/sarasimplified/
p52
sVfriends_count
p53
I872
sVlocation
p54
VSkopje
p55
sVprofile_link_color
p56
V89C9FA
p57
sVprofile_image_url
p58
Vhttp://pbs.twimg.com/profile_images/614375173278564352/2QiFRre5_normal.jpg
p59
sVfollowing
p60
NsVgeo_enabled
p61
I01
sVprofile_banner_url
p62
Vhttps://pbs.twimg.com/profile_banners/968456324/1379451251
p63
sVprofile_background_image_url
p64
Vhttp://pbs.twimg.com/profile_background_images/378800000076638867/fbad4d7ee0136a92bf23ff4f51e14b92.png
p65
sVname
p66
V\u0421\u0430\u0440\u0430.
p67
sVlang
p68
Ven
p69
sVprofile_background_tile
p70
I01
sVfavourites_count
p71
I12714
sVscreen_name
p72
Vtrnorushka
p73
sVnotifications
p74
NsVurl
p75
Vhttp://sarasimplified.com/
p76
sVcreated_at
p77
VSat Nov 24 17:39:50 +0000 2012
p78
sVcontributors_enabled
p79
I00
sVtime_zone
p80
VAmsterdam
p81
sVprotected
p82
I00
sVdefault_profile
p83
I00
sVis_translator
p84
I00
ssS'contributors_enabled'
p85
I00
sS'profile_text_color'
p86
g38
sS'followers_count'
p87
I2568
sS'profile_sidebar_border_color'
p88
g41
sS'location'
p89
g55
sS'default_profile_image'
p90
I00
sS'id_str'
p91
g43
sS'utc_offset'
p92
I7200
sS'statuses_count'
p93
I8896
sS'description'
p94
VNot your babe. \u000ahttps://www.facebook.com/sarasimplified/
p95
sS'friends_count'
p96
I872
sS'profile_link_color'
p97
g57
sS'profile_image_url'
p98
g59
sS'notifications'
p99
NsS'geo_enabled'
p100
I01
sS'profile_background_color'
p101
g45
sS'profile_banner_url'
p102
g63
sS'profile_background_image_url'
p103
g65
sS'name'
p104
g67
sS'lang'
p105
g69
sS'following'
p106
I00
sS'profile_background_tile'
p107
I01
sS'favourites_count'
p108
I12714
sS'screen_name'
p109
g73
sS'url'
p110
g76
sS'created_at'
p111
cdatetime
datetime
p112
(S"\x07\xdc\x0b\x18\x11'2\x00\x00\x00"
p113
tp114
Rp115
sS'profile_background_image_url_https'
p116
g48
sS'time_zone'
p117
g81
sS'protected'
p118
I00
sS'default_profile'
p119
I00
sS'is_translator'
p120
I00
sS'listed_count'
p121
I9
sbsS'filter_level'
p122
Vlow
p123
sS'geo'
p124
(dp125
Vtype
p126
VPoint
p127
sVcoordinates
p128
(lp129
F47.388825
aF8.516885
assg24
I619583780551041025
sS'favorite_count'
p130
I0
sS'source'
p131
VInstagram
p132
sg105
Vund
p133
sS'author'
p134
g18
sS'in_reply_to_user_id_str'
p135
Nsg28
(dp136
Vcontributors
p137
NsVtruncated
p138
I00
sVtext
p139
g10
sVin_reply_to_status_id
p140
Nsg33
I619583780551041025
sVfavorite_count
p141
I0
sVsource
p142
V<a href="http://instagram.com" rel="nofollow">Instagram</a>
p143
sVretweeted
p144
I00
sg128
(dp145
g126
VPoint
p146
sg128
(lp147
F8.516885
aF47.388825
assVtimestamp_ms
p148
V1436555259250
p149
sVentities
p150
(dp151
Vuser_mentions
p152
(lp153
sVsymbols
p154
(lp155
sVtrends
p156
(lp157
sVhashtags
p158
(lp159
sVurls
p160
(lp161
(dp162
g75
Vhttps://t.co/repp3fSMx1
p163
sVindices
p164
(lp165
I39
aI62
asVexpanded_url
p166
Vhttps://instagram.com/p/4938mhMHr_/
p167
sVdisplay_url
p168
Vinstagram.com/p/4938mhMHr_/
p169
sassVin_reply_to_screen_name
p170
Nsg42
V619583780551041025
p171
sVretweet_count
p172
I0
sVin_reply_to_user_id
p173
NsVfavorited
p174
I00
sVuser
p175
g29
sVgeo
p176
g125
sVin_reply_to_user_id_str
p177
NsVpossibly_sensitive
p178
I00
sg68
g133
sg77
VFri Jul 10 19:07:39 +0000 2015
p179
sVfilter_level
p180
g123
sVin_reply_to_status_id_str
p181
NsVplace
p182
(dp183
Vfull_name
p184
VZurich, Switzerland
p185
sg75
Vhttps://api.twitter.com/1.1/geo/id/3acb748d0f1e9265.json
p186
sVcountry
p187
VSchweiz
p188
sVplace_type
p189
Vcity
p190
sVbounding_box
p191
(dp192
g126
VPolygon
p193
sg128
(lp194
(lp195
(lp196
F8.448081
aF47.320183
aa(lp197
F8.448081
aF47.434721
aa(lp198
F8.625442
aF47.434721
aa(lp199
F8.625442
aF47.320183
aaassVcountry_code
p200
VCH
p201
sVattributes
p202
(dp203
sg33
V3acb748d0f1e9265
p204
sg66
VZurich
p205
sssS'coordinates'
p206
g145
sS'timestamp_ms'
p207
g149
sS'entities'
p208
g151
sS'in_reply_to_status_id_str'
p209
NsS'in_reply_to_screen_name'
p210
Nsg91
g171
sS'retweeted'
p211
I00
sS'place'
p212
g0
(ctweepy.models
Place
p213
g2
Ntp214
Rp215
(dp216
S'full_name'
p217
g185
sg110
g186
sS'country'
p218
g188
sS'place_type'
p219
g190
sS'bounding_box'
p220
g0
(ctweepy.models
BoundingBox
p221
g2
Ntp222
Rp223
(dp224
S'type'
p225
g193
sg206
g194
sbsS'country_code'
p226
g201
sS'attributes'
p227
g203
sg24
g204
sg104
g205
sbsS'retweet_count'
p228
I0
sg111
g112
(S"\x07\xdf\x07\n\x13\x07'\x00\x00\x00"
p229
tp230
Rp231
sS'in_reply_to_user_id'
p232
Nsb.