ccopy_reg
_reconstructor
p0
(ctweepy.models
Status
p1
c__builtin__
object
p2
Ntp3
Rp4
(dp5
S'favorited'
p6
I00
sS'contributors'
p7
NsS'truncated'
p8
I00
sS'text'
p9
Vhttp://t.co/LYWy4tEpZz
p10
sS'source_url'
p11
Vhttp://twitter.com
p12
sS'possibly_sensitive'
p13
I00
sS'in_reply_to_status_id'
p14
NsS'user'
p15
g0
(ctweepy.models
User
p16
g2
Ntp17
Rp18
(dp19
S'follow_request_sent'
p20
NsS'profile_use_background_image'
p21
I01
sS'profile_sidebar_fill_color'
p22
VDDEEF6
p23
sS'id'
p24
I3360961990
sS'verified'
p25
I00
sS'profile_image_url_https'
p26
Vhttps://pbs.twimg.com/profile_images/617740160923529216/d6kN3gMH_normal.jpg
p27
sS'_json'
p28
(dp29
Vfollow_request_sent
p30
NsVprofile_use_background_image
p31
I01
sVdefault_profile_image
p32
I00
sVid
p33
I3360961990
sVverified
p34
I00
sVprofile_image_url_https
p35
g27
sVprofile_sidebar_fill_color
p36
g23
sVprofile_text_color
p37
V333333
p38
sVfollowers_count
p39
I18
sVprofile_sidebar_border_color
p40
VC0DEED
p41
sVid_str
p42
V3360961990
p43
sVprofile_background_color
p44
VC0DEED
p45
sVlisted_count
p46
I0
sVprofile_background_image_url_https
p47
Vhttps://abs.twimg.com/images/themes/theme1/bg.png
p48
sVutc_offset
p49
NsVstatuses_count
p50
I35
sVdescription
p51
NsVfriends_count
p52
I144
sVlocation
p53
V
p54
sVprofile_link_color
p55
V0084B4
p56
sVprofile_image_url
p57
Vhttp://pbs.twimg.com/profile_images/617740160923529216/d6kN3gMH_normal.jpg
p58
sVfollowing
p59
NsVgeo_enabled
p60
I01
sVprofile_background_image_url
p61
Vhttp://abs.twimg.com/images/themes/theme1/bg.png
p62
sVname
p63
Vgashi liridon 
p64
sVlang
p65
Vde
p66
sVprofile_background_tile
p67
I00
sVfavourites_count
p68
I0
sVscreen_name
p69
VUsa50Losangeles
p70
sVnotifications
p71
NsVurl
p72
NsVcreated_at
p73
VSun Jul 05 16:56:21 +0000 2015
p74
sVcontributors_enabled
p75
I00
sVtime_zone
p76
NsVprotected
p77
I00
sVdefault_profile
p78
I01
sVis_translator
p79
I00
ssS'contributors_enabled'
p80
I00
sS'profile_text_color'
p81
g38
sS'followers_count'
p82
I18
sS'profile_sidebar_border_color'
p83
g41
sS'location'
p84
g54
sS'default_profile_image'
p85
I00
sS'id_str'
p86
g43
sS'utc_offset'
p87
NsS'statuses_count'
p88
I35
sS'description'
p89
NsS'friends_count'
p90
I144
sS'profile_link_color'
p91
g56
sS'profile_image_url'
p92
g58
sS'notifications'
p93
NsS'geo_enabled'
p94
I01
sS'profile_background_color'
p95
g45
sS'profile_background_image_url'
p96
g62
sS'name'
p97
g64
sS'lang'
p98
g66
sS'following'
p99
I00
sS'profile_background_tile'
p100
I00
sS'favourites_count'
p101
I0
sS'screen_name'
p102
g70
sS'url'
p103
NsS'created_at'
p104
cdatetime
datetime
p105
(S'\x07\xdf\x07\x05\x108\x15\x00\x00\x00'
p106
tp107
Rp108
sS'profile_background_image_url_https'
p109
g48
sS'time_zone'
p110
NsS'protected'
p111
I00
sS'default_profile'
p112
I01
sS'is_translator'
p113
I00
sS'listed_count'
p114
I0
sbsS'filter_level'
p115
Vlow
p116
sS'geo'
p117
Nsg24
I621264118394318848
sS'favorite_count'
p118
I0
sS'source'
p119
VTwitter Web Client
p120
sg98
Vund
p121
sS'author'
p122
g18
sS'in_reply_to_user_id_str'
p123
Nsg28
(dp124
Vcontributors
p125
NsVtruncated
p126
I00
sVtext
p127
g10
sVin_reply_to_status_id
p128
Nsg33
I621264118394318848
sVfavorite_count
p129
I0
sVsource
p130
V<a href="http://twitter.com" rel="nofollow">Twitter Web Client</a>
p131
sVretweeted
p132
I00
sVcoordinates
p133
NsVtimestamp_ms
p134
V1436955883011
p135
sVentities
p136
(dp137
Vsymbols
p138
(lp139
sVmedia
p140
(lp141
(dp142
Vexpanded_url
p143
Vhttp://twitter.com/Usa50Losangeles/status/621264118394318848/photo/1
p144
sVdisplay_url
p145
Vpic.twitter.com/LYWy4tEpZz
p146
sg72
Vhttp://t.co/LYWy4tEpZz
p147
sVmedia_url_https
p148
Vhttps://pbs.twimg.com/media/CJ8sbC6WoAAbPD8.jpg
p149
sg42
V621264116750131200
p150
sVsizes
p151
(dp152
Vsmall
p153
(dp154
Vh
p155
I255
sVresize
p156
Vfit
p157
sVw
p158
I340
ssVlarge
p159
(dp160
g155
I768
sg156
Vfit
p161
sg158
I1024
ssVmedium
p162
(dp163
g155
I450
sg156
Vfit
p164
sg158
I600
ssVthumb
p165
(dp166
g155
I150
sg156
Vcrop
p167
sg158
I150
sssVindices
p168
(lp169
I0
aI22
asVtype
p170
Vphoto
p171
sg33
I621264116750131200
sVmedia_url
p172
Vhttp://pbs.twimg.com/media/CJ8sbC6WoAAbPD8.jpg
p173
sasVhashtags
p174
(lp175
sVuser_mentions
p176
(lp177
sVtrends
p178
(lp179
sVurls
p180
(lp181
ssVin_reply_to_screen_name
p182
Nsg42
V621264118394318848
p183
sVretweet_count
p184
I0
sVin_reply_to_user_id
p185
NsVfavorited
p186
I00
sVuser
p187
g29
sVgeo
p188
NsVin_reply_to_user_id_str
p189
NsVpossibly_sensitive
p190
I00
sg65
g121
sg73
VWed Jul 15 10:24:43 +0000 2015
p191
sVfilter_level
p192
g116
sVin_reply_to_status_id_str
p193
NsVplace
p194
(dp195
Vfull_name
p196
VAargau, Schweiz
p197
sg72
Vhttps://api.twitter.com/1.1/geo/id/64c89c3f0e8b8b2e.json
p198
sVcountry
p199
VSchweiz
p200
sVplace_type
p201
Vadmin
p202
sVbounding_box
p203
(dp204
g170
VPolygon
p205
sg133
(lp206
(lp207
(lp208
F7.713449
aF47.137443
aa(lp209
F7.713449
aF47.621039
aa(lp210
F8.455222
aF47.621039
aa(lp211
F8.455222
aF47.137443
aaassVcountry_code
p212
VCH
p213
sVattributes
p214
(dp215
sg33
V64c89c3f0e8b8b2e
p216
sg63
VAargau
p217
ssVextended_entities
p218
(dp219
g140
(lp220
(dp221
g143
Vhttp://twitter.com/Usa50Losangeles/status/621264118394318848/photo/1
p222
sg145
Vpic.twitter.com/LYWy4tEpZz
p223
sg72
Vhttp://t.co/LYWy4tEpZz
p224
sg148
Vhttps://pbs.twimg.com/media/CJ8sbC6WoAAbPD8.jpg
p225
sg42
V621264116750131200
p226
sg151
(dp227
g153
(dp228
g155
I255
sg156
Vfit
p229
sg158
I340
ssg159
(dp230
g155
I768
sg156
Vfit
p231
sg158
I1024
ssg162
(dp232
g155
I450
sg156
Vfit
p233
sg158
I600
ssg165
(dp234
g155
I150
sg156
Vcrop
p235
sg158
I150
sssg168
(lp236
I0
aI22
asg170
Vphoto
p237
sg33
I621264116750131200
sg172
Vhttp://pbs.twimg.com/media/CJ8sbC6WoAAbPD8.jpg
p238
sasssS'coordinates'
p239
NsS'timestamp_ms'
p240
g135
sS'entities'
p241
g137
sS'in_reply_to_status_id_str'
p242
NsS'in_reply_to_screen_name'
p243
Nsg86
g183
sS'extended_entities'
p244
g219
sS'retweeted'
p245
I00
sS'place'
p246
g0
(ctweepy.models
Place
p247
g2
Ntp248
Rp249
(dp250
S'full_name'
p251
g197
sg103
g198
sS'country'
p252
g200
sS'place_type'
p253
g202
sS'bounding_box'
p254
g0
(ctweepy.models
BoundingBox
p255
g2
Ntp256
Rp257
(dp258
S'type'
p259
g205
sg239
g206
sbsS'country_code'
p260
g213
sS'attributes'
p261
g215
sg24
g216
sg97
g217
sbsS'retweet_count'
p262
I0
sg104
g105
(S'\x07\xdf\x07\x0f\n\x18+\x00\x00\x00'
p263
tp264
Rp265
sS'in_reply_to_user_id'
p266
Nsb.