ccopy_reg
_reconstructor
p0
(ctweepy.models
Status
p1
c__builtin__
object
p2
Ntp3
Rp4
(dp5
S'favorited'
p6
I00
sS'contributors'
p7
NsS'truncated'
p8
I00
sS'text'
p9
V@donmcallister restarting the watch seems to help: http://t.co/i1meLFB84k works for me, at least.
p10
sS'source_url'
p11
Vhttp://tapbots.com/tweetbot
p12
sS'possibly_sensitive'
p13
I00
sS'in_reply_to_status_id'
p14
I620876997506560000
sS'user'
p15
g0
(ctweepy.models
User
p16
g2
Ntp17
Rp18
(dp19
S'follow_request_sent'
p20
NsS'profile_use_background_image'
p21
I01
sS'profile_sidebar_fill_color'
p22
VDDEEF6
p23
sS'id'
p24
I14790024
sS'verified'
p25
I00
sS'profile_image_url_https'
p26
Vhttps://pbs.twimg.com/profile_images/184248266/simschla-manga_normal.jpg
p27
sS'_json'
p28
(dp29
Vfollow_request_sent
p30
NsVprofile_use_background_image
p31
I01
sVdefault_profile_image
p32
I00
sVid
p33
I14790024
sVverified
p34
I00
sVprofile_image_url_https
p35
g27
sVprofile_sidebar_fill_color
p36
g23
sVprofile_text_color
p37
V333333
p38
sVfollowers_count
p39
I214
sVprofile_sidebar_border_color
p40
VC0DEED
p41
sVid_str
p42
V14790024
p43
sVprofile_background_color
p44
VC0DEED
p45
sVlisted_count
p46
I9
sVprofile_background_image_url_https
p47
Vhttps://abs.twimg.com/images/themes/theme1/bg.png
p48
sVutc_offset
p49
I7200
sVstatuses_count
p50
I517
sVdescription
p51
VSoftware developer, mac enthusiast, swiss guy
p52
sVfriends_count
p53
I611
sVlocation
p54
VSwitzerland
p55
sVprofile_link_color
p56
V0084B4
p57
sVprofile_image_url
p58
Vhttp://pbs.twimg.com/profile_images/184248266/simschla-manga_normal.jpg
p59
sVfollowing
p60
NsVgeo_enabled
p61
I01
sVprofile_background_image_url
p62
Vhttp://abs.twimg.com/images/themes/theme1/bg.png
p63
sVname
p64
VSimon07
p65
sVlang
p66
Ven
p67
sVprofile_background_tile
p68
I00
sVfavourites_count
p69
I47
sVscreen_name
p70
VSimon07
p71
sVnotifications
p72
NsVurl
p73
Vhttps://github.com/simschla
p74
sVcreated_at
p75
VThu May 15 18:50:56 +0000 2008
p76
sVcontributors_enabled
p77
I00
sVtime_zone
p78
VBern
p79
sVprotected
p80
I00
sVdefault_profile
p81
I01
sVis_translator
p82
I00
ssS'contributors_enabled'
p83
I00
sS'profile_text_color'
p84
g38
sS'followers_count'
p85
I214
sS'profile_sidebar_border_color'
p86
g41
sS'location'
p87
g55
sS'default_profile_image'
p88
I00
sS'id_str'
p89
g43
sS'utc_offset'
p90
I7200
sS'statuses_count'
p91
I517
sS'description'
p92
g52
sS'friends_count'
p93
I611
sS'profile_link_color'
p94
g57
sS'profile_image_url'
p95
g59
sS'notifications'
p96
NsS'geo_enabled'
p97
I01
sS'profile_background_color'
p98
g45
sS'profile_background_image_url'
p99
g63
sS'name'
p100
g65
sS'lang'
p101
g67
sS'following'
p102
I00
sS'profile_background_tile'
p103
I00
sS'favourites_count'
p104
I47
sS'screen_name'
p105
g71
sS'url'
p106
g74
sS'created_at'
p107
cdatetime
datetime
p108
(S'\x07\xd8\x05\x0f\x1228\x00\x00\x00'
p109
tp110
Rp111
sS'profile_background_image_url_https'
p112
g48
sS'time_zone'
p113
g79
sS'protected'
p114
I00
sS'default_profile'
p115
I01
sS'is_translator'
p116
I00
sS'listed_count'
p117
I9
sbsS'filter_level'
p118
Vlow
p119
sS'geo'
p120
Nsg24
I620880195923386368
sS'favorite_count'
p121
I0
sS'source'
p122
VTweetbot for i\u039fS
p123
sg101
Ven
p124
sS'author'
p125
g18
sS'in_reply_to_user_id_str'
p126
V608993
p127
sg28
(dp128
Vcontributors
p129
NsVtruncated
p130
I00
sVtext
p131
g10
sVin_reply_to_status_id
p132
I620876997506560000
sg33
I620880195923386368
sVfavorite_count
p133
I0
sVsource
p134
V<a href="http://tapbots.com/tweetbot" rel="nofollow">Tweetbot for i\u039fS</a>
p135
sVretweeted
p136
I00
sVcoordinates
p137
NsVtimestamp_ms
p138
V1436864348761
p139
sVentities
p140
(dp141
Vuser_mentions
p142
(lp143
(dp144
g33
I608993
sVindices
p145
(lp146
I0
aI14
asg42
V608993
p147
sg70
Vdonmcallister
p148
sg64
VDon McAllister
p149
sasVsymbols
p150
(lp151
sVtrends
p152
(lp153
sVhashtags
p154
(lp155
sVurls
p156
(lp157
(dp158
g73
Vhttp://t.co/i1meLFB84k
p159
sg145
(lp160
I51
aI73
asVexpanded_url
p161
Vhttp://www.smartwatchart.com/2015/06/apple-watch-passbook-not-updatingsyncing.html
p162
sVdisplay_url
p163
Vsmartwatchart.com/2015/06/apple-\u2026
p164
sassVin_reply_to_screen_name
p165
Vdonmcallister
p166
sg42
V620880195923386368
p167
sVretweet_count
p168
I0
sVin_reply_to_user_id
p169
I608993
sVfavorited
p170
I00
sVuser
p171
g29
sVgeo
p172
NsVin_reply_to_user_id_str
p173
g127
sVpossibly_sensitive
p174
I00
sg66
g124
sg75
VTue Jul 14 08:59:08 +0000 2015
p175
sVfilter_level
p176
g119
sVin_reply_to_status_id_str
p177
V620876997506560000
p178
sVplace
p179
(dp180
Vfull_name
p181
VZurich, Switzerland
p182
sg73
Vhttps://api.twitter.com/1.1/geo/id/3acb748d0f1e9265.json
p183
sVcountry
p184
VSchweiz
p185
sVplace_type
p186
Vcity
p187
sVbounding_box
p188
(dp189
Vtype
p190
VPolygon
p191
sg137
(lp192
(lp193
(lp194
F8.448081
aF47.320183
aa(lp195
F8.448081
aF47.434721
aa(lp196
F8.625442
aF47.434721
aa(lp197
F8.625442
aF47.320183
aaassVcountry_code
p198
VCH
p199
sVattributes
p200
(dp201
sg33
V3acb748d0f1e9265
p202
sg64
VZurich
p203
sssS'coordinates'
p204
NsS'timestamp_ms'
p205
g139
sS'entities'
p206
g141
sS'in_reply_to_status_id_str'
p207
g178
sS'in_reply_to_screen_name'
p208
g166
sg89
g167
sS'retweeted'
p209
I00
sS'place'
p210
g0
(ctweepy.models
Place
p211
g2
Ntp212
Rp213
(dp214
S'full_name'
p215
g182
sg106
g183
sS'country'
p216
g185
sS'place_type'
p217
g187
sS'bounding_box'
p218
g0
(ctweepy.models
BoundingBox
p219
g2
Ntp220
Rp221
(dp222
S'type'
p223
g191
sg204
g192
sbsS'country_code'
p224
g199
sS'attributes'
p225
g201
sg24
g202
sg100
g203
sbsS'retweet_count'
p226
I0
sg107
g108
(S'\x07\xdf\x07\x0e\x08;\x08\x00\x00\x00'
p227
tp228
Rp229
sS'in_reply_to_user_id'
p230
I608993
sb.