ccopy_reg
_reconstructor
p0
(ctweepy.models
Status
p1
c__builtin__
object
p2
Ntp3
Rp4
(dp5
S'contributors'
p6
NsS'truncated'
p7
I00
sS'text'
p8
V...in America right? https://t.co/03EF2L7u7q
p9
sS'in_reply_to_status_id'
p10
NsS'id'
p11
I618777824766357504
sS'favorite_count'
p12
I0
sS'entities'
p13
(dp14
Vuser_mentions
p15
(lp16
sVsymbols
p17
(lp18
sVtrends
p19
(lp20
sVhashtags
p21
(lp22
sVurls
p23
(lp24
(dp25
Vurl
p26
Vhttps://t.co/03EF2L7u7q
p27
sVindices
p28
(lp29
I21
aI44
asVexpanded_url
p30
Vhttps://twitter.com/saletan/status/618603041558765568
p31
sVdisplay_url
p32
Vtwitter.com/saletan/status\u2026
p33
sassS'quoted_status_id'
p34
I618603041558765568
sS'_json'
p35
(dp36
Vcontributors
p37
NsVtruncated
p38
I00
sVtext
p39
g9
sVin_reply_to_status_id
p40
NsVid
p41
I618777824766357504
sVfavorite_count
p42
I0
sVsource
p43
V<a href="http://twitter.com/download/iphone" rel="nofollow">Twitter for iPhone</a>
p44
sVquoted_status_id
p45
I618603041558765568
sVretweeted
p46
I00
sVcoordinates
p47
NsVtimestamp_ms
p48
V1436363104417
p49
sVquoted_status
p50
(dp51
g37
Nsg38
I00
sg39
VMy son was marked down 5 percent on a high school health test because he chose this "incorrect" definition of family. http://t.co/TnisIK51Mm
p52
sg40
Nsg41
I618603041558765568
sg42
I0
sg43
V<a href="http://www.apple.com" rel="nofollow">iOS</a>
p53
sg46
I00
sg47
NsVentities
p54
(dp55
g17
(lp56
sVmedia
p57
(lp58
(dp59
g30
Vhttp://twitter.com/saletan/status/618603041558765568/photo/1
p60
sg32
Vpic.twitter.com/TnisIK51Mm
p61
sg26
Vhttp://t.co/TnisIK51Mm
p62
sVmedia_url_https
p63
Vhttps://pbs.twimg.com/media/CJW4ME1XAAA2wDs.jpg
p64
sVid_str
p65
V618603041428799488
p66
sVsizes
p67
(dp68
Vsmall
p69
(dp70
Vh
p71
I255
sVresize
p72
Vfit
p73
sVw
p74
I340
ssVlarge
p75
(dp76
g71
I625
sg72
Vfit
p77
sg74
I833
ssVmedium
p78
(dp79
g71
I450
sg72
Vfit
p80
sg74
I600
ssVthumb
p81
(dp82
g71
I150
sg72
Vcrop
p83
sg74
I150
sssg28
(lp84
I118
aI140
asVtype
p85
Vphoto
p86
sg41
I618603041428799488
sVmedia_url
p87
Vhttp://pbs.twimg.com/media/CJW4ME1XAAA2wDs.jpg
p88
sasg21
(lp89
sg15
(lp90
sg19
(lp91
sg23
(lp92
ssVin_reply_to_screen_name
p93
Nsg65
V618603041558765568
p94
sVretweet_count
p95
I0
sVin_reply_to_user_id
p96
NsVfavorited
p97
I00
sVuser
p98
(dp99
Vfollow_request_sent
p100
NsVprofile_use_background_image
p101
I01
sVdefault_profile_image
p102
I00
sg41
I83374478
sVverified
p103
I01
sVprofile_image_url_https
p104
Vhttps://pbs.twimg.com/profile_images/496066000/hn.logo.twitter_normal.JPG
p105
sVprofile_sidebar_fill_color
p106
VDDEEF6
p107
sVprofile_text_color
p108
V333333
p109
sVfollowers_count
p110
I12897
sVprofile_sidebar_border_color
p111
VC0DEED
p112
sg65
V83374478
p113
sVprofile_background_color
p114
VC0DEED
p115
sVlisted_count
p116
I568
sVprofile_background_image_url_https
p117
Vhttps://abs.twimg.com/images/themes/theme1/bg.png
p118
sVutc_offset
p119
I-14400
sVstatuses_count
p120
I4907
sVdescription
p121
VWhen people say 'Don't go there,' I go there.
p122
sVfriends_count
p123
I482
sVlocation
p124
VWashington, DC
p125
sVprofile_link_color
p126
V0084B4
p127
sVprofile_image_url
p128
Vhttp://pbs.twimg.com/profile_images/496066000/hn.logo.twitter_normal.JPG
p129
sVfollowing
p130
NsVgeo_enabled
p131
I01
sVprofile_background_image_url
p132
Vhttp://abs.twimg.com/images/themes/theme1/bg.png
p133
sVname
p134
VWill Saletan
p135
sVlang
p136
Ven
p137
sVprofile_background_tile
p138
I00
sVfavourites_count
p139
I131
sVscreen_name
p140
Vsaletan
p141
sVnotifications
p142
Nsg26
Vhttp://www.slate.com/authors.william_saletan.html
p143
sVcreated_at
p144
VSun Oct 18 14:34:10 +0000 2009
p145
sVcontributors_enabled
p146
I00
sVtime_zone
p147
VEastern Time (US & Canada)
p148
sVprotected
p149
I00
sVdefault_profile
p150
I01
sVis_translator
p151
I00
ssVgeo
p152
NsVin_reply_to_user_id_str
p153
NsVpossibly_sensitive
p154
I00
sg136
Ven
p155
sg144
VWed Jul 08 02:10:32 +0000 2015
p156
sVfilter_level
p157
Vlow
p158
sVin_reply_to_status_id_str
p159
NsVplace
p160
NsVextended_entities
p161
(dp162
g57
(lp163
(dp164
g30
Vhttp://twitter.com/saletan/status/618603041558765568/photo/1
p165
sg32
Vpic.twitter.com/TnisIK51Mm
p166
sg26
Vhttp://t.co/TnisIK51Mm
p167
sg63
Vhttps://pbs.twimg.com/media/CJW4ME1XAAA2wDs.jpg
p168
sg65
V618603041428799488
p169
sg67
(dp170
g69
(dp171
g71
I255
sg72
Vfit
p172
sg74
I340
ssg75
(dp173
g71
I625
sg72
Vfit
p174
sg74
I833
ssg78
(dp175
g71
I450
sg72
Vfit
p176
sg74
I600
ssg81
(dp177
g71
I150
sg72
Vcrop
p178
sg74
I150
sssg28
(lp179
I118
aI140
asg85
Vphoto
p180
sg41
I618603041428799488
sg87
Vhttp://pbs.twimg.com/media/CJW4ME1XAAA2wDs.jpg
p181
sasssg54
g14
sg93
Nsg65
V618777824766357504
p182
sg95
I0
sg96
Nsg97
I00
sg98
(dp183
g100
Nsg101
I01
sg102
I00
sg41
I271361465
sg103
I00
sg104
Vhttps://pbs.twimg.com/profile_images/605507470363099136/ML2klFEV_normal.jpg
p184
sg106
VDDEEF6
p185
sg108
V333333
p186
sg110
I432
sg111
VC0DEED
p187
sg65
V271361465
p188
sg114
VC0DEED
p189
sg116
I25
sg117
Vhttps://abs.twimg.com/images/themes/theme1/bg.png
p190
sg119
Nsg120
I19203
sg121
VConsummate PR and Corporate Communication buff. Proudly flying Djembe communications flag across the West Africa region
p191
sg123
I596
sg124
V
p192
sg126
V0084B4
p193
sg128
Vhttp://pbs.twimg.com/profile_images/605507470363099136/ML2klFEV_normal.jpg
p194
sg130
Nsg131
I01
sVprofile_banner_url
p195
Vhttps://pbs.twimg.com/profile_banners/271361465/1424263426
p196
sg132
Vhttp://abs.twimg.com/images/themes/theme1/bg.png
p197
sg134
VOnome Okwah
p198
sg136
Ven
p199
sg138
I00
sg139
I44
sg140
Vomookwah
p200
sg142
Nsg26
Nsg144
VThu Mar 24 10:38:08 +0000 2011
p201
sg146
I00
sg147
Nsg149
I00
sg150
I01
sg151
I00
ssg152
Nsg153
Nsg154
I00
sg136
Ven
p202
sg144
VWed Jul 08 13:45:04 +0000 2015
p203
sVquoted_status_id_str
p204
V618603041558765568
p205
sg157
Vlow
p206
sg159
Nsg160
(dp207
Vfull_name
p208
VZurich, Switzerland
p209
sg26
Vhttps://api.twitter.com/1.1/geo/id/3acb748d0f1e9265.json
p210
sVcountry
p211
VSchweiz
p212
sVplace_type
p213
Vcity
p214
sVbounding_box
p215
(dp216
g85
VPolygon
p217
sg47
(lp218
(lp219
(lp220
F8.448081
aF47.320183
aa(lp221
F8.448081
aF47.434721
aa(lp222
F8.625442
aF47.434721
aa(lp223
F8.625442
aF47.320183
aaassVcountry_code
p224
VCH
p225
sVattributes
p226
(dp227
sg41
V3acb748d0f1e9265
p228
sg134
VZurich
p229
sssS'coordinates'
p230
NsS'timestamp_ms'
p231
g49
sS'quoted_status'
p232
g51
sS'source'
p233
VTwitter for iPhone
p234
sS'in_reply_to_screen_name'
p235
NsS'id_str'
p236
g182
sS'retweet_count'
p237
I0
sS'in_reply_to_user_id'
p238
NsS'favorited'
p239
I00
sS'source_url'
p240
Vhttp://twitter.com/download/iphone
p241
sS'user'
p242
g0
(ctweepy.models
User
p243
g2
Ntp244
Rp245
(dp246
S'follow_request_sent'
p247
NsS'profile_use_background_image'
p248
I01
sS'profile_sidebar_fill_color'
p249
g185
sg11
I271361465
sS'verified'
p250
I00
sS'profile_image_url_https'
p251
g184
sg35
g183
sS'contributors_enabled'
p252
I00
sS'profile_text_color'
p253
g186
sS'followers_count'
p254
I432
sS'profile_sidebar_border_color'
p255
g187
sS'location'
p256
g192
sS'default_profile_image'
p257
I00
sg236
g188
sS'utc_offset'
p258
NsS'statuses_count'
p259
I19203
sS'description'
p260
g191
sS'friends_count'
p261
I596
sS'profile_link_color'
p262
g193
sS'profile_image_url'
p263
g194
sS'notifications'
p264
NsS'geo_enabled'
p265
I01
sS'profile_background_color'
p266
g189
sS'profile_banner_url'
p267
g196
sS'profile_background_image_url'
p268
g197
sS'name'
p269
g198
sS'lang'
p270
g199
sS'following'
p271
I00
sS'profile_background_tile'
p272
I00
sS'favourites_count'
p273
I44
sS'screen_name'
p274
g200
sS'url'
p275
NsS'created_at'
p276
cdatetime
datetime
p277
(S'\x07\xdb\x03\x18\n&\x08\x00\x00\x00'
p278
tp279
Rp280
sS'profile_background_image_url_https'
p281
g190
sS'time_zone'
p282
NsS'protected'
p283
I00
sS'default_profile'
p284
I01
sS'is_translator'
p285
I00
sS'listed_count'
p286
I25
sbsS'geo'
p287
NsS'in_reply_to_user_id_str'
p288
NsS'possibly_sensitive'
p289
I00
sg270
g202
sg276
g277
(S'\x07\xdf\x07\x08\r-\x04\x00\x00\x00'
p290
tp291
Rp292
sS'author'
p293
g245
sS'quoted_status_id_str'
p294
g205
sS'filter_level'
p295
g206
sS'in_reply_to_status_id_str'
p296
NsS'place'
p297
g0
(ctweepy.models
Place
p298
g2
Ntp299
Rp300
(dp301
S'full_name'
p302
g209
sg275
g210
sS'country'
p303
g212
sS'place_type'
p304
g214
sS'bounding_box'
p305
g0
(ctweepy.models
BoundingBox
p306
g2
Ntp307
Rp308
(dp309
S'type'
p310
g217
sg230
g218
sbsS'country_code'
p311
g225
sS'attributes'
p312
g227
sg11
g228
sg269
g229
sbsS'retweeted'
p313
I00
sb.