ccopy_reg
_reconstructor
p0
(ctweepy.models
Status
p1
c__builtin__
object
p2
Ntp3
Rp4
(dp5
S'favorited'
p6
I00
sS'contributors'
p7
NsS'truncated'
p8
I00
sS'text'
p9
VA great interview with new @csschweiz CEO Tidjane Thiam in french from 5th July https://t.co/L5PObRfcMd #chbanking
p10
sS'source_url'
p11
Vhttp://twitter.com
p12
sS'possibly_sensitive'
p13
I00
sS'in_reply_to_status_id'
p14
NsS'user'
p15
g0
(ctweepy.models
User
p16
g2
Ntp17
Rp18
(dp19
S'follow_request_sent'
p20
NsS'profile_use_background_image'
p21
I01
sS'profile_sidebar_fill_color'
p22
VDDEEF6
p23
sS'id'
p24
I79455681
sS'verified'
p25
I00
sS'profile_image_url_https'
p26
Vhttps://pbs.twimg.com/profile_images/2217539556/sme4_normal.jpg
p27
sS'_json'
p28
(dp29
Vfollow_request_sent
p30
NsVprofile_use_background_image
p31
I01
sVdefault_profile_image
p32
I00
sVid
p33
I79455681
sVverified
p34
I00
sVprofile_image_url_https
p35
g27
sVprofile_sidebar_fill_color
p36
g23
sVprofile_text_color
p37
V333333
p38
sVfollowers_count
p39
I5733
sVprofile_sidebar_border_color
p40
VFFFFFF
p41
sVid_str
p42
V79455681
p43
sVprofile_background_color
p44
VACDED6
p45
sVlisted_count
p46
I223
sVprofile_background_image_url_https
p47
Vhttps://pbs.twimg.com/profile_background_images/756432110/154b0ce48c95a6968198fc2b9a1d8d6f.jpeg
p48
sVutc_offset
p49
I7200
sVstatuses_count
p50
I17028
sVdescription
p51
VManaging Director Swiss Representation Dinar Finance Group / Consultant Banking & Social Media / GLP Member
p52
sVfriends_count
p53
I2188
sVlocation
p54
VZurich
p55
sVprofile_link_color
p56
V038543
p57
sVprofile_image_url
p58
Vhttp://pbs.twimg.com/profile_images/2217539556/sme4_normal.jpg
p59
sVfollowing
p60
NsVgeo_enabled
p61
I01
sVprofile_banner_url
p62
Vhttps://pbs.twimg.com/profile_banners/79455681/1355591292
p63
sVprofile_background_image_url
p64
Vhttp://pbs.twimg.com/profile_background_images/756432110/154b0ce48c95a6968198fc2b9a1d8d6f.jpeg
p65
sVname
p66
VMarc Lussy
p67
sVlang
p68
Ven
p69
sVprofile_background_tile
p70
I00
sVfavourites_count
p71
I2744
sVscreen_name
p72
VMarcLussy
p73
sVnotifications
p74
NsVurl
p75
Vhttp://www.dinargroup.com.br/
p76
sVcreated_at
p77
VSat Oct 03 13:02:36 +0000 2009
p78
sVcontributors_enabled
p79
I00
sVtime_zone
p80
VVienna
p81
sVprotected
p82
I00
sVdefault_profile
p83
I00
sVis_translator
p84
I00
ssS'contributors_enabled'
p85
I00
sS'profile_text_color'
p86
g38
sS'followers_count'
p87
I5733
sS'profile_sidebar_border_color'
p88
g41
sS'location'
p89
g55
sS'default_profile_image'
p90
I00
sS'id_str'
p91
g43
sS'utc_offset'
p92
I7200
sS'statuses_count'
p93
I17028
sS'description'
p94
g52
sS'friends_count'
p95
I2188
sS'profile_link_color'
p96
g57
sS'profile_image_url'
p97
g59
sS'notifications'
p98
NsS'geo_enabled'
p99
I01
sS'profile_background_color'
p100
g45
sS'profile_banner_url'
p101
g63
sS'profile_background_image_url'
p102
g65
sS'name'
p103
g67
sS'lang'
p104
g69
sS'following'
p105
I00
sS'profile_background_tile'
p106
I00
sS'favourites_count'
p107
I2744
sS'screen_name'
p108
g73
sS'url'
p109
g76
sS'created_at'
p110
cdatetime
datetime
p111
(S'\x07\xd9\n\x03\r\x02$\x00\x00\x00'
p112
tp113
Rp114
sS'profile_background_image_url_https'
p115
g48
sS'time_zone'
p116
g81
sS'protected'
p117
I00
sS'default_profile'
p118
I00
sS'is_translator'
p119
I00
sS'listed_count'
p120
I223
sbsS'filter_level'
p121
Vlow
p122
sS'geo'
p123
Nsg24
I619446705323442176
sS'favorite_count'
p124
I0
sS'source'
p125
VTwitter Web Client
p126
sg104
Ven
p127
sS'author'
p128
g18
sS'in_reply_to_user_id_str'
p129
Nsg28
(dp130
Vcontributors
p131
NsVtruncated
p132
I00
sVtext
p133
g10
sVin_reply_to_status_id
p134
Nsg33
I619446705323442176
sVfavorite_count
p135
I0
sVsource
p136
V<a href="http://twitter.com" rel="nofollow">Twitter Web Client</a>
p137
sVretweeted
p138
I00
sVcoordinates
p139
NsVtimestamp_ms
p140
V1436522577969
p141
sVentities
p142
(dp143
Vuser_mentions
p144
(lp145
(dp146
g33
I1100573479
sVindices
p147
(lp148
I27
aI37
asg42
V1100573479
p149
sg72
Vcsschweiz
p150
sg66
VCredit Suisse CH
p151
sasVsymbols
p152
(lp153
sVtrends
p154
(lp155
sVhashtags
p156
(lp157
(dp158
g147
(lp159
I104
aI114
asg133
Vchbanking
p160
sasVurls
p161
(lp162
(dp163
g75
Vhttps://t.co/L5PObRfcMd
p164
sg147
(lp165
I80
aI103
asVexpanded_url
p166
Vhttps://www.youtube.com/watch?v=KXIfCKQBIsM
p167
sVdisplay_url
p168
Vyoutube.com/watch?v=KXIfCK\u2026
p169
sassVin_reply_to_screen_name
p170
Nsg42
V619446705323442176
p171
sVretweet_count
p172
I0
sVin_reply_to_user_id
p173
NsVfavorited
p174
I00
sVuser
p175
g29
sVgeo
p176
NsVin_reply_to_user_id_str
p177
NsVpossibly_sensitive
p178
I00
sg68
g127
sg77
VFri Jul 10 10:02:57 +0000 2015
p179
sVfilter_level
p180
g122
sVin_reply_to_status_id_str
p181
NsVplace
p182
(dp183
Vfull_name
p184
VZurich, Switzerland
p185
sg75
Vhttps://api.twitter.com/1.1/geo/id/3acb748d0f1e9265.json
p186
sVcountry
p187
VSchweiz
p188
sVplace_type
p189
Vcity
p190
sVbounding_box
p191
(dp192
Vtype
p193
VPolygon
p194
sg139
(lp195
(lp196
(lp197
F8.448081
aF47.320183
aa(lp198
F8.448081
aF47.434721
aa(lp199
F8.625442
aF47.434721
aa(lp200
F8.625442
aF47.320183
aaassVcountry_code
p201
VCH
p202
sVattributes
p203
(dp204
sg33
V3acb748d0f1e9265
p205
sg66
VZurich
p206
sssS'coordinates'
p207
NsS'timestamp_ms'
p208
g141
sS'entities'
p209
g143
sS'in_reply_to_status_id_str'
p210
NsS'in_reply_to_screen_name'
p211
Nsg91
g171
sS'retweeted'
p212
I00
sS'place'
p213
g0
(ctweepy.models
Place
p214
g2
Ntp215
Rp216
(dp217
S'full_name'
p218
g185
sg109
g186
sS'country'
p219
g188
sS'place_type'
p220
g190
sS'bounding_box'
p221
g0
(ctweepy.models
BoundingBox
p222
g2
Ntp223
Rp224
(dp225
S'type'
p226
g194
sg207
g195
sbsS'country_code'
p227
g202
sS'attributes'
p228
g204
sg24
g205
sg103
g206
sbsS'retweet_count'
p229
I0
sg110
g111
(S'\x07\xdf\x07\n\n\x029\x00\x00\x00'
p230
tp231
Rp232
sS'in_reply_to_user_id'
p233
Nsb.