ccopy_reg
_reconstructor
p0
(ctweepy.models
Status
p1
c__builtin__
object
p2
Ntp3
Rp4
(dp5
S'favorited'
p6
I00
sS'contributors'
p7
NsS'truncated'
p8
I00
sS'text'
p9
VHuahaha 1 saluran tv swiss tengah malam, iklan streaptease dan phonesex.. Ada yg mau ? http://t.co/5T1OhUVPa3
p10
sS'source_url'
p11
Vhttp://twitter.com/download/iphone
p12
sS'possibly_sensitive'
p13
I00
sS'in_reply_to_status_id'
p14
NsS'user'
p15
g0
(ctweepy.models
User
p16
g2
Ntp17
Rp18
(dp19
S'follow_request_sent'
p20
NsS'profile_use_background_image'
p21
I01
sS'profile_sidebar_fill_color'
p22
VDDEEF6
p23
sS'id'
p24
I2861615840
sS'verified'
p25
I00
sS'profile_image_url_https'
p26
Vhttps://pbs.twimg.com/profile_images/564852475593637888/r1x5RkNq_normal.jpeg
p27
sS'_json'
p28
(dp29
Vfollow_request_sent
p30
NsVprofile_use_background_image
p31
I01
sVdefault_profile_image
p32
I00
sVid
p33
I2861615840
sVverified
p34
I00
sVprofile_image_url_https
p35
g27
sVprofile_sidebar_fill_color
p36
g23
sVprofile_text_color
p37
V333333
p38
sVfollowers_count
p39
I429
sVprofile_sidebar_border_color
p40
VC0DEED
p41
sVid_str
p42
V2861615840
p43
sVprofile_background_color
p44
VC0DEED
p45
sVlisted_count
p46
I1
sVprofile_background_image_url_https
p47
Vhttps://abs.twimg.com/images/themes/theme1/bg.png
p48
sVutc_offset
p49
I25200
sVstatuses_count
p50
I6152
sVdescription
p51
VLaki dewasa. Telat nakal. Calon #gadun. check my fav.
p52
sVfriends_count
p53
I794
sVlocation
p54
VJakarta. Borneo.
p55
sVprofile_link_color
p56
V0084B4
p57
sVprofile_image_url
p58
Vhttp://pbs.twimg.com/profile_images/564852475593637888/r1x5RkNq_normal.jpeg
p59
sVfollowing
p60
NsVgeo_enabled
p61
I01
sVprofile_banner_url
p62
Vhttps://pbs.twimg.com/profile_banners/2861615840/1436920404
p63
sVprofile_background_image_url
p64
Vhttp://abs.twimg.com/images/themes/theme1/bg.png
p65
sVname
p66
VA Lover
p67
sVlang
p68
Ven
p69
sVprofile_background_tile
p70
I00
sVfavourites_count
p71
I257
sVscreen_name
p72
Vhemanperth
p73
sVnotifications
p74
NsVurl
p75
NsVcreated_at
p76
VSat Oct 18 01:29:11 +0000 2014
p77
sVcontributors_enabled
p78
I00
sVtime_zone
p79
VKrasnoyarsk
p80
sVprotected
p81
I00
sVdefault_profile
p82
I01
sVis_translator
p83
I00
ssS'contributors_enabled'
p84
I00
sS'profile_text_color'
p85
g38
sS'followers_count'
p86
I429
sS'profile_sidebar_border_color'
p87
g41
sS'location'
p88
g55
sS'default_profile_image'
p89
I00
sS'id_str'
p90
g43
sS'utc_offset'
p91
I25200
sS'statuses_count'
p92
I6152
sS'description'
p93
g52
sS'friends_count'
p94
I794
sS'profile_link_color'
p95
g57
sS'profile_image_url'
p96
g59
sS'notifications'
p97
NsS'geo_enabled'
p98
I01
sS'profile_background_color'
p99
g45
sS'profile_banner_url'
p100
g63
sS'profile_background_image_url'
p101
g65
sS'name'
p102
g67
sS'lang'
p103
g69
sS'following'
p104
I00
sS'profile_background_tile'
p105
I00
sS'favourites_count'
p106
I257
sS'screen_name'
p107
g73
sS'url'
p108
NsS'created_at'
p109
cdatetime
datetime
p110
(S'\x07\xde\n\x12\x01\x1d\x0b\x00\x00\x00'
p111
tp112
Rp113
sS'profile_background_image_url_https'
p114
g48
sS'time_zone'
p115
g80
sS'protected'
p116
I00
sS'default_profile'
p117
I01
sS'is_translator'
p118
I00
sS'listed_count'
p119
I1
sbsS'filter_level'
p120
Vlow
p121
sS'geo'
p122
Nsg24
I621118246389981184
sS'favorite_count'
p123
I0
sS'source'
p124
VTwitter for iPhone
p125
sg103
Vin
p126
sS'author'
p127
g18
sS'in_reply_to_user_id_str'
p128
Nsg28
(dp129
Vcontributors
p130
NsVtruncated
p131
I00
sVtext
p132
g10
sVin_reply_to_status_id
p133
Nsg33
I621118246389981184
sVfavorite_count
p134
I0
sVsource
p135
V<a href="http://twitter.com/download/iphone" rel="nofollow">Twitter for iPhone</a>
p136
sVretweeted
p137
I00
sVcoordinates
p138
NsVtimestamp_ms
p139
V1436921104415
p140
sVentities
p141
(dp142
Vsymbols
p143
(lp144
sVmedia
p145
(lp146
(dp147
Vexpanded_url
p148
Vhttp://twitter.com/hemanperth/status/621118246389981184/photo/1
p149
sVdisplay_url
p150
Vpic.twitter.com/5T1OhUVPa3
p151
sg75
Vhttp://t.co/5T1OhUVPa3
p152
sVmedia_url_https
p153
Vhttps://pbs.twimg.com/media/CJ6naujWcAAGhE_.jpg
p154
sg42
V621117876238446592
p155
sVsizes
p156
(dp157
Vsmall
p158
(dp159
Vh
p160
I255
sVresize
p161
Vfit
p162
sVw
p163
I340
ssVlarge
p164
(dp165
g160
I768
sg161
Vfit
p166
sg163
I1024
ssVmedium
p167
(dp168
g160
I450
sg161
Vfit
p169
sg163
I600
ssVthumb
p170
(dp171
g160
I150
sg161
Vcrop
p172
sg163
I150
sssVindices
p173
(lp174
I87
aI109
asVtype
p175
Vphoto
p176
sg33
I621117876238446592
sVmedia_url
p177
Vhttp://pbs.twimg.com/media/CJ6naujWcAAGhE_.jpg
p178
sasVhashtags
p179
(lp180
sVuser_mentions
p181
(lp182
sVtrends
p183
(lp184
sVurls
p185
(lp186
ssVin_reply_to_screen_name
p187
Nsg42
V621118246389981184
p188
sVretweet_count
p189
I0
sVin_reply_to_user_id
p190
NsVfavorited
p191
I00
sVuser
p192
g29
sVgeo
p193
NsVin_reply_to_user_id_str
p194
NsVpossibly_sensitive
p195
I00
sg68
g126
sg76
VWed Jul 15 00:45:04 +0000 2015
p196
sVfilter_level
p197
g121
sVin_reply_to_status_id_str
p198
NsVplace
p199
(dp200
Vfull_name
p201
VZurich, Switzerland
p202
sg75
Vhttps://api.twitter.com/1.1/geo/id/db94c1cccc67c4f4.json
p203
sVcountry
p204
VSchweiz
p205
sVplace_type
p206
Vadmin
p207
sVbounding_box
p208
(dp209
g175
VPolygon
p210
sg138
(lp211
(lp212
(lp213
F8.357749
aF47.159384
aa(lp214
F8.357749
aF47.694503
aa(lp215
F8.984445
aF47.694503
aa(lp216
F8.984445
aF47.159384
aaassVcountry_code
p217
VCH
p218
sVattributes
p219
(dp220
sg33
Vdb94c1cccc67c4f4
p221
sg66
VZurich
p222
ssVextended_entities
p223
(dp224
g145
(lp225
(dp226
g148
Vhttp://twitter.com/hemanperth/status/621118246389981184/photo/1
p227
sg150
Vpic.twitter.com/5T1OhUVPa3
p228
sg75
Vhttp://t.co/5T1OhUVPa3
p229
sg153
Vhttps://pbs.twimg.com/media/CJ6naujWcAAGhE_.jpg
p230
sg42
V621117876238446592
p231
sg156
(dp232
g158
(dp233
g160
I255
sg161
Vfit
p234
sg163
I340
ssg164
(dp235
g160
I768
sg161
Vfit
p236
sg163
I1024
ssg167
(dp237
g160
I450
sg161
Vfit
p238
sg163
I600
ssg170
(dp239
g160
I150
sg161
Vcrop
p240
sg163
I150
sssg173
(lp241
I87
aI109
asg175
Vphoto
p242
sg33
I621117876238446592
sg177
Vhttp://pbs.twimg.com/media/CJ6naujWcAAGhE_.jpg
p243
sa(dp244
g148
Vhttp://twitter.com/hemanperth/status/621118246389981184/photo/1
p245
sg150
Vpic.twitter.com/5T1OhUVPa3
p246
sg75
Vhttp://t.co/5T1OhUVPa3
p247
sg153
Vhttps://pbs.twimg.com/media/CJ6na_yWcAERCGW.jpg
p248
sg42
V621117880864763905
p249
sg156
(dp250
g158
(dp251
g160
I255
sg161
Vfit
p252
sg163
I340
ssg164
(dp253
g160
I768
sg161
Vfit
p254
sg163
I1024
ssg167
(dp255
g160
I450
sg161
Vfit
p256
sg163
I600
ssg170
(dp257
g160
I150
sg161
Vcrop
p258
sg163
I150
sssg173
(lp259
I87
aI109
asg175
Vphoto
p260
sg33
I621117880864763905
sg177
Vhttp://pbs.twimg.com/media/CJ6na_yWcAERCGW.jpg
p261
sa(dp262
g148
Vhttp://twitter.com/hemanperth/status/621118246389981184/photo/1
p263
sg150
Vpic.twitter.com/5T1OhUVPa3
p264
sg75
Vhttp://t.co/5T1OhUVPa3
p265
sg153
Vhttps://pbs.twimg.com/media/CJ6nbB8WUAA36cj.jpg
p266
sg42
V621117881443569664
p267
sg156
(dp268
g158
(dp269
g160
I255
sg161
Vfit
p270
sg163
I340
ssg164
(dp271
g160
I768
sg161
Vfit
p272
sg163
I1024
ssg167
(dp273
g160
I450
sg161
Vfit
p274
sg163
I600
ssg170
(dp275
g160
I150
sg161
Vcrop
p276
sg163
I150
sssg173
(lp277
I87
aI109
asg175
Vphoto
p278
sg33
I621117881443569664
sg177
Vhttp://pbs.twimg.com/media/CJ6nbB8WUAA36cj.jpg
p279
sa(dp280
g148
Vhttp://twitter.com/hemanperth/status/621118246389981184/photo/1
p281
sg150
Vpic.twitter.com/5T1OhUVPa3
p282
sg75
Vhttp://t.co/5T1OhUVPa3
p283
sg153
Vhttps://pbs.twimg.com/media/CJ6neZwWoAAAKl_.jpg
p284
sg42
V621117939375316992
p285
sg156
(dp286
g158
(dp287
g160
I255
sg161
Vfit
p288
sg163
I340
ssg164
(dp289
g160
I768
sg161
Vfit
p290
sg163
I1024
ssg167
(dp291
g160
I450
sg161
Vfit
p292
sg163
I600
ssg170
(dp293
g160
I150
sg161
Vcrop
p294
sg163
I150
sssg173
(lp295
I87
aI109
asg175
Vphoto
p296
sg33
I621117939375316992
sg177
Vhttp://pbs.twimg.com/media/CJ6neZwWoAAAKl_.jpg
p297
sasssS'coordinates'
p298
NsS'timestamp_ms'
p299
g140
sS'entities'
p300
g142
sS'in_reply_to_status_id_str'
p301
NsS'in_reply_to_screen_name'
p302
Nsg90
g188
sS'extended_entities'
p303
g224
sS'retweeted'
p304
I00
sS'place'
p305
g0
(ctweepy.models
Place
p306
g2
Ntp307
Rp308
(dp309
S'full_name'
p310
g202
sg108
g203
sS'country'
p311
g205
sS'place_type'
p312
g207
sS'bounding_box'
p313
g0
(ctweepy.models
BoundingBox
p314
g2
Ntp315
Rp316
(dp317
S'type'
p318
g210
sg298
g211
sbsS'country_code'
p319
g218
sS'attributes'
p320
g220
sg24
g221
sg102
g222
sbsS'retweet_count'
p321
I0
sg109
g110
(S'\x07\xdf\x07\x0f\x00-\x04\x00\x00\x00'
p322
tp323
Rp324
sS'in_reply_to_user_id'
p325
Nsb.