ccopy_reg
_reconstructor
p0
(ctweepy.models
Status
p1
c__builtin__
object
p2
Ntp3
Rp4
(dp5
S'contributors'
p6
NsS'truncated'
p7
I00
sS'text'
p8
VLike always, @viticci nails it: https://t.co/aQVU72hZ6D
p9
sS'in_reply_to_status_id'
p10
I619196375226576896
sS'id'
p11
I619201234654896128
sS'favorite_count'
p12
I0
sS'entities'
p13
(dp14
Vuser_mentions
p15
(lp16
(dp17
Vid
p18
I20904050
sVindices
p19
(lp20
I13
aI21
asVid_str
p21
V20904050
p22
sVscreen_name
p23
Vviticci
p24
sVname
p25
VFederico Viticci
p26
sasVsymbols
p27
(lp28
sVtrends
p29
(lp30
sVhashtags
p31
(lp32
sVurls
p33
(lp34
(dp35
Vurl
p36
Vhttps://t.co/aQVU72hZ6D
p37
sg19
(lp38
I32
aI55
asVexpanded_url
p39
Vhttps://twitter.com/viticci/status/619196375226576896
p40
sVdisplay_url
p41
Vtwitter.com/viticci/status\u2026
p42
sassS'quoted_status_id'
p43
I619196375226576896
sS'_json'
p44
(dp45
Vcontributors
p46
NsVtruncated
p47
I00
sVtext
p48
g9
sVin_reply_to_status_id
p49
I619196375226576896
sg18
I619201234654896128
sVfavorite_count
p50
I0
sVsource
p51
V<a href="http://tapbots.com/tweetbot" rel="nofollow">Tweetbot for i\u039fS</a>
p52
sVquoted_status_id
p53
I619196375226576896
sVretweeted
p54
I00
sVcoordinates
p55
NsVtimestamp_ms
p56
V1436464053201
p57
sVquoted_status
p58
(dp59
g46
Nsg47
I00
sg48
ViOS 9 and El Capitan public betas coming today: http://t.co/stk7uBJYxl \u2013 Keep this in mind for apps and reviews http://t.co/Yf0c8FdWdl
p60
sg49
Nsg18
I619196375226576896
sg50
I0
sg51
V<a href="http://www.apple.com" rel="nofollow">iOS</a>
p61
sg54
I00
sg55
NsVentities
p62
(dp63
g27
(lp64
sVmedia
p65
(lp66
(dp67
g39
Vhttp://twitter.com/viticci/status/619196375226576896/photo/1
p68
sg41
Vpic.twitter.com/Yf0c8FdWdl
p69
sg36
Vhttp://t.co/Yf0c8FdWdl
p70
sVmedia_url_https
p71
Vhttps://pbs.twimg.com/media/CJfT0lEWsAA72LW.jpg
p72
sg21
V619196374043766784
p73
sVsizes
p74
(dp75
Vlarge
p76
(dp77
Vh
p78
I974
sVresize
p79
Vfit
p80
sVw
p81
I1024
ssVsmall
p82
(dp83
g78
I323
sg79
Vfit
p84
sg81
I340
ssVmedium
p85
(dp86
g78
I570
sg79
Vfit
p87
sg81
I600
ssVthumb
p88
(dp89
g78
I150
sg79
Vcrop
p90
sg81
I150
sssg19
(lp91
I112
aI134
asVtype
p92
Vphoto
p93
sg18
I619196374043766784
sVmedia_url
p94
Vhttp://pbs.twimg.com/media/CJfT0lEWsAA72LW.jpg
p95
sasg31
(lp96
sg15
(lp97
sg29
(lp98
sg33
(lp99
(dp100
g36
Vhttp://t.co/stk7uBJYxl
p101
sg19
(lp102
I48
aI70
asg39
Vhttp://www.macstories.net/news/apple-launching-ios-9-os-x-el-capitan-public-betas-today/
p103
sg41
Vmacstories.net/news/apple-lau\u2026
p104
sassVin_reply_to_screen_name
p105
Nsg21
V619196375226576896
p106
sVretweet_count
p107
I0
sVin_reply_to_user_id
p108
NsVfavorited
p109
I00
sVuser
p110
(dp111
Vfollow_request_sent
p112
NsVprofile_use_background_image
p113
I01
sVdefault_profile_image
p114
I00
sg18
I20904050
sVverified
p115
I00
sVprofile_image_url_https
p116
Vhttps://pbs.twimg.com/profile_images/378800000421651000/a8cd33d934302ba8fd6f2721b83213ab_normal.png
p117
sVprofile_sidebar_fill_color
p118
VF7F7F7
p119
sVprofile_text_color
p120
V191A19
p121
sVfollowers_count
p122
I37907
sVprofile_sidebar_border_color
p123
VFFFFFF
p124
sg21
V20904050
p125
sVprofile_background_color
p126
V062039
p127
sVlisted_count
p128
I2572
sVprofile_background_image_url_https
p129
Vhttps://pbs.twimg.com/profile_background_images/590296157911273473/5MGIgy31.jpg
p130
sVutc_offset
p131
I7200
sVstatuses_count
p132
I82282
sVdescription
p133
VFounder and Editor-in-Chief of @MacStoriesNet. Co-host of @_connectedfm and @_virtualfm. Email: viticci@macstories.net
p134
sVfriends_count
p135
I1180
sVlocation
p136
VIn your web browser.
p137
sVprofile_link_color
p138
V0081C7
p139
sVprofile_image_url
p140
Vhttp://pbs.twimg.com/profile_images/378800000421651000/a8cd33d934302ba8fd6f2721b83213ab_normal.png
p141
sVfollowing
p142
NsVgeo_enabled
p143
I01
sVprofile_banner_url
p144
Vhttps://pbs.twimg.com/profile_banners/20904050/1351267309
p145
sVprofile_background_image_url
p146
Vhttp://pbs.twimg.com/profile_background_images/590296157911273473/5MGIgy31.jpg
p147
sg25
VFederico Viticci
p148
sVlang
p149
Ven
p150
sVprofile_background_tile
p151
I01
sVfavourites_count
p152
I12612
sg23
Vviticci
p153
sVnotifications
p154
Nsg36
Vhttp://www.macstories.net/
p155
sVcreated_at
p156
VSun Feb 15 10:52:33 +0000 2009
p157
sVcontributors_enabled
p158
I00
sVtime_zone
p159
VRome
p160
sVprotected
p161
I00
sVdefault_profile
p162
I00
sVis_translator
p163
I00
ssVgeo
p164
NsVin_reply_to_user_id_str
p165
NsVpossibly_sensitive
p166
I00
sg149
Ven
p167
sg156
VThu Jul 09 17:28:14 +0000 2015
p168
sVfilter_level
p169
Vlow
p170
sVin_reply_to_status_id_str
p171
NsVplace
p172
NsVextended_entities
p173
(dp174
g65
(lp175
(dp176
g39
Vhttp://twitter.com/viticci/status/619196375226576896/photo/1
p177
sg41
Vpic.twitter.com/Yf0c8FdWdl
p178
sg36
Vhttp://t.co/Yf0c8FdWdl
p179
sg71
Vhttps://pbs.twimg.com/media/CJfT0lEWsAA72LW.jpg
p180
sg21
V619196374043766784
p181
sg74
(dp182
g76
(dp183
g78
I974
sg79
Vfit
p184
sg81
I1024
ssg82
(dp185
g78
I323
sg79
Vfit
p186
sg81
I340
ssg85
(dp187
g78
I570
sg79
Vfit
p188
sg81
I600
ssg88
(dp189
g78
I150
sg79
Vcrop
p190
sg81
I150
sssg19
(lp191
I112
aI134
asg92
Vphoto
p192
sg18
I619196374043766784
sg94
Vhttp://pbs.twimg.com/media/CJfT0lEWsAA72LW.jpg
p193
sasssg62
g14
sg105
Vviticci
p194
sg21
V619201234654896128
p195
sg107
I0
sg108
I20904050
sg109
I00
sg110
(dp196
g112
Nsg113
I01
sg114
I00
sg18
I25335178
sg115
I00
sg116
Vhttps://pbs.twimg.com/profile_images/462166175770624000/DIKoIZVC_normal.png
p197
sg118
V99CC33
p198
sg120
V3E4415
p199
sg122
I710
sg123
VFFFFFF
p200
sg21
V25335178
p201
sg126
VC0DEED
p202
sg128
I51
sg129
Vhttps://pbs.twimg.com/profile_background_images/462168939229745153/FzMhdu55.png
p203
sg131
I-7200
sg132
I4497
sg133
ViOS developer. Geek. Member @wearerequired and founder of appart15 GmbH.
p204
sg135
I428
sg136
VZurich, Switzerland
p205
sg138
V3E7DCF
p206
sg140
Vhttp://pbs.twimg.com/profile_images/462166175770624000/DIKoIZVC_normal.png
p207
sg142
Nsg143
I01
sg144
Vhttps://pbs.twimg.com/profile_banners/25335178/1399024158
p208
sg146
Vhttp://pbs.twimg.com/profile_background_images/462168939229745153/FzMhdu55.png
p209
sg25
VDavid Condrau
p210
sg149
Ven
p211
sg151
I01
sg152
I1044
sg23
Vdcondrau
p212
sg154
Nsg36
Vhttp://www.appart15.com
p213
sg156
VThu Mar 19 16:49:12 +0000 2009
p214
sg158
I00
sg159
VGreenland
p215
sg161
I00
sg162
I00
sg163
I00
ssg164
Nsg165
V20904050
p216
sg166
I00
sg149
Ven
p217
sg156
VThu Jul 09 17:47:33 +0000 2015
p218
sVquoted_status_id_str
p219
V619196375226576896
p220
sg169
Vlow
p221
sg171
V619196375226576896
p222
sg172
(dp223
Vfull_name
p224
VZurich, Switzerland
p225
sg36
Vhttps://api.twitter.com/1.1/geo/id/3acb748d0f1e9265.json
p226
sVcountry
p227
VSchweiz
p228
sVplace_type
p229
Vcity
p230
sVbounding_box
p231
(dp232
g92
VPolygon
p233
sg55
(lp234
(lp235
(lp236
F8.448081
aF47.320183
aa(lp237
F8.448081
aF47.434721
aa(lp238
F8.625442
aF47.434721
aa(lp239
F8.625442
aF47.320183
aaassVcountry_code
p240
VCH
p241
sVattributes
p242
(dp243
sg18
V3acb748d0f1e9265
p244
sg25
VZurich
p245
sssS'coordinates'
p246
NsS'timestamp_ms'
p247
g57
sS'quoted_status'
p248
g59
sS'source'
p249
VTweetbot for i\u039fS
p250
sS'in_reply_to_screen_name'
p251
g194
sS'id_str'
p252
g195
sS'retweet_count'
p253
I0
sS'in_reply_to_user_id'
p254
I20904050
sS'favorited'
p255
I00
sS'source_url'
p256
Vhttp://tapbots.com/tweetbot
p257
sS'user'
p258
g0
(ctweepy.models
User
p259
g2
Ntp260
Rp261
(dp262
S'follow_request_sent'
p263
NsS'profile_use_background_image'
p264
I01
sS'profile_sidebar_fill_color'
p265
g198
sg11
I25335178
sS'verified'
p266
I00
sS'profile_image_url_https'
p267
g197
sg44
g196
sS'contributors_enabled'
p268
I00
sS'profile_text_color'
p269
g199
sS'followers_count'
p270
I710
sS'profile_sidebar_border_color'
p271
g200
sS'location'
p272
g205
sS'default_profile_image'
p273
I00
sg252
g201
sS'utc_offset'
p274
I-7200
sS'statuses_count'
p275
I4497
sS'description'
p276
g204
sS'friends_count'
p277
I428
sS'profile_link_color'
p278
g206
sS'profile_image_url'
p279
g207
sS'notifications'
p280
NsS'geo_enabled'
p281
I01
sS'profile_background_color'
p282
g202
sS'profile_banner_url'
p283
g208
sS'profile_background_image_url'
p284
g209
sS'name'
p285
g210
sS'lang'
p286
g211
sS'following'
p287
I00
sS'profile_background_tile'
p288
I01
sS'favourites_count'
p289
I1044
sS'screen_name'
p290
g212
sS'url'
p291
g213
sS'created_at'
p292
cdatetime
datetime
p293
(S'\x07\xd9\x03\x13\x101\x0c\x00\x00\x00'
p294
tp295
Rp296
sS'profile_background_image_url_https'
p297
g203
sS'time_zone'
p298
g215
sS'protected'
p299
I00
sS'default_profile'
p300
I00
sS'is_translator'
p301
I00
sS'listed_count'
p302
I51
sbsS'geo'
p303
NsS'in_reply_to_user_id_str'
p304
g216
sS'possibly_sensitive'
p305
I00
sg286
g217
sg292
g293
(S'\x07\xdf\x07\t\x11/!\x00\x00\x00'
p306
tp307
Rp308
sS'author'
p309
g261
sS'quoted_status_id_str'
p310
g220
sS'filter_level'
p311
g221
sS'in_reply_to_status_id_str'
p312
g222
sS'place'
p313
g0
(ctweepy.models
Place
p314
g2
Ntp315
Rp316
(dp317
S'full_name'
p318
g225
sg291
g226
sS'country'
p319
g228
sS'place_type'
p320
g230
sS'bounding_box'
p321
g0
(ctweepy.models
BoundingBox
p322
g2
Ntp323
Rp324
(dp325
S'type'
p326
g233
sg246
g234
sbsS'country_code'
p327
g241
sS'attributes'
p328
g243
sg11
g244
sg285
g245
sbsS'retweeted'
p329
I00
sb.