ccopy_reg
_reconstructor
p0
(ctweepy.models
Status
p1
c__builtin__
object
p2
Ntp3
Rp4
(dp5
S'favorited'
p6
I00
sS'contributors'
p7
NsS'truncated'
p8
I00
sS'text'
p9
VTook 3 hours and I'm already tanned with tan lines. Spent 2 summers in Chicago and couldn't get these rays...
p10
sS'source_url'
p11
Vhttp://twitter.com/download/iphone
p12
sS'possibly_sensitive'
p13
I00
sS'in_reply_to_status_id'
p14
NsS'user'
p15
g0
(ctweepy.models
User
p16
g2
Ntp17
Rp18
(dp19
S'follow_request_sent'
p20
NsS'profile_use_background_image'
p21
I00
sS'profile_sidebar_fill_color'
p22
VF3F3F3
p23
sS'id'
p24
I82124534
sS'verified'
p25
I00
sS'profile_image_url_https'
p26
Vhttps://pbs.twimg.com/profile_images/570980386404040704/L58_iF8X_normal.jpeg
p27
sS'_json'
p28
(dp29
Vfollow_request_sent
p30
NsVprofile_use_background_image
p31
I00
sVdefault_profile_image
p32
I00
sVid
p33
I82124534
sVverified
p34
I00
sVprofile_image_url_https
p35
g27
sVprofile_sidebar_fill_color
p36
g23
sVprofile_text_color
p37
V333333
p38
sVfollowers_count
p39
I542
sVprofile_sidebar_border_color
p40
VFFFFFF
p41
sVid_str
p42
V82124534
p43
sVprofile_background_color
p44
VEBEBEB
p45
sVlisted_count
p46
I17
sVprofile_background_image_url_https
p47
Vhttps://pbs.twimg.com/profile_background_images/544677626699202560/LCEhvy88.jpeg
p48
sVutc_offset
p49
I-18000
sVstatuses_count
p50
I9428
sVdescription
p51
VI always sneeze in threes.
p52
sVfriends_count
p53
I118
sVlocation
p54
VChicago / Stockholm
p55
sVprofile_link_color
p56
V7A6262
p57
sVprofile_image_url
p58
Vhttp://pbs.twimg.com/profile_images/570980386404040704/L58_iF8X_normal.jpeg
p59
sVfollowing
p60
NsVgeo_enabled
p61
I01
sVprofile_banner_url
p62
Vhttps://pbs.twimg.com/profile_banners/82124534/1418696034
p63
sVprofile_background_image_url
p64
Vhttp://pbs.twimg.com/profile_background_images/544677626699202560/LCEhvy88.jpeg
p65
sVname
p66
VDani Kay
p67
sVlang
p68
Ven
p69
sVprofile_background_tile
p70
I00
sVfavourites_count
p71
I251
sVscreen_name
p72
VDaniMKay
p73
sVnotifications
p74
NsVurl
p75
Vhttp://danimkay.com
p76
sVcreated_at
p77
VTue Oct 13 15:50:43 +0000 2009
p78
sVcontributors_enabled
p79
I00
sVtime_zone
p80
VQuito
p81
sVprotected
p82
I00
sVdefault_profile
p83
I00
sVis_translator
p84
I00
ssS'contributors_enabled'
p85
I00
sS'profile_text_color'
p86
g38
sS'followers_count'
p87
I542
sS'profile_sidebar_border_color'
p88
g41
sS'location'
p89
g55
sS'default_profile_image'
p90
I00
sS'id_str'
p91
g43
sS'utc_offset'
p92
I-18000
sS'statuses_count'
p93
I9428
sS'description'
p94
g52
sS'friends_count'
p95
I118
sS'profile_link_color'
p96
g57
sS'profile_image_url'
p97
g59
sS'notifications'
p98
NsS'geo_enabled'
p99
I01
sS'profile_background_color'
p100
g45
sS'profile_banner_url'
p101
g63
sS'profile_background_image_url'
p102
g65
sS'name'
p103
g67
sS'lang'
p104
g69
sS'following'
p105
I00
sS'profile_background_tile'
p106
I00
sS'favourites_count'
p107
I251
sS'screen_name'
p108
g73
sS'url'
p109
g76
sS'created_at'
p110
cdatetime
datetime
p111
(S'\x07\xd9\n\r\x0f2+\x00\x00\x00'
p112
tp113
Rp114
sS'profile_background_image_url_https'
p115
g48
sS'time_zone'
p116
g81
sS'protected'
p117
I00
sS'default_profile'
p118
I00
sS'is_translator'
p119
I00
sS'listed_count'
p120
I17
sbsS'filter_level'
p121
Vlow
p122
sS'geo'
p123
(dp124
Vtype
p125
VPoint
p126
sVcoordinates
p127
(lp128
F47.410374
aF8.533997
assg24
I618473570751127552
sS'favorite_count'
p129
I0
sS'source'
p130
VTwitter for iPhone
p131
sg104
Ven
p132
sS'author'
p133
g18
sS'in_reply_to_user_id_str'
p134
Nsg28
(dp135
Vcontributors
p136
NsVtruncated
p137
I00
sVtext
p138
g10
sVin_reply_to_status_id
p139
Nsg33
I618473570751127552
sVfavorite_count
p140
I0
sVsource
p141
V<a href="http://twitter.com/download/iphone" rel="nofollow">Twitter for iPhone</a>
p142
sVretweeted
p143
I00
sg127
(dp144
g125
VPoint
p145
sg127
(lp146
F8.533997
aF47.410374
assVtimestamp_ms
p147
V1436290564607
p148
sVentities
p149
(dp150
Vuser_mentions
p151
(lp152
sVsymbols
p153
(lp154
sVtrends
p155
(lp156
sVhashtags
p157
(lp158
sVurls
p159
(lp160
ssVin_reply_to_screen_name
p161
Nsg42
V618473570751127552
p162
sVretweet_count
p163
I0
sVin_reply_to_user_id
p164
NsVfavorited
p165
I00
sVuser
p166
g29
sVgeo
p167
g124
sVin_reply_to_user_id_str
p168
NsVpossibly_sensitive
p169
I00
sg68
g132
sg77
VTue Jul 07 17:36:04 +0000 2015
p170
sVfilter_level
p171
g122
sVin_reply_to_status_id_str
p172
NsVplace
p173
(dp174
Vfull_name
p175
VZurich, Switzerland
p176
sg75
Vhttps://api.twitter.com/1.1/geo/id/3acb748d0f1e9265.json
p177
sVcountry
p178
VSchweiz
p179
sVplace_type
p180
Vcity
p181
sVbounding_box
p182
(dp183
g125
VPolygon
p184
sg127
(lp185
(lp186
(lp187
F8.448081
aF47.320183
aa(lp188
F8.448081
aF47.434721
aa(lp189
F8.625442
aF47.434721
aa(lp190
F8.625442
aF47.320183
aaassVcountry_code
p191
VCH
p192
sVattributes
p193
(dp194
sg33
V3acb748d0f1e9265
p195
sg66
VZurich
p196
sssS'coordinates'
p197
g144
sS'timestamp_ms'
p198
g148
sS'entities'
p199
g150
sS'in_reply_to_status_id_str'
p200
NsS'in_reply_to_screen_name'
p201
Nsg91
g162
sS'retweeted'
p202
I00
sS'place'
p203
g0
(ctweepy.models
Place
p204
g2
Ntp205
Rp206
(dp207
S'full_name'
p208
g176
sg109
g177
sS'country'
p209
g179
sS'place_type'
p210
g181
sS'bounding_box'
p211
g0
(ctweepy.models
BoundingBox
p212
g2
Ntp213
Rp214
(dp215
S'type'
p216
g184
sg197
g185
sbsS'country_code'
p217
g192
sS'attributes'
p218
g194
sg24
g195
sg103
g196
sbsS'retweet_count'
p219
I0
sg110
g111
(S'\x07\xdf\x07\x07\x11$\x04\x00\x00\x00'
p220
tp221
Rp222
sS'in_reply_to_user_id'
p223
Nsb.