ccopy_reg
_reconstructor
p0
(ctweepy.models
Status
p1
c__builtin__
object
p2
Ntp3
Rp4
(dp5
S'favorited'
p6
I00
sS'contributors'
p7
NsS'truncated'
p8
I00
sS'text'
p9
V@MJOWLS @ConisbroOwls @truckerowl @floridaowls @lauracosta_13 Nah won't be sat on it \U0001f61c\U0001f61c\U0001f61c
p10
sS'source_url'
p11
Vhttp://twitter.com
p12
sS'possibly_sensitive'
p13
I00
sS'in_reply_to_status_id'
p14
I618845473491808256
sS'user'
p15
g0
(ctweepy.models
User
p16
g2
Ntp17
Rp18
(dp19
S'follow_request_sent'
p20
NsS'profile_use_background_image'
p21
I01
sS'profile_sidebar_fill_color'
p22
VDDEEF6
p23
sS'id'
p24
I74424395
sS'verified'
p25
I00
sS'profile_image_url_https'
p26
Vhttps://pbs.twimg.com/profile_images/378800000034592130/47927e1ba62076a19094366074e52aa5_normal.jpeg
p27
sS'_json'
p28
(dp29
Vfollow_request_sent
p30
NsVprofile_use_background_image
p31
I01
sVdefault_profile_image
p32
I00
sVid
p33
I74424395
sVverified
p34
I00
sVprofile_image_url_https
p35
g27
sVprofile_sidebar_fill_color
p36
g23
sVprofile_text_color
p37
V333333
p38
sVfollowers_count
p39
I1068
sVprofile_sidebar_border_color
p40
VC0DEED
p41
sVid_str
p42
V74424395
p43
sVprofile_background_color
p44
VC0DEED
p45
sVlisted_count
p46
I6
sVprofile_background_image_url_https
p47
Vhttps://abs.twimg.com/images/themes/theme1/bg.png
p48
sVutc_offset
p49
I7200
sVstatuses_count
p50
I12130
sVdescription
p51
VDonny lad dragged to Switzerland 14 years ago, still loving the owls from afar. Massive back where they belong soon rather than later wawaw
p52
sVfriends_count
p53
I1147
sVlocation
p54
VSwitzerland
p55
sVprofile_link_color
p56
V0084B4
p57
sVprofile_image_url
p58
Vhttp://pbs.twimg.com/profile_images/378800000034592130/47927e1ba62076a19094366074e52aa5_normal.jpeg
p59
sVfollowing
p60
NsVgeo_enabled
p61
I01
sVprofile_banner_url
p62
Vhttps://pbs.twimg.com/profile_banners/74424395/1397376932
p63
sVprofile_background_image_url
p64
Vhttp://abs.twimg.com/images/themes/theme1/bg.png
p65
sVname
p66
VSwissowls
p67
sVlang
p68
Ven
p69
sVprofile_background_tile
p70
I00
sVfavourites_count
p71
I11519
sVscreen_name
p72
Vbadendido
p73
sVnotifications
p74
NsVurl
p75
NsVcreated_at
p76
VTue Sep 15 11:30:41 +0000 2009
p77
sVcontributors_enabled
p78
I00
sVtime_zone
p79
VBern
p80
sVprotected
p81
I00
sVdefault_profile
p82
I01
sVis_translator
p83
I00
ssS'contributors_enabled'
p84
I00
sS'profile_text_color'
p85
g38
sS'followers_count'
p86
I1068
sS'profile_sidebar_border_color'
p87
g41
sS'location'
p88
g55
sS'default_profile_image'
p89
I00
sS'id_str'
p90
g43
sS'utc_offset'
p91
I7200
sS'statuses_count'
p92
I12130
sS'description'
p93
g52
sS'friends_count'
p94
I1147
sS'profile_link_color'
p95
g57
sS'profile_image_url'
p96
g59
sS'notifications'
p97
NsS'geo_enabled'
p98
I01
sS'profile_background_color'
p99
g45
sS'profile_banner_url'
p100
g63
sS'profile_background_image_url'
p101
g65
sS'name'
p102
g67
sS'lang'
p103
g69
sS'following'
p104
I00
sS'profile_background_tile'
p105
I00
sS'favourites_count'
p106
I11519
sS'screen_name'
p107
g73
sS'url'
p108
NsS'created_at'
p109
cdatetime
datetime
p110
(S'\x07\xd9\t\x0f\x0b\x1e)\x00\x00\x00'
p111
tp112
Rp113
sS'profile_background_image_url_https'
p114
g48
sS'time_zone'
p115
g80
sS'protected'
p116
I00
sS'default_profile'
p117
I01
sS'is_translator'
p118
I00
sS'listed_count'
p119
I6
sbsS'filter_level'
p120
Vlow
p121
sS'geo'
p122
Nsg24
I618845673539149824
sS'favorite_count'
p123
I0
sS'source'
p124
VTwitter Web Client
p125
sg103
Ven
p126
sS'author'
p127
g18
sS'in_reply_to_user_id_str'
p128
V403846735
p129
sg28
(dp130
Vcontributors
p131
NsVtruncated
p132
I00
sVtext
p133
g10
sVin_reply_to_status_id
p134
I618845473491808256
sg33
I618845673539149824
sVfavorite_count
p135
I0
sVsource
p136
V<a href="http://twitter.com" rel="nofollow">Twitter Web Client</a>
p137
sVretweeted
p138
I00
sVcoordinates
p139
NsVtimestamp_ms
p140
V1436379280825
p141
sVentities
p142
(dp143
Vuser_mentions
p144
(lp145
(dp146
g33
I403846735
sVindices
p147
(lp148
I0
aI7
asg42
V403846735
p149
sg72
VMJOWLS
p150
sg66
VTampa Owl \u26bd\ufe0f
p151
sa(dp152
g33
I1591249596
sg147
(lp153
I8
aI21
asg42
V1591249596
p154
sg72
VConisbroOwls
p155
sg66
VConisbro Owls
p156
sa(dp157
g33
I439286922
sg147
(lp158
I22
aI33
asg42
V439286922
p159
sg72
Vtruckerowl
p160
sg66
VMat
p161
sa(dp162
g33
I1402611583
sg147
(lp163
I34
aI46
asg42
V1402611583
p164
sg72
Vfloridaowls
p165
sg66
VFlorida Owls
p166
sa(dp167
g33
I37886783
sg147
(lp168
I47
aI61
asg42
V37886783
p169
sg72
Vlauracosta_13
p170
sg66
VLaura Costa
p171
sasVsymbols
p172
(lp173
sVtrends
p174
(lp175
sVhashtags
p176
(lp177
sVurls
p178
(lp179
ssVin_reply_to_screen_name
p180
VMJOWLS
p181
sg42
V618845673539149824
p182
sVretweet_count
p183
I0
sVin_reply_to_user_id
p184
I403846735
sVfavorited
p185
I00
sVuser
p186
g29
sVgeo
p187
NsVin_reply_to_user_id_str
p188
g129
sVpossibly_sensitive
p189
I00
sg68
g126
sg76
VWed Jul 08 18:14:40 +0000 2015
p190
sVfilter_level
p191
g121
sVin_reply_to_status_id_str
p192
V618845473491808256
p193
sVplace
p194
(dp195
Vfull_name
p196
VZurich, Switzerland
p197
sg75
Vhttps://api.twitter.com/1.1/geo/id/3acb748d0f1e9265.json
p198
sVcountry
p199
VSchweiz
p200
sVplace_type
p201
Vcity
p202
sVbounding_box
p203
(dp204
Vtype
p205
VPolygon
p206
sg139
(lp207
(lp208
(lp209
F8.448081
aF47.320183
aa(lp210
F8.448081
aF47.434721
aa(lp211
F8.625442
aF47.434721
aa(lp212
F8.625442
aF47.320183
aaassVcountry_code
p213
VCH
p214
sVattributes
p215
(dp216
sg33
V3acb748d0f1e9265
p217
sg66
VZurich
p218
sssS'coordinates'
p219
NsS'timestamp_ms'
p220
g141
sS'entities'
p221
g143
sS'in_reply_to_status_id_str'
p222
g193
sS'in_reply_to_screen_name'
p223
g181
sg90
g182
sS'retweeted'
p224
I00
sS'place'
p225
g0
(ctweepy.models
Place
p226
g2
Ntp227
Rp228
(dp229
S'full_name'
p230
g197
sg108
g198
sS'country'
p231
g200
sS'place_type'
p232
g202
sS'bounding_box'
p233
g0
(ctweepy.models
BoundingBox
p234
g2
Ntp235
Rp236
(dp237
S'type'
p238
g206
sg219
g207
sbsS'country_code'
p239
g214
sS'attributes'
p240
g216
sg24
g217
sg102
g218
sbsS'retweet_count'
p241
I0
sg109
g110
(S'\x07\xdf\x07\x08\x12\x0e(\x00\x00\x00'
p242
tp243
Rp244
sS'in_reply_to_user_id'
p245
I403846735
sb.