ccopy_reg
_reconstructor
p0
(ctweepy.models
Status
p1
c__builtin__
object
p2
Ntp3
Rp4
(dp5
S'favorited'
p6
I00
sS'contributors'
p7
NsS'truncated'
p8
I00
sS'text'
p9
VLife is if you jump into a lake with your clothes on :) who needs dry clothes anyway??? #zurich #lake\u2026 https://t.co/JqhHF0abbL
p10
sS'source_url'
p11
Vhttp://instagram.com
p12
sS'possibly_sensitive'
p13
I00
sS'in_reply_to_status_id'
p14
NsS'user'
p15
g0
(ctweepy.models
User
p16
g2
Ntp17
Rp18
(dp19
S'follow_request_sent'
p20
NsS'profile_use_background_image'
p21
I01
sS'profile_sidebar_fill_color'
p22
VDDEEF6
p23
sS'id'
p24
I124017293
sS'verified'
p25
I00
sS'profile_image_url_https'
p26
Vhttps://pbs.twimg.com/profile_images/588146553048719360/in11taIk_normal.jpg
p27
sS'_json'
p28
(dp29
Vfollow_request_sent
p30
NsVprofile_use_background_image
p31
I01
sVdefault_profile_image
p32
I00
sVid
p33
I124017293
sVverified
p34
I00
sVprofile_image_url_https
p35
g27
sVprofile_sidebar_fill_color
p36
g23
sVprofile_text_color
p37
V333333
p38
sVfollowers_count
p39
I1389
sVprofile_sidebar_border_color
p40
VC0DEED
p41
sVid_str
p42
V124017293
p43
sVprofile_background_color
p44
VFFF04D
p45
sVlisted_count
p46
I13
sVprofile_background_image_url_https
p47
Vhttps://pbs.twimg.com/profile_background_images/655587571/tdgw310u7rzlqcsmf1x2.jpeg
p48
sVutc_offset
p49
I3600
sVstatuses_count
p50
I4462
sVdescription
p51
VI'm a dancer, a fighter, a rebel, a dreamer. im here to live my dreams and the only thing i doubt are my limits! RIP Ibrahim i'll miss you forever
p52
sVfriends_count
p53
I1068
sVlocation
p54
Vlondon/munich 
p55
sVprofile_link_color
p56
V0099CC
p57
sVprofile_image_url
p58
Vhttp://pbs.twimg.com/profile_images/588146553048719360/in11taIk_normal.jpg
p59
sVfollowing
p60
NsVgeo_enabled
p61
I01
sVprofile_banner_url
p62
Vhttps://pbs.twimg.com/profile_banners/124017293/1383514385
p63
sVprofile_background_image_url
p64
Vhttp://pbs.twimg.com/profile_background_images/655587571/tdgw310u7rzlqcsmf1x2.jpeg
p65
sVname
p66
Vpetra haller dancer
p67
sVlang
p68
Ven
p69
sVprofile_background_tile
p70
I01
sVfavourites_count
p71
I1422
sVscreen_name
p72
Vpetrahaller1
p73
sVnotifications
p74
NsVurl
p75
Vhttp://www.dancecastuk.com/petrahallerdancer
p76
sVcreated_at
p77
VThu Mar 18 00:12:47 +0000 2010
p78
sVcontributors_enabled
p79
I00
sVtime_zone
p80
VLondon
p81
sVprotected
p82
I00
sVdefault_profile
p83
I00
sVis_translator
p84
I00
ssS'contributors_enabled'
p85
I00
sS'profile_text_color'
p86
g38
sS'followers_count'
p87
I1389
sS'profile_sidebar_border_color'
p88
g41
sS'location'
p89
g55
sS'default_profile_image'
p90
I00
sS'id_str'
p91
g43
sS'utc_offset'
p92
I3600
sS'statuses_count'
p93
I4462
sS'description'
p94
g52
sS'friends_count'
p95
I1068
sS'profile_link_color'
p96
g57
sS'profile_image_url'
p97
g59
sS'notifications'
p98
NsS'geo_enabled'
p99
I01
sS'profile_background_color'
p100
g45
sS'profile_banner_url'
p101
g63
sS'profile_background_image_url'
p102
g65
sS'name'
p103
g67
sS'lang'
p104
g69
sS'following'
p105
I00
sS'profile_background_tile'
p106
I01
sS'favourites_count'
p107
I1422
sS'screen_name'
p108
g73
sS'url'
p109
g76
sS'created_at'
p110
cdatetime
datetime
p111
(S'\x07\xda\x03\x12\x00\x0c/\x00\x00\x00'
p112
tp113
Rp114
sS'profile_background_image_url_https'
p115
g48
sS'time_zone'
p116
g81
sS'protected'
p117
I00
sS'default_profile'
p118
I00
sS'is_translator'
p119
I00
sS'listed_count'
p120
I13
sbsS'filter_level'
p121
Vlow
p122
sS'geo'
p123
(dp124
Vtype
p125
VPoint
p126
sVcoordinates
p127
(lp128
F47.361703
aF8.547081
assg24
I618451724412567552
sS'favorite_count'
p129
I0
sS'source'
p130
VInstagram
p131
sg104
Ven
p132
sS'author'
p133
g18
sS'in_reply_to_user_id_str'
p134
Nsg28
(dp135
Vcontributors
p136
NsVtruncated
p137
I00
sVtext
p138
g10
sVin_reply_to_status_id
p139
Nsg33
I618451724412567552
sVfavorite_count
p140
I0
sVsource
p141
V<a href="http://instagram.com" rel="nofollow">Instagram</a>
p142
sVretweeted
p143
I00
sg127
(dp144
g125
VPoint
p145
sg127
(lp146
F8.547081
aF47.361703
assVtimestamp_ms
p147
V1436285356034
p148
sVentities
p149
(dp150
Vuser_mentions
p151
(lp152
sVsymbols
p153
(lp154
sVtrends
p155
(lp156
sVhashtags
p157
(lp158
(dp159
Vindices
p160
(lp161
I88
aI95
asg138
Vzurich
p162
sa(dp163
g160
(lp164
I96
aI101
asg138
Vlake
p165
sasVurls
p166
(lp167
(dp168
g75
Vhttps://t.co/JqhHF0abbL
p169
sg160
(lp170
I103
aI126
asVexpanded_url
p171
Vhttps://instagram.com/p/411JTjqP06/
p172
sVdisplay_url
p173
Vinstagram.com/p/411JTjqP06/
p174
sassVin_reply_to_screen_name
p175
Nsg42
V618451724412567552
p176
sVretweet_count
p177
I0
sVin_reply_to_user_id
p178
NsVfavorited
p179
I00
sVuser
p180
g29
sVgeo
p181
g124
sVin_reply_to_user_id_str
p182
NsVpossibly_sensitive
p183
I00
sg68
g132
sg77
VTue Jul 07 16:09:16 +0000 2015
p184
sVfilter_level
p185
g122
sVin_reply_to_status_id_str
p186
NsVplace
p187
(dp188
Vfull_name
p189
VZurich, Switzerland
p190
sg75
Vhttps://api.twitter.com/1.1/geo/id/3acb748d0f1e9265.json
p191
sVcountry
p192
VSchweiz
p193
sVplace_type
p194
Vcity
p195
sVbounding_box
p196
(dp197
g125
VPolygon
p198
sg127
(lp199
(lp200
(lp201
F8.448081
aF47.320183
aa(lp202
F8.448081
aF47.434721
aa(lp203
F8.625442
aF47.434721
aa(lp204
F8.625442
aF47.320183
aaassVcountry_code
p205
VCH
p206
sVattributes
p207
(dp208
sg33
V3acb748d0f1e9265
p209
sg66
VZurich
p210
sssS'coordinates'
p211
g144
sS'timestamp_ms'
p212
g148
sS'entities'
p213
g150
sS'in_reply_to_status_id_str'
p214
NsS'in_reply_to_screen_name'
p215
Nsg91
g176
sS'retweeted'
p216
I00
sS'place'
p217
g0
(ctweepy.models
Place
p218
g2
Ntp219
Rp220
(dp221
S'full_name'
p222
g190
sg109
g191
sS'country'
p223
g193
sS'place_type'
p224
g195
sS'bounding_box'
p225
g0
(ctweepy.models
BoundingBox
p226
g2
Ntp227
Rp228
(dp229
S'type'
p230
g198
sg211
g199
sbsS'country_code'
p231
g206
sS'attributes'
p232
g208
sg24
g209
sg103
g210
sbsS'retweet_count'
p233
I0
sg110
g111
(S'\x07\xdf\x07\x07\x10\t\x10\x00\x00\x00'
p234
tp235
Rp236
sS'in_reply_to_user_id'
p237
Nsb.