ccopy_reg
_reconstructor
p0
(ctweepy.models
Status
p1
c__builtin__
object
p2
Ntp3
Rp4
(dp5
S'favorited'
p6
I00
sS'contributors'
p7
NsS'truncated'
p8
I00
sS'text'
p9
VMy favorite cartoon\u2026 http://t.co/jeuMSn5vYd
p10
sS'source_url'
p11
Vhttp://tapbots.com/software/tweetbot/mac
p12
sS'possibly_sensitive'
p13
I00
sS'in_reply_to_status_id'
p14
NsS'user'
p15
g0
(ctweepy.models
User
p16
g2
Ntp17
Rp18
(dp19
S'follow_request_sent'
p20
NsS'profile_use_background_image'
p21
I01
sS'profile_sidebar_fill_color'
p22
VDDEEF6
p23
sS'id'
p24
I210924968
sS'verified'
p25
I00
sS'profile_image_url_https'
p26
Vhttps://pbs.twimg.com/profile_images/3074264100/f0d13d78c4e7249c52c518dfedeaf779_normal.jpeg
p27
sS'_json'
p28
(dp29
Vfollow_request_sent
p30
NsVprofile_use_background_image
p31
I01
sVdefault_profile_image
p32
I00
sVid
p33
I210924968
sVverified
p34
I00
sVprofile_image_url_https
p35
g27
sVprofile_sidebar_fill_color
p36
g23
sVprofile_text_color
p37
V333333
p38
sVfollowers_count
p39
I588
sVprofile_sidebar_border_color
p40
VC0DEED
p41
sVid_str
p42
V210924968
p43
sVprofile_background_color
p44
VC0DEED
p45
sVlisted_count
p46
I26
sVprofile_background_image_url_https
p47
Vhttps://abs.twimg.com/images/themes/theme1/bg.png
p48
sVutc_offset
p49
NsVstatuses_count
p50
I2319
sVdescription
p51
NsVfriends_count
p52
I201
sVlocation
p53
VZurich/Switzerland
p54
sVprofile_link_color
p55
V0084B4
p56
sVprofile_image_url
p57
Vhttp://pbs.twimg.com/profile_images/3074264100/f0d13d78c4e7249c52c518dfedeaf779_normal.jpeg
p58
sVfollowing
p59
NsVgeo_enabled
p60
I01
sVprofile_background_image_url
p61
Vhttp://abs.twimg.com/images/themes/theme1/bg.png
p62
sVname
p63
VMichael Kroll
p64
sVlang
p65
Ven
p66
sVprofile_background_tile
p67
I00
sVfavourites_count
p68
I1031
sVscreen_name
p69
Vdr_m_kroll
p70
sVnotifications
p71
NsVurl
p72
Vhttp://www.mkroll.mobi
p73
sVcreated_at
p74
VMon Nov 01 20:15:51 +0000 2010
p75
sVcontributors_enabled
p76
I00
sVtime_zone
p77
NsVprotected
p78
I00
sVdefault_profile
p79
I01
sVis_translator
p80
I00
ssS'contributors_enabled'
p81
I00
sS'profile_text_color'
p82
g38
sS'followers_count'
p83
I588
sS'profile_sidebar_border_color'
p84
g41
sS'location'
p85
g54
sS'default_profile_image'
p86
I00
sS'id_str'
p87
g43
sS'utc_offset'
p88
NsS'statuses_count'
p89
I2319
sS'description'
p90
NsS'friends_count'
p91
I201
sS'profile_link_color'
p92
g56
sS'profile_image_url'
p93
g58
sS'notifications'
p94
NsS'geo_enabled'
p95
I01
sS'profile_background_color'
p96
g45
sS'profile_background_image_url'
p97
g62
sS'name'
p98
g64
sS'lang'
p99
g66
sS'following'
p100
I00
sS'profile_background_tile'
p101
I00
sS'favourites_count'
p102
I1031
sS'screen_name'
p103
g70
sS'url'
p104
g73
sS'created_at'
p105
cdatetime
datetime
p106
(S'\x07\xda\x0b\x01\x14\x0f3\x00\x00\x00'
p107
tp108
Rp109
sS'profile_background_image_url_https'
p110
g48
sS'time_zone'
p111
NsS'protected'
p112
I00
sS'default_profile'
p113
I01
sS'is_translator'
p114
I00
sS'listed_count'
p115
I26
sbsS'filter_level'
p116
Vlow
p117
sS'geo'
p118
Nsg24
I619809389508227073
sS'favorite_count'
p119
I0
sS'source'
p120
VTweetbot for Mac
p121
sg99
Ven
p122
sS'author'
p123
g18
sS'in_reply_to_user_id_str'
p124
Nsg28
(dp125
Vcontributors
p126
NsVtruncated
p127
I00
sVtext
p128
g10
sVin_reply_to_status_id
p129
Nsg33
I619809389508227073
sVfavorite_count
p130
I0
sVsource
p131
V<a href="http://tapbots.com/software/tweetbot/mac" rel="nofollow">Tweetbot for Mac</a>
p132
sVretweeted
p133
I00
sVcoordinates
p134
NsVtimestamp_ms
p135
V1436609048617
p136
sVentities
p137
(dp138
Vsymbols
p139
(lp140
sVmedia
p141
(lp142
(dp143
Vexpanded_url
p144
Vhttp://twitter.com/dr_m_kroll/status/619809389508227073/photo/1
p145
sVdisplay_url
p146
Vpic.twitter.com/jeuMSn5vYd
p147
sg72
Vhttp://t.co/jeuMSn5vYd
p148
sVmedia_url_https
p149
Vhttps://pbs.twimg.com/media/CJoBWneXAAQIvTY.jpg
p150
sg42
V619809386781933572
p151
sVsizes
p152
(dp153
Vsmall
p154
(dp155
Vh
p156
I417
sVresize
p157
Vfit
p158
sVw
p159
I340
ssVlarge
p160
(dp161
g156
I502
sg157
Vfit
p162
sg159
I409
ssVmedium
p163
(dp164
g156
I502
sg157
Vfit
p165
sg159
I409
ssVthumb
p166
(dp167
g156
I150
sg157
Vcrop
p168
sg159
I150
sssVindices
p169
(lp170
I21
aI43
asVtype
p171
Vphoto
p172
sg33
I619809386781933572
sVmedia_url
p173
Vhttp://pbs.twimg.com/media/CJoBWneXAAQIvTY.jpg
p174
sasVhashtags
p175
(lp176
sVuser_mentions
p177
(lp178
sVtrends
p179
(lp180
sVurls
p181
(lp182
ssVin_reply_to_screen_name
p183
Nsg42
V619809389508227073
p184
sVretweet_count
p185
I0
sVin_reply_to_user_id
p186
NsVfavorited
p187
I00
sVuser
p188
g29
sVgeo
p189
NsVin_reply_to_user_id_str
p190
NsVpossibly_sensitive
p191
I00
sg65
g122
sg74
VSat Jul 11 10:04:08 +0000 2015
p192
sVfilter_level
p193
g117
sVin_reply_to_status_id_str
p194
NsVplace
p195
(dp196
Vfull_name
p197
VZurich, Switzerland
p198
sg72
Vhttps://api.twitter.com/1.1/geo/id/3acb748d0f1e9265.json
p199
sVcountry
p200
VSchweiz
p201
sVplace_type
p202
Vcity
p203
sVbounding_box
p204
(dp205
g171
VPolygon
p206
sg134
(lp207
(lp208
(lp209
F8.448081
aF47.320183
aa(lp210
F8.448081
aF47.434721
aa(lp211
F8.625442
aF47.434721
aa(lp212
F8.625442
aF47.320183
aaassVcountry_code
p213
VCH
p214
sVattributes
p215
(dp216
sg33
V3acb748d0f1e9265
p217
sg63
VZurich
p218
ssVextended_entities
p219
(dp220
g141
(lp221
(dp222
g144
Vhttp://twitter.com/dr_m_kroll/status/619809389508227073/photo/1
p223
sg146
Vpic.twitter.com/jeuMSn5vYd
p224
sg72
Vhttp://t.co/jeuMSn5vYd
p225
sg149
Vhttps://pbs.twimg.com/media/CJoBWneXAAQIvTY.jpg
p226
sg42
V619809386781933572
p227
sg152
(dp228
g154
(dp229
g156
I417
sg157
Vfit
p230
sg159
I340
ssg160
(dp231
g156
I502
sg157
Vfit
p232
sg159
I409
ssg163
(dp233
g156
I502
sg157
Vfit
p234
sg159
I409
ssg166
(dp235
g156
I150
sg157
Vcrop
p236
sg159
I150
sssg169
(lp237
I21
aI43
asg171
Vphoto
p238
sg33
I619809386781933572
sg173
Vhttp://pbs.twimg.com/media/CJoBWneXAAQIvTY.jpg
p239
sasssS'coordinates'
p240
NsS'timestamp_ms'
p241
g136
sS'entities'
p242
g138
sS'in_reply_to_status_id_str'
p243
NsS'in_reply_to_screen_name'
p244
Nsg87
g184
sS'extended_entities'
p245
g220
sS'retweeted'
p246
I00
sS'place'
p247
g0
(ctweepy.models
Place
p248
g2
Ntp249
Rp250
(dp251
S'full_name'
p252
g198
sg104
g199
sS'country'
p253
g201
sS'place_type'
p254
g203
sS'bounding_box'
p255
g0
(ctweepy.models
BoundingBox
p256
g2
Ntp257
Rp258
(dp259
S'type'
p260
g206
sg240
g207
sbsS'country_code'
p261
g214
sS'attributes'
p262
g216
sg24
g217
sg98
g218
sbsS'retweet_count'
p263
I0
sg105
g106
(S'\x07\xdf\x07\x0b\n\x04\x08\x00\x00\x00'
p264
tp265
Rp266
sS'in_reply_to_user_id'
p267
Nsb.