ccopy_reg
_reconstructor
p0
(ctweepy.models
Status
p1
c__builtin__
object
p2
Ntp3
Rp4
(dp5
S'favorited'
p6
I00
sS'contributors'
p7
NsS'truncated'
p8
I00
sS'text'
p9
V@kevwright @jhoneyball no idea who either of them are\U0001f604
p10
sS'source_url'
p11
Vhttp://tapbots.com/tweetbot
p12
sS'possibly_sensitive'
p13
I00
sS'in_reply_to_status_id'
p14
I621046927442976769
sS'user'
p15
g0
(ctweepy.models
User
p16
g2
Ntp17
Rp18
(dp19
S'follow_request_sent'
p20
NsS'profile_use_background_image'
p21
I01
sS'profile_sidebar_fill_color'
p22
VDDFFCC
p23
sS'id'
p24
I15060754
sS'verified'
p25
I00
sS'profile_image_url_https'
p26
Vhttps://pbs.twimg.com/profile_images/592436784698662912/DBzb1Kye_normal.jpg
p27
sS'_json'
p28
(dp29
Vfollow_request_sent
p30
NsVprofile_use_background_image
p31
I01
sVdefault_profile_image
p32
I00
sVid
p33
I15060754
sVverified
p34
I00
sVprofile_image_url_https
p35
g27
sVprofile_sidebar_fill_color
p36
g23
sVprofile_text_color
p37
V333333
p38
sVfollowers_count
p39
I534
sVprofile_sidebar_border_color
p40
VBDDCAD
p41
sVid_str
p42
V15060754
p43
sVprofile_background_color
p44
V9AE4E8
p45
sVlisted_count
p46
I21
sVprofile_background_image_url_https
p47
Vhttps://pbs.twimg.com/profile_background_images/34000459/twitterbackground.jpg
p48
sVutc_offset
p49
I3600
sVstatuses_count
p50
I43427
sVdescription
p51
VTruly bemused by the profile twitter gave me. Grumpy old man:-)
p52
sVfriends_count
p53
I122
sVlocation
p54
VUK
p55
sVprofile_link_color
p56
V0084B4
p57
sVprofile_image_url
p58
Vhttp://pbs.twimg.com/profile_images/592436784698662912/DBzb1Kye_normal.jpg
p59
sVfollowing
p60
NsVgeo_enabled
p61
I01
sVprofile_background_image_url
p62
Vhttp://pbs.twimg.com/profile_background_images/34000459/twitterbackground.jpg
p63
sVname
p64
VRichard Yates
p65
sVlang
p66
Ven
p67
sVprofile_background_tile
p68
I00
sVfavourites_count
p69
I120
sVscreen_name
p70
Vrichardcyates
p71
sVnotifications
p72
NsVurl
p73
NsVcreated_at
p74
VMon Jun 09 15:48:29 +0000 2008
p75
sVcontributors_enabled
p76
I00
sVtime_zone
p77
VLondon
p78
sVprotected
p79
I00
sVdefault_profile
p80
I00
sVis_translator
p81
I00
ssS'contributors_enabled'
p82
I00
sS'profile_text_color'
p83
g38
sS'followers_count'
p84
I534
sS'profile_sidebar_border_color'
p85
g41
sS'location'
p86
g55
sS'default_profile_image'
p87
I00
sS'id_str'
p88
g43
sS'utc_offset'
p89
I3600
sS'statuses_count'
p90
I43427
sS'description'
p91
g52
sS'friends_count'
p92
I122
sS'profile_link_color'
p93
g57
sS'profile_image_url'
p94
g59
sS'notifications'
p95
NsS'geo_enabled'
p96
I01
sS'profile_background_color'
p97
g45
sS'profile_background_image_url'
p98
g63
sS'name'
p99
g65
sS'lang'
p100
g67
sS'following'
p101
I00
sS'profile_background_tile'
p102
I00
sS'favourites_count'
p103
I120
sS'screen_name'
p104
g71
sS'url'
p105
NsS'created_at'
p106
cdatetime
datetime
p107
(S'\x07\xd8\x06\t\x0f0\x1d\x00\x00\x00'
p108
tp109
Rp110
sS'profile_background_image_url_https'
p111
g48
sS'time_zone'
p112
g78
sS'protected'
p113
I00
sS'default_profile'
p114
I00
sS'is_translator'
p115
I00
sS'listed_count'
p116
I21
sbsS'filter_level'
p117
Vlow
p118
sS'geo'
p119
Nsg24
I621341895306944512
sS'favorite_count'
p120
I0
sS'source'
p121
VTweetbot for i\u039fS
p122
sg100
Ven
p123
sS'author'
p124
g18
sS'in_reply_to_user_id_str'
p125
V14145569
p126
sg28
(dp127
Vcontributors
p128
NsVtruncated
p129
I00
sVtext
p130
g10
sVin_reply_to_status_id
p131
I621046927442976769
sg33
I621341895306944512
sVfavorite_count
p132
I0
sVsource
p133
V<a href="http://tapbots.com/tweetbot" rel="nofollow">Tweetbot for i\u039fS</a>
p134
sVretweeted
p135
I00
sVcoordinates
p136
NsVtimestamp_ms
p137
V1436974426472
p138
sVentities
p139
(dp140
Vuser_mentions
p141
(lp142
(dp143
g33
I14145569
sVindices
p144
(lp145
I0
aI10
asg42
V14145569
p146
sg70
Vkevwright
p147
sg64
Vkevwright
p148
sa(dp149
g33
I15219589
sg144
(lp150
I11
aI22
asg42
V15219589
p151
sg70
Vjhoneyball
p152
sg64
VJames Honeyball
p153
sasVsymbols
p154
(lp155
sVtrends
p156
(lp157
sVhashtags
p158
(lp159
sVurls
p160
(lp161
ssVin_reply_to_screen_name
p162
Vkevwright
p163
sg42
V621341895306944512
p164
sVretweet_count
p165
I0
sVin_reply_to_user_id
p166
I14145569
sVfavorited
p167
I00
sVuser
p168
g29
sVgeo
p169
NsVin_reply_to_user_id_str
p170
g126
sVpossibly_sensitive
p171
I00
sg66
g123
sg74
VWed Jul 15 15:33:46 +0000 2015
p172
sVfilter_level
p173
g118
sVin_reply_to_status_id_str
p174
V621046927442976769
p175
sVplace
p176
(dp177
Vfull_name
p178
VZurich, Switzerland
p179
sg73
Vhttps://api.twitter.com/1.1/geo/id/3acb748d0f1e9265.json
p180
sVcountry
p181
VSchweiz
p182
sVplace_type
p183
Vcity
p184
sVbounding_box
p185
(dp186
Vtype
p187
VPolygon
p188
sg136
(lp189
(lp190
(lp191
F8.448081
aF47.320183
aa(lp192
F8.448081
aF47.434721
aa(lp193
F8.625442
aF47.434721
aa(lp194
F8.625442
aF47.320183
aaassVcountry_code
p195
VCH
p196
sVattributes
p197
(dp198
sg33
V3acb748d0f1e9265
p199
sg64
VZurich
p200
sssS'coordinates'
p201
NsS'timestamp_ms'
p202
g138
sS'entities'
p203
g140
sS'in_reply_to_status_id_str'
p204
g175
sS'in_reply_to_screen_name'
p205
g163
sg88
g164
sS'retweeted'
p206
I00
sS'place'
p207
g0
(ctweepy.models
Place
p208
g2
Ntp209
Rp210
(dp211
S'full_name'
p212
g179
sg105
g180
sS'country'
p213
g182
sS'place_type'
p214
g184
sS'bounding_box'
p215
g0
(ctweepy.models
BoundingBox
p216
g2
Ntp217
Rp218
(dp219
S'type'
p220
g188
sg201
g189
sbsS'country_code'
p221
g196
sS'attributes'
p222
g198
sg24
g199
sg99
g200
sbsS'retweet_count'
p223
I0
sg106
g107
(S'\x07\xdf\x07\x0f\x0f!.\x00\x00\x00'
p224
tp225
Rp226
sS'in_reply_to_user_id'
p227
I14145569
sb.