ccopy_reg
_reconstructor
p0
(ctweepy.models
Status
p1
c__builtin__
object
p2
Ntp3
Rp4
(dp5
S'favorited'
p6
I00
sS'contributors'
p7
NsS'truncated'
p8
I00
sS'text'
p9
VSelf-driving London Underground trains are long overdue.
p10
sS'source_url'
p11
Vhttp://twitter.com/download/iphone
p12
sS'possibly_sensitive'
p13
I00
sS'in_reply_to_status_id'
p14
NsS'user'
p15
g0
(ctweepy.models
User
p16
g2
Ntp17
Rp18
(dp19
S'follow_request_sent'
p20
NsS'profile_use_background_image'
p21
I01
sS'profile_sidebar_fill_color'
p22
V252429
p23
sS'id'
p24
I8775552
sS'verified'
p25
I00
sS'profile_image_url_https'
p26
Vhttps://pbs.twimg.com/profile_images/2627716615/image_normal.jpg
p27
sS'_json'
p28
(dp29
Vfollow_request_sent
p30
NsVprofile_use_background_image
p31
I01
sVdefault_profile_image
p32
I00
sVid
p33
I8775552
sVverified
p34
I00
sVprofile_image_url_https
p35
g27
sVprofile_sidebar_fill_color
p36
g23
sVprofile_text_color
p37
V666666
p38
sVfollowers_count
p39
I262
sVprofile_sidebar_border_color
p40
V181A1E
p41
sVid_str
p42
V8775552
p43
sVprofile_background_color
p44
V1E2A25
p45
sVlisted_count
p46
I12
sVprofile_background_image_url_https
p47
Vhttps://pbs.twimg.com/profile_background_images/5085757/25100002.jpg
p48
sVutc_offset
p49
I3600
sVstatuses_count
p50
I4039
sVdescription
p51
VComputer Science graduate. I like cars, coding, art, photography, music and a good old lol.\u000a\u000aA Londoner who likes to smile.
p52
sVfriends_count
p53
I873
sVlocation
p54
VUK
p55
sVprofile_link_color
p56
V647D3F
p57
sVprofile_image_url
p58
Vhttp://pbs.twimg.com/profile_images/2627716615/image_normal.jpg
p59
sVfollowing
p60
NsVgeo_enabled
p61
I01
sVprofile_banner_url
p62
Vhttps://pbs.twimg.com/profile_banners/8775552/1348083928
p63
sVprofile_background_image_url
p64
Vhttp://pbs.twimg.com/profile_background_images/5085757/25100002.jpg
p65
sVname
p66
VAndrew Davidson
p67
sVlang
p68
Ven
p69
sVprofile_background_tile
p70
I00
sVfavourites_count
p71
I47
sVscreen_name
p72
Vadav
p73
sVnotifications
p74
NsVurl
p75
Vhttp://adav.me
p76
sVcreated_at
p77
VMon Sep 10 00:55:52 +0000 2007
p78
sVcontributors_enabled
p79
I00
sVtime_zone
p80
VLondon
p81
sVprotected
p82
I00
sVdefault_profile
p83
I00
sVis_translator
p84
I00
ssS'contributors_enabled'
p85
I00
sS'profile_text_color'
p86
g38
sS'followers_count'
p87
I262
sS'profile_sidebar_border_color'
p88
g41
sS'location'
p89
g55
sS'default_profile_image'
p90
I00
sS'id_str'
p91
g43
sS'utc_offset'
p92
I3600
sS'statuses_count'
p93
I4039
sS'description'
p94
VComputer Science graduate. I like cars, coding, art, photography, music and a good old lol.\u000a\u000aA Londoner who likes to smile.
p95
sS'friends_count'
p96
I873
sS'profile_link_color'
p97
g57
sS'profile_image_url'
p98
g59
sS'notifications'
p99
NsS'geo_enabled'
p100
I01
sS'profile_background_color'
p101
g45
sS'profile_banner_url'
p102
g63
sS'profile_background_image_url'
p103
g65
sS'name'
p104
g67
sS'lang'
p105
g69
sS'following'
p106
I00
sS'profile_background_tile'
p107
I00
sS'favourites_count'
p108
I47
sS'screen_name'
p109
g73
sS'url'
p110
g76
sS'created_at'
p111
cdatetime
datetime
p112
(S'\x07\xd7\t\n\x0074\x00\x00\x00'
p113
tp114
Rp115
sS'profile_background_image_url_https'
p116
g48
sS'time_zone'
p117
g81
sS'protected'
p118
I00
sS'default_profile'
p119
I00
sS'is_translator'
p120
I00
sS'listed_count'
p121
I12
sbsS'filter_level'
p122
Vlow
p123
sS'geo'
p124
Nsg24
I619285602563923968
sS'favorite_count'
p125
I0
sS'source'
p126
VTwitter for iPhone
p127
sg105
Ven
p128
sS'author'
p129
g18
sS'in_reply_to_user_id_str'
p130
Nsg28
(dp131
Vcontributors
p132
NsVtruncated
p133
I00
sVtext
p134
g10
sVin_reply_to_status_id
p135
Nsg33
I619285602563923968
sVfavorite_count
p136
I0
sVsource
p137
V<a href="http://twitter.com/download/iphone" rel="nofollow">Twitter for iPhone</a>
p138
sVretweeted
p139
I00
sVcoordinates
p140
NsVtimestamp_ms
p141
V1436484168078
p142
sVentities
p143
(dp144
Vuser_mentions
p145
(lp146
sVsymbols
p147
(lp148
sVtrends
p149
(lp150
sVhashtags
p151
(lp152
sVurls
p153
(lp154
ssVin_reply_to_screen_name
p155
Nsg42
V619285602563923968
p156
sVretweet_count
p157
I0
sVin_reply_to_user_id
p158
NsVfavorited
p159
I00
sVuser
p160
g29
sVgeo
p161
NsVin_reply_to_user_id_str
p162
NsVpossibly_sensitive
p163
I00
sg68
g128
sg77
VThu Jul 09 23:22:48 +0000 2015
p164
sVfilter_level
p165
g123
sVin_reply_to_status_id_str
p166
NsVplace
p167
(dp168
Vfull_name
p169
VZurich, Switzerland
p170
sg75
Vhttps://api.twitter.com/1.1/geo/id/3acb748d0f1e9265.json
p171
sVcountry
p172
VSchweiz
p173
sVplace_type
p174
Vcity
p175
sVbounding_box
p176
(dp177
Vtype
p178
VPolygon
p179
sg140
(lp180
(lp181
(lp182
F8.448081
aF47.320183
aa(lp183
F8.448081
aF47.434721
aa(lp184
F8.625442
aF47.434721
aa(lp185
F8.625442
aF47.320183
aaassVcountry_code
p186
VCH
p187
sVattributes
p188
(dp189
sg33
V3acb748d0f1e9265
p190
sg66
VZurich
p191
sssS'coordinates'
p192
NsS'timestamp_ms'
p193
g142
sS'entities'
p194
g144
sS'in_reply_to_status_id_str'
p195
NsS'in_reply_to_screen_name'
p196
Nsg91
g156
sS'retweeted'
p197
I00
sS'place'
p198
g0
(ctweepy.models
Place
p199
g2
Ntp200
Rp201
(dp202
S'full_name'
p203
g170
sg110
g171
sS'country'
p204
g173
sS'place_type'
p205
g175
sS'bounding_box'
p206
g0
(ctweepy.models
BoundingBox
p207
g2
Ntp208
Rp209
(dp210
S'type'
p211
g179
sg192
g180
sbsS'country_code'
p212
g187
sS'attributes'
p213
g189
sg24
g190
sg104
g191
sbsS'retweet_count'
p214
I0
sg111
g112
(S'\x07\xdf\x07\t\x17\x160\x00\x00\x00'
p215
tp216
Rp217
sS'in_reply_to_user_id'
p218
Nsb.