ccopy_reg
_reconstructor
p0
(ctweepy.models
Status
p1
c__builtin__
object
p2
Ntp3
Rp4
(dp5
S'contributors'
p6
NsS'truncated'
p7
I00
sS'text'
p8
Va taste of my matthew herbert remix/re sing on this here player https://t.co/3YycdW263m
p9
sS'in_reply_to_status_id'
p10
NsS'id'
p11
I620700720455675904
sS'favorite_count'
p12
I0
sS'entities'
p13
(dp14
Vuser_mentions
p15
(lp16
sVsymbols
p17
(lp18
sVtrends
p19
(lp20
sVhashtags
p21
(lp22
sVurls
p23
(lp24
(dp25
Vurl
p26
Vhttps://t.co/3YycdW263m
p27
sVindices
p28
(lp29
I64
aI87
asVexpanded_url
p30
Vhttps://twitter.com/beatport/status/620603219014758400
p31
sVdisplay_url
p32
Vtwitter.com/beatport/statu\u2026
p33
sassS'quoted_status_id'
p34
I620603219014758400
sS'_json'
p35
(dp36
Vcontributors
p37
NsVtruncated
p38
I00
sVtext
p39
g9
sVin_reply_to_status_id
p40
NsVid
p41
I620700720455675904
sVfavorite_count
p42
I0
sVsource
p43
V<a href="http://twitter.com" rel="nofollow">Twitter Web Client</a>
p44
sVquoted_status_id
p45
I620603219014758400
sVretweeted
p46
I00
sVcoordinates
p47
NsVtimestamp_ms
p48
V1436821558475
p49
sVquoted_status
p50
(dp51
g37
Nsg38
I00
sg39
VMix of the year contender alert! @MatthewHerbert delivered a must-hear @essentialmix http://t.co/Kn47fjznRg http://t.co/BCzmR4Mijf
p52
sg40
Nsg41
I620603219014758400
sg42
I0
sg43
V<a href="http://twitter.com" rel="nofollow">Twitter Web Client</a>
p53
sg46
I00
sg47
NsVentities
p54
(dp55
g17
(lp56
sVmedia
p57
(lp58
(dp59
g30
Vhttp://twitter.com/beatport/status/620603219014758400/photo/1
p60
sg32
Vpic.twitter.com/BCzmR4Mijf
p61
sg26
Vhttp://t.co/BCzmR4Mijf
p62
sVmedia_url_https
p63
Vhttps://pbs.twimg.com/media/CJzTVskW8AAcaV8.jpg
p64
sVid_str
p65
V620603218364657664
p66
sVsizes
p67
(dp68
Vsmall
p69
(dp70
Vh
p71
I204
sVresize
p72
Vfit
p73
sVw
p74
I340
ssVlarge
p75
(dp76
g71
I545
sg72
Vfit
p77
sg74
I908
ssVmedium
p78
(dp79
g71
I360
sg72
Vfit
p80
sg74
I600
ssVthumb
p81
(dp82
g71
I150
sg72
Vcrop
p83
sg74
I150
sssg28
(lp84
I108
aI130
asVtype
p85
Vphoto
p86
sg41
I620603218364657664
sVmedia_url
p87
Vhttp://pbs.twimg.com/media/CJzTVskW8AAcaV8.jpg
p88
sasg21
(lp89
sg15
(lp90
(dp91
g41
I25862910
sg28
(lp92
I33
aI48
asg65
V25862910
p93
sVscreen_name
p94
Vmatthewherbert
p95
sVname
p96
Vmatthew herbert
p97
sa(dp98
g41
I22647237
sg28
(lp99
I71
aI84
asg65
V22647237
p100
sg94
Vessentialmix
p101
sg96
Vessential mix
p102
sasg19
(lp103
sg23
(lp104
(dp105
g26
Vhttp://t.co/Kn47fjznRg
p106
sg28
(lp107
I85
aI107
asg30
Vhttp://btprt.dj/1HCxqXX
p108
sg32
Vbtprt.dj/1HCxqXX
p109
sassVin_reply_to_screen_name
p110
Nsg65
V620603219014758400
p111
sVretweet_count
p112
I0
sVin_reply_to_user_id
p113
NsVfavorited
p114
I00
sVuser
p115
(dp116
Vfollow_request_sent
p117
NsVprofile_use_background_image
p118
I00
sVdefault_profile_image
p119
I00
sg41
I31141686
sVverified
p120
I01
sVprofile_image_url_https
p121
Vhttps://pbs.twimg.com/profile_images/616608033783713793/KNCWjNHw_normal.jpg
p122
sVprofile_sidebar_fill_color
p123
V252429
p124
sVprofile_text_color
p125
V666666
p126
sVfollowers_count
p127
I604426
sVprofile_sidebar_border_color
p128
V000000
p129
sg65
V31141686
p130
sVprofile_background_color
p131
V131516
p132
sVlisted_count
p133
I4622
sVprofile_background_image_url_https
p134
Vhttps://pbs.twimg.com/profile_background_images/405502686/NewestTwitter.png
p135
sVutc_offset
p136
I-14400
sVstatuses_count
p137
I14480
sVdescription
p138
VThe Home of Electronic Music // Need help? Email support@beatport.com
p139
sVfriends_count
p140
I1242
sVlocation
p141
V
p142
sVprofile_link_color
p143
VA8E00F
p144
sVprofile_image_url
p145
Vhttp://pbs.twimg.com/profile_images/616608033783713793/KNCWjNHw_normal.jpg
p146
sVfollowing
p147
NsVgeo_enabled
p148
I01
sVprofile_banner_url
p149
Vhttps://pbs.twimg.com/profile_banners/31141686/1427374790
p150
sVprofile_background_image_url
p151
Vhttp://pbs.twimg.com/profile_background_images/405502686/NewestTwitter.png
p152
sg96
VBeatport
p153
sVlang
p154
Ven
p155
sVprofile_background_tile
p156
I01
sVfavourites_count
p157
I1994
sg94
Vbeatport
p158
sVnotifications
p159
Nsg26
NsVcreated_at
p160
VTue Apr 14 15:06:21 +0000 2009
p161
sVcontributors_enabled
p162
I00
sVtime_zone
p163
VEastern Time (US & Canada)
p164
sVprotected
p165
I00
sVdefault_profile
p166
I00
sVis_translator
p167
I00
ssVgeo
p168
NsVin_reply_to_user_id_str
p169
NsVpossibly_sensitive
p170
I00
sg154
Ven
p171
sg160
VMon Jul 13 14:38:32 +0000 2015
p172
sVfilter_level
p173
Vlow
p174
sVin_reply_to_status_id_str
p175
NsVplace
p176
NsVextended_entities
p177
(dp178
g57
(lp179
(dp180
g30
Vhttp://twitter.com/beatport/status/620603219014758400/photo/1
p181
sg32
Vpic.twitter.com/BCzmR4Mijf
p182
sg26
Vhttp://t.co/BCzmR4Mijf
p183
sg63
Vhttps://pbs.twimg.com/media/CJzTVskW8AAcaV8.jpg
p184
sg65
V620603218364657664
p185
sg67
(dp186
g69
(dp187
g71
I204
sg72
Vfit
p188
sg74
I340
ssg75
(dp189
g71
I545
sg72
Vfit
p190
sg74
I908
ssg78
(dp191
g71
I360
sg72
Vfit
p192
sg74
I600
ssg81
(dp193
g71
I150
sg72
Vcrop
p194
sg74
I150
sssg28
(lp195
I108
aI130
asg85
Vphoto
p196
sg41
I620603218364657664
sg87
Vhttp://pbs.twimg.com/media/CJzTVskW8AAcaV8.jpg
p197
sasssg54
g14
sg110
Nsg65
V620700720455675904
p198
sg112
I0
sg113
Nsg114
I00
sg115
(dp199
g117
Nsg118
I00
sg119
I00
sg41
I133828602
sg120
I00
sg121
Vhttps://pbs.twimg.com/profile_images/423867971379802112/3xV0G1lN_normal.jpeg
p200
sg123
V000000
p201
sg125
V000000
p202
sg127
I429
sg128
V000000
p203
sg65
V133828602
p204
sg131
V000000
p205
sg133
I13
sg134
Vhttps://abs.twimg.com/images/themes/theme14/bg.gif
p206
sg136
I7200
sg137
I1958
sg138
VThinking Like A Mountain
p207
sg140
I191
sg141
g142
sg143
V3B94D9
p208
sg145
Vhttp://pbs.twimg.com/profile_images/423867971379802112/3xV0G1lN_normal.jpeg
p209
sg147
Nsg148
I01
sg149
Vhttps://pbs.twimg.com/profile_banners/133828602/1432684786
p210
sg151
Vhttp://abs.twimg.com/images/themes/theme14/bg.gif
p211
sg96
VMerz
p212
sg154
Ven
p213
sg156
I00
sg157
I465
sg94
VMERZmusic
p214
sg159
Nsg26
Vhttp://www.merz.co.uk/shows
p215
sg160
VFri Apr 16 18:52:21 +0000 2010
p216
sg162
I00
sg163
VBern
p217
sg165
I00
sg166
I00
sg167
I00
ssg168
Nsg169
Nsg170
I00
sg154
Ven
p218
sg160
VMon Jul 13 21:05:58 +0000 2015
p219
sVquoted_status_id_str
p220
V620603219014758400
p221
sg173
Vlow
p222
sg175
Nsg176
(dp223
Vfull_name
p224
VBerne, Switzerland
p225
sg26
Vhttps://api.twitter.com/1.1/geo/id/5868d0e0749c9c47.json
p226
sVcountry
p227
VSchweiz
p228
sVplace_type
p229
Vadmin
p230
sVbounding_box
p231
(dp232
g85
VPolygon
p233
sg47
(lp234
(lp235
(lp236
F6.861601
aF46.326441
aa(lp237
F6.861601
aF47.34528
aa(lp238
F8.455051
aF47.34528
aa(lp239
F8.455051
aF46.326441
aaassVcountry_code
p240
VCH
p241
sVattributes
p242
(dp243
sg41
V5868d0e0749c9c47
p244
sg96
VBern
p245
sssS'coordinates'
p246
NsS'timestamp_ms'
p247
g49
sS'quoted_status'
p248
g51
sS'source'
p249
VTwitter Web Client
p250
sS'in_reply_to_screen_name'
p251
NsS'id_str'
p252
g198
sS'retweet_count'
p253
I0
sS'in_reply_to_user_id'
p254
NsS'favorited'
p255
I00
sS'source_url'
p256
Vhttp://twitter.com
p257
sS'user'
p258
g0
(ctweepy.models
User
p259
g2
Ntp260
Rp261
(dp262
S'follow_request_sent'
p263
NsS'profile_use_background_image'
p264
I00
sS'profile_sidebar_fill_color'
p265
g201
sg11
I133828602
sS'verified'
p266
I00
sS'profile_image_url_https'
p267
g200
sg35
g199
sS'contributors_enabled'
p268
I00
sS'profile_text_color'
p269
g202
sS'followers_count'
p270
I429
sS'profile_sidebar_border_color'
p271
g203
sS'location'
p272
g142
sS'default_profile_image'
p273
I00
sg252
g204
sS'utc_offset'
p274
I7200
sS'statuses_count'
p275
I1958
sS'description'
p276
g207
sS'friends_count'
p277
I191
sS'profile_link_color'
p278
g208
sS'profile_image_url'
p279
g209
sS'notifications'
p280
NsS'geo_enabled'
p281
I01
sS'profile_background_color'
p282
g205
sS'profile_banner_url'
p283
g210
sS'profile_background_image_url'
p284
g211
sS'name'
p285
g212
sS'lang'
p286
g213
sS'following'
p287
I00
sS'profile_background_tile'
p288
I00
sS'favourites_count'
p289
I465
sS'screen_name'
p290
g214
sS'url'
p291
g215
sS'created_at'
p292
cdatetime
datetime
p293
(S'\x07\xda\x04\x10\x124\x15\x00\x00\x00'
p294
tp295
Rp296
sS'profile_background_image_url_https'
p297
g206
sS'time_zone'
p298
g217
sS'protected'
p299
I00
sS'default_profile'
p300
I00
sS'is_translator'
p301
I00
sS'listed_count'
p302
I13
sbsS'geo'
p303
NsS'in_reply_to_user_id_str'
p304
NsS'possibly_sensitive'
p305
I00
sg286
g218
sg292
g293
(S'\x07\xdf\x07\r\x15\x05:\x00\x00\x00'
p306
tp307
Rp308
sS'author'
p309
g261
sS'quoted_status_id_str'
p310
g221
sS'filter_level'
p311
g222
sS'in_reply_to_status_id_str'
p312
NsS'place'
p313
g0
(ctweepy.models
Place
p314
g2
Ntp315
Rp316
(dp317
S'full_name'
p318
g225
sg291
g226
sS'country'
p319
g228
sS'place_type'
p320
g230
sS'bounding_box'
p321
g0
(ctweepy.models
BoundingBox
p322
g2
Ntp323
Rp324
(dp325
S'type'
p326
g233
sg246
g234
sbsS'country_code'
p327
g241
sS'attributes'
p328
g243
sg11
g244
sg285
g245
sbsS'retweeted'
p329
I00
sb.