ccopy_reg
_reconstructor
p0
(ctweepy.models
Status
p1
c__builtin__
object
p2
Ntp3
Rp4
(dp5
S'favorited'
p6
I00
sS'contributors'
p7
NsS'truncated'
p8
I00
sS'text'
p9
V@Capco_FinServ greetings from our Zurich office! They have table football here too and fancy artwork AND a Nespresso! http://t.co/uMaCRa4nLb
p10
sS'source_url'
p11
Vhttp://twitter.com/download/iphone
p12
sS'possibly_sensitive'
p13
I00
sS'in_reply_to_status_id'
p14
NsS'user'
p15
g0
(ctweepy.models
User
p16
g2
Ntp17
Rp18
(dp19
S'follow_request_sent'
p20
NsS'profile_use_background_image'
p21
I01
sS'profile_sidebar_fill_color'
p22
V95E8EC
p23
sS'id'
p24
I42630127
sS'verified'
p25
I00
sS'profile_image_url_https'
p26
Vhttps://pbs.twimg.com/profile_images/597505089167720448/pceyNKI0_normal.png
p27
sS'_json'
p28
(dp29
Vfollow_request_sent
p30
NsVprofile_use_background_image
p31
I01
sVdefault_profile_image
p32
I00
sVid
p33
I42630127
sVverified
p34
I00
sVprofile_image_url_https
p35
g27
sVprofile_sidebar_fill_color
p36
g23
sVprofile_text_color
p37
V3C3940
p38
sVfollowers_count
p39
I408
sVprofile_sidebar_border_color
p40
V000000
p41
sVid_str
p42
V42630127
p43
sVprofile_background_color
p44
V1A1B1F
p45
sVlisted_count
p46
I12
sVprofile_background_image_url_https
p47
Vhttps://pbs.twimg.com/profile_background_images/523062200244502528/YeCRnMU8.jpeg
p48
sVutc_offset
p49
I3600
sVstatuses_count
p50
I5359
sVdescription
p51
VWhat rhymes with FIFA? My name.
p52
sVfriends_count
p53
I563
sVlocation
p54
VLondon
p55
sVprofile_link_color
p56
V2FC2EF
p57
sVprofile_image_url
p58
Vhttp://pbs.twimg.com/profile_images/597505089167720448/pceyNKI0_normal.png
p59
sVfollowing
p60
NsVgeo_enabled
p61
I01
sVprofile_banner_url
p62
Vhttps://pbs.twimg.com/profile_banners/42630127/1354013451
p63
sVprofile_background_image_url
p64
Vhttp://pbs.twimg.com/profile_background_images/523062200244502528/YeCRnMU8.jpeg
p65
sVname
p66
VAoife Hogan
p67
sVlang
p68
Ven
p69
sVprofile_background_tile
p70
I01
sVfavourites_count
p71
I153
sVscreen_name
p72
Vlondonaoife
p73
sVnotifications
p74
NsVurl
p75
NsVcreated_at
p76
VTue May 26 14:05:27 +0000 2009
p77
sVcontributors_enabled
p78
I00
sVtime_zone
p79
VLondon
p80
sVprotected
p81
I00
sVdefault_profile
p82
I00
sVis_translator
p83
I00
ssS'contributors_enabled'
p84
I00
sS'profile_text_color'
p85
g38
sS'followers_count'
p86
I408
sS'profile_sidebar_border_color'
p87
g41
sS'location'
p88
g55
sS'default_profile_image'
p89
I00
sS'id_str'
p90
g43
sS'utc_offset'
p91
I3600
sS'statuses_count'
p92
I5359
sS'description'
p93
g52
sS'friends_count'
p94
I563
sS'profile_link_color'
p95
g57
sS'profile_image_url'
p96
g59
sS'notifications'
p97
NsS'geo_enabled'
p98
I01
sS'profile_background_color'
p99
g45
sS'profile_banner_url'
p100
g63
sS'profile_background_image_url'
p101
g65
sS'name'
p102
g67
sS'lang'
p103
g69
sS'following'
p104
I00
sS'profile_background_tile'
p105
I01
sS'favourites_count'
p106
I153
sS'screen_name'
p107
g73
sS'url'
p108
NsS'created_at'
p109
cdatetime
datetime
p110
(S'\x07\xd9\x05\x1a\x0e\x05\x1b\x00\x00\x00'
p111
tp112
Rp113
sS'profile_background_image_url_https'
p114
g48
sS'time_zone'
p115
g80
sS'protected'
p116
I00
sS'default_profile'
p117
I00
sS'is_translator'
p118
I00
sS'listed_count'
p119
I12
sbsS'filter_level'
p120
Vlow
p121
sS'geo'
p122
(dp123
Vtype
p124
VPoint
p125
sVcoordinates
p126
(lp127
F47.389761
aF8.492572
assg24
I620499344194674688
sS'favorite_count'
p128
I0
sS'source'
p129
VTwitter for iPhone
p130
sg103
Ven
p131
sS'author'
p132
g18
sS'in_reply_to_user_id_str'
p133
V179968645
p134
sg28
(dp135
Vcontributors
p136
NsVtruncated
p137
I00
sVtext
p138
g10
sVin_reply_to_status_id
p139
Nsg33
I620499344194674688
sVfavorite_count
p140
I0
sVsource
p141
V<a href="http://twitter.com/download/iphone" rel="nofollow">Twitter for iPhone</a>
p142
sVretweeted
p143
I00
sg126
(dp144
g124
VPoint
p145
sg126
(lp146
F8.492572
aF47.389761
assVtimestamp_ms
p147
V1436773546633
p148
sVentities
p149
(dp150
Vsymbols
p151
(lp152
sVmedia
p153
(lp154
(dp155
Vexpanded_url
p156
Vhttp://twitter.com/londonaoife/status/620499344194674688/photo/1
p157
sVdisplay_url
p158
Vpic.twitter.com/uMaCRa4nLb
p159
sg75
Vhttp://t.co/uMaCRa4nLb
p160
sVmedia_url_https
p161
Vhttps://pbs.twimg.com/media/CJx02jTWIAArXOu.jpg
p162
sg42
V620499329208426496
p163
sVsizes
p164
(dp165
Vsmall
p166
(dp167
Vh
p168
I453
sVresize
p169
Vfit
p170
sVw
p171
I340
ssVlarge
p172
(dp173
g168
I1024
sg169
Vfit
p174
sg171
I768
ssVmedium
p175
(dp176
g168
I800
sg169
Vfit
p177
sg171
I600
ssVthumb
p178
(dp179
g168
I150
sg169
Vcrop
p180
sg171
I150
sssVindices
p181
(lp182
I118
aI140
asg124
Vphoto
p183
sg33
I620499329208426496
sVmedia_url
p184
Vhttp://pbs.twimg.com/media/CJx02jTWIAArXOu.jpg
p185
sasVhashtags
p186
(lp187
sVuser_mentions
p188
(lp189
(dp190
g33
I179968645
sg181
(lp191
I0
aI14
asg42
V179968645
p192
sg72
VCapco_FinServ
p193
sg66
VCapco 
p194
sasVtrends
p195
(lp196
sVurls
p197
(lp198
ssVin_reply_to_screen_name
p199
VCapco_FinServ
p200
sg42
V620499344194674688
p201
sVretweet_count
p202
I0
sVin_reply_to_user_id
p203
I179968645
sVfavorited
p204
I00
sVuser
p205
g29
sVgeo
p206
g123
sVin_reply_to_user_id_str
p207
g134
sVpossibly_sensitive
p208
I00
sg68
g131
sg76
VMon Jul 13 07:45:46 +0000 2015
p209
sVfilter_level
p210
g121
sVin_reply_to_status_id_str
p211
NsVplace
p212
(dp213
Vfull_name
p214
VZurich, Switzerland
p215
sg75
Vhttps://api.twitter.com/1.1/geo/id/3acb748d0f1e9265.json
p216
sVcountry
p217
VSchweiz
p218
sVplace_type
p219
Vcity
p220
sVbounding_box
p221
(dp222
g124
VPolygon
p223
sg126
(lp224
(lp225
(lp226
F8.448081
aF47.320183
aa(lp227
F8.448081
aF47.434721
aa(lp228
F8.625442
aF47.434721
aa(lp229
F8.625442
aF47.320183
aaassVcountry_code
p230
VCH
p231
sVattributes
p232
(dp233
sg33
V3acb748d0f1e9265
p234
sg66
VZurich
p235
ssVextended_entities
p236
(dp237
g153
(lp238
(dp239
g156
Vhttp://twitter.com/londonaoife/status/620499344194674688/photo/1
p240
sg158
Vpic.twitter.com/uMaCRa4nLb
p241
sg75
Vhttp://t.co/uMaCRa4nLb
p242
sg161
Vhttps://pbs.twimg.com/media/CJx02jTWIAArXOu.jpg
p243
sg42
V620499329208426496
p244
sg164
(dp245
g166
(dp246
g168
I453
sg169
Vfit
p247
sg171
I340
ssg172
(dp248
g168
I1024
sg169
Vfit
p249
sg171
I768
ssg175
(dp250
g168
I800
sg169
Vfit
p251
sg171
I600
ssg178
(dp252
g168
I150
sg169
Vcrop
p253
sg171
I150
sssg181
(lp254
I118
aI140
asg124
Vphoto
p255
sg33
I620499329208426496
sg184
Vhttp://pbs.twimg.com/media/CJx02jTWIAArXOu.jpg
p256
sasssS'coordinates'
p257
g144
sS'timestamp_ms'
p258
g148
sS'entities'
p259
g150
sS'in_reply_to_status_id_str'
p260
NsS'in_reply_to_screen_name'
p261
g200
sg90
g201
sS'extended_entities'
p262
g237
sS'retweeted'
p263
I00
sS'place'
p264
g0
(ctweepy.models
Place
p265
g2
Ntp266
Rp267
(dp268
S'full_name'
p269
g215
sg108
g216
sS'country'
p270
g218
sS'place_type'
p271
g220
sS'bounding_box'
p272
g0
(ctweepy.models
BoundingBox
p273
g2
Ntp274
Rp275
(dp276
S'type'
p277
g223
sg257
g224
sbsS'country_code'
p278
g231
sS'attributes'
p279
g233
sg24
g234
sg102
g235
sbsS'retweet_count'
p280
I0
sg109
g110
(S'\x07\xdf\x07\r\x07-.\x00\x00\x00'
p281
tp282
Rp283
sS'in_reply_to_user_id'
p284
I179968645
sb.