ccopy_reg
_reconstructor
p0
(ctweepy.models
Status
p1
c__builtin__
object
p2
Ntp3
Rp4
(dp5
S'favorited'
p6
I00
sS'contributors'
p7
NsS'truncated'
p8
I00
sS'text'
p9
V@Interrail @Eurail @maninSeat61 Thank you- apparently 70+ cities on 7 hills and 20+ in Europe. Plan to blog about my experience @sixtyandme
p10
sS'source_url'
p11
Vhttp://twitter.com
p12
sS'possibly_sensitive'
p13
I00
sS'in_reply_to_status_id'
p14
I619807115398529024
sS'user'
p15
g0
(ctweepy.models
User
p16
g2
Ntp17
Rp18
(dp19
S'follow_request_sent'
p20
NsS'profile_use_background_image'
p21
I01
sS'profile_sidebar_fill_color'
p22
VF3F3F3
p23
sS'id'
p24
I955350608
sS'verified'
p25
I00
sS'profile_image_url_https'
p26
Vhttps://pbs.twimg.com/profile_images/564447504066818048/t1W1zL6G_normal.png
p27
sS'_json'
p28
(dp29
Vfollow_request_sent
p30
NsVprofile_use_background_image
p31
I01
sVdefault_profile_image
p32
I00
sVid
p33
I955350608
sVverified
p34
I00
sVprofile_image_url_https
p35
g27
sVprofile_sidebar_fill_color
p36
g23
sVprofile_text_color
p37
V333333
p38
sVfollowers_count
p39
I3597
sVprofile_sidebar_border_color
p40
VDFDFDF
p41
sVid_str
p42
V955350608
p43
sVprofile_background_color
p44
VEBEBEB
p45
sVlisted_count
p46
I111
sVprofile_background_image_url_https
p47
Vhttps://abs.twimg.com/images/themes/theme7/bg.gif
p48
sVutc_offset
p49
NsVstatuses_count
p50
I12111
sVdescription
p51
VSixty and Me is a global community of 100,000 women over 60. Helping boomer women to live healthy, independent and financially secure lives. By Margaret Manning
p52
sVfriends_count
p53
I1777
sVlocation
p54
VSwitzerland 
p55
sVprofile_link_color
p56
V990000
p57
sVprofile_image_url
p58
Vhttp://pbs.twimg.com/profile_images/564447504066818048/t1W1zL6G_normal.png
p59
sVfollowing
p60
NsVgeo_enabled
p61
I01
sVprofile_banner_url
p62
Vhttps://pbs.twimg.com/profile_banners/955350608/1423417866
p63
sVprofile_background_image_url
p64
Vhttp://abs.twimg.com/images/themes/theme7/bg.gif
p65
sVname
p66
VSixty and Me 
p67
sVlang
p68
Ven
p69
sVprofile_background_tile
p70
I00
sVfavourites_count
p71
I252
sVscreen_name
p72
Vsixtyandme
p73
sVnotifications
p74
NsVurl
p75
Vhttp://sixtyandme.com
p76
sVcreated_at
p77
VSun Nov 18 11:54:24 +0000 2012
p78
sVcontributors_enabled
p79
I00
sVtime_zone
p80
NsVprotected
p81
I00
sVdefault_profile
p82
I00
sVis_translator
p83
I00
ssS'contributors_enabled'
p84
I00
sS'profile_text_color'
p85
g38
sS'followers_count'
p86
I3597
sS'profile_sidebar_border_color'
p87
g41
sS'location'
p88
g55
sS'default_profile_image'
p89
I00
sS'id_str'
p90
g43
sS'utc_offset'
p91
NsS'statuses_count'
p92
I12111
sS'description'
p93
g52
sS'friends_count'
p94
I1777
sS'profile_link_color'
p95
g57
sS'profile_image_url'
p96
g59
sS'notifications'
p97
NsS'geo_enabled'
p98
I01
sS'profile_background_color'
p99
g45
sS'profile_banner_url'
p100
g63
sS'profile_background_image_url'
p101
g65
sS'name'
p102
g67
sS'lang'
p103
g69
sS'following'
p104
I00
sS'profile_background_tile'
p105
I00
sS'favourites_count'
p106
I252
sS'screen_name'
p107
g73
sS'url'
p108
g76
sS'created_at'
p109
cdatetime
datetime
p110
(S'\x07\xdc\x0b\x12\x0b6\x18\x00\x00\x00'
p111
tp112
Rp113
sS'profile_background_image_url_https'
p114
g48
sS'time_zone'
p115
NsS'protected'
p116
I00
sS'default_profile'
p117
I00
sS'is_translator'
p118
I00
sS'listed_count'
p119
I111
sbsS'filter_level'
p120
Vlow
p121
sS'geo'
p122
Nsg24
I619830877632233472
sS'favorite_count'
p123
I0
sS'source'
p124
VTwitter Web Client
p125
sg103
Ven
p126
sS'author'
p127
g18
sS'in_reply_to_user_id_str'
p128
V3364791
p129
sg28
(dp130
Vcontributors
p131
NsVtruncated
p132
I00
sVtext
p133
g10
sVin_reply_to_status_id
p134
I619807115398529024
sg33
I619830877632233472
sVfavorite_count
p135
I0
sVsource
p136
V<a href="http://twitter.com" rel="nofollow">Twitter Web Client</a>
p137
sVretweeted
p138
I00
sVcoordinates
p139
NsVtimestamp_ms
p140
V1436614171785
p141
sVentities
p142
(dp143
Vuser_mentions
p144
(lp145
(dp146
g33
I3364791
sVindices
p147
(lp148
I0
aI10
asg42
V3364791
p149
sg72
VInterrail
p150
sg66
VInterrail.eu
p151
sa(dp152
g33
I88834485
sg147
(lp153
I11
aI18
asg42
V88834485
p154
sg72
VEurail
p155
sg66
VEurail.Com
p156
sa(dp157
g33
I123386364
sg147
(lp158
I19
aI31
asg42
V123386364
p159
sg72
VManInSeat61
p160
sg66
VMan In Seat61
p161
sa(dp162
g33
I955350608
sg147
(lp163
I128
aI139
asg42
V955350608
p164
sg72
Vsixtyandme
p165
sg66
VSixty and Me 
p166
sasVsymbols
p167
(lp168
sVtrends
p169
(lp170
sVhashtags
p171
(lp172
sVurls
p173
(lp174
ssVin_reply_to_screen_name
p175
VInterrail
p176
sg42
V619830877632233472
p177
sVretweet_count
p178
I0
sVin_reply_to_user_id
p179
I3364791
sVfavorited
p180
I00
sVuser
p181
g29
sVgeo
p182
NsVin_reply_to_user_id_str
p183
g129
sVpossibly_sensitive
p184
I00
sg68
g126
sg77
VSat Jul 11 11:29:31 +0000 2015
p185
sVfilter_level
p186
g121
sVin_reply_to_status_id_str
p187
V619807115398529024
p188
sVplace
p189
(dp190
Vfull_name
p191
VZurich, Switzerland
p192
sg75
Vhttps://api.twitter.com/1.1/geo/id/3acb748d0f1e9265.json
p193
sVcountry
p194
VSchweiz
p195
sVplace_type
p196
Vcity
p197
sVbounding_box
p198
(dp199
Vtype
p200
VPolygon
p201
sg139
(lp202
(lp203
(lp204
F8.448081
aF47.320183
aa(lp205
F8.448081
aF47.434721
aa(lp206
F8.625442
aF47.434721
aa(lp207
F8.625442
aF47.320183
aaassVcountry_code
p208
VCH
p209
sVattributes
p210
(dp211
sg33
V3acb748d0f1e9265
p212
sg66
VZurich
p213
sssS'coordinates'
p214
NsS'timestamp_ms'
p215
g141
sS'entities'
p216
g143
sS'in_reply_to_status_id_str'
p217
g188
sS'in_reply_to_screen_name'
p218
g176
sg90
g177
sS'retweeted'
p219
I00
sS'place'
p220
g0
(ctweepy.models
Place
p221
g2
Ntp222
Rp223
(dp224
S'full_name'
p225
g192
sg108
g193
sS'country'
p226
g195
sS'place_type'
p227
g197
sS'bounding_box'
p228
g0
(ctweepy.models
BoundingBox
p229
g2
Ntp230
Rp231
(dp232
S'type'
p233
g201
sg214
g202
sbsS'country_code'
p234
g209
sS'attributes'
p235
g211
sg24
g212
sg102
g213
sbsS'retweet_count'
p236
I0
sg109
g110
(S'\x07\xdf\x07\x0b\x0b\x1d\x1f\x00\x00\x00'
p237
tp238
Rp239
sS'in_reply_to_user_id'
p240
I3364791
sb.