ccopy_reg
_reconstructor
p0
(ctweepy.models
Status
p1
c__builtin__
object
p2
Ntp3
Rp4
(dp5
S'contributors'
p6
NsS'truncated'
p7
I00
sS'text'
p8
VNoted! https://t.co/58hek5Va1s
p9
sS'in_reply_to_status_id'
p10
NsS'id'
p11
I619018429081763840
sS'favorite_count'
p12
I0
sS'entities'
p13
(dp14
Vuser_mentions
p15
(lp16
sVsymbols
p17
(lp18
sVtrends
p19
(lp20
sVhashtags
p21
(lp22
sVurls
p23
(lp24
(dp25
Vurl
p26
Vhttps://t.co/58hek5Va1s
p27
sVindices
p28
(lp29
I7
aI30
asVexpanded_url
p30
Vhttps://twitter.com/4eyedmonk/status/619018272181219328
p31
sVdisplay_url
p32
Vtwitter.com/4eyedmonk/stat\u2026
p33
sassS'quoted_status_id'
p34
I619018272181219328
sS'_json'
p35
(dp36
Vcontributors
p37
NsVtruncated
p38
I00
sVtext
p39
g9
sVin_reply_to_status_id
p40
NsVid
p41
I619018429081763840
sVfavorite_count
p42
I0
sVsource
p43
V<a href="http://twitter.com/download/iphone" rel="nofollow">Twitter for iPhone</a>
p44
sVquoted_status_id
p45
I619018272181219328
sVretweeted
p46
I00
sVcoordinates
p47
NsVtimestamp_ms
p48
V1436420468956
p49
sVquoted_status
p50
(dp51
g37
Nsg38
I00
sg39
VAgbaje\u2019ll soon be declared Lagos gov \u2013 PDP http://t.co/zqJjJ9JmS0
p52
sg40
Nsg41
I619018272181219328
sg42
I0
sg43
V<a href="http://www.apple.com" rel="nofollow">iOS</a>
p53
sg46
I00
sg47
NsVentities
p54
(dp55
g15
(lp56
sg17
(lp57
sg19
(lp58
sg21
(lp59
sg23
(lp60
(dp61
g26
Vhttp://t.co/zqJjJ9JmS0
p62
sg28
(lp63
I43
aI65
asg30
Vhttp://www.punchng.com/politics/agbajell-soon-be-declared-lagos-gov-pdp/
p64
sg32
Vpunchng.com/politics/agbaj\u2026
p65
sassVin_reply_to_screen_name
p66
NsVid_str
p67
V619018272181219328
p68
sVretweet_count
p69
I0
sVin_reply_to_user_id
p70
NsVfavorited
p71
I00
sVuser
p72
(dp73
Vfollow_request_sent
p74
NsVprofile_use_background_image
p75
I01
sVdefault_profile_image
p76
I00
sg41
I57468644
sVverified
p77
I00
sVprofile_image_url_https
p78
Vhttps://pbs.twimg.com/profile_images/617447712229867521/PRGbyZI7_normal.jpg
p79
sVprofile_sidebar_fill_color
p80
VC0DFEC
p81
sVprofile_text_color
p82
V333333
p83
sVfollowers_count
p84
I19272
sVprofile_sidebar_border_color
p85
VFFFFFF
p86
sg67
V57468644
p87
sVprofile_background_color
p88
VFFFFFF
p89
sVlisted_count
p90
I119
sVprofile_background_image_url_https
p91
Vhttps://pbs.twimg.com/profile_background_images/491864662531506177/-NSADVYY.jpeg
p92
sVutc_offset
p93
I3600
sVstatuses_count
p94
I225169
sVdescription
p95
VLeft leaning Nigerian Yibo god. Fuego. Classic man. All his opinions are his, not those of Monks.
p96
sVfriends_count
p97
I4964
sVlocation
p98
VThe Epicenter of Nigeria
p99
sVprofile_link_color
p100
V0084B4
p101
sVprofile_image_url
p102
Vhttp://pbs.twimg.com/profile_images/617447712229867521/PRGbyZI7_normal.jpg
p103
sVfollowing
p104
NsVgeo_enabled
p105
I01
sVprofile_banner_url
p106
Vhttps://pbs.twimg.com/profile_banners/57468644/1433754163
p107
sVprofile_background_image_url
p108
Vhttp://pbs.twimg.com/profile_background_images/491864662531506177/-NSADVYY.jpeg
p109
sVname
p110
VHENRY Okelue
p111
sVlang
p112
Ven
p113
sVprofile_background_tile
p114
I00
sVfavourites_count
p115
I968
sVscreen_name
p116
V4eyedmonk
p117
sVnotifications
p118
Nsg26
Vhttp://wordofmonk.wordpress.com
p119
sVcreated_at
p120
VThu Jul 16 22:35:48 +0000 2009
p121
sVcontributors_enabled
p122
I00
sVtime_zone
p123
VWest Central Africa
p124
sVprotected
p125
I00
sVdefault_profile
p126
I00
sVis_translator
p127
I00
ssVgeo
p128
NsVin_reply_to_user_id_str
p129
NsVpossibly_sensitive
p130
I00
sg112
Vro
p131
sg120
VThu Jul 09 05:40:31 +0000 2015
p132
sVfilter_level
p133
Vlow
p134
sVin_reply_to_status_id_str
p135
NsVplace
p136
Nssg54
g14
sg66
Nsg67
V619018429081763840
p137
sg69
I0
sg70
Nsg71
I00
sg72
(dp138
g74
Nsg75
I01
sg76
I00
sg41
I271361465
sg77
I00
sg78
Vhttps://pbs.twimg.com/profile_images/605507470363099136/ML2klFEV_normal.jpg
p139
sg80
VDDEEF6
p140
sg82
V333333
p141
sg84
I431
sg85
VC0DEED
p142
sg67
V271361465
p143
sg88
VC0DEED
p144
sg90
I25
sg91
Vhttps://abs.twimg.com/images/themes/theme1/bg.png
p145
sg93
Nsg94
I19229
sg95
VConsummate PR and Corporate Communication buff. Proudly flying Djembe communications flag across the West Africa region
p146
sg97
I595
sg98
V
p147
sg100
V0084B4
p148
sg102
Vhttp://pbs.twimg.com/profile_images/605507470363099136/ML2klFEV_normal.jpg
p149
sg104
Nsg105
I01
sg106
Vhttps://pbs.twimg.com/profile_banners/271361465/1424263426
p150
sg108
Vhttp://abs.twimg.com/images/themes/theme1/bg.png
p151
sg110
VOnome Okwah
p152
sg112
Ven
p153
sg114
I00
sg115
I44
sg116
Vomookwah
p154
sg118
Nsg26
Nsg120
VThu Mar 24 10:38:08 +0000 2011
p155
sg122
I00
sg123
Nsg125
I00
sg126
I01
sg127
I00
ssg128
Nsg129
Nsg130
I00
sg112
Ven
p156
sg120
VThu Jul 09 05:41:08 +0000 2015
p157
sVquoted_status_id_str
p158
V619018272181219328
p159
sg133
Vlow
p160
sg135
Nsg136
(dp161
Vfull_name
p162
VZurich, Switzerland
p163
sg26
Vhttps://api.twitter.com/1.1/geo/id/3acb748d0f1e9265.json
p164
sVcountry
p165
VSchweiz
p166
sVplace_type
p167
Vcity
p168
sVbounding_box
p169
(dp170
Vtype
p171
VPolygon
p172
sg47
(lp173
(lp174
(lp175
F8.448081
aF47.320183
aa(lp176
F8.448081
aF47.434721
aa(lp177
F8.625442
aF47.434721
aa(lp178
F8.625442
aF47.320183
aaassVcountry_code
p179
VCH
p180
sVattributes
p181
(dp182
sg41
V3acb748d0f1e9265
p183
sg110
VZurich
p184
sssS'coordinates'
p185
NsS'timestamp_ms'
p186
g49
sS'quoted_status'
p187
g51
sS'source'
p188
VTwitter for iPhone
p189
sS'in_reply_to_screen_name'
p190
NsS'id_str'
p191
g137
sS'retweet_count'
p192
I0
sS'in_reply_to_user_id'
p193
NsS'favorited'
p194
I00
sS'source_url'
p195
Vhttp://twitter.com/download/iphone
p196
sS'user'
p197
g0
(ctweepy.models
User
p198
g2
Ntp199
Rp200
(dp201
S'follow_request_sent'
p202
NsS'profile_use_background_image'
p203
I01
sS'profile_sidebar_fill_color'
p204
g140
sg11
I271361465
sS'verified'
p205
I00
sS'profile_image_url_https'
p206
g139
sg35
g138
sS'contributors_enabled'
p207
I00
sS'profile_text_color'
p208
g141
sS'followers_count'
p209
I431
sS'profile_sidebar_border_color'
p210
g142
sS'location'
p211
g147
sS'default_profile_image'
p212
I00
sg191
g143
sS'utc_offset'
p213
NsS'statuses_count'
p214
I19229
sS'description'
p215
g146
sS'friends_count'
p216
I595
sS'profile_link_color'
p217
g148
sS'profile_image_url'
p218
g149
sS'notifications'
p219
NsS'geo_enabled'
p220
I01
sS'profile_background_color'
p221
g144
sS'profile_banner_url'
p222
g150
sS'profile_background_image_url'
p223
g151
sS'name'
p224
g152
sS'lang'
p225
g153
sS'following'
p226
I00
sS'profile_background_tile'
p227
I00
sS'favourites_count'
p228
I44
sS'screen_name'
p229
g154
sS'url'
p230
NsS'created_at'
p231
cdatetime
datetime
p232
(S'\x07\xdb\x03\x18\n&\x08\x00\x00\x00'
p233
tp234
Rp235
sS'profile_background_image_url_https'
p236
g145
sS'time_zone'
p237
NsS'protected'
p238
I00
sS'default_profile'
p239
I01
sS'is_translator'
p240
I00
sS'listed_count'
p241
I25
sbsS'geo'
p242
NsS'in_reply_to_user_id_str'
p243
NsS'possibly_sensitive'
p244
I00
sg225
g156
sg231
g232
(S'\x07\xdf\x07\t\x05)\x08\x00\x00\x00'
p245
tp246
Rp247
sS'author'
p248
g200
sS'quoted_status_id_str'
p249
g159
sS'filter_level'
p250
g160
sS'in_reply_to_status_id_str'
p251
NsS'place'
p252
g0
(ctweepy.models
Place
p253
g2
Ntp254
Rp255
(dp256
S'full_name'
p257
g163
sg230
g164
sS'country'
p258
g166
sS'place_type'
p259
g168
sS'bounding_box'
p260
g0
(ctweepy.models
BoundingBox
p261
g2
Ntp262
Rp263
(dp264
S'type'
p265
g172
sg185
g173
sbsS'country_code'
p266
g180
sS'attributes'
p267
g182
sg11
g183
sg224
g184
sbsS'retweeted'
p268
I00
sb.