ccopy_reg
_reconstructor
p0
(ctweepy.models
Status
p1
c__builtin__
object
p2
Ntp3
Rp4
(dp5
S'favorited'
p6
I00
sS'contributors'
p7
NsS'truncated'
p8
I00
sS'text'
p9
VLa vida es eso que pasa transitoriamente \u263c\u263c\u263c #enjoy http://t.co/mcLAyOamMY
p10
sS'source_url'
p11
Vhttp://twitter.com
p12
sS'possibly_sensitive'
p13
I00
sS'in_reply_to_status_id'
p14
NsS'user'
p15
g0
(ctweepy.models
User
p16
g2
Ntp17
Rp18
(dp19
S'follow_request_sent'
p20
NsS'profile_use_background_image'
p21
I01
sS'profile_sidebar_fill_color'
p22
VB4CC16
p23
sS'id'
p24
I153127687
sS'verified'
p25
I00
sS'profile_image_url_https'
p26
Vhttps://pbs.twimg.com/profile_images/615809757283119104/NXYoAvr6_normal.jpg
p27
sS'_json'
p28
(dp29
Vfollow_request_sent
p30
NsVprofile_use_background_image
p31
I01
sVdefault_profile_image
p32
I00
sVid
p33
I153127687
sVverified
p34
I00
sVprofile_image_url_https
p35
g27
sVprofile_sidebar_fill_color
p36
g23
sVprofile_text_color
p37
V666666
p38
sVfollowers_count
p39
I894
sVprofile_sidebar_border_color
p40
V000000
p41
sVid_str
p42
V153127687
p43
sVprofile_background_color
p44
V2D6BCF
p45
sVlisted_count
p46
I40
sVprofile_background_image_url_https
p47
Vhttps://pbs.twimg.com/profile_background_images/378800000177830313/xa5yTMax.jpeg
p48
sVutc_offset
p49
I3600
sVstatuses_count
p50
I4833
sVdescription
p51
VFreelance Journalist & Advertising Professional. Founder @UmaMultimedia. Ex Co-founder @Synergia3LP. \u000a#Content #Coworking #Entrepreneurship #Travelling
p52
sVfriends_count
p53
I483
sVlocation
p54
VBolonia, Emilia Romana
p55
sVprofile_link_color
p56
VDD2E44
p57
sVprofile_image_url
p58
Vhttp://pbs.twimg.com/profile_images/615809757283119104/NXYoAvr6_normal.jpg
p59
sVfollowing
p60
NsVgeo_enabled
p61
I01
sVprofile_banner_url
p62
Vhttps://pbs.twimg.com/profile_banners/153127687/1435655657
p63
sVprofile_background_image_url
p64
Vhttp://pbs.twimg.com/profile_background_images/378800000177830313/xa5yTMax.jpeg
p65
sVname
p66
VBelen De Perez
p67
sVlang
p68
Ves
p69
sVprofile_background_tile
p70
I01
sVfavourites_count
p71
I103
sVscreen_name
p72
Vbelendp
p73
sVnotifications
p74
NsVurl
p75
Vhttps://www.linkedin.com/in/belendp
p76
sVcreated_at
p77
VMon Jun 07 19:15:44 +0000 2010
p78
sVcontributors_enabled
p79
I00
sVtime_zone
p80
VLondon
p81
sVprotected
p82
I00
sVdefault_profile
p83
I00
sVis_translator
p84
I00
ssS'contributors_enabled'
p85
I00
sS'profile_text_color'
p86
g38
sS'followers_count'
p87
I894
sS'profile_sidebar_border_color'
p88
g41
sS'location'
p89
g55
sS'default_profile_image'
p90
I00
sS'id_str'
p91
g43
sS'utc_offset'
p92
I3600
sS'statuses_count'
p93
I4833
sS'description'
p94
VFreelance Journalist & Advertising Professional. Founder @UmaMultimedia. Ex Co-founder @Synergia3LP. \u000a#Content #Coworking #Entrepreneurship #Travelling
p95
sS'friends_count'
p96
I483
sS'profile_link_color'
p97
g57
sS'profile_image_url'
p98
g59
sS'notifications'
p99
NsS'geo_enabled'
p100
I01
sS'profile_background_color'
p101
g45
sS'profile_banner_url'
p102
g63
sS'profile_background_image_url'
p103
g65
sS'name'
p104
g67
sS'lang'
p105
g69
sS'following'
p106
I00
sS'profile_background_tile'
p107
I01
sS'favourites_count'
p108
I103
sS'screen_name'
p109
g73
sS'url'
p110
g76
sS'created_at'
p111
cdatetime
datetime
p112
(S'\x07\xda\x06\x07\x13\x0f,\x00\x00\x00'
p113
tp114
Rp115
sS'profile_background_image_url_https'
p116
g48
sS'time_zone'
p117
g81
sS'protected'
p118
I00
sS'default_profile'
p119
I00
sS'is_translator'
p120
I00
sS'listed_count'
p121
I40
sbsS'filter_level'
p122
Vlow
p123
sS'geo'
p124
Nsg24
I619107511891816448
sS'favorite_count'
p125
I0
sS'source'
p126
VTwitter Web Client
p127
sg105
Ves
p128
sS'author'
p129
g18
sS'in_reply_to_user_id_str'
p130
Nsg28
(dp131
Vcontributors
p132
NsVtruncated
p133
I00
sVtext
p134
g10
sVin_reply_to_status_id
p135
Nsg33
I619107511891816448
sVfavorite_count
p136
I0
sVsource
p137
V<a href="http://twitter.com" rel="nofollow">Twitter Web Client</a>
p138
sVretweeted
p139
I00
sVcoordinates
p140
NsVtimestamp_ms
p141
V1436441707953
p142
sVentities
p143
(dp144
Vsymbols
p145
(lp146
sVmedia
p147
(lp148
(dp149
Vexpanded_url
p150
Vhttp://twitter.com/belendp/status/619107511891816448/photo/1
p151
sVdisplay_url
p152
Vpic.twitter.com/mcLAyOamMY
p153
sg75
Vhttp://t.co/mcLAyOamMY
p154
sVmedia_url_https
p155
Vhttps://pbs.twimg.com/media/CJeDACbWIAQNouK.jpg
p156
sg42
V619107510461538308
p157
sVsizes
p158
(dp159
Vsmall
p160
(dp161
Vh
p162
I191
sVresize
p163
Vfit
p164
sVw
p165
I340
ssVlarge
p166
(dp167
g162
I576
sg163
Vfit
p168
sg165
I1024
ssVmedium
p169
(dp170
g162
I337
sg163
Vfit
p171
sg165
I600
ssVthumb
p172
(dp173
g162
I150
sg163
Vcrop
p174
sg165
I150
sssVindices
p175
(lp176
I52
aI74
asVtype
p177
Vphoto
p178
sg33
I619107510461538308
sVmedia_url
p179
Vhttp://pbs.twimg.com/media/CJeDACbWIAQNouK.jpg
p180
sasVhashtags
p181
(lp182
(dp183
g175
(lp184
I45
aI51
asg134
Venjoy
p185
sasVuser_mentions
p186
(lp187
sVtrends
p188
(lp189
sVurls
p190
(lp191
ssVin_reply_to_screen_name
p192
Nsg42
V619107511891816448
p193
sVretweet_count
p194
I0
sVin_reply_to_user_id
p195
NsVfavorited
p196
I00
sVuser
p197
g29
sVgeo
p198
NsVin_reply_to_user_id_str
p199
NsVpossibly_sensitive
p200
I00
sg68
g128
sg77
VThu Jul 09 11:35:07 +0000 2015
p201
sVfilter_level
p202
g123
sVin_reply_to_status_id_str
p203
NsVplace
p204
(dp205
Vfull_name
p206
VZurich, Suiza
p207
sg75
Vhttps://api.twitter.com/1.1/geo/id/3acb748d0f1e9265.json
p208
sVcountry
p209
VSchweiz
p210
sVplace_type
p211
Vcity
p212
sVbounding_box
p213
(dp214
g177
VPolygon
p215
sg140
(lp216
(lp217
(lp218
F8.448081
aF47.320183
aa(lp219
F8.448081
aF47.434721
aa(lp220
F8.625442
aF47.434721
aa(lp221
F8.625442
aF47.320183
aaassVcountry_code
p222
VCH
p223
sVattributes
p224
(dp225
sg33
V3acb748d0f1e9265
p226
sg66
VZurich
p227
ssVextended_entities
p228
(dp229
g147
(lp230
(dp231
g150
Vhttp://twitter.com/belendp/status/619107511891816448/photo/1
p232
sg152
Vpic.twitter.com/mcLAyOamMY
p233
sg75
Vhttp://t.co/mcLAyOamMY
p234
sg155
Vhttps://pbs.twimg.com/media/CJeDACbWIAQNouK.jpg
p235
sg42
V619107510461538308
p236
sg158
(dp237
g160
(dp238
g162
I191
sg163
Vfit
p239
sg165
I340
ssg166
(dp240
g162
I576
sg163
Vfit
p241
sg165
I1024
ssg169
(dp242
g162
I337
sg163
Vfit
p243
sg165
I600
ssg172
(dp244
g162
I150
sg163
Vcrop
p245
sg165
I150
sssg175
(lp246
I52
aI74
asg177
Vphoto
p247
sg33
I619107510461538308
sg179
Vhttp://pbs.twimg.com/media/CJeDACbWIAQNouK.jpg
p248
sasssS'coordinates'
p249
NsS'timestamp_ms'
p250
g142
sS'entities'
p251
g144
sS'in_reply_to_status_id_str'
p252
NsS'in_reply_to_screen_name'
p253
Nsg91
g193
sS'extended_entities'
p254
g229
sS'retweeted'
p255
I00
sS'place'
p256
g0
(ctweepy.models
Place
p257
g2
Ntp258
Rp259
(dp260
S'full_name'
p261
g207
sg110
g208
sS'country'
p262
g210
sS'place_type'
p263
g212
sS'bounding_box'
p264
g0
(ctweepy.models
BoundingBox
p265
g2
Ntp266
Rp267
(dp268
S'type'
p269
g215
sg249
g216
sbsS'country_code'
p270
g223
sS'attributes'
p271
g225
sg24
g226
sg104
g227
sbsS'retweet_count'
p272
I0
sg111
g112
(S'\x07\xdf\x07\t\x0b#\x07\x00\x00\x00'
p273
tp274
Rp275
sS'in_reply_to_user_id'
p276
Nsb.