ccopy_reg
_reconstructor
p0
(ctweepy.models
Status
p1
c__builtin__
object
p2
Ntp3
Rp4
(dp5
S'favorited'
p6
I00
sS'contributors'
p7
NsS'truncated'
p8
I00
sS'text'
p9
VEnjoying a Saturday afternoon in Zurich... (@ Landiwiese) https://t.co/TPPQ1lwXiu http://t.co/S7hedESARJ
p10
sS'source_url'
p11
Vhttp://foursquare.com
p12
sS'possibly_sensitive'
p13
I00
sS'in_reply_to_status_id'
p14
NsS'user'
p15
g0
(ctweepy.models
User
p16
g2
Ntp17
Rp18
(dp19
S'follow_request_sent'
p20
NsS'profile_use_background_image'
p21
I01
sS'profile_sidebar_fill_color'
p22
VFDFAF3
p23
sS'id'
p24
I10839772
sS'verified'
p25
I00
sS'profile_image_url_https'
p26
Vhttps://pbs.twimg.com/profile_images/562993773/hf-1-300x300_normal.jpg
p27
sS'_json'
p28
(dp29
Vfollow_request_sent
p30
NsVprofile_use_background_image
p31
I01
sVdefault_profile_image
p32
I00
sVid
p33
I10839772
sVverified
p34
I00
sVprofile_image_url_https
p35
g27
sVprofile_sidebar_fill_color
p36
g23
sVprofile_text_color
p37
V000000
p38
sVfollowers_count
p39
I2246
sVprofile_sidebar_border_color
p40
VFFFFFF
p41
sVid_str
p42
V10839772
p43
sVprofile_background_color
p44
VFDFAF3
p45
sVlisted_count
p46
I196
sVprofile_background_image_url_https
p47
Vhttps://pbs.twimg.com/profile_background_images/767766657/419cdabf628e572f0132c8b4294eceb3.jpeg
p48
sVutc_offset
p49
I7200
sVstatuses_count
p50
I31163
sVdescription
p51
V#UX Evangelist. Leading #Mobile @AXA Switzerland. Facilitating #Telematics and #Connected #IoT. My opinions are my own. Are you able to cross boundaries?
p52
sVfriends_count
p53
I2346
sVlocation
p54
VSwitzerland
p55
sVprofile_link_color
p56
VCC0000
p57
sVprofile_image_url
p58
Vhttp://pbs.twimg.com/profile_images/562993773/hf-1-300x300_normal.jpg
p59
sVfollowing
p60
NsVgeo_enabled
p61
I01
sVprofile_banner_url
p62
Vhttps://pbs.twimg.com/profile_banners/10839772/1436198472
p63
sVprofile_background_image_url
p64
Vhttp://pbs.twimg.com/profile_background_images/767766657/419cdabf628e572f0132c8b4294eceb3.jpeg
p65
sVname
p66
VHarald Felgner
p67
sVlang
p68
Ven
p69
sVprofile_background_tile
p70
I01
sVfavourites_count
p71
I994
sVscreen_name
p72
Vharaldfelgner
p73
sVnotifications
p74
NsVurl
p75
Vhttp://linkedin.com/in/haraldf
p76
sVcreated_at
p77
VTue Dec 04 15:05:16 +0000 2007
p78
sVcontributors_enabled
p79
I00
sVtime_zone
p80
VParis
p81
sVprotected
p82
I00
sVdefault_profile
p83
I00
sVis_translator
p84
I00
ssS'contributors_enabled'
p85
I00
sS'profile_text_color'
p86
g38
sS'followers_count'
p87
I2246
sS'profile_sidebar_border_color'
p88
g41
sS'location'
p89
g55
sS'default_profile_image'
p90
I00
sS'id_str'
p91
g43
sS'utc_offset'
p92
I7200
sS'statuses_count'
p93
I31163
sS'description'
p94
g52
sS'friends_count'
p95
I2346
sS'profile_link_color'
p96
g57
sS'profile_image_url'
p97
g59
sS'notifications'
p98
NsS'geo_enabled'
p99
I01
sS'profile_background_color'
p100
g45
sS'profile_banner_url'
p101
g63
sS'profile_background_image_url'
p102
g65
sS'name'
p103
g67
sS'lang'
p104
g69
sS'following'
p105
I00
sS'profile_background_tile'
p106
I01
sS'favourites_count'
p107
I994
sS'screen_name'
p108
g73
sS'url'
p109
g76
sS'created_at'
p110
cdatetime
datetime
p111
(S'\x07\xd7\x0c\x04\x0f\x05\x10\x00\x00\x00'
p112
tp113
Rp114
sS'profile_background_image_url_https'
p115
g48
sS'time_zone'
p116
g81
sS'protected'
p117
I00
sS'default_profile'
p118
I00
sS'is_translator'
p119
I00
sS'listed_count'
p120
I196
sbsS'filter_level'
p121
Vlow
p122
sS'geo'
p123
(dp124
Vtype
p125
VPoint
p126
sVcoordinates
p127
(lp128
F47.34945
aF8.534838
assg24
I620226314218414080
sS'favorite_count'
p129
I0
sS'source'
p130
VFoursquare
p131
sg104
Ven
p132
sS'author'
p133
g18
sS'in_reply_to_user_id_str'
p134
Nsg28
(dp135
Vcontributors
p136
NsVtruncated
p137
I00
sVtext
p138
g10
sVin_reply_to_status_id
p139
Nsg33
I620226314218414080
sVfavorite_count
p140
I0
sVsource
p141
V<a href="http://foursquare.com" rel="nofollow">Foursquare</a>
p142
sVretweeted
p143
I00
sg127
(dp144
g125
VPoint
p145
sg127
(lp146
F8.534838
aF47.34945
assVtimestamp_ms
p147
V1436708451214
p148
sVentities
p149
(dp150
Vsymbols
p151
(lp152
sVmedia
p153
(lp154
(dp155
Vexpanded_url
p156
Vhttp://twitter.com/haraldfelgner/status/620226314218414080/photo/1
p157
sVdisplay_url
p158
Vpic.twitter.com/S7hedESARJ
p159
sg75
Vhttp://t.co/S7hedESARJ
p160
sVmedia_url_https
p161
Vhttps://pbs.twimg.com/media/CJt8i-tWwAAcmWT.jpg
p162
sg42
V620226314084204544
p163
sVsizes
p164
(dp165
Vsmall
p166
(dp167
Vh
p168
I109
sVresize
p169
Vfit
p170
sVw
p171
I340
ssVlarge
p172
(dp173
g168
I329
sg169
Vfit
p174
sg171
I1024
ssVmedium
p175
(dp176
g168
I193
sg169
Vfit
p177
sg171
I600
ssVthumb
p178
(dp179
g168
I150
sg169
Vcrop
p180
sg171
I150
sssVindices
p181
(lp182
I82
aI104
asg125
Vphoto
p183
sg33
I620226314084204544
sVmedia_url
p184
Vhttp://pbs.twimg.com/media/CJt8i-tWwAAcmWT.jpg
p185
sasVhashtags
p186
(lp187
sVuser_mentions
p188
(lp189
sVtrends
p190
(lp191
sVurls
p192
(lp193
(dp194
g75
Vhttps://t.co/TPPQ1lwXiu
p195
sg181
(lp196
I58
aI81
asg156
Vhttps://www.swarmapp.com/c/kvlXFJH4m3S
p197
sg158
Vswarmapp.com/c/kvlXFJH4m3S
p198
sassVin_reply_to_screen_name
p199
Nsg42
V620226314218414080
p200
sVretweet_count
p201
I0
sVin_reply_to_user_id
p202
NsVfavorited
p203
I00
sVuser
p204
g29
sVgeo
p205
g124
sVin_reply_to_user_id_str
p206
NsVpossibly_sensitive
p207
I00
sg68
g132
sg77
VSun Jul 12 13:40:51 +0000 2015
p208
sVfilter_level
p209
g122
sVin_reply_to_status_id_str
p210
NsVplace
p211
(dp212
Vfull_name
p213
VZurich, Switzerland
p214
sg75
Vhttps://api.twitter.com/1.1/geo/id/3acb748d0f1e9265.json
p215
sVcountry
p216
VSchweiz
p217
sVplace_type
p218
Vcity
p219
sVbounding_box
p220
(dp221
g125
VPolygon
p222
sg127
(lp223
(lp224
(lp225
F8.448081
aF47.320183
aa(lp226
F8.448081
aF47.434721
aa(lp227
F8.625442
aF47.434721
aa(lp228
F8.625442
aF47.320183
aaassVcountry_code
p229
VCH
p230
sVattributes
p231
(dp232
sg33
V3acb748d0f1e9265
p233
sg66
VZurich
p234
ssVextended_entities
p235
(dp236
g153
(lp237
(dp238
g156
Vhttp://twitter.com/haraldfelgner/status/620226314218414080/photo/1
p239
sg158
Vpic.twitter.com/S7hedESARJ
p240
sg75
Vhttp://t.co/S7hedESARJ
p241
sg161
Vhttps://pbs.twimg.com/media/CJt8i-tWwAAcmWT.jpg
p242
sg42
V620226314084204544
p243
sg164
(dp244
g166
(dp245
g168
I109
sg169
Vfit
p246
sg171
I340
ssg172
(dp247
g168
I329
sg169
Vfit
p248
sg171
I1024
ssg175
(dp249
g168
I193
sg169
Vfit
p250
sg171
I600
ssg178
(dp251
g168
I150
sg169
Vcrop
p252
sg171
I150
sssg181
(lp253
I82
aI104
asg125
Vphoto
p254
sg33
I620226314084204544
sg184
Vhttp://pbs.twimg.com/media/CJt8i-tWwAAcmWT.jpg
p255
sasssS'coordinates'
p256
g144
sS'timestamp_ms'
p257
g148
sS'entities'
p258
g150
sS'in_reply_to_status_id_str'
p259
NsS'in_reply_to_screen_name'
p260
Nsg91
g200
sS'extended_entities'
p261
g236
sS'retweeted'
p262
I00
sS'place'
p263
g0
(ctweepy.models
Place
p264
g2
Ntp265
Rp266
(dp267
S'full_name'
p268
g214
sg109
g215
sS'country'
p269
g217
sS'place_type'
p270
g219
sS'bounding_box'
p271
g0
(ctweepy.models
BoundingBox
p272
g2
Ntp273
Rp274
(dp275
S'type'
p276
g222
sg256
g223
sbsS'country_code'
p277
g230
sS'attributes'
p278
g232
sg24
g233
sg103
g234
sbsS'retweet_count'
p279
I0
sg110
g111
(S'\x07\xdf\x07\x0c\r(3\x00\x00\x00'
p280
tp281
Rp282
sS'in_reply_to_user_id'
p283
Nsb.