ccopy_reg
_reconstructor
p0
(ctweepy.models
Status
p1
c__builtin__
object
p2
Ntp3
Rp4
(dp5
S'favorited'
p6
I00
sS'contributors'
p7
NsS'truncated'
p8
I00
sS'text'
p9
VMost expensive Maccas I've had in my life! Close to $30 AUD. Welcome to Switzerland.\u000a\u000a#maccas\u2026 https://t.co/wcGmL3KaiW
p10
sS'source_url'
p11
Vhttp://instagram.com
p12
sS'possibly_sensitive'
p13
I00
sS'in_reply_to_status_id'
p14
NsS'user'
p15
g0
(ctweepy.models
User
p16
g2
Ntp17
Rp18
(dp19
S'follow_request_sent'
p20
NsS'profile_use_background_image'
p21
I01
sS'profile_sidebar_fill_color'
p22
VC295EA
p23
sS'id'
p24
I23143910
sS'verified'
p25
I00
sS'profile_image_url_https'
p26
Vhttps://pbs.twimg.com/profile_images/558216412674535425/L5RdR2Pu_normal.jpeg
p27
sS'_json'
p28
(dp29
Vfollow_request_sent
p30
NsVprofile_use_background_image
p31
I01
sVdefault_profile_image
p32
I00
sVid
p33
I23143910
sVverified
p34
I00
sVprofile_image_url_https
p35
g27
sVprofile_sidebar_fill_color
p36
g23
sVprofile_text_color
p37
V3D1957
p38
sVfollowers_count
p39
I107
sVprofile_sidebar_border_color
p40
V4C2786
p41
sVid_str
p42
V23143910
p43
sVprofile_background_color
p44
VF0EFE8
p45
sVlisted_count
p46
I10
sVprofile_background_image_url_https
p47
Vhttps://pbs.twimg.com/profile_background_images/558217636253679617/1_ZhbXnL.png
p48
sVutc_offset
p49
I36000
sVstatuses_count
p50
I6171
sVdescription
p51
Vfood. life. psoriasis. whatever.
p52
sVfriends_count
p53
I62
sVlocation
p54
VSydney, Australia
p55
sVprofile_link_color
p56
V720101
p57
sVprofile_image_url
p58
Vhttp://pbs.twimg.com/profile_images/558216412674535425/L5RdR2Pu_normal.jpeg
p59
sVfollowing
p60
NsVgeo_enabled
p61
I01
sVprofile_banner_url
p62
Vhttps://pbs.twimg.com/profile_banners/23143910/1421924118
p63
sVprofile_background_image_url
p64
Vhttp://pbs.twimg.com/profile_background_images/558217636253679617/1_ZhbXnL.png
p65
sVname
p66
VRuby Yee
p67
sVlang
p68
Ven
p69
sVprofile_background_tile
p70
I01
sVfavourites_count
p71
I485
sVscreen_name
p72
Vrubywly
p73
sVnotifications
p74
NsVurl
p75
Vhttp://www.rubyyee.com
p76
sVcreated_at
p77
VSat Mar 07 00:43:24 +0000 2009
p78
sVcontributors_enabled
p79
I00
sVtime_zone
p80
VSydney
p81
sVprotected
p82
I00
sVdefault_profile
p83
I00
sVis_translator
p84
I00
ssS'contributors_enabled'
p85
I00
sS'profile_text_color'
p86
g38
sS'followers_count'
p87
I107
sS'profile_sidebar_border_color'
p88
g41
sS'location'
p89
g55
sS'default_profile_image'
p90
I00
sS'id_str'
p91
g43
sS'utc_offset'
p92
I36000
sS'statuses_count'
p93
I6171
sS'description'
p94
g52
sS'friends_count'
p95
I62
sS'profile_link_color'
p96
g57
sS'profile_image_url'
p97
g59
sS'notifications'
p98
NsS'geo_enabled'
p99
I01
sS'profile_background_color'
p100
g45
sS'profile_banner_url'
p101
g63
sS'profile_background_image_url'
p102
g65
sS'name'
p103
g67
sS'lang'
p104
g69
sS'following'
p105
I00
sS'profile_background_tile'
p106
I01
sS'favourites_count'
p107
I485
sS'screen_name'
p108
g73
sS'url'
p109
g76
sS'created_at'
p110
cdatetime
datetime
p111
(S'\x07\xd9\x03\x07\x00+\x18\x00\x00\x00'
p112
tp113
Rp114
sS'profile_background_image_url_https'
p115
g48
sS'time_zone'
p116
g81
sS'protected'
p117
I00
sS'default_profile'
p118
I00
sS'is_translator'
p119
I00
sS'listed_count'
p120
I10
sbsS'filter_level'
p121
Vlow
p122
sS'geo'
p123
(dp124
Vtype
p125
VPoint
p126
sVcoordinates
p127
(lp128
F47.382881
aF8.52987
assg24
I618769988250411008
sS'favorite_count'
p129
I0
sS'source'
p130
VInstagram
p131
sg104
Ven
p132
sS'author'
p133
g18
sS'in_reply_to_user_id_str'
p134
Nsg28
(dp135
Vcontributors
p136
NsVtruncated
p137
I00
sVtext
p138
VMost expensive Maccas I've had in my life! Close to $30 AUD. Welcome to Switzerland.\u000a\u000a#maccas\u2026 https://t.co/wcGmL3KaiW
p139
sVin_reply_to_status_id
p140
Nsg33
I618769988250411008
sVfavorite_count
p141
I0
sVsource
p142
V<a href="http://instagram.com" rel="nofollow">Instagram</a>
p143
sVretweeted
p144
I00
sg127
(dp145
g125
VPoint
p146
sg127
(lp147
F8.52987
aF47.382881
assVtimestamp_ms
p148
V1436361236046
p149
sVentities
p150
(dp151
Vuser_mentions
p152
(lp153
sVsymbols
p154
(lp155
sVtrends
p156
(lp157
sVhashtags
p158
(lp159
(dp160
Vindices
p161
(lp162
I86
aI93
asg138
Vmaccas
p163
sasVurls
p164
(lp165
(dp166
g75
Vhttps://t.co/wcGmL3KaiW
p167
sg161
(lp168
I95
aI118
asVexpanded_url
p169
Vhttps://instagram.com/p/44F4INlv7A/
p170
sVdisplay_url
p171
Vinstagram.com/p/44F4INlv7A/
p172
sassVin_reply_to_screen_name
p173
Nsg42
V618769988250411008
p174
sVretweet_count
p175
I0
sVin_reply_to_user_id
p176
NsVfavorited
p177
I00
sVuser
p178
g29
sVgeo
p179
g124
sVin_reply_to_user_id_str
p180
NsVpossibly_sensitive
p181
I00
sg68
g132
sg77
VWed Jul 08 13:13:56 +0000 2015
p182
sVfilter_level
p183
g122
sVin_reply_to_status_id_str
p184
NsVplace
p185
(dp186
Vfull_name
p187
VZurich, Switzerland
p188
sg75
Vhttps://api.twitter.com/1.1/geo/id/3acb748d0f1e9265.json
p189
sVcountry
p190
VSchweiz
p191
sVplace_type
p192
Vcity
p193
sVbounding_box
p194
(dp195
g125
VPolygon
p196
sg127
(lp197
(lp198
(lp199
F8.448081
aF47.320183
aa(lp200
F8.448081
aF47.434721
aa(lp201
F8.625442
aF47.434721
aa(lp202
F8.625442
aF47.320183
aaassVcountry_code
p203
VCH
p204
sVattributes
p205
(dp206
sg33
V3acb748d0f1e9265
p207
sg66
VZurich
p208
sssS'coordinates'
p209
g145
sS'timestamp_ms'
p210
g149
sS'entities'
p211
g151
sS'in_reply_to_status_id_str'
p212
NsS'in_reply_to_screen_name'
p213
Nsg91
g174
sS'retweeted'
p214
I00
sS'place'
p215
g0
(ctweepy.models
Place
p216
g2
Ntp217
Rp218
(dp219
S'full_name'
p220
g188
sg109
g189
sS'country'
p221
g191
sS'place_type'
p222
g193
sS'bounding_box'
p223
g0
(ctweepy.models
BoundingBox
p224
g2
Ntp225
Rp226
(dp227
S'type'
p228
g196
sg209
g197
sbsS'country_code'
p229
g204
sS'attributes'
p230
g206
sg24
g207
sg103
g208
sbsS'retweet_count'
p231
I0
sg110
g111
(S'\x07\xdf\x07\x08\r\r8\x00\x00\x00'
p232
tp233
Rp234
sS'in_reply_to_user_id'
p235
Nsb.