ccopy_reg
_reconstructor
p0
(ctweepy.models
Status
p1
c__builtin__
object
p2
Ntp3
Rp4
(dp5
S'favorited'
p6
I00
sS'contributors'
p7
NsS'truncated'
p8
I00
sS'text'
p9
V@TheForwardCabin Thank you for sharing this beautiful image. We trust you had an enjoyable stay and we look forward to seeing you again soon
p10
sS'source_url'
p11
Vhttp://twitter.com
p12
sS'possibly_sensitive'
p13
I00
sS'in_reply_to_status_id'
p14
I616944259812474880
sS'user'
p15
g0
(ctweepy.models
User
p16
g2
Ntp17
Rp18
(dp19
S'follow_request_sent'
p20
NsS'profile_use_background_image'
p21
I01
sS'profile_sidebar_fill_color'
p22
VDDEEF6
p23
sS'id'
p24
I2461727144
sS'verified'
p25
I00
sS'profile_image_url_https'
p26
Vhttps://pbs.twimg.com/profile_images/461076760268775424/-gu3YKR3_normal.jpeg
p27
sS'_json'
p28
(dp29
Vfollow_request_sent
p30
NsVprofile_use_background_image
p31
I01
sVdefault_profile_image
p32
I00
sVid
p33
I2461727144
sVverified
p34
I00
sVprofile_image_url_https
p35
g27
sVprofile_sidebar_fill_color
p36
g23
sVprofile_text_color
p37
V333333
p38
sVfollowers_count
p39
I625
sVprofile_sidebar_border_color
p40
V000000
p41
sVid_str
p42
V2461727144
p43
sVprofile_background_color
p44
V131516
p45
sVlisted_count
p46
I26
sVprofile_background_image_url_https
p47
Vhttps://pbs.twimg.com/profile_background_images/475364039472594944/G1ssv3OW.jpeg
p48
sVutc_offset
p49
NsVstatuses_count
p50
I874
sVdescription
p51
V5 star luxury hotel in the heart of Zurich. Tweet us if we can be of any assistance prior, during or after your stay. http://www.facebook.com/parkhyattzurich
p52
sVfriends_count
p53
I283
sVlocation
p54
VZurich, Switzerland
p55
sVprofile_link_color
p56
V090A0A
p57
sVprofile_image_url
p58
Vhttp://pbs.twimg.com/profile_images/461076760268775424/-gu3YKR3_normal.jpeg
p59
sVfollowing
p60
NsVgeo_enabled
p61
I01
sVprofile_banner_url
p62
Vhttps://pbs.twimg.com/profile_banners/2461727144/1398351244
p63
sVprofile_background_image_url
p64
Vhttp://pbs.twimg.com/profile_background_images/475364039472594944/G1ssv3OW.jpeg
p65
sVname
p66
VPark Hyatt Zurich 
p67
sVlang
p68
Ven
p69
sVprofile_background_tile
p70
I00
sVfavourites_count
p71
I941
sVscreen_name
p72
VParkHyattZurich
p73
sVnotifications
p74
NsVurl
p75
Vhttp://zurich.park.hyatt.com
p76
sVcreated_at
p77
VThu Apr 24 14:17:53 +0000 2014
p78
sVcontributors_enabled
p79
I00
sVtime_zone
p80
NsVprotected
p81
I00
sVdefault_profile
p82
I00
sVis_translator
p83
I00
ssS'contributors_enabled'
p84
I00
sS'profile_text_color'
p85
g38
sS'followers_count'
p86
I625
sS'profile_sidebar_border_color'
p87
g41
sS'location'
p88
g55
sS'default_profile_image'
p89
I00
sS'id_str'
p90
g43
sS'utc_offset'
p91
NsS'statuses_count'
p92
I874
sS'description'
p93
g52
sS'friends_count'
p94
I283
sS'profile_link_color'
p95
g57
sS'profile_image_url'
p96
g59
sS'notifications'
p97
NsS'geo_enabled'
p98
I01
sS'profile_background_color'
p99
g45
sS'profile_banner_url'
p100
g63
sS'profile_background_image_url'
p101
g65
sS'name'
p102
g67
sS'lang'
p103
g69
sS'following'
p104
I00
sS'profile_background_tile'
p105
I00
sS'favourites_count'
p106
I941
sS'screen_name'
p107
g73
sS'url'
p108
g76
sS'created_at'
p109
cdatetime
datetime
p110
(S'\x07\xde\x04\x18\x0e\x115\x00\x00\x00'
p111
tp112
Rp113
sS'profile_background_image_url_https'
p114
g48
sS'time_zone'
p115
NsS'protected'
p116
I00
sS'default_profile'
p117
I00
sS'is_translator'
p118
I00
sS'listed_count'
p119
I26
sbsS'filter_level'
p120
Vlow
p121
sS'geo'
p122
Nsg24
I619490407894921216
sS'favorite_count'
p123
I0
sS'source'
p124
VTwitter Web Client
p125
sg103
Ven
p126
sS'author'
p127
g18
sS'in_reply_to_user_id_str'
p128
V2232016410
p129
sg28
(dp130
Vcontributors
p131
NsVtruncated
p132
I00
sVtext
p133
g10
sVin_reply_to_status_id
p134
I616944259812474880
sg33
I619490407894921216
sVfavorite_count
p135
I0
sVsource
p136
V<a href="http://twitter.com" rel="nofollow">Twitter Web Client</a>
p137
sVretweeted
p138
I00
sVcoordinates
p139
NsVtimestamp_ms
p140
V1436532997474
p141
sVentities
p142
(dp143
Vuser_mentions
p144
(lp145
(dp146
g33
I2232016410
sVindices
p147
(lp148
I0
aI16
asg42
V2232016410
p149
sg72
VTheForwardCabin
p150
sg66
VJamie Larounis
p151
sasVsymbols
p152
(lp153
sVtrends
p154
(lp155
sVhashtags
p156
(lp157
sVurls
p158
(lp159
ssVin_reply_to_screen_name
p160
VTheForwardCabin
p161
sg42
V619490407894921216
p162
sVretweet_count
p163
I0
sVin_reply_to_user_id
p164
I2232016410
sVfavorited
p165
I00
sVuser
p166
g29
sVgeo
p167
NsVin_reply_to_user_id_str
p168
g129
sVpossibly_sensitive
p169
I00
sg68
g126
sg77
VFri Jul 10 12:56:37 +0000 2015
p170
sVfilter_level
p171
g121
sVin_reply_to_status_id_str
p172
V616944259812474880
p173
sVplace
p174
(dp175
Vfull_name
p176
VZurich, Switzerland
p177
sg75
Vhttps://api.twitter.com/1.1/geo/id/3acb748d0f1e9265.json
p178
sVcountry
p179
VSchweiz
p180
sVplace_type
p181
Vcity
p182
sVbounding_box
p183
(dp184
Vtype
p185
VPolygon
p186
sg139
(lp187
(lp188
(lp189
F8.448081
aF47.320183
aa(lp190
F8.448081
aF47.434721
aa(lp191
F8.625442
aF47.434721
aa(lp192
F8.625442
aF47.320183
aaassVcountry_code
p193
VCH
p194
sVattributes
p195
(dp196
sg33
V3acb748d0f1e9265
p197
sg66
VZurich
p198
sssS'coordinates'
p199
NsS'timestamp_ms'
p200
g141
sS'entities'
p201
g143
sS'in_reply_to_status_id_str'
p202
g173
sS'in_reply_to_screen_name'
p203
g161
sg90
g162
sS'retweeted'
p204
I00
sS'place'
p205
g0
(ctweepy.models
Place
p206
g2
Ntp207
Rp208
(dp209
S'full_name'
p210
g177
sg108
g178
sS'country'
p211
g180
sS'place_type'
p212
g182
sS'bounding_box'
p213
g0
(ctweepy.models
BoundingBox
p214
g2
Ntp215
Rp216
(dp217
S'type'
p218
g186
sg199
g187
sbsS'country_code'
p219
g194
sS'attributes'
p220
g196
sg24
g197
sg102
g198
sbsS'retweet_count'
p221
I0
sg109
g110
(S'\x07\xdf\x07\n\x0c8%\x00\x00\x00'
p222
tp223
Rp224
sS'in_reply_to_user_id'
p225
I2232016410
sb.