ccopy_reg
_reconstructor
p0
(ctweepy.models
Status
p1
c__builtin__
object
p2
Ntp3
Rp4
(dp5
S'favorited'
p6
I00
sS'contributors'
p7
NsS'truncated'
p8
I00
sS'text'
p9
V\U0001f44c\U0001f44d\U0001f44d\U0001f44d\U0001f44d @ Sternen Grill https://t.co/DRNOviqtcf
p10
sS'source_url'
p11
Vhttp://instagram.com
p12
sS'possibly_sensitive'
p13
I00
sS'in_reply_to_status_id'
p14
NsS'user'
p15
g0
(ctweepy.models
User
p16
g2
Ntp17
Rp18
(dp19
S'follow_request_sent'
p20
NsS'profile_use_background_image'
p21
I01
sS'profile_sidebar_fill_color'
p22
VDDEEF6
p23
sS'id'
p24
I83532969
sS'verified'
p25
I00
sS'profile_image_url_https'
p26
Vhttps://pbs.twimg.com/profile_images/429138696583929856/RuMd2R7S_normal.jpeg
p27
sS'_json'
p28
(dp29
Vfollow_request_sent
p30
NsVprofile_use_background_image
p31
I01
sVdefault_profile_image
p32
I00
sVid
p33
I83532969
sVverified
p34
I00
sVprofile_image_url_https
p35
g27
sVprofile_sidebar_fill_color
p36
g23
sVprofile_text_color
p37
V333333
p38
sVfollowers_count
p39
I164
sVprofile_sidebar_border_color
p40
VC0DEED
p41
sVid_str
p42
V83532969
p43
sVprofile_background_color
p44
VC0DEED
p45
sVlisted_count
p46
I12
sVprofile_background_image_url_https
p47
Vhttps://abs.twimg.com/images/themes/theme1/bg.png
p48
sVutc_offset
p49
I-14400
sVstatuses_count
p50
I2753
sVdescription
p51
VEnjoys music, tech, Apple computers, and the New England Patriots. Software developer at @synconset / @wymsee. @BostonCollege Alum.
p52
sVfriends_count
p53
I95
sVlocation
p54
VSomerville
p55
sVprofile_link_color
p56
V0084B4
p57
sVprofile_image_url
p58
Vhttp://pbs.twimg.com/profile_images/429138696583929856/RuMd2R7S_normal.jpeg
p59
sVfollowing
p60
NsVgeo_enabled
p61
I01
sVprofile_background_image_url
p62
Vhttp://abs.twimg.com/images/themes/theme1/bg.png
p63
sVname
p64
VNate Almeida
p65
sVlang
p66
Ven
p67
sVprofile_background_tile
p68
I00
sVfavourites_count
p69
I265
sVscreen_name
p70
Vnatealmeida
p71
sVnotifications
p72
NsVurl
p73
Vhttp://wymsee.com
p74
sVcreated_at
p75
VMon Oct 19 05:53:16 +0000 2009
p76
sVcontributors_enabled
p77
I00
sVtime_zone
p78
VEastern Time (US & Canada)
p79
sVprotected
p80
I00
sVdefault_profile
p81
I01
sVis_translator
p82
I00
ssS'contributors_enabled'
p83
I00
sS'profile_text_color'
p84
g38
sS'followers_count'
p85
I164
sS'profile_sidebar_border_color'
p86
g41
sS'location'
p87
g55
sS'default_profile_image'
p88
I00
sS'id_str'
p89
g43
sS'utc_offset'
p90
I-14400
sS'statuses_count'
p91
I2753
sS'description'
p92
g52
sS'friends_count'
p93
I95
sS'profile_link_color'
p94
g57
sS'profile_image_url'
p95
g59
sS'notifications'
p96
NsS'geo_enabled'
p97
I01
sS'profile_background_color'
p98
g45
sS'profile_background_image_url'
p99
g63
sS'name'
p100
g65
sS'lang'
p101
g67
sS'following'
p102
I00
sS'profile_background_tile'
p103
I00
sS'favourites_count'
p104
I265
sS'screen_name'
p105
g71
sS'url'
p106
g74
sS'created_at'
p107
cdatetime
datetime
p108
(S'\x07\xd9\n\x13\x055\x10\x00\x00\x00'
p109
tp110
Rp111
sS'profile_background_image_url_https'
p112
g48
sS'time_zone'
p113
g79
sS'protected'
p114
I00
sS'default_profile'
p115
I01
sS'is_translator'
p116
I00
sS'listed_count'
p117
I12
sbsS'filter_level'
p118
Vlow
p119
sS'geo'
p120
(dp121
Vtype
p122
VPoint
p123
sVcoordinates
p124
(lp125
F47.366774
aF8.545716
assg24
I619450588061933569
sS'favorite_count'
p126
I0
sS'source'
p127
VInstagram
p128
sg101
Vde
p129
sS'author'
p130
g18
sS'in_reply_to_user_id_str'
p131
Nsg28
(dp132
Vcontributors
p133
NsVtruncated
p134
I00
sVtext
p135
g10
sVin_reply_to_status_id
p136
Nsg33
I619450588061933569
sVfavorite_count
p137
I0
sVsource
p138
V<a href="http://instagram.com" rel="nofollow">Instagram</a>
p139
sVretweeted
p140
I00
sg124
(dp141
g122
VPoint
p142
sg124
(lp143
F8.545716
aF47.366774
assVtimestamp_ms
p144
V1436523503686
p145
sVentities
p146
(dp147
Vuser_mentions
p148
(lp149
sVsymbols
p150
(lp151
sVtrends
p152
(lp153
sVhashtags
p154
(lp155
sVurls
p156
(lp157
(dp158
g73
Vhttps://t.co/DRNOviqtcf
p159
sVindices
p160
(lp161
I22
aI45
asVexpanded_url
p162
Vhttps://instagram.com/p/487YMYJvZU/
p163
sVdisplay_url
p164
Vinstagram.com/p/487YMYJvZU/
p165
sassVin_reply_to_screen_name
p166
Nsg42
V619450588061933569
p167
sVretweet_count
p168
I0
sVin_reply_to_user_id
p169
NsVfavorited
p170
I00
sVuser
p171
g29
sVgeo
p172
g121
sVin_reply_to_user_id_str
p173
NsVpossibly_sensitive
p174
I00
sg66
g129
sg75
VFri Jul 10 10:18:23 +0000 2015
p175
sVfilter_level
p176
g119
sVin_reply_to_status_id_str
p177
NsVplace
p178
(dp179
Vfull_name
p180
VZurich, Switzerland
p181
sg73
Vhttps://api.twitter.com/1.1/geo/id/3acb748d0f1e9265.json
p182
sVcountry
p183
VSchweiz
p184
sVplace_type
p185
Vcity
p186
sVbounding_box
p187
(dp188
g122
VPolygon
p189
sg124
(lp190
(lp191
(lp192
F8.448081
aF47.320183
aa(lp193
F8.448081
aF47.434721
aa(lp194
F8.625442
aF47.434721
aa(lp195
F8.625442
aF47.320183
aaassVcountry_code
p196
VCH
p197
sVattributes
p198
(dp199
sg33
V3acb748d0f1e9265
p200
sg64
VZurich
p201
sssS'coordinates'
p202
g141
sS'timestamp_ms'
p203
g145
sS'entities'
p204
g147
sS'in_reply_to_status_id_str'
p205
NsS'in_reply_to_screen_name'
p206
Nsg89
g167
sS'retweeted'
p207
I00
sS'place'
p208
g0
(ctweepy.models
Place
p209
g2
Ntp210
Rp211
(dp212
S'full_name'
p213
g181
sg106
g182
sS'country'
p214
g184
sS'place_type'
p215
g186
sS'bounding_box'
p216
g0
(ctweepy.models
BoundingBox
p217
g2
Ntp218
Rp219
(dp220
S'type'
p221
g189
sg202
g190
sbsS'country_code'
p222
g197
sS'attributes'
p223
g199
sg24
g200
sg100
g201
sbsS'retweet_count'
p224
I0
sg107
g108
(S'\x07\xdf\x07\n\n\x12\x17\x00\x00\x00'
p225
tp226
Rp227
sS'in_reply_to_user_id'
p228
Nsb.