ccopy_reg
_reconstructor
p0
(ctweepy.models
Status
p1
c__builtin__
object
p2
Ntp3
Rp4
(dp5
S'favorited'
p6
I00
sS'contributors'
p7
NsS'truncated'
p8
I00
sS'text'
p9
V@berndulrich super Leitartikel! Danke
p10
sS'source_url'
p11
Vhttp://twitter.com/download/iphone
p12
sS'possibly_sensitive'
p13
I00
sS'in_reply_to_status_id'
p14
NsS'user'
p15
g0
(ctweepy.models
User
p16
g2
Ntp17
Rp18
(dp19
S'follow_request_sent'
p20
NsS'profile_use_background_image'
p21
I01
sS'profile_sidebar_fill_color'
p22
VDDEEF6
p23
sS'id'
p24
I833820320
sS'verified'
p25
I00
sS'profile_image_url_https'
p26
Vhttps://pbs.twimg.com/profile_images/2627430313/blogger-profile-large-016_normal.jpeg
p27
sS'_json'
p28
(dp29
Vfollow_request_sent
p30
NsVprofile_use_background_image
p31
I01
sVdefault_profile_image
p32
I00
sVid
p33
I833820320
sVverified
p34
I00
sVprofile_image_url_https
p35
g27
sVprofile_sidebar_fill_color
p36
g23
sVprofile_text_color
p37
V333333
p38
sVfollowers_count
p39
I4772
sVprofile_sidebar_border_color
p40
VC0DEED
p41
sVid_str
p42
V833820320
p43
sVprofile_background_color
p44
VC0DEED
p45
sVlisted_count
p46
I259
sVprofile_background_image_url_https
p47
Vhttps://abs.twimg.com/images/themes/theme1/bg.png
p48
sVutc_offset
p49
I7200
sVstatuses_count
p50
I27372
sVdescription
p51
VProfessor Ilona Kickbusch PhD is known for her contributions to innovation in public health, health promotion, global health and health diplomacy.
p52
sVfriends_count
p53
I716
sVlocation
p54
VBern, Switzerland.
p55
sVprofile_link_color
p56
V0084B4
p57
sVprofile_image_url
p58
Vhttp://pbs.twimg.com/profile_images/2627430313/blogger-profile-large-016_normal.jpeg
p59
sVfollowing
p60
NsVgeo_enabled
p61
I01
sVprofile_background_image_url
p62
Vhttp://abs.twimg.com/images/themes/theme1/bg.png
p63
sVname
p64
VIlona Kickbusch
p65
sVlang
p66
Ven
p67
sVprofile_background_tile
p68
I00
sVfavourites_count
p69
I2150
sVscreen_name
p70
VIlonaKickbusch
p71
sVnotifications
p72
NsVurl
p73
Vhttp://www.ilonakickbusch.com/kickbusch/index.php
p74
sVcreated_at
p75
VWed Sep 19 17:48:05 +0000 2012
p76
sVcontributors_enabled
p77
I00
sVtime_zone
p78
VBern
p79
sVprotected
p80
I00
sVdefault_profile
p81
I01
sVis_translator
p82
I00
ssS'contributors_enabled'
p83
I00
sS'profile_text_color'
p84
g38
sS'followers_count'
p85
I4772
sS'profile_sidebar_border_color'
p86
g41
sS'location'
p87
g55
sS'default_profile_image'
p88
I00
sS'id_str'
p89
g43
sS'utc_offset'
p90
I7200
sS'statuses_count'
p91
I27372
sS'description'
p92
g52
sS'friends_count'
p93
I716
sS'profile_link_color'
p94
g57
sS'profile_image_url'
p95
g59
sS'notifications'
p96
NsS'geo_enabled'
p97
I01
sS'profile_background_color'
p98
g45
sS'profile_background_image_url'
p99
g63
sS'name'
p100
g65
sS'lang'
p101
g67
sS'following'
p102
I00
sS'profile_background_tile'
p103
I00
sS'favourites_count'
p104
I2150
sS'screen_name'
p105
g71
sS'url'
p106
g74
sS'created_at'
p107
cdatetime
datetime
p108
(S'\x07\xdc\t\x13\x110\x05\x00\x00\x00'
p109
tp110
Rp111
sS'profile_background_image_url_https'
p112
g48
sS'time_zone'
p113
g79
sS'protected'
p114
I00
sS'default_profile'
p115
I01
sS'is_translator'
p116
I00
sS'listed_count'
p117
I259
sbsS'filter_level'
p118
Vlow
p119
sS'geo'
p120
Nsg24
I619477937058881536
sS'favorite_count'
p121
I0
sS'source'
p122
VTwitter for iPhone
p123
sg101
Vde
p124
sS'author'
p125
g18
sS'in_reply_to_user_id_str'
p126
V968225418
p127
sg28
(dp128
Vcontributors
p129
NsVtruncated
p130
I00
sVtext
p131
g10
sVin_reply_to_status_id
p132
Nsg33
I619477937058881536
sVfavorite_count
p133
I0
sVsource
p134
V<a href="http://twitter.com/download/iphone" rel="nofollow">Twitter for iPhone</a>
p135
sVretweeted
p136
I00
sVcoordinates
p137
NsVtimestamp_ms
p138
V1436530024195
p139
sVentities
p140
(dp141
Vuser_mentions
p142
(lp143
(dp144
g33
I968225418
sVindices
p145
(lp146
I0
aI12
asg42
V968225418
p147
sg70
Vberndulrich
p148
sg64
VBernd Ulrich
p149
sasVsymbols
p150
(lp151
sVtrends
p152
(lp153
sVhashtags
p154
(lp155
sVurls
p156
(lp157
ssVin_reply_to_screen_name
p158
Vberndulrich
p159
sg42
V619477937058881536
p160
sVretweet_count
p161
I0
sVin_reply_to_user_id
p162
I968225418
sVfavorited
p163
I00
sVuser
p164
g29
sVgeo
p165
NsVin_reply_to_user_id_str
p166
g127
sVpossibly_sensitive
p167
I00
sg66
g124
sg75
VFri Jul 10 12:07:04 +0000 2015
p168
sVfilter_level
p169
g119
sVin_reply_to_status_id_str
p170
NsVplace
p171
(dp172
Vfull_name
p173
VZurich, Switzerland
p174
sg73
Vhttps://api.twitter.com/1.1/geo/id/3acb748d0f1e9265.json
p175
sVcountry
p176
VSchweiz
p177
sVplace_type
p178
Vcity
p179
sVbounding_box
p180
(dp181
Vtype
p182
VPolygon
p183
sg137
(lp184
(lp185
(lp186
F8.448081
aF47.320183
aa(lp187
F8.448081
aF47.434721
aa(lp188
F8.625442
aF47.434721
aa(lp189
F8.625442
aF47.320183
aaassVcountry_code
p190
VCH
p191
sVattributes
p192
(dp193
sg33
V3acb748d0f1e9265
p194
sg64
VZurich
p195
sssS'coordinates'
p196
NsS'timestamp_ms'
p197
g139
sS'entities'
p198
g141
sS'in_reply_to_status_id_str'
p199
NsS'in_reply_to_screen_name'
p200
g159
sg89
g160
sS'retweeted'
p201
I00
sS'place'
p202
g0
(ctweepy.models
Place
p203
g2
Ntp204
Rp205
(dp206
S'full_name'
p207
g174
sg106
g175
sS'country'
p208
g177
sS'place_type'
p209
g179
sS'bounding_box'
p210
g0
(ctweepy.models
BoundingBox
p211
g2
Ntp212
Rp213
(dp214
S'type'
p215
g183
sg196
g184
sbsS'country_code'
p216
g191
sS'attributes'
p217
g193
sg24
g194
sg100
g195
sbsS'retweet_count'
p218
I0
sg107
g108
(S'\x07\xdf\x07\n\x0c\x07\x04\x00\x00\x00'
p219
tp220
Rp221
sS'in_reply_to_user_id'
p222
I968225418
sb.