ccopy_reg
_reconstructor
p0
(ctweepy.models
Status
p1
c__builtin__
object
p2
Ntp3
Rp4
(dp5
S'favorited'
p6
I00
sS'contributors'
p7
NsS'truncated'
p8
I00
sS'text'
p9
V@aanechaev "\u041c\u044b \u0442\u0435\u0445\u043d\u0438\u043a\u0443 \u043d\u0435 \u0438\u0441\u043f\u043e\u043b\u044c\u0437\u0443\u0435\u043c! \u041c\u044b \u0435\u044e \u043e\u0432\u043b\u0430\u0434\u0435\u0432\u0430\u0435\u043c" - \u0443\u0436 \u0442\u043e\u0447\u043d\u043e \u043d\u0435 \u043f\u043e\u0441\u043f\u043e\u0440\u0438\u0448\u044c \u0442\u0435\u043f\u0435\u0440\u044c.
p10
sS'source_url'
p11
Vhttp://twitter.com
p12
sS'possibly_sensitive'
p13
I00
sS'in_reply_to_status_id'
p14
I619606779203330049
sS'user'
p15
g0
(ctweepy.models
User
p16
g2
Ntp17
Rp18
(dp19
S'follow_request_sent'
p20
NsS'profile_use_background_image'
p21
I01
sS'profile_sidebar_fill_color'
p22
V000000
p23
sS'id'
p24
I1191305172
sS'verified'
p25
I00
sS'profile_image_url_https'
p26
Vhttps://pbs.twimg.com/profile_images/619473228852011008/1HLoKQp__normal.jpg
p27
sS'_json'
p28
(dp29
Vfollow_request_sent
p30
NsVprofile_use_background_image
p31
I01
sVdefault_profile_image
p32
I00
sVid
p33
I1191305172
sVverified
p34
I00
sVprofile_image_url_https
p35
g27
sVprofile_sidebar_fill_color
p36
g23
sVprofile_text_color
p37
V000000
p38
sVfollowers_count
p39
I66
sVprofile_sidebar_border_color
p40
V000000
p41
sVid_str
p42
V1191305172
p43
sVprofile_background_color
p44
V3B94D9
p45
sVlisted_count
p46
I9
sVprofile_background_image_url_https
p47
Vhttps://pbs.twimg.com/profile_background_images/619483386063777792/-zm3skI7.jpg
p48
sVutc_offset
p49
I7200
sVstatuses_count
p50
I1377
sVdescription
p51
V\u0421 \u0436\u0435\u043d\u0449\u0438\u043d\u043e\u0439 \u043f\u0440\u043e\u0441\u0442\u043e \u0442\u043e\u043b\u044c\u043a\u043e \u0432 \u043e\u0434\u043d\u043e\u043c \u0441\u043b\u0443\u0447\u0430\u0435: \u0435\u0441\u043b\u0438 \u043e\u043d\u0430 \u043d\u0435 \u0432\u0430\u0448\u0430 \u0436\u0435\u043d\u0449\u0438\u043d\u0430), \u044f \u0437\u0430\u043c\u0443\u0436\u0435\u043c.
p52
sVfriends_count
p53
I41
sVlocation
p54
VSchweiz-Bern,EU-Wien
p55
sVprofile_link_color
p56
V0099B9
p57
sVprofile_image_url
p58
Vhttp://pbs.twimg.com/profile_images/619473228852011008/1HLoKQp__normal.jpg
p59
sVfollowing
p60
NsVgeo_enabled
p61
I01
sVprofile_banner_url
p62
Vhttps://pbs.twimg.com/profile_banners/1191305172/1436531262
p63
sVprofile_background_image_url
p64
Vhttp://pbs.twimg.com/profile_background_images/619483386063777792/-zm3skI7.jpg
p65
sVname
p66
Vnika777w
p67
sVlang
p68
Vru
p69
sVprofile_background_tile
p70
I01
sVfavourites_count
p71
I434
sVscreen_name
p72
Vnika777w
p73
sVnotifications
p74
NsVurl
p75
Vhttp://nika777w.livejournal.com
p76
sVcreated_at
p77
VSun Feb 17 22:16:23 +0000 2013
p78
sVcontributors_enabled
p79
I00
sVtime_zone
p80
VVienna
p81
sVprotected
p82
I00
sVdefault_profile
p83
I00
sVis_translator
p84
I00
ssS'contributors_enabled'
p85
I00
sS'profile_text_color'
p86
g38
sS'followers_count'
p87
I66
sS'profile_sidebar_border_color'
p88
g41
sS'location'
p89
g55
sS'default_profile_image'
p90
I00
sS'id_str'
p91
g43
sS'utc_offset'
p92
I7200
sS'statuses_count'
p93
I1377
sS'description'
p94
g52
sS'friends_count'
p95
I41
sS'profile_link_color'
p96
g57
sS'profile_image_url'
p97
g59
sS'notifications'
p98
NsS'geo_enabled'
p99
I01
sS'profile_background_color'
p100
g45
sS'profile_banner_url'
p101
g63
sS'profile_background_image_url'
p102
g65
sS'name'
p103
g67
sS'lang'
p104
g69
sS'following'
p105
I00
sS'profile_background_tile'
p106
I01
sS'favourites_count'
p107
I434
sS'screen_name'
p108
g73
sS'url'
p109
g76
sS'created_at'
p110
cdatetime
datetime
p111
(S'\x07\xdd\x02\x11\x16\x10\x17\x00\x00\x00'
p112
tp113
Rp114
sS'profile_background_image_url_https'
p115
g48
sS'time_zone'
p116
g81
sS'protected'
p117
I00
sS'default_profile'
p118
I00
sS'is_translator'
p119
I00
sS'listed_count'
p120
I9
sbsS'filter_level'
p121
Vlow
p122
sS'geo'
p123
Nsg24
I619617932822319105
sS'favorite_count'
p124
I0
sS'source'
p125
VTwitter Web Client
p126
sg104
Vru
p127
sS'author'
p128
g18
sS'in_reply_to_user_id_str'
p129
V208761179
p130
sg28
(dp131
Vcontributors
p132
NsVtruncated
p133
I00
sVtext
p134
g10
sVin_reply_to_status_id
p135
I619606779203330049
sg33
I619617932822319105
sVfavorite_count
p136
I0
sVsource
p137
V<a href="http://twitter.com" rel="nofollow">Twitter Web Client</a>
p138
sVretweeted
p139
I00
sVcoordinates
p140
NsVtimestamp_ms
p141
V1436563401786
p142
sVentities
p143
(dp144
Vuser_mentions
p145
(lp146
(dp147
g33
I208761179
sVindices
p148
(lp149
I0
aI10
asg42
V208761179
p150
sg72
Vaanechaev
p151
sg66
V\u0410\u043d\u0434\u0440\u0435\u0439 \u041d\u0435\u0447\u0430\u0435\u0432
p152
sasVsymbols
p153
(lp154
sVtrends
p155
(lp156
sVhashtags
p157
(lp158
sVurls
p159
(lp160
ssVin_reply_to_screen_name
p161
Vaanechaev
p162
sg42
V619617932822319105
p163
sVretweet_count
p164
I0
sVin_reply_to_user_id
p165
I208761179
sVfavorited
p166
I00
sVuser
p167
g29
sVgeo
p168
NsVin_reply_to_user_id_str
p169
g130
sVpossibly_sensitive
p170
I00
sg68
g127
sg77
VFri Jul 10 21:23:21 +0000 2015
p171
sVfilter_level
p172
g122
sVin_reply_to_status_id_str
p173
V619606779203330049
p174
sVplace
p175
(dp176
Vfull_name
p177
VBern, Schweiz
p178
sg75
Vhttps://api.twitter.com/1.1/geo/id/5868d0e0749c9c47.json
p179
sVcountry
p180
VSchweiz
p181
sVplace_type
p182
Vadmin
p183
sVbounding_box
p184
(dp185
Vtype
p186
VPolygon
p187
sg140
(lp188
(lp189
(lp190
F6.861601
aF46.326441
aa(lp191
F6.861601
aF47.34528
aa(lp192
F8.455051
aF47.34528
aa(lp193
F8.455051
aF46.326441
aaassVcountry_code
p194
VCH
p195
sVattributes
p196
(dp197
sg33
V5868d0e0749c9c47
p198
sg66
VBern
p199
sssS'coordinates'
p200
NsS'timestamp_ms'
p201
g142
sS'entities'
p202
g144
sS'in_reply_to_status_id_str'
p203
g174
sS'in_reply_to_screen_name'
p204
g162
sg91
g163
sS'retweeted'
p205
I00
sS'place'
p206
g0
(ctweepy.models
Place
p207
g2
Ntp208
Rp209
(dp210
S'full_name'
p211
g178
sg109
g179
sS'country'
p212
g181
sS'place_type'
p213
g183
sS'bounding_box'
p214
g0
(ctweepy.models
BoundingBox
p215
g2
Ntp216
Rp217
(dp218
S'type'
p219
g187
sg200
g188
sbsS'country_code'
p220
g195
sS'attributes'
p221
g197
sg24
g198
sg103
g199
sbsS'retweet_count'
p222
I0
sg110
g111
(S'\x07\xdf\x07\n\x15\x17\x15\x00\x00\x00'
p223
tp224
Rp225
sS'in_reply_to_user_id'
p226
I208761179
sb.