ccopy_reg
_reconstructor
p0
(ctweepy.models
Status
p1
c__builtin__
object
p2
Ntp3
Rp4
(dp5
S'favorited'
p6
I00
sS'contributors'
p7
NsS'truncated'
p8
I00
sS'text'
p9
V"Zurich 2015" happening this July 11-12 http://t.co/QRcHrgRQ3s #Zurich #hackathon #dev
p10
sS'source_url'
p11
Vhttp://hackathonsnear.me/
p12
sS'possibly_sensitive'
p13
I00
sS'in_reply_to_status_id'
p14
NsS'user'
p15
g0
(ctweepy.models
User
p16
g2
Ntp17
Rp18
(dp19
S'follow_request_sent'
p20
NsS'profile_use_background_image'
p21
I01
sS'profile_sidebar_fill_color'
p22
V000000
p23
sS'id'
p24
I3342969351
sS'verified'
p25
I00
sS'profile_image_url_https'
p26
Vhttps://pbs.twimg.com/profile_images/617007346238119936/2bMM2V-R_normal.png
p27
sS'_json'
p28
(dp29
Vfollow_request_sent
p30
NsVprofile_use_background_image
p31
I01
sVdefault_profile_image
p32
I00
sVid
p33
I3342969351
sVverified
p34
I00
sVprofile_image_url_https
p35
g27
sVprofile_sidebar_fill_color
p36
g23
sVprofile_text_color
p37
V000000
p38
sVfollowers_count
p39
I10
sVprofile_sidebar_border_color
p40
V000000
p41
sVid_str
p42
V3342969351
p43
sVprofile_background_color
p44
V022330
p45
sVlisted_count
p46
I0
sVprofile_background_image_url_https
p47
Vhttps://abs.twimg.com/images/themes/theme15/bg.png
p48
sVutc_offset
p49
NsVstatuses_count
p50
I10
sVdescription
p51
VFind #hackathons in a city near you! Follow us for upcoming #hackathon dates/locations and hackathon news and articles. Curated by @HackworksInc
p52
sVfriends_count
p53
I25
sVlocation
p54
V
p55
sVprofile_link_color
p56
V26A17A
p57
sVprofile_image_url
p58
Vhttp://pbs.twimg.com/profile_images/617007346238119936/2bMM2V-R_normal.png
p59
sVfollowing
p60
NsVgeo_enabled
p61
I01
sVprofile_background_image_url
p62
Vhttp://abs.twimg.com/images/themes/theme15/bg.png
p63
sVname
p64
VHackathons Near Me
p65
sVlang
p66
Ven
p67
sVprofile_background_tile
p68
I00
sVfavourites_count
p69
I0
sVscreen_name
p70
VHacksNearMe
p71
sVnotifications
p72
NsVurl
p73
Vhttp://hackathonsnear.me/
p74
sVcreated_at
p75
VTue Jun 23 19:02:24 +0000 2015
p76
sVcontributors_enabled
p77
I00
sVtime_zone
p78
NsVprotected
p79
I00
sVdefault_profile
p80
I00
sVis_translator
p81
I00
ssS'contributors_enabled'
p82
I00
sS'profile_text_color'
p83
g38
sS'followers_count'
p84
I10
sS'profile_sidebar_border_color'
p85
g41
sS'location'
p86
g55
sS'default_profile_image'
p87
I00
sS'id_str'
p88
g43
sS'utc_offset'
p89
NsS'statuses_count'
p90
I10
sS'description'
p91
g52
sS'friends_count'
p92
I25
sS'profile_link_color'
p93
g57
sS'profile_image_url'
p94
g59
sS'notifications'
p95
NsS'geo_enabled'
p96
I01
sS'profile_background_color'
p97
g45
sS'profile_background_image_url'
p98
g63
sS'name'
p99
g65
sS'lang'
p100
g67
sS'following'
p101
I00
sS'profile_background_tile'
p102
I00
sS'favourites_count'
p103
I0
sS'screen_name'
p104
g71
sS'url'
p105
g74
sS'created_at'
p106
cdatetime
datetime
p107
(S'\x07\xdf\x06\x17\x13\x02\x18\x00\x00\x00'
p108
tp109
Rp110
sS'profile_background_image_url_https'
p111
g48
sS'time_zone'
p112
NsS'protected'
p113
I00
sS'default_profile'
p114
I00
sS'is_translator'
p115
I00
sS'listed_count'
p116
I0
sbsS'filter_level'
p117
Vlow
p118
sS'geo'
p119
(dp120
Vtype
p121
VPoint
p122
sVcoordinates
p123
(lp124
F47.36865
aF8.539183
assg24
I618777280257593344
sS'favorite_count'
p125
I0
sS'source'
p126
VHackathons Near Me
p127
sg100
Ven
p128
sS'author'
p129
g18
sS'in_reply_to_user_id_str'
p130
Nsg28
(dp131
Vcontributors
p132
NsVtruncated
p133
I00
sVtext
p134
g10
sVin_reply_to_status_id
p135
Nsg33
I618777280257593344
sVfavorite_count
p136
I0
sVsource
p137
V<a href="http://hackathonsnear.me/" rel="nofollow">Hackathons Near Me</a>
p138
sVretweeted
p139
I00
sg123
(dp140
g121
VPoint
p141
sg123
(lp142
F8.539183
aF47.36865
assVtimestamp_ms
p143
V1436362974596
p144
sVentities
p145
(dp146
Vuser_mentions
p147
(lp148
sVsymbols
p149
(lp150
sVtrends
p151
(lp152
sVhashtags
p153
(lp154
(dp155
Vindices
p156
(lp157
I63
aI70
asg134
VZurich
p158
sa(dp159
g156
(lp160
I71
aI81
asg134
Vhackathon
p161
sa(dp162
g156
(lp163
I82
aI86
asg134
Vdev
p164
sasVurls
p165
(lp166
(dp167
g73
Vhttp://t.co/QRcHrgRQ3s
p168
sg156
(lp169
I40
aI62
asVexpanded_url
p170
Vhttp://angelhack.com/hackathon/zurich-2015/
p171
sVdisplay_url
p172
Vangelhack.com/hackathon/zuri\u2026
p173
sassVin_reply_to_screen_name
p174
Nsg42
V618777280257593344
p175
sVretweet_count
p176
I0
sVin_reply_to_user_id
p177
NsVfavorited
p178
I00
sVuser
p179
g29
sVgeo
p180
g120
sVin_reply_to_user_id_str
p181
NsVpossibly_sensitive
p182
I00
sg66
g128
sg75
VWed Jul 08 13:42:54 +0000 2015
p183
sVfilter_level
p184
g118
sVin_reply_to_status_id_str
p185
NsVplace
p186
(dp187
Vfull_name
p188
VZurich, Switzerland
p189
sg73
Vhttps://api.twitter.com/1.1/geo/id/3acb748d0f1e9265.json
p190
sVcountry
p191
VSchweiz
p192
sVplace_type
p193
Vcity
p194
sVbounding_box
p195
(dp196
g121
VPolygon
p197
sg123
(lp198
(lp199
(lp200
F8.448081
aF47.320183
aa(lp201
F8.448081
aF47.434721
aa(lp202
F8.625442
aF47.434721
aa(lp203
F8.625442
aF47.320183
aaassVcountry_code
p204
VCH
p205
sVattributes
p206
(dp207
sg33
V3acb748d0f1e9265
p208
sg64
VZurich
p209
sssS'coordinates'
p210
g140
sS'timestamp_ms'
p211
g144
sS'entities'
p212
g146
sS'in_reply_to_status_id_str'
p213
NsS'in_reply_to_screen_name'
p214
Nsg88
g175
sS'retweeted'
p215
I00
sS'place'
p216
g0
(ctweepy.models
Place
p217
g2
Ntp218
Rp219
(dp220
S'full_name'
p221
g189
sg105
g190
sS'country'
p222
g192
sS'place_type'
p223
g194
sS'bounding_box'
p224
g0
(ctweepy.models
BoundingBox
p225
g2
Ntp226
Rp227
(dp228
S'type'
p229
g197
sg210
g198
sbsS'country_code'
p230
g205
sS'attributes'
p231
g207
sg24
g208
sg99
g209
sbsS'retweet_count'
p232
I0
sg106
g107
(S'\x07\xdf\x07\x08\r*6\x00\x00\x00'
p233
tp234
Rp235
sS'in_reply_to_user_id'
p236
Nsb.