ccopy_reg
_reconstructor
p0
(ctweepy.models
Status
p1
c__builtin__
object
p2
Ntp3
Rp4
(dp5
S'favorited'
p6
I00
sS'contributors'
p7
NsS'truncated'
p8
I00
sS'text'
p9
VCabine d'essayage virtuelle : #Rakuten s'offre la start-up estonienne Fits.me\u000ahttp://t.co/TRGaOXf8r5 @priceminister http://t.co/NnFUbG4uOj
p10
sS'source_url'
p11
Vhttp://twitter.com
p12
sS'possibly_sensitive'
p13
I00
sS'in_reply_to_status_id'
p14
NsS'user'
p15
g0
(ctweepy.models
User
p16
g2
Ntp17
Rp18
(dp19
S'follow_request_sent'
p20
NsS'profile_use_background_image'
p21
I01
sS'profile_sidebar_fill_color'
p22
V171106
p23
sS'id'
p24
I26820374
sS'verified'
p25
I00
sS'profile_image_url_https'
p26
Vhttps://pbs.twimg.com/profile_images/554348526990536704/cOJtM4gv_normal.jpeg
p27
sS'_json'
p28
(dp29
Vfollow_request_sent
p30
NsVprofile_use_background_image
p31
I01
sVdefault_profile_image
p32
I00
sVid
p33
I26820374
sVverified
p34
I00
sVprofile_image_url_https
p35
g27
sVprofile_sidebar_fill_color
p36
g23
sVprofile_text_color
p37
V8A7302
p38
sVfollowers_count
p39
I1198
sVprofile_sidebar_border_color
p40
V000000
p41
sVid_str
p42
V26820374
p43
sVprofile_background_color
p44
V080707
p45
sVlisted_count
p46
I79
sVprofile_background_image_url_https
p47
Vhttps://pbs.twimg.com/profile_background_images/458707244679315456/WA5BXg8a.png
p48
sVutc_offset
p49
I7200
sVstatuses_count
p50
I2982
sVdescription
p51
VManaging Director @Gamned \u000a #programmatic #advertising #marketingautomation #switzerland
p52
sVfriends_count
p53
I82
sVlocation
p54
VGeneva, Switzerland
p55
sVprofile_link_color
p56
VF73505
p57
sVprofile_image_url
p58
Vhttp://pbs.twimg.com/profile_images/554348526990536704/cOJtM4gv_normal.jpeg
p59
sVfollowing
p60
NsVgeo_enabled
p61
I01
sVprofile_banner_url
p62
Vhttps://pbs.twimg.com/profile_banners/26820374/1398198840
p63
sVprofile_background_image_url
p64
Vhttp://pbs.twimg.com/profile_background_images/458707244679315456/WA5BXg8a.png
p65
sVname
p66
VPierre Berendes
p67
sVlang
p68
Ven
p69
sVprofile_background_tile
p70
I01
sVfavourites_count
p71
I124
sVscreen_name
p72
Vberendes
p73
sVnotifications
p74
NsVurl
p75
Vhttp://www.makazi.com
p76
sVcreated_at
p77
VThu Mar 26 19:02:45 +0000 2009
p78
sVcontributors_enabled
p79
I00
sVtime_zone
p80
VParis
p81
sVprotected
p82
I00
sVdefault_profile
p83
I00
sVis_translator
p84
I00
ssS'contributors_enabled'
p85
I00
sS'profile_text_color'
p86
g38
sS'followers_count'
p87
I1198
sS'profile_sidebar_border_color'
p88
g41
sS'location'
p89
g55
sS'default_profile_image'
p90
I00
sS'id_str'
p91
g43
sS'utc_offset'
p92
I7200
sS'statuses_count'
p93
I2982
sS'description'
p94
VManaging Director @Gamned \u000a #programmatic #advertising #marketingautomation #switzerland
p95
sS'friends_count'
p96
I82
sS'profile_link_color'
p97
g57
sS'profile_image_url'
p98
g59
sS'notifications'
p99
NsS'geo_enabled'
p100
I01
sS'profile_background_color'
p101
g45
sS'profile_banner_url'
p102
g63
sS'profile_background_image_url'
p103
g65
sS'name'
p104
g67
sS'lang'
p105
g69
sS'following'
p106
I00
sS'profile_background_tile'
p107
I01
sS'favourites_count'
p108
I124
sS'screen_name'
p109
g73
sS'url'
p110
g76
sS'created_at'
p111
cdatetime
datetime
p112
(S'\x07\xd9\x03\x1a\x13\x02-\x00\x00\x00'
p113
tp114
Rp115
sS'profile_background_image_url_https'
p116
g48
sS'time_zone'
p117
g81
sS'protected'
p118
I00
sS'default_profile'
p119
I00
sS'is_translator'
p120
I00
sS'listed_count'
p121
I79
sbsS'filter_level'
p122
Vlow
p123
sS'geo'
p124
Nsg24
I620494869333716992
sS'favorite_count'
p125
I0
sS'source'
p126
VTwitter Web Client
p127
sg105
Vfr
p128
sS'author'
p129
g18
sS'in_reply_to_user_id_str'
p130
Nsg28
(dp131
Vcontributors
p132
NsVtruncated
p133
I00
sVtext
p134
VCabine d'essayage virtuelle : #Rakuten s'offre la start-up estonienne Fits.me\u000ahttp://t.co/TRGaOXf8r5 @priceminister http://t.co/NnFUbG4uOj
p135
sVin_reply_to_status_id
p136
Nsg33
I620494869333716992
sVfavorite_count
p137
I0
sVsource
p138
V<a href="http://twitter.com" rel="nofollow">Twitter Web Client</a>
p139
sVretweeted
p140
I00
sVcoordinates
p141
NsVtimestamp_ms
p142
V1436772479743
p143
sVentities
p144
(dp145
Vsymbols
p146
(lp147
sVmedia
p148
(lp149
(dp150
Vexpanded_url
p151
Vhttp://twitter.com/berendes/status/620494869333716992/photo/1
p152
sVdisplay_url
p153
Vpic.twitter.com/NnFUbG4uOj
p154
sg75
Vhttp://t.co/NnFUbG4uOj
p155
sVmedia_url_https
p156
Vhttps://pbs.twimg.com/media/CJxwy4AUMAAaiBW.png
p157
sg42
V620494867999764480
p158
sVsizes
p159
(dp160
Vlarge
p161
(dp162
Vh
p163
I733
sVresize
p164
Vfit
p165
sVw
p166
I975
ssVsmall
p167
(dp168
g163
I255
sg164
Vfit
p169
sg166
I340
ssVmedium
p170
(dp171
g163
I451
sg164
Vfit
p172
sg166
I600
ssVthumb
p173
(dp174
g163
I150
sg164
Vcrop
p175
sg166
I150
sssVindices
p176
(lp177
I116
aI138
asVtype
p178
Vphoto
p179
sg33
I620494867999764480
sVmedia_url
p180
Vhttp://pbs.twimg.com/media/CJxwy4AUMAAaiBW.png
p181
sasVhashtags
p182
(lp183
(dp184
g176
(lp185
I30
aI38
asg134
VRakuten
p186
sasVuser_mentions
p187
(lp188
(dp189
g33
I231689692
sg176
(lp190
I101
aI115
asg42
V231689692
p191
sg72
Vpriceminister
p192
sg66
VPriceMinister
p193
sasVtrends
p194
(lp195
sVurls
p196
(lp197
(dp198
g75
Vhttp://t.co/TRGaOXf8r5
p199
sg176
(lp200
I78
aI100
asg151
Vhttp://techcrunch.com/2015/07/12/rakuten-buys-virtual-fitting-room-startup-fits-me-in-a-fashion-commerce-play/
p201
sg153
Vtechcrunch.com/2015/07/12/rak\u2026
p202
sassVin_reply_to_screen_name
p203
Nsg42
V620494869333716992
p204
sVretweet_count
p205
I0
sVin_reply_to_user_id
p206
NsVfavorited
p207
I00
sVuser
p208
g29
sVgeo
p209
NsVin_reply_to_user_id_str
p210
NsVpossibly_sensitive
p211
I00
sg68
g128
sg77
VMon Jul 13 07:27:59 +0000 2015
p212
sVfilter_level
p213
g123
sVin_reply_to_status_id_str
p214
NsVplace
p215
(dp216
Vfull_name
p217
VZurich, Switzerland
p218
sg75
Vhttps://api.twitter.com/1.1/geo/id/3acb748d0f1e9265.json
p219
sVcountry
p220
VSchweiz
p221
sVplace_type
p222
Vcity
p223
sVbounding_box
p224
(dp225
g178
VPolygon
p226
sg141
(lp227
(lp228
(lp229
F8.448081
aF47.320183
aa(lp230
F8.448081
aF47.434721
aa(lp231
F8.625442
aF47.434721
aa(lp232
F8.625442
aF47.320183
aaassVcountry_code
p233
VCH
p234
sVattributes
p235
(dp236
sg33
V3acb748d0f1e9265
p237
sg66
VZurich
p238
ssVextended_entities
p239
(dp240
g148
(lp241
(dp242
g151
Vhttp://twitter.com/berendes/status/620494869333716992/photo/1
p243
sg153
Vpic.twitter.com/NnFUbG4uOj
p244
sg75
Vhttp://t.co/NnFUbG4uOj
p245
sg156
Vhttps://pbs.twimg.com/media/CJxwy4AUMAAaiBW.png
p246
sg42
V620494867999764480
p247
sg159
(dp248
g161
(dp249
g163
I733
sg164
Vfit
p250
sg166
I975
ssg167
(dp251
g163
I255
sg164
Vfit
p252
sg166
I340
ssg170
(dp253
g163
I451
sg164
Vfit
p254
sg166
I600
ssg173
(dp255
g163
I150
sg164
Vcrop
p256
sg166
I150
sssg176
(lp257
I116
aI138
asg178
Vphoto
p258
sg33
I620494867999764480
sg180
Vhttp://pbs.twimg.com/media/CJxwy4AUMAAaiBW.png
p259
sasssS'coordinates'
p260
NsS'timestamp_ms'
p261
g143
sS'entities'
p262
g145
sS'in_reply_to_status_id_str'
p263
NsS'in_reply_to_screen_name'
p264
Nsg91
g204
sS'extended_entities'
p265
g240
sS'retweeted'
p266
I00
sS'place'
p267
g0
(ctweepy.models
Place
p268
g2
Ntp269
Rp270
(dp271
S'full_name'
p272
g218
sg110
g219
sS'country'
p273
g221
sS'place_type'
p274
g223
sS'bounding_box'
p275
g0
(ctweepy.models
BoundingBox
p276
g2
Ntp277
Rp278
(dp279
S'type'
p280
g226
sg260
g227
sbsS'country_code'
p281
g234
sS'attributes'
p282
g236
sg24
g237
sg104
g238
sbsS'retweet_count'
p283
I0
sg111
g112
(S'\x07\xdf\x07\r\x07\x1b;\x00\x00\x00'
p284
tp285
Rp286
sS'in_reply_to_user_id'
p287
Nsb.