ccopy_reg
_reconstructor
p0
(ctweepy.models
Status
p1
c__builtin__
object
p2
Ntp3
Rp4
(dp5
S'favorited'
p6
I00
sS'contributors'
p7
NsS'truncated'
p8
I00
sS'text'
p9
VOn the way to #Spain to continue #CambioDePiel #Europeantour in Las Palmas de Gran Canaria! http://t.co/EFzcJB1aaH http://t.co/WRvmhLTawA
p10
sS'source_url'
p11
Vhttp://twitter.com
p12
sS'possibly_sensitive'
p13
I00
sS'in_reply_to_status_id'
p14
NsS'user'
p15
g0
(ctweepy.models
User
p16
g2
Ntp17
Rp18
(dp19
S'follow_request_sent'
p20
NsS'profile_use_background_image'
p21
I01
sS'profile_sidebar_fill_color'
p22
VABC7D1
p23
sS'id'
p24
I254274083
sS'verified'
p25
I01
sS'profile_image_url_https'
p26
Vhttps://pbs.twimg.com/profile_images/613379131347206144/9nwd29RQ_normal.jpg
p27
sS'_json'
p28
(dp29
Vfollow_request_sent
p30
NsVprofile_use_background_image
p31
I01
sVdefault_profile_image
p32
I00
sVid
p33
I254274083
sVverified
p34
I01
sVprofile_image_url_https
p35
g27
sVprofile_sidebar_fill_color
p36
g23
sVprofile_text_color
p37
V1F1E1C
p38
sVfollowers_count
p39
I7813566
sVprofile_sidebar_border_color
p40
VFFFFFF
p41
sVid_str
p42
V254274083
p43
sVprofile_background_color
p44
V050505
p45
sVlisted_count
p46
I8380
sVprofile_background_image_url_https
p47
Vhttps://pbs.twimg.com/profile_background_images/439081688908316672/3RtdJ1Hd.jpeg
p48
sVutc_offset
p49
I-14400
sVstatuses_count
p50
I2816
sVdescription
p51
NsVfriends_count
p52
I588
sVlocation
p53
Vwww.marcanthonyonline.com
p54
sVprofile_link_color
p55
V0A0A0A
p56
sVprofile_image_url
p57
Vhttp://pbs.twimg.com/profile_images/613379131347206144/9nwd29RQ_normal.jpg
p58
sVfollowing
p59
NsVgeo_enabled
p60
I01
sVprofile_banner_url
p61
Vhttps://pbs.twimg.com/profile_banners/254274083/1435076187
p62
sVprofile_background_image_url
p63
Vhttp://pbs.twimg.com/profile_background_images/439081688908316672/3RtdJ1Hd.jpeg
p64
sVname
p65
VMarc Anthony
p66
sVlang
p67
Ven
p68
sVprofile_background_tile
p69
I00
sVfavourites_count
p70
I376
sVscreen_name
p71
VMarcAnthony
p72
sVnotifications
p73
NsVurl
p74
Vhttps://www.facebook.com/officialmarcanthony
p75
sVcreated_at
p76
VFri Feb 18 23:59:54 +0000 2011
p77
sVcontributors_enabled
p78
I00
sVtime_zone
p79
VEastern Time (US & Canada)
p80
sVprotected
p81
I00
sVdefault_profile
p82
I00
sVis_translator
p83
I00
ssS'contributors_enabled'
p84
I00
sS'profile_text_color'
p85
g38
sS'followers_count'
p86
I7813566
sS'profile_sidebar_border_color'
p87
g41
sS'location'
p88
g54
sS'default_profile_image'
p89
I00
sS'id_str'
p90
g43
sS'utc_offset'
p91
I-14400
sS'statuses_count'
p92
I2816
sS'description'
p93
NsS'friends_count'
p94
I588
sS'profile_link_color'
p95
g56
sS'profile_image_url'
p96
g58
sS'notifications'
p97
NsS'geo_enabled'
p98
I01
sS'profile_background_color'
p99
g45
sS'profile_banner_url'
p100
g62
sS'profile_background_image_url'
p101
g64
sS'name'
p102
g66
sS'lang'
p103
g68
sS'following'
p104
I00
sS'profile_background_tile'
p105
I00
sS'favourites_count'
p106
I376
sS'screen_name'
p107
g72
sS'url'
p108
g75
sS'created_at'
p109
cdatetime
datetime
p110
(S'\x07\xdb\x02\x12\x17;6\x00\x00\x00'
p111
tp112
Rp113
sS'profile_background_image_url_https'
p114
g48
sS'time_zone'
p115
g80
sS'protected'
p116
I00
sS'default_profile'
p117
I00
sS'is_translator'
p118
I00
sS'listed_count'
p119
I8380
sbsS'filter_level'
p120
Vlow
p121
sS'geo'
p122
Nsg24
I618839267868065792
sS'favorite_count'
p123
I0
sS'source'
p124
VTwitter Web Client
p125
sg103
Ven
p126
sS'author'
p127
g18
sS'in_reply_to_user_id_str'
p128
Nsg28
(dp129
Vcontributors
p130
NsVtruncated
p131
I00
sVtext
p132
g10
sVin_reply_to_status_id
p133
Nsg33
I618839267868065792
sVfavorite_count
p134
I0
sVsource
p135
V<a href="http://twitter.com" rel="nofollow">Twitter Web Client</a>
p136
sVretweeted
p137
I00
sVcoordinates
p138
NsVtimestamp_ms
p139
V1436377753594
p140
sVentities
p141
(dp142
Vsymbols
p143
(lp144
sVmedia
p145
(lp146
(dp147
Vexpanded_url
p148
Vhttp://twitter.com/MarcAnthony/status/618839267868065792/photo/1
p149
sVdisplay_url
p150
Vpic.twitter.com/WRvmhLTawA
p151
sg74
Vhttp://t.co/WRvmhLTawA
p152
sVmedia_url_https
p153
Vhttps://pbs.twimg.com/media/CJaPCOyUsAAHqJZ.jpg
p154
sg42
V618839267301699584
p155
sVsizes
p156
(dp157
Vlarge
p158
(dp159
Vh
p160
I672
sVresize
p161
Vfit
p162
sVw
p163
I672
ssVsmall
p164
(dp165
g160
I340
sg161
Vfit
p166
sg163
I340
ssVmedium
p167
(dp168
g160
I600
sg161
Vfit
p169
sg163
I600
ssVthumb
p170
(dp171
g160
I150
sg161
Vcrop
p172
sg163
I150
sssVindices
p173
(lp174
I115
aI137
asVtype
p175
Vphoto
p176
sg33
I618839267301699584
sVmedia_url
p177
Vhttp://pbs.twimg.com/media/CJaPCOyUsAAHqJZ.jpg
p178
sasVhashtags
p179
(lp180
(dp181
g173
(lp182
I14
aI20
asg132
VSpain
p183
sa(dp184
g173
(lp185
I33
aI46
asg132
VCambioDePiel
p186
sa(dp187
g173
(lp188
I47
aI60
asg132
VEuropeantour
p189
sasVuser_mentions
p190
(lp191
sVtrends
p192
(lp193
sVurls
p194
(lp195
(dp196
g74
Vhttp://t.co/EFzcJB1aaH
p197
sg173
(lp198
I92
aI114
asg148
Vhttp://www.marcanthonyonline.com
p199
sg150
Vmarcanthonyonline.com
p200
sassVin_reply_to_screen_name
p201
Nsg42
V618839267868065792
p202
sVretweet_count
p203
I0
sVin_reply_to_user_id
p204
NsVfavorited
p205
I00
sVuser
p206
g29
sVgeo
p207
NsVin_reply_to_user_id_str
p208
NsVpossibly_sensitive
p209
I00
sg67
g126
sg76
VWed Jul 08 17:49:13 +0000 2015
p210
sVfilter_level
p211
g121
sVin_reply_to_status_id_str
p212
NsVplace
p213
(dp214
Vfull_name
p215
VZurich, Switzerland
p216
sg74
Vhttps://api.twitter.com/1.1/geo/id/3acb748d0f1e9265.json
p217
sVcountry
p218
VSchweiz
p219
sVplace_type
p220
Vcity
p221
sVbounding_box
p222
(dp223
g175
VPolygon
p224
sg138
(lp225
(lp226
(lp227
F8.448081
aF47.320183
aa(lp228
F8.448081
aF47.434721
aa(lp229
F8.625442
aF47.434721
aa(lp230
F8.625442
aF47.320183
aaassVcountry_code
p231
VCH
p232
sVattributes
p233
(dp234
sg33
V3acb748d0f1e9265
p235
sg65
VZurich
p236
ssVextended_entities
p237
(dp238
g145
(lp239
(dp240
g148
Vhttp://twitter.com/MarcAnthony/status/618839267868065792/photo/1
p241
sg150
Vpic.twitter.com/WRvmhLTawA
p242
sg74
Vhttp://t.co/WRvmhLTawA
p243
sg153
Vhttps://pbs.twimg.com/media/CJaPCOyUsAAHqJZ.jpg
p244
sg42
V618839267301699584
p245
sg156
(dp246
g158
(dp247
g160
I672
sg161
Vfit
p248
sg163
I672
ssg164
(dp249
g160
I340
sg161
Vfit
p250
sg163
I340
ssg167
(dp251
g160
I600
sg161
Vfit
p252
sg163
I600
ssg170
(dp253
g160
I150
sg161
Vcrop
p254
sg163
I150
sssg173
(lp255
I115
aI137
asg175
Vphoto
p256
sg33
I618839267301699584
sg177
Vhttp://pbs.twimg.com/media/CJaPCOyUsAAHqJZ.jpg
p257
sasssS'coordinates'
p258
NsS'timestamp_ms'
p259
g140
sS'entities'
p260
g142
sS'in_reply_to_status_id_str'
p261
NsS'in_reply_to_screen_name'
p262
Nsg90
g202
sS'extended_entities'
p263
g238
sS'retweeted'
p264
I00
sS'place'
p265
g0
(ctweepy.models
Place
p266
g2
Ntp267
Rp268
(dp269
S'full_name'
p270
g216
sg108
g217
sS'country'
p271
g219
sS'place_type'
p272
g221
sS'bounding_box'
p273
g0
(ctweepy.models
BoundingBox
p274
g2
Ntp275
Rp276
(dp277
S'type'
p278
g224
sg258
g225
sbsS'country_code'
p279
g232
sS'attributes'
p280
g234
sg24
g235
sg102
g236
sbsS'retweet_count'
p281
I0
sg109
g110
(S'\x07\xdf\x07\x08\x111\r\x00\x00\x00'
p282
tp283
Rp284
sS'in_reply_to_user_id'
p285
Nsb.