ccopy_reg
_reconstructor
p0
(ctweepy.models
Status
p1
c__builtin__
object
p2
Ntp3
Rp4
(dp5
S'favorited'
p6
I00
sS'contributors'
p7
NsS'truncated'
p8
I00
sS'text'
p9
V\u0397 \u03c3\u03c5\u03bd\u03c4\u03c1\u03cc\u03c6\u03b9\u03c3\u03b1 \u039a\u03b1\u03c4\u03b5\u03c1\u03af\u03bd\u03b1 \u03bc\u03b5\u03c4\u03ac \u03c4\u03bf\u03bd \u03c0\u03b1\u03c4\u03c1\u03b9\u03c9\u03c4\u03b9\u03ba\u03cc \u0395\u039d\u03a6\u0399\u0391 \u03b8\u03b1 \u03c5\u03b9\u03bf\u03b8\u03b5\u03c4\u03ae\u03c3\u03b5\u03b9 \u03ba\u03b1\u03b9 \u03c4\u03bf \u03b1\u03c1\u03b9\u03c3\u03c4\u03b5\u03c1\u03cc \u03bc\u03bd\u03b5\u03bc\u03cc\u03bd\u03b9\u03bf ?  #ti_zoume #syriza_apateones
p10
sS'source_url'
p11
Vhttp://twitter.com
p12
sS'possibly_sensitive'
p13
I00
sS'in_reply_to_status_id'
p14
NsS'user'
p15
g0
(ctweepy.models
User
p16
g2
Ntp17
Rp18
(dp19
S'follow_request_sent'
p20
NsS'profile_use_background_image'
p21
I01
sS'profile_sidebar_fill_color'
p22
VDDEEF6
p23
sS'id'
p24
I183174192
sS'verified'
p25
I00
sS'profile_image_url_https'
p26
Vhttps://pbs.twimg.com/profile_images/587122028693561344/KQR5Td2I_normal.jpg
p27
sS'_json'
p28
(dp29
Vfollow_request_sent
p30
NsVprofile_use_background_image
p31
I01
sVdefault_profile_image
p32
I00
sVid
p33
I183174192
sVverified
p34
I00
sVprofile_image_url_https
p35
g27
sVprofile_sidebar_fill_color
p36
g23
sVprofile_text_color
p37
V333333
p38
sVfollowers_count
p39
I2741
sVprofile_sidebar_border_color
p40
VFFFFFF
p41
sVid_str
p42
V183174192
p43
sVprofile_background_color
p44
VC0DEED
p45
sVlisted_count
p46
I48
sVprofile_background_image_url_https
p47
Vhttps://pbs.twimg.com/profile_background_images/378800000179940940/xVkc86zq.jpeg
p48
sVutc_offset
p49
I7200
sVstatuses_count
p50
I34535
sVdescription
p51
VWhat do I know 'bout diamonds ? I'm a natural...  always in A State of Trance, playing basketball since ages http://note.io/VDvlEW
p52
sVfriends_count
p53
I2969
sVlocation
p54
V\u0396urich
p55
sVprofile_link_color
p56
V3B94D9
p57
sVprofile_image_url
p58
Vhttp://pbs.twimg.com/profile_images/587122028693561344/KQR5Td2I_normal.jpg
p59
sVfollowing
p60
NsVgeo_enabled
p61
I01
sVprofile_banner_url
p62
Vhttps://pbs.twimg.com/profile_banners/183174192/1406671192
p63
sVprofile_background_image_url
p64
Vhttp://pbs.twimg.com/profile_background_images/378800000179940940/xVkc86zq.jpeg
p65
sVname
p66
VTo\u039corrowl\u0391\u039dd_OS
p67
sVlang
p68
Ven
p69
sVprofile_background_tile
p70
I00
sVfavourites_count
p71
I34349
sVscreen_name
p72
VmanZpan
p73
sVnotifications
p74
NsVurl
p75
NsVcreated_at
p76
VThu Aug 26 09:51:15 +0000 2010
p77
sVcontributors_enabled
p78
I00
sVtime_zone
p79
VBern
p80
sVprotected
p81
I00
sVdefault_profile
p82
I00
sVis_translator
p83
I00
ssS'contributors_enabled'
p84
I00
sS'profile_text_color'
p85
g38
sS'followers_count'
p86
I2741
sS'profile_sidebar_border_color'
p87
g41
sS'location'
p88
g55
sS'default_profile_image'
p89
I00
sS'id_str'
p90
g43
sS'utc_offset'
p91
I7200
sS'statuses_count'
p92
I34535
sS'description'
p93
g52
sS'friends_count'
p94
I2969
sS'profile_link_color'
p95
g57
sS'profile_image_url'
p96
g59
sS'notifications'
p97
NsS'geo_enabled'
p98
I01
sS'profile_background_color'
p99
g45
sS'profile_banner_url'
p100
g63
sS'profile_background_image_url'
p101
g65
sS'name'
p102
g67
sS'lang'
p103
g69
sS'following'
p104
I00
sS'profile_background_tile'
p105
I00
sS'favourites_count'
p106
I34349
sS'screen_name'
p107
g73
sS'url'
p108
NsS'created_at'
p109
cdatetime
datetime
p110
(S'\x07\xda\x08\x1a\t3\x0f\x00\x00\x00'
p111
tp112
Rp113
sS'profile_background_image_url_https'
p114
g48
sS'time_zone'
p115
g80
sS'protected'
p116
I00
sS'default_profile'
p117
I00
sS'is_translator'
p118
I00
sS'listed_count'
p119
I48
sbsS'filter_level'
p120
Vlow
p121
sS'geo'
p122
Nsg24
I621300837407719424
sS'favorite_count'
p123
I0
sS'source'
p124
VTwitter Web Client
p125
sg103
Vel
p126
sS'author'
p127
g18
sS'in_reply_to_user_id_str'
p128
Nsg28
(dp129
Vcontributors
p130
NsVtruncated
p131
I00
sVtext
p132
g10
sVin_reply_to_status_id
p133
Nsg33
I621300837407719424
sVfavorite_count
p134
I0
sVsource
p135
V<a href="http://twitter.com" rel="nofollow">Twitter Web Client</a>
p136
sVretweeted
p137
I00
sVcoordinates
p138
NsVtimestamp_ms
p139
V1436964637506
p140
sVentities
p141
(dp142
Vuser_mentions
p143
(lp144
sVsymbols
p145
(lp146
sVtrends
p147
(lp148
sVhashtags
p149
(lp150
(dp151
Vindices
p152
(lp153
I90
aI99
asg132
Vti_zoume
p154
sa(dp155
g152
(lp156
I100
aI117
asg132
Vsyriza_apateones
p157
sasVurls
p158
(lp159
ssVin_reply_to_screen_name
p160
Nsg42
V621300837407719424
p161
sVretweet_count
p162
I0
sVin_reply_to_user_id
p163
NsVfavorited
p164
I00
sVuser
p165
g29
sVgeo
p166
NsVin_reply_to_user_id_str
p167
NsVpossibly_sensitive
p168
I00
sg68
g126
sg76
VWed Jul 15 12:50:37 +0000 2015
p169
sVfilter_level
p170
g121
sVin_reply_to_status_id_str
p171
NsVplace
p172
(dp173
Vfull_name
p174
VZurich, Switzerland
p175
sg75
Vhttps://api.twitter.com/1.1/geo/id/3acb748d0f1e9265.json
p176
sVcountry
p177
VSchweiz
p178
sVplace_type
p179
Vcity
p180
sVbounding_box
p181
(dp182
Vtype
p183
VPolygon
p184
sg138
(lp185
(lp186
(lp187
F8.448081
aF47.320183
aa(lp188
F8.448081
aF47.434721
aa(lp189
F8.625442
aF47.434721
aa(lp190
F8.625442
aF47.320183
aaassVcountry_code
p191
VCH
p192
sVattributes
p193
(dp194
sg33
V3acb748d0f1e9265
p195
sg66
VZurich
p196
sssS'coordinates'
p197
NsS'timestamp_ms'
p198
g140
sS'entities'
p199
g142
sS'in_reply_to_status_id_str'
p200
NsS'in_reply_to_screen_name'
p201
Nsg90
g161
sS'retweeted'
p202
I00
sS'place'
p203
g0
(ctweepy.models
Place
p204
g2
Ntp205
Rp206
(dp207
S'full_name'
p208
g175
sg108
g176
sS'country'
p209
g178
sS'place_type'
p210
g180
sS'bounding_box'
p211
g0
(ctweepy.models
BoundingBox
p212
g2
Ntp213
Rp214
(dp215
S'type'
p216
g184
sg197
g185
sbsS'country_code'
p217
g192
sS'attributes'
p218
g194
sg24
g195
sg102
g196
sbsS'retweet_count'
p219
I0
sg109
g110
(S'\x07\xdf\x07\x0f\x0c2%\x00\x00\x00'
p220
tp221
Rp222
sS'in_reply_to_user_id'
p223
Nsb.