ccopy_reg
_reconstructor
p0
(ctweepy.models
Status
p1
c__builtin__
object
p2
Ntp3
Rp4
(dp5
S'favorited'
p6
I00
sS'contributors'
p7
NsS'truncated'
p8
I00
sS'text'
p9
V\u0642\u0645 \u0648 \u0642\u0627\u0648\u0645\u000a\u000a\u0648 \u0644\u0627 \u062a\u0633\u0627\u0648\u0645 \u000a\u000a\u0645\u0647\u0645\u0627 \u0648\u0639\u062f\u0648\u0643 ... \u0644\u0627 \u062a\u0623\u0645\u0646 \u0644\u0647\u0645 \u0641\u0625\u0646\u0647\u0645 \u064a\u062e\u062f\u0639\u0648\u0643 : \u0648 \u0633\u064a\u062d\u0627\u0633\u0628\u0648\u0646 http://t.co/TDJAs3GsG5
p10
sS'source_url'
p11
Vhttp://twitter.com
p12
sS'possibly_sensitive'
p13
I00
sS'in_reply_to_status_id'
p14
NsS'user'
p15
g0
(ctweepy.models
User
p16
g2
Ntp17
Rp18
(dp19
S'follow_request_sent'
p20
NsS'profile_use_background_image'
p21
I01
sS'profile_sidebar_fill_color'
p22
VDDEEF6
p23
sS'id'
p24
I2661333835
sS'verified'
p25
I00
sS'profile_image_url_https'
p26
Vhttps://pbs.twimg.com/profile_images/618820259982630912/AwP3crJk_normal.jpg
p27
sS'_json'
p28
(dp29
Vfollow_request_sent
p30
NsVprofile_use_background_image
p31
I01
sVdefault_profile_image
p32
I00
sVid
p33
I2661333835
sVverified
p34
I00
sVprofile_image_url_https
p35
g27
sVprofile_sidebar_fill_color
p36
g23
sVprofile_text_color
p37
V333333
p38
sVfollowers_count
p39
I1
sVprofile_sidebar_border_color
p40
VC0DEED
p41
sVid_str
p42
V2661333835
p43
sVprofile_background_color
p44
VC0DEED
p45
sVlisted_count
p46
I0
sVprofile_background_image_url_https
p47
Vhttps://abs.twimg.com/images/themes/theme1/bg.png
p48
sVutc_offset
p49
NsVstatuses_count
p50
I86
sVdescription
p51
NsVfriends_count
p52
I11
sVlocation
p53
V
p54
sVprofile_link_color
p55
V0084B4
p56
sVprofile_image_url
p57
Vhttp://pbs.twimg.com/profile_images/618820259982630912/AwP3crJk_normal.jpg
p58
sVfollowing
p59
NsVgeo_enabled
p60
I01
sVprofile_banner_url
p61
Vhttps://pbs.twimg.com/profile_banners/2661333835/1436373197
p62
sVprofile_background_image_url
p63
Vhttp://abs.twimg.com/images/themes/theme1/bg.png
p64
sVname
p65
VHosni Guermassi
p66
sVlang
p67
Vfr
p68
sVprofile_background_tile
p69
I00
sVfavourites_count
p70
I1
sVscreen_name
p71
Vzohramoud
p72
sVnotifications
p73
NsVurl
p74
NsVcreated_at
p75
VSun Jul 20 02:10:18 +0000 2014
p76
sVcontributors_enabled
p77
I00
sVtime_zone
p78
NsVprotected
p79
I00
sVdefault_profile
p80
I01
sVis_translator
p81
I00
ssS'contributors_enabled'
p82
I00
sS'profile_text_color'
p83
g38
sS'followers_count'
p84
I1
sS'profile_sidebar_border_color'
p85
g41
sS'location'
p86
g54
sS'default_profile_image'
p87
I00
sS'id_str'
p88
g43
sS'utc_offset'
p89
NsS'statuses_count'
p90
I86
sS'description'
p91
NsS'friends_count'
p92
I11
sS'profile_link_color'
p93
g56
sS'profile_image_url'
p94
g58
sS'notifications'
p95
NsS'geo_enabled'
p96
I01
sS'profile_background_color'
p97
g45
sS'profile_banner_url'
p98
g62
sS'profile_background_image_url'
p99
g64
sS'name'
p100
g66
sS'lang'
p101
g68
sS'following'
p102
I00
sS'profile_background_tile'
p103
I00
sS'favourites_count'
p104
I1
sS'screen_name'
p105
g72
sS'url'
p106
NsS'created_at'
p107
cdatetime
datetime
p108
(S'\x07\xde\x07\x14\x02\n\x12\x00\x00\x00'
p109
tp110
Rp111
sS'profile_background_image_url_https'
p112
g48
sS'time_zone'
p113
NsS'protected'
p114
I00
sS'default_profile'
p115
I01
sS'is_translator'
p116
I00
sS'listed_count'
p117
I0
sbsS'filter_level'
p118
Vlow
p119
sS'geo'
p120
Nsg24
I618881162044313600
sS'favorite_count'
p121
I0
sS'source'
p122
VTwitter Web Client
p123
sg101
Var
p124
sS'author'
p125
g18
sS'in_reply_to_user_id_str'
p126
Nsg28
(dp127
Vcontributors
p128
NsVtruncated
p129
I00
sVtext
p130
V\u0642\u0645 \u0648 \u0642\u0627\u0648\u0645\u000a\u000a\u0648 \u0644\u0627 \u062a\u0633\u0627\u0648\u0645 \u000a\u000a\u0645\u0647\u0645\u0627 \u0648\u0639\u062f\u0648\u0643 ... \u0644\u0627 \u062a\u0623\u0645\u0646 \u0644\u0647\u0645 \u0641\u0625\u0646\u0647\u0645 \u064a\u062e\u062f\u0639\u0648\u0643 : \u0648 \u0633\u064a\u062d\u0627\u0633\u0628\u0648\u0646 http://t.co/TDJAs3GsG5
p131
sVin_reply_to_status_id
p132
Nsg33
I618881162044313600
sVfavorite_count
p133
I0
sVsource
p134
V<a href="http://twitter.com" rel="nofollow">Twitter Web Client</a>
p135
sVretweeted
p136
I00
sVcoordinates
p137
NsVtimestamp_ms
p138
V1436387741944
p139
sVentities
p140
(dp141
Vsymbols
p142
(lp143
sVmedia
p144
(lp145
(dp146
Vexpanded_url
p147
Vhttp://twitter.com/zohramoud/status/618881162044313600/photo/1
p148
sVdisplay_url
p149
Vpic.twitter.com/TDJAs3GsG5
p150
sg74
Vhttp://t.co/TDJAs3GsG5
p151
sVmedia_url_https
p152
Vhttps://pbs.twimg.com/media/CJa1IwgUkAAKCMq.jpg
p153
sg42
V618881160874070016
p154
sVsizes
p155
(dp156
Vsmall
p157
(dp158
Vh
p159
I226
sVresize
p160
Vfit
p161
sVw
p162
I340
ssVlarge
p163
(dp164
g159
I639
sg160
Vfit
p165
sg162
I960
ssVmedium
p166
(dp167
g159
I399
sg160
Vfit
p168
sg162
I600
ssVthumb
p169
(dp170
g159
I150
sg160
Vcrop
p171
sg162
I150
sssVindices
p172
(lp173
I77
aI99
asVtype
p174
Vphoto
p175
sg33
I618881160874070016
sVmedia_url
p176
Vhttp://pbs.twimg.com/media/CJa1IwgUkAAKCMq.jpg
p177
sasVhashtags
p178
(lp179
sVuser_mentions
p180
(lp181
sVtrends
p182
(lp183
sVurls
p184
(lp185
ssVin_reply_to_screen_name
p186
Nsg42
V618881162044313600
p187
sVretweet_count
p188
I0
sVin_reply_to_user_id
p189
NsVfavorited
p190
I00
sVuser
p191
g29
sVgeo
p192
NsVin_reply_to_user_id_str
p193
NsVpossibly_sensitive
p194
I00
sg67
g124
sg75
VWed Jul 08 20:35:41 +0000 2015
p195
sVfilter_level
p196
g119
sVin_reply_to_status_id_str
p197
NsVplace
p198
(dp199
Vfull_name
p200
VArgovie, Suisse
p201
sg74
Vhttps://api.twitter.com/1.1/geo/id/64c89c3f0e8b8b2e.json
p202
sVcountry
p203
VSchweiz
p204
sVplace_type
p205
Vadmin
p206
sVbounding_box
p207
(dp208
g174
VPolygon
p209
sg137
(lp210
(lp211
(lp212
F7.713449
aF47.137443
aa(lp213
F7.713449
aF47.621039
aa(lp214
F8.455222
aF47.621039
aa(lp215
F8.455222
aF47.137443
aaassVcountry_code
p216
VCH
p217
sVattributes
p218
(dp219
sg33
V64c89c3f0e8b8b2e
p220
sg65
VArgovie
p221
ssVextended_entities
p222
(dp223
g144
(lp224
(dp225
g147
Vhttp://twitter.com/zohramoud/status/618881162044313600/photo/1
p226
sg149
Vpic.twitter.com/TDJAs3GsG5
p227
sg74
Vhttp://t.co/TDJAs3GsG5
p228
sg152
Vhttps://pbs.twimg.com/media/CJa1IwgUkAAKCMq.jpg
p229
sg42
V618881160874070016
p230
sg155
(dp231
g157
(dp232
g159
I226
sg160
Vfit
p233
sg162
I340
ssg163
(dp234
g159
I639
sg160
Vfit
p235
sg162
I960
ssg166
(dp236
g159
I399
sg160
Vfit
p237
sg162
I600
ssg169
(dp238
g159
I150
sg160
Vcrop
p239
sg162
I150
sssg172
(lp240
I77
aI99
asg174
Vphoto
p241
sg33
I618881160874070016
sg176
Vhttp://pbs.twimg.com/media/CJa1IwgUkAAKCMq.jpg
p242
sasssS'coordinates'
p243
NsS'timestamp_ms'
p244
g139
sS'entities'
p245
g141
sS'in_reply_to_status_id_str'
p246
NsS'in_reply_to_screen_name'
p247
Nsg88
g187
sS'extended_entities'
p248
g223
sS'retweeted'
p249
I00
sS'place'
p250
g0
(ctweepy.models
Place
p251
g2
Ntp252
Rp253
(dp254
S'full_name'
p255
g201
sg106
g202
sS'country'
p256
g204
sS'place_type'
p257
g206
sS'bounding_box'
p258
g0
(ctweepy.models
BoundingBox
p259
g2
Ntp260
Rp261
(dp262
S'type'
p263
g209
sg243
g210
sbsS'country_code'
p264
g217
sS'attributes'
p265
g219
sg24
g220
sg100
g221
sbsS'retweet_count'
p266
I0
sg107
g108
(S'\x07\xdf\x07\x08\x14#)\x00\x00\x00'
p267
tp268
Rp269
sS'in_reply_to_user_id'
p270
Nsb.