ccopy_reg
_reconstructor
p0
(ctweepy.models
Status
p1
c__builtin__
object
p2
Ntp3
Rp4
(dp5
S'favorited'
p6
I00
sS'contributors'
p7
NsS'truncated'
p8
I00
sS'text'
p9
V@starbuxman @olivergierke, thanks, danke! :)
p10
sS'source_url'
p11
Vhttp://twitter.com/download/iphone
p12
sS'possibly_sensitive'
p13
I00
sS'in_reply_to_status_id'
p14
I618566634211389440
sS'user'
p15
g0
(ctweepy.models
User
p16
g2
Ntp17
Rp18
(dp19
S'follow_request_sent'
p20
NsS'profile_use_background_image'
p21
I01
sS'profile_sidebar_fill_color'
p22
V95AD66
p23
sS'id'
p24
I59795884
sS'verified'
p25
I00
sS'profile_image_url_https'
p26
Vhttps://pbs.twimg.com/profile_images/331969099/Sam_Brannen_business_casual_closeup_square_normal.jpg
p27
sS'_json'
p28
(dp29
Vfollow_request_sent
p30
NsVprofile_use_background_image
p31
I01
sVdefault_profile_image
p32
I00
sVid
p33
I59795884
sVverified
p34
I00
sVprofile_image_url_https
p35
g27
sVprofile_sidebar_fill_color
p36
g23
sVprofile_text_color
p37
V2A2E0E
p38
sVfollowers_count
p39
I1253
sVprofile_sidebar_border_color
p40
V404D2D
p41
sVid_str
p42
V59795884
p43
sVprofile_background_color
p44
V352726
p45
sVlisted_count
p46
I80
sVprofile_background_image_url_https
p47
Vhttps://abs.twimg.com/images/themes/theme5/bg.gif
p48
sVutc_offset
p49
I7200
sVstatuses_count
p50
I1494
sVdescription
p51
VCore @SpringFramework Committer. Enterprise @Java Consultant at @Swiftmind. Spring Trainer for @Pivotal. Spring User Group Lead at @JUGCH.
p52
sVfriends_count
p53
I384
sVlocation
p54
VZurich, Switzerland
p55
sVprofile_link_color
p56
V495F9C
p57
sVprofile_image_url
p58
Vhttp://pbs.twimg.com/profile_images/331969099/Sam_Brannen_business_casual_closeup_square_normal.jpg
p59
sVfollowing
p60
NsVgeo_enabled
p61
I01
sVprofile_banner_url
p62
Vhttps://pbs.twimg.com/profile_banners/59795884/1357295112
p63
sVprofile_background_image_url
p64
Vhttp://abs.twimg.com/images/themes/theme5/bg.gif
p65
sVname
p66
VSam Brannen
p67
sVlang
p68
Ven
p69
sVprofile_background_tile
p70
I00
sVfavourites_count
p71
I261
sVscreen_name
p72
Vsam_brannen
p73
sVnotifications
p74
NsVurl
p75
Vhttp://SamBrannen.com
p76
sVcreated_at
p77
VFri Jul 24 14:29:40 +0000 2009
p78
sVcontributors_enabled
p79
I00
sVtime_zone
p80
VBern
p81
sVprotected
p82
I00
sVdefault_profile
p83
I00
sVis_translator
p84
I00
ssS'contributors_enabled'
p85
I00
sS'profile_text_color'
p86
g38
sS'followers_count'
p87
I1253
sS'profile_sidebar_border_color'
p88
g41
sS'location'
p89
g55
sS'default_profile_image'
p90
I00
sS'id_str'
p91
g43
sS'utc_offset'
p92
I7200
sS'statuses_count'
p93
I1494
sS'description'
p94
g52
sS'friends_count'
p95
I384
sS'profile_link_color'
p96
g57
sS'profile_image_url'
p97
g59
sS'notifications'
p98
NsS'geo_enabled'
p99
I01
sS'profile_background_color'
p100
g45
sS'profile_banner_url'
p101
g63
sS'profile_background_image_url'
p102
g65
sS'name'
p103
g67
sS'lang'
p104
g69
sS'following'
p105
I00
sS'profile_background_tile'
p106
I00
sS'favourites_count'
p107
I261
sS'screen_name'
p108
g73
sS'url'
p109
g76
sS'created_at'
p110
cdatetime
datetime
p111
(S'\x07\xd9\x07\x18\x0e\x1d(\x00\x00\x00'
p112
tp113
Rp114
sS'profile_background_image_url_https'
p115
g48
sS'time_zone'
p116
g81
sS'protected'
p117
I00
sS'default_profile'
p118
I00
sS'is_translator'
p119
I00
sS'listed_count'
p120
I80
sbsS'filter_level'
p121
Vlow
p122
sS'geo'
p123
Nsg24
I618738743307051008
sS'favorite_count'
p124
I0
sS'source'
p125
VTwitter for iPhone
p126
sg104
Ven
p127
sS'author'
p128
g18
sS'in_reply_to_user_id_str'
p129
V4324751
p130
sg28
(dp131
Vcontributors
p132
NsVtruncated
p133
I00
sVtext
p134
g10
sVin_reply_to_status_id
p135
I618566634211389440
sg33
I618738743307051008
sVfavorite_count
p136
I0
sVsource
p137
V<a href="http://twitter.com/download/iphone" rel="nofollow">Twitter for iPhone</a>
p138
sVretweeted
p139
I00
sVcoordinates
p140
NsVtimestamp_ms
p141
V1436353786671
p142
sVentities
p143
(dp144
Vuser_mentions
p145
(lp146
(dp147
g33
I4324751
sVindices
p148
(lp149
I0
aI11
asg42
V4324751
p150
sg72
Vstarbuxman
p151
sg66
VJosh Long (\u9f99\u4e4b\u6625)
p152
sa(dp153
g33
I16736130
sg148
(lp154
I12
aI25
asg42
V16736130
p155
sg72
Volivergierke
p156
sg66
VOliver Gierke
p157
sasVsymbols
p158
(lp159
sVtrends
p160
(lp161
sVhashtags
p162
(lp163
sVurls
p164
(lp165
ssVin_reply_to_screen_name
p166
Vstarbuxman
p167
sg42
V618738743307051008
p168
sVretweet_count
p169
I0
sVin_reply_to_user_id
p170
I4324751
sVfavorited
p171
I00
sVuser
p172
g29
sVgeo
p173
NsVin_reply_to_user_id_str
p174
g130
sVpossibly_sensitive
p175
I00
sg68
g127
sg77
VWed Jul 08 11:09:46 +0000 2015
p176
sVfilter_level
p177
g122
sVin_reply_to_status_id_str
p178
V618566634211389440
p179
sVplace
p180
(dp181
Vfull_name
p182
VZurich, Switzerland
p183
sg75
Vhttps://api.twitter.com/1.1/geo/id/3acb748d0f1e9265.json
p184
sVcountry
p185
VSchweiz
p186
sVplace_type
p187
Vcity
p188
sVbounding_box
p189
(dp190
Vtype
p191
VPolygon
p192
sg140
(lp193
(lp194
(lp195
F8.448081
aF47.320183
aa(lp196
F8.448081
aF47.434721
aa(lp197
F8.625442
aF47.434721
aa(lp198
F8.625442
aF47.320183
aaassVcountry_code
p199
VCH
p200
sVattributes
p201
(dp202
sg33
V3acb748d0f1e9265
p203
sg66
VZurich
p204
sssS'coordinates'
p205
NsS'timestamp_ms'
p206
g142
sS'entities'
p207
g144
sS'in_reply_to_status_id_str'
p208
g179
sS'in_reply_to_screen_name'
p209
g167
sg91
g168
sS'retweeted'
p210
I00
sS'place'
p211
g0
(ctweepy.models
Place
p212
g2
Ntp213
Rp214
(dp215
S'full_name'
p216
g183
sg109
g184
sS'country'
p217
g186
sS'place_type'
p218
g188
sS'bounding_box'
p219
g0
(ctweepy.models
BoundingBox
p220
g2
Ntp221
Rp222
(dp223
S'type'
p224
g192
sg205
g193
sbsS'country_code'
p225
g200
sS'attributes'
p226
g202
sg24
g203
sg103
g204
sbsS'retweet_count'
p227
I0
sg110
g111
(S'\x07\xdf\x07\x08\x0b\t.\x00\x00\x00'
p228
tp229
Rp230
sS'in_reply_to_user_id'
p231
I4324751
sb.