ccopy_reg
_reconstructor
p0
(ctweepy.models
Status
p1
c__builtin__
object
p2
Ntp3
Rp4
(dp5
S'favorited'
p6
I00
sS'contributors'
p7
NsS'truncated'
p8
I00
sS'text'
p9
V@walkers1867 @RumoursSWFC @TFS_Blackburn He needs a bit of this under his arms http://t.co/TII3k7SlH7
p10
sS'source_url'
p11
Vhttp://twitter.com
p12
sS'possibly_sensitive'
p13
I00
sS'in_reply_to_status_id'
p14
I619505252899901440
sS'user'
p15
g0
(ctweepy.models
User
p16
g2
Ntp17
Rp18
(dp19
S'follow_request_sent'
p20
NsS'profile_use_background_image'
p21
I01
sS'profile_sidebar_fill_color'
p22
VDDEEF6
p23
sS'id'
p24
I74424395
sS'verified'
p25
I00
sS'profile_image_url_https'
p26
Vhttps://pbs.twimg.com/profile_images/378800000034592130/47927e1ba62076a19094366074e52aa5_normal.jpeg
p27
sS'_json'
p28
(dp29
Vfollow_request_sent
p30
NsVprofile_use_background_image
p31
I01
sVdefault_profile_image
p32
I00
sVid
p33
I74424395
sVverified
p34
I00
sVprofile_image_url_https
p35
g27
sVprofile_sidebar_fill_color
p36
g23
sVprofile_text_color
p37
V333333
p38
sVfollowers_count
p39
I1081
sVprofile_sidebar_border_color
p40
VC0DEED
p41
sVid_str
p42
V74424395
p43
sVprofile_background_color
p44
VC0DEED
p45
sVlisted_count
p46
I7
sVprofile_background_image_url_https
p47
Vhttps://abs.twimg.com/images/themes/theme1/bg.png
p48
sVutc_offset
p49
I7200
sVstatuses_count
p50
I12254
sVdescription
p51
VDonny lad dragged to Switzerland 14 years ago, still loving the owls from afar. Massive back where they belong soon rather than later wawaw
p52
sVfriends_count
p53
I1164
sVlocation
p54
VSwitzerland
p55
sVprofile_link_color
p56
V0084B4
p57
sVprofile_image_url
p58
Vhttp://pbs.twimg.com/profile_images/378800000034592130/47927e1ba62076a19094366074e52aa5_normal.jpeg
p59
sVfollowing
p60
NsVgeo_enabled
p61
I01
sVprofile_banner_url
p62
Vhttps://pbs.twimg.com/profile_banners/74424395/1397376932
p63
sVprofile_background_image_url
p64
Vhttp://abs.twimg.com/images/themes/theme1/bg.png
p65
sVname
p66
VSwissowls
p67
sVlang
p68
Ven
p69
sVprofile_background_tile
p70
I00
sVfavourites_count
p71
I11686
sVscreen_name
p72
Vbadendido
p73
sVnotifications
p74
NsVurl
p75
NsVcreated_at
p76
VTue Sep 15 11:30:41 +0000 2009
p77
sVcontributors_enabled
p78
I00
sVtime_zone
p79
VBern
p80
sVprotected
p81
I00
sVdefault_profile
p82
I01
sVis_translator
p83
I00
ssS'contributors_enabled'
p84
I00
sS'profile_text_color'
p85
g38
sS'followers_count'
p86
I1081
sS'profile_sidebar_border_color'
p87
g41
sS'location'
p88
g55
sS'default_profile_image'
p89
I00
sS'id_str'
p90
g43
sS'utc_offset'
p91
I7200
sS'statuses_count'
p92
I12254
sS'description'
p93
g52
sS'friends_count'
p94
I1164
sS'profile_link_color'
p95
g57
sS'profile_image_url'
p96
g59
sS'notifications'
p97
NsS'geo_enabled'
p98
I01
sS'profile_background_color'
p99
g45
sS'profile_banner_url'
p100
g63
sS'profile_background_image_url'
p101
g65
sS'name'
p102
g67
sS'lang'
p103
g69
sS'following'
p104
I00
sS'profile_background_tile'
p105
I00
sS'favourites_count'
p106
I11686
sS'screen_name'
p107
g73
sS'url'
p108
NsS'created_at'
p109
cdatetime
datetime
p110
(S'\x07\xd9\t\x0f\x0b\x1e)\x00\x00\x00'
p111
tp112
Rp113
sS'profile_background_image_url_https'
p114
g48
sS'time_zone'
p115
g80
sS'protected'
p116
I00
sS'default_profile'
p117
I01
sS'is_translator'
p118
I00
sS'listed_count'
p119
I7
sbsS'filter_level'
p120
Vlow
p121
sS'geo'
p122
Nsg24
I619505560153640960
sS'favorite_count'
p123
I0
sS'source'
p124
VTwitter Web Client
p125
sg103
Ven
p126
sS'author'
p127
g18
sS'in_reply_to_user_id_str'
p128
V102034631
p129
sg28
(dp130
Vcontributors
p131
NsVtruncated
p132
I00
sVtext
p133
g10
sVin_reply_to_status_id
p134
I619505252899901440
sg33
I619505560153640960
sVfavorite_count
p135
I0
sVsource
p136
V<a href="http://twitter.com" rel="nofollow">Twitter Web Client</a>
p137
sVretweeted
p138
I00
sVcoordinates
p139
NsVtimestamp_ms
p140
V1436536610054
p141
sVentities
p142
(dp143
Vsymbols
p144
(lp145
sVmedia
p146
(lp147
(dp148
Vexpanded_url
p149
Vhttp://twitter.com/badendido/status/619505560153640960/photo/1
p150
sVdisplay_url
p151
Vpic.twitter.com/TII3k7SlH7
p152
sg75
Vhttp://t.co/TII3k7SlH7
p153
sVmedia_url_https
p154
Vhttps://pbs.twimg.com/media/CJjtBhSUwAAbEk3.jpg
p155
sg42
V619505559134322688
p156
sVsizes
p157
(dp158
Vlarge
p159
(dp160
Vh
p161
I800
sVresize
p162
Vfit
p163
sVw
p164
I525
ssVsmall
p165
(dp166
g161
I518
sg162
Vfit
p167
sg164
I340
ssVmedium
p168
(dp169
g161
I800
sg162
Vfit
p170
sg164
I525
ssVthumb
p171
(dp172
g161
I150
sg162
Vcrop
p173
sg164
I150
sssVindices
p174
(lp175
I79
aI101
asVtype
p176
Vphoto
p177
sg33
I619505559134322688
sVmedia_url
p178
Vhttp://pbs.twimg.com/media/CJjtBhSUwAAbEk3.jpg
p179
sasVhashtags
p180
(lp181
sVuser_mentions
p182
(lp183
(dp184
g33
I102034631
sg174
(lp185
I0
aI12
asg42
V102034631
p186
sg72
Vwalkers1867
p187
sg66
VLucifer's love child
p188
sa(dp189
g33
I585043437
sg174
(lp190
I13
aI25
asg42
V585043437
p191
sg72
VRumoursSWFC
p192
sg66
VSWFC Rumours
p193
sa(dp194
g33
I419559100
sg174
(lp195
I26
aI40
asg42
V419559100
p196
sg72
VTFS_Blackburn
p197
sg66
VTFS Blackburn Rovers
p198
sasVtrends
p199
(lp200
sVurls
p201
(lp202
ssVin_reply_to_screen_name
p203
Vwalkers1867
p204
sg42
V619505560153640960
p205
sVretweet_count
p206
I0
sVin_reply_to_user_id
p207
I102034631
sVfavorited
p208
I00
sVuser
p209
g29
sVgeo
p210
NsVin_reply_to_user_id_str
p211
g129
sVpossibly_sensitive
p212
I00
sg68
g126
sg76
VFri Jul 10 13:56:50 +0000 2015
p213
sVfilter_level
p214
g121
sVin_reply_to_status_id_str
p215
V619505252899901440
p216
sVplace
p217
(dp218
Vfull_name
p219
VZurich, Switzerland
p220
sg75
Vhttps://api.twitter.com/1.1/geo/id/3acb748d0f1e9265.json
p221
sVcountry
p222
VSchweiz
p223
sVplace_type
p224
Vcity
p225
sVbounding_box
p226
(dp227
g176
VPolygon
p228
sg139
(lp229
(lp230
(lp231
F8.448081
aF47.320183
aa(lp232
F8.448081
aF47.434721
aa(lp233
F8.625442
aF47.434721
aa(lp234
F8.625442
aF47.320183
aaassVcountry_code
p235
VCH
p236
sVattributes
p237
(dp238
sg33
V3acb748d0f1e9265
p239
sg66
VZurich
p240
ssVextended_entities
p241
(dp242
g146
(lp243
(dp244
g149
Vhttp://twitter.com/badendido/status/619505560153640960/photo/1
p245
sg151
Vpic.twitter.com/TII3k7SlH7
p246
sg75
Vhttp://t.co/TII3k7SlH7
p247
sg154
Vhttps://pbs.twimg.com/media/CJjtBhSUwAAbEk3.jpg
p248
sg42
V619505559134322688
p249
sg157
(dp250
g159
(dp251
g161
I800
sg162
Vfit
p252
sg164
I525
ssg165
(dp253
g161
I518
sg162
Vfit
p254
sg164
I340
ssg168
(dp255
g161
I800
sg162
Vfit
p256
sg164
I525
ssg171
(dp257
g161
I150
sg162
Vcrop
p258
sg164
I150
sssg174
(lp259
I79
aI101
asg176
Vphoto
p260
sg33
I619505559134322688
sg178
Vhttp://pbs.twimg.com/media/CJjtBhSUwAAbEk3.jpg
p261
sasssS'coordinates'
p262
NsS'timestamp_ms'
p263
g141
sS'entities'
p264
g143
sS'in_reply_to_status_id_str'
p265
g216
sS'in_reply_to_screen_name'
p266
g204
sg90
g205
sS'extended_entities'
p267
g242
sS'retweeted'
p268
I00
sS'place'
p269
g0
(ctweepy.models
Place
p270
g2
Ntp271
Rp272
(dp273
S'full_name'
p274
g220
sg108
g221
sS'country'
p275
g223
sS'place_type'
p276
g225
sS'bounding_box'
p277
g0
(ctweepy.models
BoundingBox
p278
g2
Ntp279
Rp280
(dp281
S'type'
p282
g228
sg262
g229
sbsS'country_code'
p283
g236
sS'attributes'
p284
g238
sg24
g239
sg102
g240
sbsS'retweet_count'
p285
I0
sg109
g110
(S'\x07\xdf\x07\n\r82\x00\x00\x00'
p286
tp287
Rp288
sS'in_reply_to_user_id'
p289
I102034631
sb.