ccopy_reg
_reconstructor
p0
(ctweepy.models
Status
p1
c__builtin__
object
p2
Ntp3
Rp4
(dp5
S'favorited'
p6
I00
sS'contributors'
p7
NsS'truncated'
p8
I00
sS'text'
p9
V\u82cf\u9ece\u4e16\u7684\u4ece\u524d \u3002\u3002 \u2708\u2708\u2708 @ Zurich International Airport, Switzerland https://t.co/nzOy8HZfCC
p10
sS'source_url'
p11
Vhttp://instagram.com
p12
sS'possibly_sensitive'
p13
I00
sS'in_reply_to_status_id'
p14
NsS'user'
p15
g0
(ctweepy.models
User
p16
g2
Ntp17
Rp18
(dp19
S'follow_request_sent'
p20
NsS'profile_use_background_image'
p21
I01
sS'profile_sidebar_fill_color'
p22
VDDEEF6
p23
sS'id'
p24
I1252432100
sS'verified'
p25
I00
sS'profile_image_url_https'
p26
Vhttps://pbs.twimg.com/profile_images/603088084075286528/tIvAZ8Dh_normal.jpg
p27
sS'_json'
p28
(dp29
Vfollow_request_sent
p30
NsVprofile_use_background_image
p31
I01
sVdefault_profile_image
p32
I00
sVid
p33
I1252432100
sVverified
p34
I00
sVprofile_image_url_https
p35
g27
sVprofile_sidebar_fill_color
p36
g23
sVprofile_text_color
p37
V333333
p38
sVfollowers_count
p39
I1125
sVprofile_sidebar_border_color
p40
VFFFFFF
p41
sVid_str
p42
V1252432100
p43
sVprofile_background_color
p44
VC0DEED
p45
sVlisted_count
p46
I15
sVprofile_background_image_url_https
p47
Vhttps://pbs.twimg.com/profile_background_images/378800000150742962/yR9KfDCe.jpeg
p48
sVutc_offset
p49
I23400
sVstatuses_count
p50
I7665
sVdescription
p51
VYoung Video Journalist. Buddhist-Christian. Support @FCBayern & @DFB_Team. Worship #PhilippLahm. Love Country Music & Mandopop. Matthew 6:34
p52
sVfriends_count
p53
I1867
sVlocation
p54
V
p55
sVprofile_link_color
p56
VF20C4D
p57
sVprofile_image_url
p58
Vhttp://pbs.twimg.com/profile_images/603088084075286528/tIvAZ8Dh_normal.jpg
p59
sVfollowing
p60
NsVgeo_enabled
p61
I01
sVprofile_banner_url
p62
Vhttps://pbs.twimg.com/profile_banners/1252432100/1427561492
p63
sVprofile_background_image_url
p64
Vhttp://pbs.twimg.com/profile_background_images/378800000150742962/yR9KfDCe.jpeg
p65
sVname
p66
VMyoset Nyeinchan 
p67
sVlang
p68
Ven
p69
sVprofile_background_tile
p70
I01
sVfavourites_count
p71
I6863
sVscreen_name
p72
VMiaSanJoni
p73
sVnotifications
p74
NsVurl
p75
Vhttp://www.kamayutmedia.com
p76
sVcreated_at
p77
VFri Mar 08 18:29:39 +0000 2013
p78
sVcontributors_enabled
p79
I00
sVtime_zone
p80
VRangoon
p81
sVprotected
p82
I00
sVdefault_profile
p83
I00
sVis_translator
p84
I00
ssS'contributors_enabled'
p85
I00
sS'profile_text_color'
p86
g38
sS'followers_count'
p87
I1125
sS'profile_sidebar_border_color'
p88
g41
sS'location'
p89
g55
sS'default_profile_image'
p90
I00
sS'id_str'
p91
g43
sS'utc_offset'
p92
I23400
sS'statuses_count'
p93
I7665
sS'description'
p94
g52
sS'friends_count'
p95
I1867
sS'profile_link_color'
p96
g57
sS'profile_image_url'
p97
g59
sS'notifications'
p98
NsS'geo_enabled'
p99
I01
sS'profile_background_color'
p100
g45
sS'profile_banner_url'
p101
g63
sS'profile_background_image_url'
p102
g65
sS'name'
p103
g67
sS'lang'
p104
g69
sS'following'
p105
I00
sS'profile_background_tile'
p106
I01
sS'favourites_count'
p107
I6863
sS'screen_name'
p108
g73
sS'url'
p109
g76
sS'created_at'
p110
cdatetime
datetime
p111
(S"\x07\xdd\x03\x08\x12\x1d'\x00\x00\x00"
p112
tp113
Rp114
sS'profile_background_image_url_https'
p115
g48
sS'time_zone'
p116
g81
sS'protected'
p117
I00
sS'default_profile'
p118
I00
sS'is_translator'
p119
I00
sS'listed_count'
p120
I15
sbsS'filter_level'
p121
Vlow
p122
sS'geo'
p123
(dp124
Vtype
p125
VPoint
p126
sVcoordinates
p127
(lp128
F47.372903
aF8.543785
assg24
I620453362874630144
sS'favorite_count'
p129
I0
sS'source'
p130
VInstagram
p131
sg104
Vzh
p132
sS'author'
p133
g18
sS'in_reply_to_user_id_str'
p134
Nsg28
(dp135
Vcontributors
p136
NsVtruncated
p137
I00
sVtext
p138
g10
sVin_reply_to_status_id
p139
Nsg33
I620453362874630144
sVfavorite_count
p140
I0
sVsource
p141
V<a href="http://instagram.com" rel="nofollow">Instagram</a>
p142
sVretweeted
p143
I00
sg127
(dp144
g125
VPoint
p145
sg127
(lp146
F8.543785
aF47.372903
assVtimestamp_ms
p147
V1436762583832
p148
sVentities
p149
(dp150
Vuser_mentions
p151
(lp152
sVsymbols
p153
(lp154
sVtrends
p155
(lp156
sVhashtags
p157
(lp158
sVurls
p159
(lp160
(dp161
g75
Vhttps://t.co/nzOy8HZfCC
p162
sVindices
p163
(lp164
I58
aI81
asVexpanded_url
p165
Vhttps://instagram.com/p/5EDYGfzdve/
p166
sVdisplay_url
p167
Vinstagram.com/p/5EDYGfzdve/
p168
sassVin_reply_to_screen_name
p169
Nsg42
V620453362874630144
p170
sVretweet_count
p171
I0
sVin_reply_to_user_id
p172
NsVfavorited
p173
I00
sVuser
p174
g29
sVgeo
p175
g124
sVin_reply_to_user_id_str
p176
NsVpossibly_sensitive
p177
I00
sg68
g132
sg77
VMon Jul 13 04:43:03 +0000 2015
p178
sVfilter_level
p179
g122
sVin_reply_to_status_id_str
p180
NsVplace
p181
(dp182
Vfull_name
p183
VZurich, Switzerland
p184
sg75
Vhttps://api.twitter.com/1.1/geo/id/3acb748d0f1e9265.json
p185
sVcountry
p186
VSchweiz
p187
sVplace_type
p188
Vcity
p189
sVbounding_box
p190
(dp191
g125
VPolygon
p192
sg127
(lp193
(lp194
(lp195
F8.448081
aF47.320183
aa(lp196
F8.448081
aF47.434721
aa(lp197
F8.625442
aF47.434721
aa(lp198
F8.625442
aF47.320183
aaassVcountry_code
p199
VCH
p200
sVattributes
p201
(dp202
sg33
V3acb748d0f1e9265
p203
sg66
VZurich
p204
sssS'coordinates'
p205
g144
sS'timestamp_ms'
p206
g148
sS'entities'
p207
g150
sS'in_reply_to_status_id_str'
p208
NsS'in_reply_to_screen_name'
p209
Nsg91
g170
sS'retweeted'
p210
I00
sS'place'
p211
g0
(ctweepy.models
Place
p212
g2
Ntp213
Rp214
(dp215
S'full_name'
p216
g184
sg109
g185
sS'country'
p217
g187
sS'place_type'
p218
g189
sS'bounding_box'
p219
g0
(ctweepy.models
BoundingBox
p220
g2
Ntp221
Rp222
(dp223
S'type'
p224
g192
sg205
g193
sbsS'country_code'
p225
g200
sS'attributes'
p226
g202
sg24
g203
sg103
g204
sbsS'retweet_count'
p227
I0
sg110
g111
(S'\x07\xdf\x07\r\x04+\x03\x00\x00\x00'
p228
tp229
Rp230
sS'in_reply_to_user_id'
p231
Nsb.