ccopy_reg
_reconstructor
p0
(ctweepy.models
Status
p1
c__builtin__
object
p2
Ntp3
Rp4
(dp5
S'favorited'
p6
I00
sS'contributors'
p7
NsS'truncated'
p8
I00
sS'text'
p9
V@TheManaSource or is he http://t.co/OirXElVhBj
p10
sS'source_url'
p11
Vhttp://twitter.com
p12
sS'possibly_sensitive'
p13
I00
sS'in_reply_to_status_id'
p14
I620621387892400128
sS'user'
p15
g0
(ctweepy.models
User
p16
g2
Ntp17
Rp18
(dp19
S'follow_request_sent'
p20
NsS'profile_use_background_image'
p21
I01
sS'profile_sidebar_fill_color'
p22
VDDEEF6
p23
sS'id'
p24
I2977834655
sS'verified'
p25
I00
sS'profile_image_url_https'
p26
Vhttps://pbs.twimg.com/profile_images/577213516169408512/Z6422MOv_normal.png
p27
sS'_json'
p28
(dp29
Vfollow_request_sent
p30
NsVprofile_use_background_image
p31
I01
sVdefault_profile_image
p32
I00
sVid
p33
I2977834655
sVverified
p34
I00
sVprofile_image_url_https
p35
g27
sVprofile_sidebar_fill_color
p36
g23
sVprofile_text_color
p37
V333333
p38
sVfollowers_count
p39
I2
sVprofile_sidebar_border_color
p40
VC0DEED
p41
sVid_str
p42
V2977834655
p43
sVprofile_background_color
p44
VACDED6
p45
sVlisted_count
p46
I0
sVprofile_background_image_url_https
p47
Vhttps://abs.twimg.com/images/themes/theme18/bg.gif
p48
sVutc_offset
p49
NsVstatuses_count
p50
I208
sVdescription
p51
VFreelance Graphic Designer & Student | Living the tough life, playing games, going out, eating food
p52
sVfriends_count
p53
I64
sVlocation
p54
VWinterthur, Switzerland
p55
sVprofile_link_color
p56
VFA743E
p57
sVprofile_image_url
p58
Vhttp://pbs.twimg.com/profile_images/577213516169408512/Z6422MOv_normal.png
p59
sVfollowing
p60
NsVgeo_enabled
p61
I01
sVprofile_background_image_url
p62
Vhttp://abs.twimg.com/images/themes/theme18/bg.gif
p63
sVname
p64
VSimon Fischer
p65
sVlang
p66
Ven
p67
sVprofile_background_tile
p68
I00
sVfavourites_count
p69
I206
sVscreen_name
p70
Valmostsimon1
p71
sVnotifications
p72
NsVurl
p73
Vhttp://www.cubee.ch
p74
sVcreated_at
p75
VWed Jan 14 10:17:22 +0000 2015
p76
sVcontributors_enabled
p77
I00
sVtime_zone
p78
NsVprotected
p79
I00
sVdefault_profile
p80
I00
sVis_translator
p81
I00
ssS'contributors_enabled'
p82
I00
sS'profile_text_color'
p83
g38
sS'followers_count'
p84
I2
sS'profile_sidebar_border_color'
p85
g41
sS'location'
p86
g55
sS'default_profile_image'
p87
I00
sS'id_str'
p88
g43
sS'utc_offset'
p89
NsS'statuses_count'
p90
I208
sS'description'
p91
g52
sS'friends_count'
p92
I64
sS'profile_link_color'
p93
g57
sS'profile_image_url'
p94
g59
sS'notifications'
p95
NsS'geo_enabled'
p96
I01
sS'profile_background_color'
p97
g45
sS'profile_background_image_url'
p98
g63
sS'name'
p99
g65
sS'lang'
p100
g67
sS'following'
p101
I00
sS'profile_background_tile'
p102
I00
sS'favourites_count'
p103
I206
sS'screen_name'
p104
g71
sS'url'
p105
g74
sS'created_at'
p106
cdatetime
datetime
p107
(S'\x07\xdf\x01\x0e\n\x11\x16\x00\x00\x00'
p108
tp109
Rp110
sS'profile_background_image_url_https'
p111
g48
sS'time_zone'
p112
NsS'protected'
p113
I00
sS'default_profile'
p114
I00
sS'is_translator'
p115
I00
sS'listed_count'
p116
I0
sbsS'filter_level'
p117
Vlow
p118
sS'geo'
p119
Nsg24
I620628342279172096
sS'favorite_count'
p120
I0
sS'source'
p121
VTwitter Web Client
p122
sg100
Ven
p123
sS'author'
p124
g18
sS'in_reply_to_user_id_str'
p125
V1611951170
p126
sg28
(dp127
Vcontributors
p128
NsVtruncated
p129
I00
sVtext
p130
g10
sVin_reply_to_status_id
p131
I620621387892400128
sg33
I620628342279172096
sVfavorite_count
p132
I0
sVsource
p133
V<a href="http://twitter.com" rel="nofollow">Twitter Web Client</a>
p134
sVretweeted
p135
I00
sVcoordinates
p136
NsVtimestamp_ms
p137
V1436804302173
p138
sVentities
p139
(dp140
Vsymbols
p141
(lp142
sVmedia
p143
(lp144
(dp145
Vexpanded_url
p146
Vhttp://twitter.com/almostsimon1/status/620628342279172096/photo/1
p147
sVdisplay_url
p148
Vpic.twitter.com/OirXElVhBj
p149
sg73
Vhttp://t.co/OirXElVhBj
p150
sVmedia_url_https
p151
Vhttps://pbs.twimg.com/tweet_video_thumb/CJzqMDGUcAA4VNb.png
p152
sg42
V620628341381427200
p153
sVsizes
p154
(dp155
Vlarge
p156
(dp157
Vh
p158
I108
sVresize
p159
Vfit
p160
sVw
p161
I240
ssVsmall
p162
(dp163
g158
I108
sg159
Vfit
p164
sg161
I240
ssVmedium
p165
(dp166
g158
I108
sg159
Vfit
p167
sg161
I240
ssVthumb
p168
(dp169
g158
I108
sg159
Vcrop
p170
sg161
I150
sssVindices
p171
(lp172
I24
aI46
asVtype
p173
Vphoto
p174
sg33
I620628341381427200
sVmedia_url
p175
Vhttp://pbs.twimg.com/tweet_video_thumb/CJzqMDGUcAA4VNb.png
p176
sasVhashtags
p177
(lp178
sVuser_mentions
p179
(lp180
(dp181
g33
I1611951170
sg171
(lp182
I0
aI14
asg42
V1611951170
p183
sg70
VTheManaSource
p184
sg64
VTMS Wedge
p185
sasVtrends
p186
(lp187
sVurls
p188
(lp189
ssVin_reply_to_screen_name
p190
VTheManaSource
p191
sg42
V620628342279172096
p192
sVretweet_count
p193
I0
sVin_reply_to_user_id
p194
I1611951170
sVfavorited
p195
I00
sVuser
p196
g29
sVgeo
p197
NsVin_reply_to_user_id_str
p198
g126
sVpossibly_sensitive
p199
I00
sg66
g123
sg75
VMon Jul 13 16:18:22 +0000 2015
p200
sVfilter_level
p201
g118
sVin_reply_to_status_id_str
p202
V620621387892400128
p203
sVplace
p204
(dp205
Vfull_name
p206
VZurich, Switzerland
p207
sg73
Vhttps://api.twitter.com/1.1/geo/id/db94c1cccc67c4f4.json
p208
sVcountry
p209
VSchweiz
p210
sVplace_type
p211
Vadmin
p212
sVbounding_box
p213
(dp214
g173
VPolygon
p215
sg136
(lp216
(lp217
(lp218
F8.357749
aF47.159384
aa(lp219
F8.357749
aF47.694503
aa(lp220
F8.984445
aF47.694503
aa(lp221
F8.984445
aF47.159384
aaassVcountry_code
p222
VCH
p223
sVattributes
p224
(dp225
sg33
Vdb94c1cccc67c4f4
p226
sg64
VZurich
p227
ssVextended_entities
p228
(dp229
g143
(lp230
(dp231
g146
Vhttp://twitter.com/almostsimon1/status/620628342279172096/photo/1
p232
sg148
Vpic.twitter.com/OirXElVhBj
p233
sg73
Vhttp://t.co/OirXElVhBj
p234
sg151
Vhttps://pbs.twimg.com/tweet_video_thumb/CJzqMDGUcAA4VNb.png
p235
sVvideo_info
p236
(dp237
Vaspect_ratio
p238
(lp239
I20
aI9
asVvariants
p240
(lp241
(dp242
g73
Vhttps://pbs.twimg.com/tweet_video/CJzqMDGUcAA4VNb.mp4
p243
sVbitrate
p244
I0
sVcontent_type
p245
Vvideo/mp4
p246
sassg42
V620628341381427200
p247
sg154
(dp248
g156
(dp249
g158
I108
sg159
Vfit
p250
sg161
I240
ssg162
(dp251
g158
I108
sg159
Vfit
p252
sg161
I240
ssg165
(dp253
g158
I108
sg159
Vfit
p254
sg161
I240
ssg168
(dp255
g158
I108
sg159
Vcrop
p256
sg161
I150
sssg171
(lp257
I24
aI46
asg173
Vanimated_gif
p258
sg33
I620628341381427200
sg175
Vhttp://pbs.twimg.com/tweet_video_thumb/CJzqMDGUcAA4VNb.png
p259
sasssS'coordinates'
p260
NsS'timestamp_ms'
p261
g138
sS'entities'
p262
g140
sS'in_reply_to_status_id_str'
p263
g203
sS'in_reply_to_screen_name'
p264
g191
sg88
g192
sS'extended_entities'
p265
g229
sS'retweeted'
p266
I00
sS'place'
p267
g0
(ctweepy.models
Place
p268
g2
Ntp269
Rp270
(dp271
S'full_name'
p272
g207
sg105
g208
sS'country'
p273
g210
sS'place_type'
p274
g212
sS'bounding_box'
p275
g0
(ctweepy.models
BoundingBox
p276
g2
Ntp277
Rp278
(dp279
S'type'
p280
g215
sg260
g216
sbsS'country_code'
p281
g223
sS'attributes'
p282
g225
sg24
g226
sg99
g227
sbsS'retweet_count'
p283
I0
sg106
g107
(S'\x07\xdf\x07\r\x10\x12\x16\x00\x00\x00'
p284
tp285
Rp286
sS'in_reply_to_user_id'
p287
I1611951170
sb.