ccopy_reg
_reconstructor
p0
(ctweepy.models
Status
p1
c__builtin__
object
p2
Ntp3
Rp4
(dp5
S'favorited'
p6
I00
sS'contributors'
p7
NsS'truncated'
p8
I00
sS'text'
p9
V#baseballcapsabroad  (L) Stone mason (R) "Travelin" Alan Matis, Sherman Oaks, California @jjthebaglady http://t.co/aXEDX4uqTp
p10
sS'source_url'
p11
Vhttp://twitter.com
p12
sS'possibly_sensitive'
p13
I00
sS'in_reply_to_status_id'
p14
NsS'user'
p15
g0
(ctweepy.models
User
p16
g2
Ntp17
Rp18
(dp19
S'follow_request_sent'
p20
NsS'profile_use_background_image'
p21
I01
sS'profile_sidebar_fill_color'
p22
VDDEEF6
p23
sS'id'
p24
I1517428736
sS'verified'
p25
I00
sS'profile_image_url_https'
p26
Vhttps://pbs.twimg.com/profile_images/594259609696772096/lP4rEXek_normal.png
p27
sS'_json'
p28
(dp29
Vfollow_request_sent
p30
NsVprofile_use_background_image
p31
I01
sVdefault_profile_image
p32
I00
sVid
p33
I1517428736
sVverified
p34
I00
sVprofile_image_url_https
p35
g27
sVprofile_sidebar_fill_color
p36
g23
sVprofile_text_color
p37
V333333
p38
sVfollowers_count
p39
I344
sVprofile_sidebar_border_color
p40
VC0DEED
p41
sVid_str
p42
V1517428736
p43
sVprofile_background_color
p44
VC0DEED
p45
sVlisted_count
p46
I10
sVprofile_background_image_url_https
p47
Vhttps://abs.twimg.com/images/themes/theme1/bg.png
p48
sVutc_offset
p49
NsVstatuses_count
p50
I608
sVdescription
p51
VProfessor in GW sport management program. The business of sports, sports and law, sports and society spoken here
p52
sVfriends_count
p53
I916
sVlocation
p54
VWashington, D.C.
p55
sVprofile_link_color
p56
V0084B4
p57
sVprofile_image_url
p58
Vhttp://pbs.twimg.com/profile_images/594259609696772096/lP4rEXek_normal.png
p59
sVfollowing
p60
NsVgeo_enabled
p61
I01
sVprofile_banner_url
p62
Vhttps://pbs.twimg.com/profile_banners/1517428736/1434700053
p63
sVprofile_background_image_url
p64
Vhttp://abs.twimg.com/images/themes/theme1/bg.png
p65
sVname
p66
VMark Hyman
p67
sVlang
p68
Ven
p69
sVprofile_background_tile
p70
I00
sVfavourites_count
p71
I164
sVscreen_name
p72
VGWsportsprof
p73
sVnotifications
p74
NsVurl
p75
Vhttp://markhyman.com
p76
sVcreated_at
p77
VFri Jun 14 19:50:28 +0000 2013
p78
sVcontributors_enabled
p79
I00
sVtime_zone
p80
NsVprotected
p81
I00
sVdefault_profile
p82
I01
sVis_translator
p83
I00
ssS'contributors_enabled'
p84
I00
sS'profile_text_color'
p85
g38
sS'followers_count'
p86
I344
sS'profile_sidebar_border_color'
p87
g41
sS'location'
p88
g55
sS'default_profile_image'
p89
I00
sS'id_str'
p90
g43
sS'utc_offset'
p91
NsS'statuses_count'
p92
I608
sS'description'
p93
g52
sS'friends_count'
p94
I916
sS'profile_link_color'
p95
g57
sS'profile_image_url'
p96
g59
sS'notifications'
p97
NsS'geo_enabled'
p98
I01
sS'profile_background_color'
p99
g45
sS'profile_banner_url'
p100
g63
sS'profile_background_image_url'
p101
g65
sS'name'
p102
g67
sS'lang'
p103
g69
sS'following'
p104
I00
sS'profile_background_tile'
p105
I00
sS'favourites_count'
p106
I164
sS'screen_name'
p107
g73
sS'url'
p108
g76
sS'created_at'
p109
cdatetime
datetime
p110
(S'\x07\xdd\x06\x0e\x132\x1c\x00\x00\x00'
p111
tp112
Rp113
sS'profile_background_image_url_https'
p114
g48
sS'time_zone'
p115
NsS'protected'
p116
I00
sS'default_profile'
p117
I01
sS'is_translator'
p118
I00
sS'listed_count'
p119
I10
sbsS'filter_level'
p120
Vlow
p121
sS'geo'
p122
Nsg24
I620948461869998081
sS'favorite_count'
p123
I0
sS'source'
p124
VTwitter Web Client
p125
sg103
Ven
p126
sS'author'
p127
g18
sS'in_reply_to_user_id_str'
p128
Nsg28
(dp129
Vcontributors
p130
NsVtruncated
p131
I00
sVtext
p132
g10
sVin_reply_to_status_id
p133
Nsg33
I620948461869998081
sVfavorite_count
p134
I0
sVsource
p135
V<a href="http://twitter.com" rel="nofollow">Twitter Web Client</a>
p136
sVretweeted
p137
I00
sVcoordinates
p138
NsVtimestamp_ms
p139
V1436880624631
p140
sVentities
p141
(dp142
Vsymbols
p143
(lp144
sVmedia
p145
(lp146
(dp147
Vexpanded_url
p148
Vhttp://twitter.com/GWsportsprof/status/620948461869998081/photo/1
p149
sVdisplay_url
p150
Vpic.twitter.com/aXEDX4uqTp
p151
sg75
Vhttp://t.co/aXEDX4uqTp
p152
sVmedia_url_https
p153
Vhttps://pbs.twimg.com/media/CJ4NVagUsAALrcT.jpg
p154
sg42
V620948460167016448
p155
sVsizes
p156
(dp157
Vsmall
p158
(dp159
Vh
p160
I255
sVresize
p161
Vfit
p162
sVw
p163
I340
ssVlarge
p164
(dp165
g160
I768
sg161
Vfit
p166
sg163
I1024
ssVmedium
p167
(dp168
g160
I450
sg161
Vfit
p169
sg163
I600
ssVthumb
p170
(dp171
g160
I150
sg161
Vcrop
p172
sg163
I150
sssVindices
p173
(lp174
I103
aI125
asVtype
p175
Vphoto
p176
sg33
I620948460167016448
sVmedia_url
p177
Vhttp://pbs.twimg.com/media/CJ4NVagUsAALrcT.jpg
p178
sasVhashtags
p179
(lp180
(dp181
g173
(lp182
I0
aI19
asg132
Vbaseballcapsabroad
p183
sasVuser_mentions
p184
(lp185
(dp186
g33
I33879070
sg173
(lp187
I89
aI102
asg42
V33879070
p188
sg72
Vjjthebaglady
p189
sg66
VJJTheBagLady
p190
sasVtrends
p191
(lp192
sVurls
p193
(lp194
ssVin_reply_to_screen_name
p195
Nsg42
V620948461869998081
p196
sVretweet_count
p197
I0
sVin_reply_to_user_id
p198
NsVfavorited
p199
I00
sVuser
p200
g29
sVgeo
p201
NsVin_reply_to_user_id_str
p202
NsVpossibly_sensitive
p203
I00
sg68
g126
sg77
VTue Jul 14 13:30:24 +0000 2015
p204
sVfilter_level
p205
g121
sVin_reply_to_status_id_str
p206
NsVplace
p207
(dp208
Vfull_name
p209
VZurich, Switzerland
p210
sg75
Vhttps://api.twitter.com/1.1/geo/id/3acb748d0f1e9265.json
p211
sVcountry
p212
VSchweiz
p213
sVplace_type
p214
Vcity
p215
sVbounding_box
p216
(dp217
g175
VPolygon
p218
sg138
(lp219
(lp220
(lp221
F8.448081
aF47.320183
aa(lp222
F8.448081
aF47.434721
aa(lp223
F8.625442
aF47.434721
aa(lp224
F8.625442
aF47.320183
aaassVcountry_code
p225
VCH
p226
sVattributes
p227
(dp228
sg33
V3acb748d0f1e9265
p229
sg66
VZurich
p230
ssVextended_entities
p231
(dp232
g145
(lp233
(dp234
g148
Vhttp://twitter.com/GWsportsprof/status/620948461869998081/photo/1
p235
sg150
Vpic.twitter.com/aXEDX4uqTp
p236
sg75
Vhttp://t.co/aXEDX4uqTp
p237
sg153
Vhttps://pbs.twimg.com/media/CJ4NVagUsAALrcT.jpg
p238
sg42
V620948460167016448
p239
sg156
(dp240
g158
(dp241
g160
I255
sg161
Vfit
p242
sg163
I340
ssg164
(dp243
g160
I768
sg161
Vfit
p244
sg163
I1024
ssg167
(dp245
g160
I450
sg161
Vfit
p246
sg163
I600
ssg170
(dp247
g160
I150
sg161
Vcrop
p248
sg163
I150
sssg173
(lp249
I103
aI125
asg175
Vphoto
p250
sg33
I620948460167016448
sg177
Vhttp://pbs.twimg.com/media/CJ4NVagUsAALrcT.jpg
p251
sa(dp252
g148
Vhttp://twitter.com/GWsportsprof/status/620948461869998081/photo/1
p253
sg150
Vpic.twitter.com/aXEDX4uqTp
p254
sg75
Vhttp://t.co/aXEDX4uqTp
p255
sg153
Vhttps://pbs.twimg.com/media/CJ4NUpuUkAAD9fa.jpg
p256
sg42
V620948447072391168
p257
sg156
(dp258
g158
(dp259
g160
I255
sg161
Vfit
p260
sg163
I340
ssg164
(dp261
g160
I768
sg161
Vfit
p262
sg163
I1024
ssg167
(dp263
g160
I450
sg161
Vfit
p264
sg163
I600
ssg170
(dp265
g160
I150
sg161
Vcrop
p266
sg163
I150
sssg173
(lp267
I103
aI125
asg175
Vphoto
p268
sg33
I620948447072391168
sg177
Vhttp://pbs.twimg.com/media/CJ4NUpuUkAAD9fa.jpg
p269
sasssS'coordinates'
p270
NsS'timestamp_ms'
p271
g140
sS'entities'
p272
g142
sS'in_reply_to_status_id_str'
p273
NsS'in_reply_to_screen_name'
p274
Nsg90
g196
sS'extended_entities'
p275
g232
sS'retweeted'
p276
I00
sS'place'
p277
g0
(ctweepy.models
Place
p278
g2
Ntp279
Rp280
(dp281
S'full_name'
p282
g210
sg108
g211
sS'country'
p283
g213
sS'place_type'
p284
g215
sS'bounding_box'
p285
g0
(ctweepy.models
BoundingBox
p286
g2
Ntp287
Rp288
(dp289
S'type'
p290
g218
sg270
g219
sbsS'country_code'
p291
g226
sS'attributes'
p292
g228
sg24
g229
sg102
g230
sbsS'retweet_count'
p293
I0
sg109
g110
(S'\x07\xdf\x07\x0e\r\x1e\x18\x00\x00\x00'
p294
tp295
Rp296
sS'in_reply_to_user_id'
p297
Nsb.