ccopy_reg
_reconstructor
p0
(ctweepy.models
Status
p1
c__builtin__
object
p2
Ntp3
Rp4
(dp5
S'favorited'
p6
I00
sS'contributors'
p7
NsS'truncated'
p8
I00
sS'text'
p9
V#ffd3 global public goods needed such as financial stability, research and development, disease surveillance #ihr http://t.co/MkLzCg2azp
p10
sS'source_url'
p11
Vhttp://twitter.com/download/iphone
p12
sS'possibly_sensitive'
p13
I00
sS'in_reply_to_status_id'
p14
NsS'user'
p15
g0
(ctweepy.models
User
p16
g2
Ntp17
Rp18
(dp19
S'follow_request_sent'
p20
NsS'profile_use_background_image'
p21
I01
sS'profile_sidebar_fill_color'
p22
VDDEEF6
p23
sS'id'
p24
I833820320
sS'verified'
p25
I00
sS'profile_image_url_https'
p26
Vhttps://pbs.twimg.com/profile_images/2627430313/blogger-profile-large-016_normal.jpeg
p27
sS'_json'
p28
(dp29
Vfollow_request_sent
p30
NsVprofile_use_background_image
p31
I01
sVdefault_profile_image
p32
I00
sVid
p33
I833820320
sVverified
p34
I00
sVprofile_image_url_https
p35
g27
sVprofile_sidebar_fill_color
p36
g23
sVprofile_text_color
p37
V333333
p38
sVfollowers_count
p39
I4772
sVprofile_sidebar_border_color
p40
VC0DEED
p41
sVid_str
p42
V833820320
p43
sVprofile_background_color
p44
VC0DEED
p45
sVlisted_count
p46
I259
sVprofile_background_image_url_https
p47
Vhttps://abs.twimg.com/images/themes/theme1/bg.png
p48
sVutc_offset
p49
I7200
sVstatuses_count
p50
I27367
sVdescription
p51
VProfessor Ilona Kickbusch PhD is known for her contributions to innovation in public health, health promotion, global health and health diplomacy.
p52
sVfriends_count
p53
I716
sVlocation
p54
VBern, Switzerland.
p55
sVprofile_link_color
p56
V0084B4
p57
sVprofile_image_url
p58
Vhttp://pbs.twimg.com/profile_images/2627430313/blogger-profile-large-016_normal.jpeg
p59
sVfollowing
p60
NsVgeo_enabled
p61
I01
sVprofile_background_image_url
p62
Vhttp://abs.twimg.com/images/themes/theme1/bg.png
p63
sVname
p64
VIlona Kickbusch
p65
sVlang
p66
Ven
p67
sVprofile_background_tile
p68
I00
sVfavourites_count
p69
I2150
sVscreen_name
p70
VIlonaKickbusch
p71
sVnotifications
p72
NsVurl
p73
Vhttp://www.ilonakickbusch.com/kickbusch/index.php
p74
sVcreated_at
p75
VWed Sep 19 17:48:05 +0000 2012
p76
sVcontributors_enabled
p77
I00
sVtime_zone
p78
VBern
p79
sVprotected
p80
I00
sVdefault_profile
p81
I01
sVis_translator
p82
I00
ssS'contributors_enabled'
p83
I00
sS'profile_text_color'
p84
g38
sS'followers_count'
p85
I4772
sS'profile_sidebar_border_color'
p86
g41
sS'location'
p87
g55
sS'default_profile_image'
p88
I00
sS'id_str'
p89
g43
sS'utc_offset'
p90
I7200
sS'statuses_count'
p91
I27367
sS'description'
p92
g52
sS'friends_count'
p93
I716
sS'profile_link_color'
p94
g57
sS'profile_image_url'
p95
g59
sS'notifications'
p96
NsS'geo_enabled'
p97
I01
sS'profile_background_color'
p98
g45
sS'profile_background_image_url'
p99
g63
sS'name'
p100
g65
sS'lang'
p101
g67
sS'following'
p102
I00
sS'profile_background_tile'
p103
I00
sS'favourites_count'
p104
I2150
sS'screen_name'
p105
g71
sS'url'
p106
g74
sS'created_at'
p107
cdatetime
datetime
p108
(S'\x07\xdc\t\x13\x110\x05\x00\x00\x00'
p109
tp110
Rp111
sS'profile_background_image_url_https'
p112
g48
sS'time_zone'
p113
g79
sS'protected'
p114
I00
sS'default_profile'
p115
I01
sS'is_translator'
p116
I00
sS'listed_count'
p117
I259
sbsS'filter_level'
p118
Vlow
p119
sS'geo'
p120
Nsg24
I619474710779326464
sS'favorite_count'
p121
I0
sS'source'
p122
VTwitter for iPhone
p123
sg101
Ven
p124
sS'author'
p125
g18
sS'in_reply_to_user_id_str'
p126
Nsg28
(dp127
Vcontributors
p128
NsVtruncated
p129
I00
sVtext
p130
g10
sVin_reply_to_status_id
p131
Nsg33
I619474710779326464
sVfavorite_count
p132
I0
sVsource
p133
V<a href="http://twitter.com/download/iphone" rel="nofollow">Twitter for iPhone</a>
p134
sVretweeted
p135
I00
sVcoordinates
p136
NsVtimestamp_ms
p137
V1436529254990
p138
sVentities
p139
(dp140
Vuser_mentions
p141
(lp142
sVsymbols
p143
(lp144
sVtrends
p145
(lp146
sVhashtags
p147
(lp148
(dp149
Vindices
p150
(lp151
I0
aI5
asg130
Vffd3
p152
sa(dp153
g150
(lp154
I109
aI113
asg130
Vihr
p155
sasVurls
p156
(lp157
(dp158
g73
Vhttp://t.co/MkLzCg2azp
p159
sg150
(lp160
I114
aI136
asVexpanded_url
p161
Vhttp://www.theguardian.com/global-development-professionals-network/2015/jul/10/addis-ababa-ffd3-financing-for-development
p162
sVdisplay_url
p163
Vtheguardian.com/global-develop\u2026
p164
sassVin_reply_to_screen_name
p165
Nsg42
V619474710779326464
p166
sVretweet_count
p167
I0
sVin_reply_to_user_id
p168
NsVfavorited
p169
I00
sVuser
p170
g29
sVgeo
p171
NsVin_reply_to_user_id_str
p172
NsVpossibly_sensitive
p173
I00
sg66
g124
sg75
VFri Jul 10 11:54:14 +0000 2015
p174
sVfilter_level
p175
g119
sVin_reply_to_status_id_str
p176
NsVplace
p177
(dp178
Vfull_name
p179
VZurich, Switzerland
p180
sg73
Vhttps://api.twitter.com/1.1/geo/id/3acb748d0f1e9265.json
p181
sVcountry
p182
VSchweiz
p183
sVplace_type
p184
Vcity
p185
sVbounding_box
p186
(dp187
Vtype
p188
VPolygon
p189
sg136
(lp190
(lp191
(lp192
F8.448081
aF47.320183
aa(lp193
F8.448081
aF47.434721
aa(lp194
F8.625442
aF47.434721
aa(lp195
F8.625442
aF47.320183
aaassVcountry_code
p196
VCH
p197
sVattributes
p198
(dp199
sg33
V3acb748d0f1e9265
p200
sg64
VZurich
p201
sssS'coordinates'
p202
NsS'timestamp_ms'
p203
g138
sS'entities'
p204
g140
sS'in_reply_to_status_id_str'
p205
NsS'in_reply_to_screen_name'
p206
Nsg89
g166
sS'retweeted'
p207
I00
sS'place'
p208
g0
(ctweepy.models
Place
p209
g2
Ntp210
Rp211
(dp212
S'full_name'
p213
g180
sg106
g181
sS'country'
p214
g183
sS'place_type'
p215
g185
sS'bounding_box'
p216
g0
(ctweepy.models
BoundingBox
p217
g2
Ntp218
Rp219
(dp220
S'type'
p221
g189
sg202
g190
sbsS'country_code'
p222
g197
sS'attributes'
p223
g199
sg24
g200
sg100
g201
sbsS'retweet_count'
p224
I0
sg107
g108
(S'\x07\xdf\x07\n\x0b6\x0e\x00\x00\x00'
p225
tp226
Rp227
sS'in_reply_to_user_id'
p228
Nsb.