ccopy_reg
_reconstructor
p0
(ctweepy.models
Status
p1
c__builtin__
object
p2
Ntp3
Rp4
(dp5
S'favorited'
p6
I00
sS'contributors'
p7
NsS'truncated'
p8
I00
sS'text'
p9
VHB9FDK-11 launched 2015-07-09 12:06:49Z from 8903 Birmensdorf, Switzerland. http://t.co/fiWQVptTfu
p10
sS'source_url'
p11
Vhttp://pskreporter.info
p12
sS'possibly_sensitive'
p13
I00
sS'in_reply_to_status_id'
p14
NsS'user'
p15
g0
(ctweepy.models
User
p16
g2
Ntp17
Rp18
(dp19
S'follow_request_sent'
p20
NsS'profile_use_background_image'
p21
I01
sS'profile_sidebar_fill_color'
p22
VDDEEF6
p23
sS'id'
p24
I2419780778
sS'verified'
p25
I00
sS'profile_image_url_https'
p26
Vhttps://pbs.twimg.com/profile_images/463103711066075136/8fYNETYU_normal.jpeg
p27
sS'_json'
p28
(dp29
Vfollow_request_sent
p30
NsVprofile_use_background_image
p31
I01
sVdefault_profile_image
p32
I00
sVid
p33
I2419780778
sVverified
p34
I00
sVprofile_image_url_https
p35
g27
sVprofile_sidebar_fill_color
p36
g23
sVprofile_text_color
p37
V333333
p38
sVfollowers_count
p39
I24
sVprofile_sidebar_border_color
p40
VC0DEED
p41
sVid_str
p42
V2419780778
p43
sVprofile_background_color
p44
VC0DEED
p45
sVlisted_count
p46
I19
sVprofile_background_image_url_https
p47
Vhttps://abs.twimg.com/images/themes/theme1/bg.png
p48
sVutc_offset
p49
NsVstatuses_count
p50
I5800
sVdescription
p51
VI watch APRS and tweet about Balloons
p52
sVfriends_count
p53
I1
sVlocation
p54
V
p55
sVprofile_link_color
p56
V0084B4
p57
sVprofile_image_url
p58
Vhttp://pbs.twimg.com/profile_images/463103711066075136/8fYNETYU_normal.jpeg
p59
sVfollowing
p60
NsVgeo_enabled
p61
I01
sVprofile_background_image_url
p62
Vhttp://abs.twimg.com/images/themes/theme1/bg.png
p63
sVname
p64
VBalloon Tracker
p65
sVlang
p66
Ven
p67
sVprofile_background_tile
p68
I00
sVfavourites_count
p69
I0
sVscreen_name
p70
Vaprsballoons
p71
sVnotifications
p72
NsVurl
p73
NsVcreated_at
p74
VMon Mar 31 01:32:32 +0000 2014
p75
sVcontributors_enabled
p76
I00
sVtime_zone
p77
NsVprotected
p78
I00
sVdefault_profile
p79
I01
sVis_translator
p80
I00
ssS'contributors_enabled'
p81
I00
sS'profile_text_color'
p82
g38
sS'followers_count'
p83
I24
sS'profile_sidebar_border_color'
p84
g41
sS'location'
p85
g55
sS'default_profile_image'
p86
I00
sS'id_str'
p87
g43
sS'utc_offset'
p88
NsS'statuses_count'
p89
I5800
sS'description'
p90
g52
sS'friends_count'
p91
I1
sS'profile_link_color'
p92
g57
sS'profile_image_url'
p93
g59
sS'notifications'
p94
NsS'geo_enabled'
p95
I01
sS'profile_background_color'
p96
g45
sS'profile_background_image_url'
p97
g63
sS'name'
p98
g65
sS'lang'
p99
g67
sS'following'
p100
I00
sS'profile_background_tile'
p101
I00
sS'favourites_count'
p102
I0
sS'screen_name'
p103
g71
sS'url'
p104
NsS'created_at'
p105
cdatetime
datetime
p106
(S'\x07\xde\x03\x1f\x01  \x00\x00\x00'
p107
tp108
Rp109
sS'profile_background_image_url_https'
p110
g48
sS'time_zone'
p111
NsS'protected'
p112
I00
sS'default_profile'
p113
I01
sS'is_translator'
p114
I00
sS'listed_count'
p115
I19
sbsS'filter_level'
p116
Vlow
p117
sS'geo'
p118
(dp119
Vtype
p120
VPoint
p121
sVcoordinates
p122
(lp123
F47.338774
aF8.535621
assg24
I619129385766010880
sS'favorite_count'
p124
I0
sS'source'
p125
VBalloon tweeter
p126
sg99
Vda
p127
sS'author'
p128
g18
sS'in_reply_to_user_id_str'
p129
Nsg28
(dp130
Vcontributors
p131
NsVtruncated
p132
I00
sVtext
p133
g10
sVin_reply_to_status_id
p134
Nsg33
I619129385766010880
sVfavorite_count
p135
I0
sVsource
p136
V<a href="http://pskreporter.info" rel="nofollow">Balloon tweeter</a>
p137
sVretweeted
p138
I00
sg122
(dp139
g120
VPoint
p140
sg122
(lp141
F8.535621
aF47.338774
assVtimestamp_ms
p142
V1436446923091
p143
sVentities
p144
(dp145
Vuser_mentions
p146
(lp147
sVsymbols
p148
(lp149
sVtrends
p150
(lp151
sVhashtags
p152
(lp153
sVurls
p154
(lp155
(dp156
g73
Vhttp://t.co/fiWQVptTfu
p157
sVindices
p158
(lp159
I76
aI98
asVexpanded_url
p160
Vhttp://pond1.gladstonefamily.net/map/26985
p161
sVdisplay_url
p162
Vpond1.gladstonefamily.net/map/26985
p163
sassVin_reply_to_screen_name
p164
Nsg42
V619129385766010880
p165
sVretweet_count
p166
I0
sVin_reply_to_user_id
p167
NsVfavorited
p168
I00
sVuser
p169
g29
sVgeo
p170
g119
sVin_reply_to_user_id_str
p171
NsVpossibly_sensitive
p172
I00
sg66
g127
sg74
VThu Jul 09 13:02:03 +0000 2015
p173
sVfilter_level
p174
g117
sVin_reply_to_status_id_str
p175
NsVplace
p176
(dp177
Vfull_name
p178
VZurich, Switzerland
p179
sg73
Vhttps://api.twitter.com/1.1/geo/id/3acb748d0f1e9265.json
p180
sVcountry
p181
VSchweiz
p182
sVplace_type
p183
Vcity
p184
sVbounding_box
p185
(dp186
g120
VPolygon
p187
sg122
(lp188
(lp189
(lp190
F8.448081
aF47.320183
aa(lp191
F8.448081
aF47.434721
aa(lp192
F8.625442
aF47.434721
aa(lp193
F8.625442
aF47.320183
aaassVcountry_code
p194
VCH
p195
sVattributes
p196
(dp197
sg33
V3acb748d0f1e9265
p198
sg64
VZurich
p199
sssS'coordinates'
p200
g139
sS'timestamp_ms'
p201
g143
sS'entities'
p202
g145
sS'in_reply_to_status_id_str'
p203
NsS'in_reply_to_screen_name'
p204
Nsg87
g165
sS'retweeted'
p205
I00
sS'place'
p206
g0
(ctweepy.models
Place
p207
g2
Ntp208
Rp209
(dp210
S'full_name'
p211
g179
sg104
g180
sS'country'
p212
g182
sS'place_type'
p213
g184
sS'bounding_box'
p214
g0
(ctweepy.models
BoundingBox
p215
g2
Ntp216
Rp217
(dp218
S'type'
p219
g187
sg200
g188
sbsS'country_code'
p220
g195
sS'attributes'
p221
g197
sg24
g198
sg98
g199
sbsS'retweet_count'
p222
I0
sg105
g106
(S'\x07\xdf\x07\t\r\x02\x03\x00\x00\x00'
p223
tp224
Rp225
sS'in_reply_to_user_id'
p226
Nsb.