ccopy_reg
_reconstructor
p0
(ctweepy.models
Status
p1
c__builtin__
object
p2
Ntp3
Rp4
(dp5
S'favorited'
p6
I00
sS'contributors'
p7
NsS'truncated'
p8
I00
sS'text'
p9
V@mrmarksteel @hugh_canning at least they should show the beautiful ones like French TV 4 Roland Garos not WAGs &amp; reality D-Listers
p10
sS'source_url'
p11
Vhttp://twitter.com/download/android
p12
sS'possibly_sensitive'
p13
I00
sS'in_reply_to_status_id'
p14
I620258256720629760
sS'user'
p15
g0
(ctweepy.models
User
p16
g2
Ntp17
Rp18
(dp19
S'follow_request_sent'
p20
NsS'profile_use_background_image'
p21
I01
sS'profile_sidebar_fill_color'
p22
VDDEEF6
p23
sS'id'
p24
I2941344333
sS'verified'
p25
I00
sS'profile_image_url_https'
p26
Vhttps://abs.twimg.com/sticky/default_profile_images/default_profile_4_normal.png
p27
sS'_json'
p28
(dp29
Vfollow_request_sent
p30
NsVprofile_use_background_image
p31
I01
sVdefault_profile_image
p32
I01
sVid
p33
I2941344333
sVverified
p34
I00
sVprofile_image_url_https
p35
g27
sVprofile_sidebar_fill_color
p36
g23
sVprofile_text_color
p37
V333333
p38
sVfollowers_count
p39
I16
sVprofile_sidebar_border_color
p40
VC0DEED
p41
sVid_str
p42
V2941344333
p43
sVprofile_background_color
p44
VC0DEED
p45
sVlisted_count
p46
I2
sVprofile_background_image_url_https
p47
Vhttps://abs.twimg.com/images/themes/theme1/bg.png
p48
sVutc_offset
p49
NsVstatuses_count
p50
I418
sVdescription
p51
VLuxury villa agent, frustrated opera diva & by default devoted classical fan.Also of truffles & donkeys, tolerance peace  beauty & la dolce vita.
p52
sVfriends_count
p53
I22
sVlocation
p54
V
p55
sVprofile_link_color
p56
V0084B4
p57
sVprofile_image_url
p58
Vhttp://abs.twimg.com/sticky/default_profile_images/default_profile_4_normal.png
p59
sVfollowing
p60
NsVgeo_enabled
p61
I01
sVprofile_background_image_url
p62
Vhttp://abs.twimg.com/images/themes/theme1/bg.png
p63
sVname
p64
Vmarina gratsos
p65
sVlang
p66
Ven
p67
sVprofile_background_tile
p68
I00
sVfavourites_count
p69
I991
sVscreen_name
p70
Vmarinaiki123
p71
sVnotifications
p72
NsVurl
p73
Vhttp://www.carpediemtravel.co.uk
p74
sVcreated_at
p75
VThu Dec 25 22:22:15 +0000 2014
p76
sVcontributors_enabled
p77
I00
sVtime_zone
p78
NsVprotected
p79
I00
sVdefault_profile
p80
I01
sVis_translator
p81
I00
ssS'contributors_enabled'
p82
I00
sS'profile_text_color'
p83
g38
sS'followers_count'
p84
I16
sS'profile_sidebar_border_color'
p85
g41
sS'location'
p86
g55
sS'default_profile_image'
p87
I01
sS'id_str'
p88
g43
sS'utc_offset'
p89
NsS'statuses_count'
p90
I418
sS'description'
p91
g52
sS'friends_count'
p92
I22
sS'profile_link_color'
p93
g57
sS'profile_image_url'
p94
g59
sS'notifications'
p95
NsS'geo_enabled'
p96
I01
sS'profile_background_color'
p97
g45
sS'profile_background_image_url'
p98
g63
sS'name'
p99
g65
sS'lang'
p100
g67
sS'following'
p101
I00
sS'profile_background_tile'
p102
I00
sS'favourites_count'
p103
I991
sS'screen_name'
p104
g71
sS'url'
p105
g74
sS'created_at'
p106
cdatetime
datetime
p107
(S'\x07\xde\x0c\x19\x16\x16\x0f\x00\x00\x00'
p108
tp109
Rp110
sS'profile_background_image_url_https'
p111
g48
sS'time_zone'
p112
NsS'protected'
p113
I00
sS'default_profile'
p114
I01
sS'is_translator'
p115
I00
sS'listed_count'
p116
I2
sbsS'filter_level'
p117
Vlow
p118
sS'geo'
p119
Nsg24
I620260735516549120
sS'favorite_count'
p120
I0
sS'source'
p121
VTwitter for Android
p122
sg100
Ven
p123
sS'author'
p124
g18
sS'in_reply_to_user_id_str'
p125
V94357028
p126
sg28
(dp127
Vcontributors
p128
NsVtruncated
p129
I00
sVtext
p130
g10
sVin_reply_to_status_id
p131
I620258256720629760
sg33
I620260735516549120
sVfavorite_count
p132
I0
sVsource
p133
V<a href="http://twitter.com/download/android" rel="nofollow">Twitter for Android</a>
p134
sVretweeted
p135
I00
sVcoordinates
p136
NsVtimestamp_ms
p137
V1436716657891
p138
sVentities
p139
(dp140
Vuser_mentions
p141
(lp142
(dp143
g33
I94357028
sVindices
p144
(lp145
I0
aI12
asg42
V94357028
p146
sg70
Vmrmarksteel
p147
sg64
VMark Steel
p148
sa(dp149
g33
I2680706465
sg144
(lp150
I13
aI26
asg42
V2680706465
p151
sg70
Vhugh_canning
p152
sg64
VHugh Canning
p153
sasVsymbols
p154
(lp155
sVtrends
p156
(lp157
sVhashtags
p158
(lp159
sVurls
p160
(lp161
ssVin_reply_to_screen_name
p162
Vmrmarksteel
p163
sg42
V620260735516549120
p164
sVretweet_count
p165
I0
sVin_reply_to_user_id
p166
I94357028
sVfavorited
p167
I00
sVuser
p168
g29
sVgeo
p169
NsVin_reply_to_user_id_str
p170
g126
sVpossibly_sensitive
p171
I00
sg66
g123
sg75
VSun Jul 12 15:57:37 +0000 2015
p172
sVfilter_level
p173
g118
sVin_reply_to_status_id_str
p174
V620258256720629760
p175
sVplace
p176
(dp177
Vfull_name
p178
VZurich, Switzerland
p179
sg73
Vhttps://api.twitter.com/1.1/geo/id/3acb748d0f1e9265.json
p180
sVcountry
p181
VSchweiz
p182
sVplace_type
p183
Vcity
p184
sVbounding_box
p185
(dp186
Vtype
p187
VPolygon
p188
sg136
(lp189
(lp190
(lp191
F8.448081
aF47.320183
aa(lp192
F8.448081
aF47.434721
aa(lp193
F8.625442
aF47.434721
aa(lp194
F8.625442
aF47.320183
aaassVcountry_code
p195
VCH
p196
sVattributes
p197
(dp198
sg33
V3acb748d0f1e9265
p199
sg64
VZurich
p200
sssS'coordinates'
p201
NsS'timestamp_ms'
p202
g138
sS'entities'
p203
g140
sS'in_reply_to_status_id_str'
p204
g175
sS'in_reply_to_screen_name'
p205
g163
sg88
g164
sS'retweeted'
p206
I00
sS'place'
p207
g0
(ctweepy.models
Place
p208
g2
Ntp209
Rp210
(dp211
S'full_name'
p212
g179
sg105
g180
sS'country'
p213
g182
sS'place_type'
p214
g184
sS'bounding_box'
p215
g0
(ctweepy.models
BoundingBox
p216
g2
Ntp217
Rp218
(dp219
S'type'
p220
g188
sg201
g189
sbsS'country_code'
p221
g196
sS'attributes'
p222
g198
sg24
g199
sg99
g200
sbsS'retweet_count'
p223
I0
sg106
g107
(S'\x07\xdf\x07\x0c\x0f9%\x00\x00\x00'
p224
tp225
Rp226
sS'in_reply_to_user_id'
p227
I94357028
sb.