ccopy_reg
_reconstructor
p0
(ctweepy.models
Status
p1
c__builtin__
object
p2
Ntp3
Rp4
(dp5
S'favorited'
p6
I00
sS'contributors'
p7
NsS'truncated'
p8
I00
sS'text'
p9
VFraunfeld Festival was incredible...Back to work reality\u000a#NickiMinaj #Ludacris #KendrickLamar #TinieTempah http://t.co/0CUZkRbPMj
p10
sS'source_url'
p11
Vhttp://twitter.com
p12
sS'possibly_sensitive'
p13
I00
sS'in_reply_to_status_id'
p14
NsS'user'
p15
g0
(ctweepy.models
User
p16
g2
Ntp17
Rp18
(dp19
S'follow_request_sent'
p20
NsS'profile_use_background_image'
p21
I01
sS'profile_sidebar_fill_color'
p22
VDDEEF6
p23
sS'id'
p24
I3301937975
sS'verified'
p25
I00
sS'profile_image_url_https'
p26
Vhttps://pbs.twimg.com/profile_images/608572970177540096/1Jfr51og_normal.jpg
p27
sS'_json'
p28
(dp29
Vfollow_request_sent
p30
NsVprofile_use_background_image
p31
I01
sVdefault_profile_image
p32
I00
sVid
p33
I3301937975
sVverified
p34
I00
sVprofile_image_url_https
p35
g27
sVprofile_sidebar_fill_color
p36
g23
sVprofile_text_color
p37
V333333
p38
sVfollowers_count
p39
I4
sVprofile_sidebar_border_color
p40
VC0DEED
p41
sVid_str
p42
V3301937975
p43
sVprofile_background_color
p44
VC0DEED
p45
sVlisted_count
p46
I0
sVprofile_background_image_url_https
p47
Vhttps://abs.twimg.com/images/themes/theme1/bg.png
p48
sVutc_offset
p49
NsVstatuses_count
p50
I12
sVdescription
p51
NsVfriends_count
p52
I13
sVlocation
p53
V
p54
sVprofile_link_color
p55
V0084B4
p56
sVprofile_image_url
p57
Vhttp://pbs.twimg.com/profile_images/608572970177540096/1Jfr51og_normal.jpg
p58
sVfollowing
p59
NsVgeo_enabled
p60
I01
sVprofile_banner_url
p61
Vhttps://pbs.twimg.com/profile_banners/3301937975/1433929924
p62
sVprofile_background_image_url
p63
Vhttp://abs.twimg.com/images/themes/theme1/bg.png
p64
sVname
p65
VPrisca Mutesi Dumas
p66
sVlang
p67
Ven
p68
sVprofile_background_tile
p69
I00
sVfavourites_count
p70
I0
sVscreen_name
p71
VDumasMutesi
p72
sVnotifications
p73
NsVurl
p74
NsVcreated_at
p75
VThu May 28 16:59:57 +0000 2015
p76
sVcontributors_enabled
p77
I00
sVtime_zone
p78
NsVprotected
p79
I00
sVdefault_profile
p80
I01
sVis_translator
p81
I00
ssS'contributors_enabled'
p82
I00
sS'profile_text_color'
p83
g38
sS'followers_count'
p84
I4
sS'profile_sidebar_border_color'
p85
g41
sS'location'
p86
g54
sS'default_profile_image'
p87
I00
sS'id_str'
p88
g43
sS'utc_offset'
p89
NsS'statuses_count'
p90
I12
sS'description'
p91
NsS'friends_count'
p92
I13
sS'profile_link_color'
p93
g56
sS'profile_image_url'
p94
g58
sS'notifications'
p95
NsS'geo_enabled'
p96
I01
sS'profile_background_color'
p97
g45
sS'profile_banner_url'
p98
g62
sS'profile_background_image_url'
p99
g64
sS'name'
p100
g66
sS'lang'
p101
g68
sS'following'
p102
I00
sS'profile_background_tile'
p103
I00
sS'favourites_count'
p104
I0
sS'screen_name'
p105
g72
sS'url'
p106
NsS'created_at'
p107
cdatetime
datetime
p108
(S'\x07\xdf\x05\x1c\x10;9\x00\x00\x00'
p109
tp110
Rp111
sS'profile_background_image_url_https'
p112
g48
sS'time_zone'
p113
NsS'protected'
p114
I00
sS'default_profile'
p115
I01
sS'is_translator'
p116
I00
sS'listed_count'
p117
I0
sbsS'filter_level'
p118
Vlow
p119
sS'geo'
p120
Nsg24
I620626589827657728
sS'favorite_count'
p121
I0
sS'source'
p122
VTwitter Web Client
p123
sg101
Ven
p124
sS'author'
p125
g18
sS'in_reply_to_user_id_str'
p126
Nsg28
(dp127
Vcontributors
p128
NsVtruncated
p129
I00
sVtext
p130
VFraunfeld Festival was incredible...Back to work reality\u000a#NickiMinaj #Ludacris #KendrickLamar #TinieTempah http://t.co/0CUZkRbPMj
p131
sVin_reply_to_status_id
p132
Nsg33
I620626589827657728
sVfavorite_count
p133
I0
sVsource
p134
V<a href="http://twitter.com" rel="nofollow">Twitter Web Client</a>
p135
sVretweeted
p136
I00
sVcoordinates
p137
NsVtimestamp_ms
p138
V1436803884356
p139
sVentities
p140
(dp141
Vsymbols
p142
(lp143
sVmedia
p144
(lp145
(dp146
Vexpanded_url
p147
Vhttp://twitter.com/DumasMutesi/status/620626589827657728/photo/1
p148
sVdisplay_url
p149
Vpic.twitter.com/0CUZkRbPMj
p150
sg74
Vhttp://t.co/0CUZkRbPMj
p151
sVmedia_url_https
p152
Vhttps://pbs.twimg.com/media/CJzol95VAAAFeUn.jpg
p153
sg42
V620626587638104064
p154
sVsizes
p155
(dp156
Vsmall
p157
(dp158
Vh
p159
I255
sVresize
p160
Vfit
p161
sVw
p162
I340
ssVlarge
p163
(dp164
g159
I768
sg160
Vfit
p165
sg162
I1024
ssVmedium
p166
(dp167
g159
I450
sg160
Vfit
p168
sg162
I600
ssVthumb
p169
(dp170
g159
I150
sg160
Vcrop
p171
sg162
I150
sssVindices
p172
(lp173
I107
aI129
asVtype
p174
Vphoto
p175
sg33
I620626587638104064
sVmedia_url
p176
Vhttp://pbs.twimg.com/media/CJzol95VAAAFeUn.jpg
p177
sasVhashtags
p178
(lp179
(dp180
g172
(lp181
I57
aI68
asg130
VNickiMinaj
p182
sa(dp183
g172
(lp184
I69
aI78
asg130
VLudacris
p185
sa(dp186
g172
(lp187
I79
aI93
asg130
VKendrickLamar
p188
sa(dp189
g172
(lp190
I94
aI106
asg130
VTinieTempah
p191
sasVuser_mentions
p192
(lp193
sVtrends
p194
(lp195
sVurls
p196
(lp197
ssVin_reply_to_screen_name
p198
Nsg42
V620626589827657728
p199
sVretweet_count
p200
I0
sVin_reply_to_user_id
p201
NsVfavorited
p202
I00
sVuser
p203
g29
sVgeo
p204
NsVin_reply_to_user_id_str
p205
NsVpossibly_sensitive
p206
I00
sg67
g124
sg75
VMon Jul 13 16:11:24 +0000 2015
p207
sVfilter_level
p208
g119
sVin_reply_to_status_id_str
p209
NsVplace
p210
(dp211
Vfull_name
p212
VZurich, Switzerland
p213
sg74
Vhttps://api.twitter.com/1.1/geo/id/3acb748d0f1e9265.json
p214
sVcountry
p215
VSchweiz
p216
sVplace_type
p217
Vcity
p218
sVbounding_box
p219
(dp220
g174
VPolygon
p221
sg137
(lp222
(lp223
(lp224
F8.448081
aF47.320183
aa(lp225
F8.448081
aF47.434721
aa(lp226
F8.625442
aF47.434721
aa(lp227
F8.625442
aF47.320183
aaassVcountry_code
p228
VCH
p229
sVattributes
p230
(dp231
sg33
V3acb748d0f1e9265
p232
sg65
VZurich
p233
ssVextended_entities
p234
(dp235
g144
(lp236
(dp237
g147
Vhttp://twitter.com/DumasMutesi/status/620626589827657728/photo/1
p238
sg149
Vpic.twitter.com/0CUZkRbPMj
p239
sg74
Vhttp://t.co/0CUZkRbPMj
p240
sg152
Vhttps://pbs.twimg.com/media/CJzol95VAAAFeUn.jpg
p241
sg42
V620626587638104064
p242
sg155
(dp243
g157
(dp244
g159
I255
sg160
Vfit
p245
sg162
I340
ssg163
(dp246
g159
I768
sg160
Vfit
p247
sg162
I1024
ssg166
(dp248
g159
I450
sg160
Vfit
p249
sg162
I600
ssg169
(dp250
g159
I150
sg160
Vcrop
p251
sg162
I150
sssg172
(lp252
I107
aI129
asg174
Vphoto
p253
sg33
I620626587638104064
sg176
Vhttp://pbs.twimg.com/media/CJzol95VAAAFeUn.jpg
p254
sa(dp255
g147
Vhttp://twitter.com/DumasMutesi/status/620626589827657728/photo/1
p256
sg149
Vpic.twitter.com/0CUZkRbPMj
p257
sg74
Vhttp://t.co/0CUZkRbPMj
p258
sg152
Vhttps://pbs.twimg.com/media/CJzolYtUYAARoz-.jpg
p259
sg42
V620626577655619584
p260
sg155
(dp261
g157
(dp262
g159
I340
sg160
Vfit
p263
sg162
I340
ssg163
(dp264
g159
I1024
sg160
Vfit
p265
sg162
I1024
ssg166
(dp266
g159
I600
sg160
Vfit
p267
sg162
I600
ssg169
(dp268
g159
I150
sg160
Vcrop
p269
sg162
I150
sssg172
(lp270
I107
aI129
asg174
Vphoto
p271
sg33
I620626577655619584
sg176
Vhttp://pbs.twimg.com/media/CJzolYtUYAARoz-.jpg
p272
sa(dp273
g147
Vhttp://twitter.com/DumasMutesi/status/620626589827657728/photo/1
p274
sg149
Vpic.twitter.com/0CUZkRbPMj
p275
sg74
Vhttp://t.co/0CUZkRbPMj
p276
sg152
Vhttps://pbs.twimg.com/media/CJzojJpUsAAstMf.jpg
p277
sg42
V620626539252592640
p278
sg155
(dp279
g163
(dp280
g159
I1365
sg160
Vfit
p281
sg162
I1024
ssg157
(dp282
g159
I453
sg160
Vfit
p283
sg162
I340
ssg166
(dp284
g159
I800
sg160
Vfit
p285
sg162
I600
ssg169
(dp286
g159
I150
sg160
Vcrop
p287
sg162
I150
sssg172
(lp288
I107
aI129
asg174
Vphoto
p289
sg33
I620626539252592640
sg176
Vhttp://pbs.twimg.com/media/CJzojJpUsAAstMf.jpg
p290
sasssS'coordinates'
p291
NsS'timestamp_ms'
p292
g139
sS'entities'
p293
g141
sS'in_reply_to_status_id_str'
p294
NsS'in_reply_to_screen_name'
p295
Nsg88
g199
sS'extended_entities'
p296
g235
sS'retweeted'
p297
I00
sS'place'
p298
g0
(ctweepy.models
Place
p299
g2
Ntp300
Rp301
(dp302
S'full_name'
p303
g213
sg106
g214
sS'country'
p304
g216
sS'place_type'
p305
g218
sS'bounding_box'
p306
g0
(ctweepy.models
BoundingBox
p307
g2
Ntp308
Rp309
(dp310
S'type'
p311
g221
sg291
g222
sbsS'country_code'
p312
g229
sS'attributes'
p313
g231
sg24
g232
sg100
g233
sbsS'retweet_count'
p314
I0
sg107
g108
(S'\x07\xdf\x07\r\x10\x0b\x18\x00\x00\x00'
p315
tp316
Rp317
sS'in_reply_to_user_id'
p318
Nsb.