ccopy_reg
_reconstructor
p0
(ctweepy.models
Status
p1
c__builtin__
object
p2
Ntp3
Rp4
(dp5
S'favorited'
p6
I00
sS'contributors'
p7
NsS'truncated'
p8
I00
sS'text'
p9
VDo not talk to strangers! Great advice for kids, horrible advice for adults. \u000ahttp://t.co/D72JplNMmq @sixtyandme http://t.co/ryw95HQND3
p10
sS'source_url'
p11
Vhttp://twitter.com
p12
sS'possibly_sensitive'
p13
I00
sS'in_reply_to_status_id'
p14
NsS'user'
p15
g0
(ctweepy.models
User
p16
g2
Ntp17
Rp18
(dp19
S'follow_request_sent'
p20
NsS'profile_use_background_image'
p21
I01
sS'profile_sidebar_fill_color'
p22
VF3F3F3
p23
sS'id'
p24
I955350608
sS'verified'
p25
I00
sS'profile_image_url_https'
p26
Vhttps://pbs.twimg.com/profile_images/564447504066818048/t1W1zL6G_normal.png
p27
sS'_json'
p28
(dp29
Vfollow_request_sent
p30
NsVprofile_use_background_image
p31
I01
sVdefault_profile_image
p32
I00
sVid
p33
I955350608
sVverified
p34
I00
sVprofile_image_url_https
p35
g27
sVprofile_sidebar_fill_color
p36
g23
sVprofile_text_color
p37
V333333
p38
sVfollowers_count
p39
I3621
sVprofile_sidebar_border_color
p40
VDFDFDF
p41
sVid_str
p42
V955350608
p43
sVprofile_background_color
p44
VEBEBEB
p45
sVlisted_count
p46
I112
sVprofile_background_image_url_https
p47
Vhttps://abs.twimg.com/images/themes/theme7/bg.gif
p48
sVutc_offset
p49
NsVstatuses_count
p50
I12157
sVdescription
p51
VSixty and Me is a global community of 100,000 women over 60. Helping boomer women to live healthy, independent and financially secure lives. By Margaret Manning
p52
sVfriends_count
p53
I1781
sVlocation
p54
VSwitzerland 
p55
sVprofile_link_color
p56
V990000
p57
sVprofile_image_url
p58
Vhttp://pbs.twimg.com/profile_images/564447504066818048/t1W1zL6G_normal.png
p59
sVfollowing
p60
NsVgeo_enabled
p61
I01
sVprofile_banner_url
p62
Vhttps://pbs.twimg.com/profile_banners/955350608/1423417866
p63
sVprofile_background_image_url
p64
Vhttp://abs.twimg.com/images/themes/theme7/bg.gif
p65
sVname
p66
VSixty and Me 
p67
sVlang
p68
Ven
p69
sVprofile_background_tile
p70
I00
sVfavourites_count
p71
I256
sVscreen_name
p72
Vsixtyandme
p73
sVnotifications
p74
NsVurl
p75
Vhttp://sixtyandme.com
p76
sVcreated_at
p77
VSun Nov 18 11:54:24 +0000 2012
p78
sVcontributors_enabled
p79
I00
sVtime_zone
p80
NsVprotected
p81
I00
sVdefault_profile
p82
I00
sVis_translator
p83
I00
ssS'contributors_enabled'
p84
I00
sS'profile_text_color'
p85
g38
sS'followers_count'
p86
I3621
sS'profile_sidebar_border_color'
p87
g41
sS'location'
p88
g55
sS'default_profile_image'
p89
I00
sS'id_str'
p90
g43
sS'utc_offset'
p91
NsS'statuses_count'
p92
I12157
sS'description'
p93
g52
sS'friends_count'
p94
I1781
sS'profile_link_color'
p95
g57
sS'profile_image_url'
p96
g59
sS'notifications'
p97
NsS'geo_enabled'
p98
I01
sS'profile_background_color'
p99
g45
sS'profile_banner_url'
p100
g63
sS'profile_background_image_url'
p101
g65
sS'name'
p102
g67
sS'lang'
p103
g69
sS'following'
p104
I00
sS'profile_background_tile'
p105
I00
sS'favourites_count'
p106
I256
sS'screen_name'
p107
g73
sS'url'
p108
g76
sS'created_at'
p109
cdatetime
datetime
p110
(S'\x07\xdc\x0b\x12\x0b6\x18\x00\x00\x00'
p111
tp112
Rp113
sS'profile_background_image_url_https'
p114
g48
sS'time_zone'
p115
NsS'protected'
p116
I00
sS'default_profile'
p117
I00
sS'is_translator'
p118
I00
sS'listed_count'
p119
I112
sbsS'filter_level'
p120
Vlow
p121
sS'geo'
p122
Nsg24
I621290965865787392
sS'favorite_count'
p123
I0
sS'source'
p124
VTwitter Web Client
p125
sg103
Ven
p126
sS'author'
p127
g18
sS'in_reply_to_user_id_str'
p128
Nsg28
(dp129
Vcontributors
p130
NsVtruncated
p131
I00
sVtext
p132
VDo not talk to strangers! Great advice for kids, horrible advice for adults. \u000ahttp://t.co/D72JplNMmq @sixtyandme http://t.co/ryw95HQND3
p133
sVin_reply_to_status_id
p134
Nsg33
I621290965865787392
sVfavorite_count
p135
I0
sVsource
p136
V<a href="http://twitter.com" rel="nofollow">Twitter Web Client</a>
p137
sVretweeted
p138
I00
sVcoordinates
p139
NsVtimestamp_ms
p140
V1436962283947
p141
sVentities
p142
(dp143
Vsymbols
p144
(lp145
sVmedia
p146
(lp147
(dp148
Vexpanded_url
p149
Vhttp://twitter.com/sixtyandme/status/621290965865787392/photo/1
p150
sVdisplay_url
p151
Vpic.twitter.com/ryw95HQND3
p152
sg75
Vhttp://t.co/ryw95HQND3
p153
sVmedia_url_https
p154
Vhttps://pbs.twimg.com/media/CJ9E10UXAAAvwVr.jpg
p155
sg42
V621290964968210432
p156
sVsizes
p157
(dp158
Vsmall
p159
(dp160
Vh
p161
I173
sVresize
p162
Vfit
p163
sVw
p164
I340
ssVlarge
p165
(dp166
g161
I297
sg162
Vfit
p167
sg164
I581
ssVmedium
p168
(dp169
g161
I297
sg162
Vfit
p170
sg164
I581
ssVthumb
p171
(dp172
g161
I150
sg162
Vcrop
p173
sg164
I150
sssVindices
p174
(lp175
I113
aI135
asVtype
p176
Vphoto
p177
sg33
I621290964968210432
sVmedia_url
p178
Vhttp://pbs.twimg.com/media/CJ9E10UXAAAvwVr.jpg
p179
sasVhashtags
p180
(lp181
sVuser_mentions
p182
(lp183
(dp184
g33
I955350608
sg174
(lp185
I101
aI112
asg42
V955350608
p186
sg72
Vsixtyandme
p187
sg66
VSixty and Me 
p188
sasVtrends
p189
(lp190
sVurls
p191
(lp192
(dp193
g75
Vhttp://t.co/D72JplNMmq
p194
sg174
(lp195
I78
aI100
asg149
Vhttp://www.boomerly.com/dont-talk-to-strangers-horrible-advice-for-adults/
p196
sg151
Vboomerly.com/dont-talk-to-s\u2026
p197
sassVin_reply_to_screen_name
p198
Nsg42
V621290965865787392
p199
sVretweet_count
p200
I0
sVin_reply_to_user_id
p201
NsVfavorited
p202
I00
sVuser
p203
g29
sVgeo
p204
NsVin_reply_to_user_id_str
p205
NsVpossibly_sensitive
p206
I00
sg68
g126
sg77
VWed Jul 15 12:11:23 +0000 2015
p207
sVfilter_level
p208
g121
sVin_reply_to_status_id_str
p209
NsVplace
p210
(dp211
Vfull_name
p212
VZurich, Switzerland
p213
sg75
Vhttps://api.twitter.com/1.1/geo/id/3acb748d0f1e9265.json
p214
sVcountry
p215
VSchweiz
p216
sVplace_type
p217
Vcity
p218
sVbounding_box
p219
(dp220
g176
VPolygon
p221
sg139
(lp222
(lp223
(lp224
F8.448081
aF47.320183
aa(lp225
F8.448081
aF47.434721
aa(lp226
F8.625442
aF47.434721
aa(lp227
F8.625442
aF47.320183
aaassVcountry_code
p228
VCH
p229
sVattributes
p230
(dp231
sg33
V3acb748d0f1e9265
p232
sg66
VZurich
p233
ssVextended_entities
p234
(dp235
g146
(lp236
(dp237
g149
Vhttp://twitter.com/sixtyandme/status/621290965865787392/photo/1
p238
sg151
Vpic.twitter.com/ryw95HQND3
p239
sg75
Vhttp://t.co/ryw95HQND3
p240
sg154
Vhttps://pbs.twimg.com/media/CJ9E10UXAAAvwVr.jpg
p241
sg42
V621290964968210432
p242
sg157
(dp243
g159
(dp244
g161
I173
sg162
Vfit
p245
sg164
I340
ssg165
(dp246
g161
I297
sg162
Vfit
p247
sg164
I581
ssg168
(dp248
g161
I297
sg162
Vfit
p249
sg164
I581
ssg171
(dp250
g161
I150
sg162
Vcrop
p251
sg164
I150
sssg174
(lp252
I113
aI135
asg176
Vphoto
p253
sg33
I621290964968210432
sg178
Vhttp://pbs.twimg.com/media/CJ9E10UXAAAvwVr.jpg
p254
sasssS'coordinates'
p255
NsS'timestamp_ms'
p256
g141
sS'entities'
p257
g143
sS'in_reply_to_status_id_str'
p258
NsS'in_reply_to_screen_name'
p259
Nsg90
g199
sS'extended_entities'
p260
g235
sS'retweeted'
p261
I00
sS'place'
p262
g0
(ctweepy.models
Place
p263
g2
Ntp264
Rp265
(dp266
S'full_name'
p267
g213
sg108
g214
sS'country'
p268
g216
sS'place_type'
p269
g218
sS'bounding_box'
p270
g0
(ctweepy.models
BoundingBox
p271
g2
Ntp272
Rp273
(dp274
S'type'
p275
g221
sg255
g222
sbsS'country_code'
p276
g229
sS'attributes'
p277
g231
sg24
g232
sg102
g233
sbsS'retweet_count'
p278
I0
sg109
g110
(S'\x07\xdf\x07\x0f\x0c\x0b\x17\x00\x00\x00'
p279
tp280
Rp281
sS'in_reply_to_user_id'
p282
Nsb.