ccopy_reg
_reconstructor
p0
(ctweepy.models
Status
p1
c__builtin__
object
p2
Ntp3
Rp4
(dp5
S'favorited'
p6
I00
sS'contributors'
p7
NsS'truncated'
p8
I00
sS'text'
p9
V@AcademyQPRUSA says it all David, that's why prem sucks for same reasons
p10
sS'source_url'
p11
Vhttp://twitter.com/download/iphone
p12
sS'possibly_sensitive'
p13
I00
sS'in_reply_to_status_id'
p14
I620785671737864192
sS'user'
p15
g0
(ctweepy.models
User
p16
g2
Ntp17
Rp18
(dp19
S'follow_request_sent'
p20
NsS'profile_use_background_image'
p21
I01
sS'profile_sidebar_fill_color'
p22
VDDEEF6
p23
sS'id'
p24
I355784026
sS'verified'
p25
I00
sS'profile_image_url_https'
p26
Vhttps://pbs.twimg.com/profile_images/1499673812/image_normal.jpg
p27
sS'_json'
p28
(dp29
Vfollow_request_sent
p30
NsVprofile_use_background_image
p31
I01
sVdefault_profile_image
p32
I00
sVid
p33
I355784026
sVverified
p34
I00
sVprofile_image_url_https
p35
g27
sVprofile_sidebar_fill_color
p36
g23
sVprofile_text_color
p37
V333333
p38
sVfollowers_count
p39
I70
sVprofile_sidebar_border_color
p40
VC0DEED
p41
sVid_str
p42
V355784026
p43
sVprofile_background_color
p44
VC0DEED
p45
sVlisted_count
p46
I2
sVprofile_background_image_url_https
p47
Vhttps://abs.twimg.com/images/themes/theme1/bg.png
p48
sVutc_offset
p49
NsVstatuses_count
p50
I877
sVdescription
p51
VLoyal but not so happy QPR fan
p52
sVfriends_count
p53
I352
sVlocation
p54
VBaldock
p55
sVprofile_link_color
p56
V0084B4
p57
sVprofile_image_url
p58
Vhttp://pbs.twimg.com/profile_images/1499673812/image_normal.jpg
p59
sVfollowing
p60
NsVgeo_enabled
p61
I01
sVprofile_background_image_url
p62
Vhttp://abs.twimg.com/images/themes/theme1/bg.png
p63
sVname
p64
VMike Taylor
p65
sVlang
p66
Ven
p67
sVprofile_background_tile
p68
I00
sVfavourites_count
p69
I13
sVscreen_name
p70
Vmikeyboy1964
p71
sVnotifications
p72
NsVurl
p73
NsVcreated_at
p74
VMon Aug 15 21:53:30 +0000 2011
p75
sVcontributors_enabled
p76
I00
sVtime_zone
p77
NsVprotected
p78
I00
sVdefault_profile
p79
I01
sVis_translator
p80
I00
ssS'contributors_enabled'
p81
I00
sS'profile_text_color'
p82
g38
sS'followers_count'
p83
I70
sS'profile_sidebar_border_color'
p84
g41
sS'location'
p85
g55
sS'default_profile_image'
p86
I00
sS'id_str'
p87
g43
sS'utc_offset'
p88
NsS'statuses_count'
p89
I877
sS'description'
p90
g52
sS'friends_count'
p91
I352
sS'profile_link_color'
p92
g57
sS'profile_image_url'
p93
g59
sS'notifications'
p94
NsS'geo_enabled'
p95
I01
sS'profile_background_color'
p96
g45
sS'profile_background_image_url'
p97
g63
sS'name'
p98
g65
sS'lang'
p99
g67
sS'following'
p100
I00
sS'profile_background_tile'
p101
I00
sS'favourites_count'
p102
I13
sS'screen_name'
p103
g71
sS'url'
p104
NsS'created_at'
p105
cdatetime
datetime
p106
(S'\x07\xdb\x08\x0f\x155\x1e\x00\x00\x00'
p107
tp108
Rp109
sS'profile_background_image_url_https'
p110
g48
sS'time_zone'
p111
NsS'protected'
p112
I00
sS'default_profile'
p113
I01
sS'is_translator'
p114
I00
sS'listed_count'
p115
I2
sbsS'filter_level'
p116
Vlow
p117
sS'geo'
p118
(dp119
Vtype
p120
VPoint
p121
sVcoordinates
p122
(lp123
F47.376254
aF8.544477
assg24
I620820115639115777
sS'favorite_count'
p124
I0
sS'source'
p125
VTwitter for iPhone
p126
sg99
Ven
p127
sS'author'
p128
g18
sS'in_reply_to_user_id_str'
p129
V847952995
p130
sg28
(dp131
Vcontributors
p132
NsVtruncated
p133
I00
sVtext
p134
g10
sVin_reply_to_status_id
p135
I620785671737864192
sg33
I620820115639115777
sVfavorite_count
p136
I0
sVsource
p137
V<a href="http://twitter.com/download/iphone" rel="nofollow">Twitter for iPhone</a>
p138
sVretweeted
p139
I00
sg122
(dp140
g120
VPoint
p141
sg122
(lp142
F8.544477
aF47.376254
assVtimestamp_ms
p143
V1436850024505
p144
sVentities
p145
(dp146
Vuser_mentions
p147
(lp148
(dp149
g33
I847952995
sVindices
p150
(lp151
I0
aI14
asg42
V847952995
p152
sg70
VAcademyQPRUSA
p153
sg64
VDavid Bardsley
p154
sasVsymbols
p155
(lp156
sVtrends
p157
(lp158
sVhashtags
p159
(lp160
sVurls
p161
(lp162
ssVin_reply_to_screen_name
p163
VAcademyQPRUSA
p164
sg42
V620820115639115777
p165
sVretweet_count
p166
I0
sVin_reply_to_user_id
p167
I847952995
sVfavorited
p168
I00
sVuser
p169
g29
sVgeo
p170
g119
sVin_reply_to_user_id_str
p171
g130
sVpossibly_sensitive
p172
I00
sg66
g127
sg74
VTue Jul 14 05:00:24 +0000 2015
p173
sVfilter_level
p174
g117
sVin_reply_to_status_id_str
p175
V620785671737864192
p176
sVplace
p177
(dp178
Vfull_name
p179
VZurich, Switzerland
p180
sg73
Vhttps://api.twitter.com/1.1/geo/id/3acb748d0f1e9265.json
p181
sVcountry
p182
VSchweiz
p183
sVplace_type
p184
Vcity
p185
sVbounding_box
p186
(dp187
g120
VPolygon
p188
sg122
(lp189
(lp190
(lp191
F8.448081
aF47.320183
aa(lp192
F8.448081
aF47.434721
aa(lp193
F8.625442
aF47.434721
aa(lp194
F8.625442
aF47.320183
aaassVcountry_code
p195
VCH
p196
sVattributes
p197
(dp198
sg33
V3acb748d0f1e9265
p199
sg64
VZurich
p200
sssS'coordinates'
p201
g140
sS'timestamp_ms'
p202
g144
sS'entities'
p203
g146
sS'in_reply_to_status_id_str'
p204
g176
sS'in_reply_to_screen_name'
p205
g164
sg87
g165
sS'retweeted'
p206
I00
sS'place'
p207
g0
(ctweepy.models
Place
p208
g2
Ntp209
Rp210
(dp211
S'full_name'
p212
g180
sg104
g181
sS'country'
p213
g183
sS'place_type'
p214
g185
sS'bounding_box'
p215
g0
(ctweepy.models
BoundingBox
p216
g2
Ntp217
Rp218
(dp219
S'type'
p220
g188
sg201
g189
sbsS'country_code'
p221
g196
sS'attributes'
p222
g198
sg24
g199
sg98
g200
sbsS'retweet_count'
p223
I0
sg105
g106
(S'\x07\xdf\x07\x0e\x05\x00\x18\x00\x00\x00'
p224
tp225
Rp226
sS'in_reply_to_user_id'
p227
I847952995
sb.