ccopy_reg
_reconstructor
p0
(ctweepy.models
Status
p1
c__builtin__
object
p2
Ntp3
Rp4
(dp5
S'favorited'
p6
I00
sS'contributors'
p7
NsS'truncated'
p8
I00
sS'text'
p9
V"Exponential growth can only be achieved by decentralised business models." #AeronBuchanan @ethereumproject. #Bitcoin #Meetup #Zurich
p10
sS'source_url'
p11
Vhttp://twitter.com/download/android
p12
sS'possibly_sensitive'
p13
I00
sS'in_reply_to_status_id'
p14
NsS'user'
p15
g0
(ctweepy.models
User
p16
g2
Ntp17
Rp18
(dp19
S'follow_request_sent'
p20
NsS'profile_use_background_image'
p21
I01
sS'profile_sidebar_fill_color'
p22
V252429
p23
sS'id'
p24
I875122621
sS'verified'
p25
I00
sS'profile_image_url_https'
p26
Vhttps://pbs.twimg.com/profile_images/592020846874632194/ElVidYhY_normal.jpg
p27
sS'_json'
p28
(dp29
Vfollow_request_sent
p30
NsVprofile_use_background_image
p31
I01
sVdefault_profile_image
p32
I00
sVid
p33
I875122621
sVverified
p34
I00
sVprofile_image_url_https
p35
g27
sVprofile_sidebar_fill_color
p36
g23
sVprofile_text_color
p37
V666666
p38
sVfollowers_count
p39
I1639
sVprofile_sidebar_border_color
p40
V181A1E
p41
sVid_str
p42
V875122621
p43
sVprofile_background_color
p44
V1A1B1F
p45
sVlisted_count
p46
I174
sVprofile_background_image_url_https
p47
Vhttps://abs.twimg.com/images/themes/theme9/bg.gif
p48
sVutc_offset
p49
I7200
sVstatuses_count
p50
I14309
sVdescription
p51
VSocial Transformation Catalyst - Ecomodernist - Banker. Energy & climate policies balancing economy & ecology. @EfH_CH
p52
sVfriends_count
p53
I1058
sVlocation
p54
VZurich - Switzerland
p55
sVprofile_link_color
p56
V2FC2EF
p57
sVprofile_image_url
p58
Vhttp://pbs.twimg.com/profile_images/592020846874632194/ElVidYhY_normal.jpg
p59
sVfollowing
p60
NsVgeo_enabled
p61
I01
sVprofile_banner_url
p62
Vhttps://pbs.twimg.com/profile_banners/875122621/1429388698
p63
sVprofile_background_image_url
p64
Vhttp://abs.twimg.com/images/themes/theme9/bg.gif
p65
sVname
p66
VUrs Bolt
p67
sVlang
p68
Ven
p69
sVprofile_background_tile
p70
I00
sVfavourites_count
p71
I35335
sVscreen_name
p72
VUrsBolt
p73
sVnotifications
p74
NsVurl
p75
Vhttp://linkedin.com/in/ursbolt/
p76
sVcreated_at
p77
VFri Oct 12 07:19:14 +0000 2012
p78
sVcontributors_enabled
p79
I00
sVtime_zone
p80
VBern
p81
sVprotected
p82
I00
sVdefault_profile
p83
I00
sVis_translator
p84
I00
ssS'contributors_enabled'
p85
I00
sS'profile_text_color'
p86
g38
sS'followers_count'
p87
I1639
sS'profile_sidebar_border_color'
p88
g41
sS'location'
p89
g55
sS'default_profile_image'
p90
I00
sS'id_str'
p91
g43
sS'utc_offset'
p92
I7200
sS'statuses_count'
p93
I14309
sS'description'
p94
g52
sS'friends_count'
p95
I1058
sS'profile_link_color'
p96
g57
sS'profile_image_url'
p97
g59
sS'notifications'
p98
NsS'geo_enabled'
p99
I01
sS'profile_background_color'
p100
g45
sS'profile_banner_url'
p101
g63
sS'profile_background_image_url'
p102
g65
sS'name'
p103
g67
sS'lang'
p104
g69
sS'following'
p105
I00
sS'profile_background_tile'
p106
I00
sS'favourites_count'
p107
I35335
sS'screen_name'
p108
g73
sS'url'
p109
g76
sS'created_at'
p110
cdatetime
datetime
p111
(S'\x07\xdc\n\x0c\x07\x13\x0e\x00\x00\x00'
p112
tp113
Rp114
sS'profile_background_image_url_https'
p115
g48
sS'time_zone'
p116
g81
sS'protected'
p117
I00
sS'default_profile'
p118
I00
sS'is_translator'
p119
I00
sS'listed_count'
p120
I174
sbsS'filter_level'
p121
Vlow
p122
sS'geo'
p123
Nsg24
I618836982324666368
sS'favorite_count'
p124
I0
sS'source'
p125
VTwitter for Android
p126
sg104
Ven
p127
sS'author'
p128
g18
sS'in_reply_to_user_id_str'
p129
Nsg28
(dp130
Vcontributors
p131
NsVtruncated
p132
I00
sVtext
p133
g10
sVin_reply_to_status_id
p134
Nsg33
I618836982324666368
sVfavorite_count
p135
I0
sVsource
p136
V<a href="http://twitter.com/download/android" rel="nofollow">Twitter for Android</a>
p137
sVretweeted
p138
I00
sVcoordinates
p139
NsVtimestamp_ms
p140
V1436377208678
p141
sVentities
p142
(dp143
Vuser_mentions
p144
(lp145
(dp146
g33
I2312333412
sVindices
p147
(lp148
I91
aI107
asg42
V2312333412
p149
sg72
Vethereumproject
p150
sg66
VEthereum
p151
sasVsymbols
p152
(lp153
sVtrends
p154
(lp155
sVhashtags
p156
(lp157
(dp158
g147
(lp159
I76
aI90
asg133
VAeronBuchanan
p160
sa(dp161
g147
(lp162
I109
aI117
asg133
VBitcoin
p163
sa(dp164
g147
(lp165
I118
aI125
asg133
VMeetup
p166
sa(dp167
g147
(lp168
I126
aI133
asg133
VZurich
p169
sasVurls
p170
(lp171
ssVin_reply_to_screen_name
p172
Nsg42
V618836982324666368
p173
sVretweet_count
p174
I0
sVin_reply_to_user_id
p175
NsVfavorited
p176
I00
sVuser
p177
g29
sVgeo
p178
NsVin_reply_to_user_id_str
p179
NsVpossibly_sensitive
p180
I00
sg68
g127
sg77
VWed Jul 08 17:40:08 +0000 2015
p181
sVfilter_level
p182
g122
sVin_reply_to_status_id_str
p183
NsVplace
p184
(dp185
Vfull_name
p186
VZurich, Switzerland
p187
sg75
Vhttps://api.twitter.com/1.1/geo/id/3acb748d0f1e9265.json
p188
sVcountry
p189
VSchweiz
p190
sVplace_type
p191
Vcity
p192
sVbounding_box
p193
(dp194
Vtype
p195
VPolygon
p196
sg139
(lp197
(lp198
(lp199
F8.448081
aF47.320183
aa(lp200
F8.448081
aF47.434721
aa(lp201
F8.625442
aF47.434721
aa(lp202
F8.625442
aF47.320183
aaassVcountry_code
p203
VCH
p204
sVattributes
p205
(dp206
sg33
V3acb748d0f1e9265
p207
sg66
VZurich
p208
sssS'coordinates'
p209
NsS'timestamp_ms'
p210
g141
sS'entities'
p211
g143
sS'in_reply_to_status_id_str'
p212
NsS'in_reply_to_screen_name'
p213
Nsg91
g173
sS'retweeted'
p214
I00
sS'place'
p215
g0
(ctweepy.models
Place
p216
g2
Ntp217
Rp218
(dp219
S'full_name'
p220
g187
sg109
g188
sS'country'
p221
g190
sS'place_type'
p222
g192
sS'bounding_box'
p223
g0
(ctweepy.models
BoundingBox
p224
g2
Ntp225
Rp226
(dp227
S'type'
p228
g196
sg209
g197
sbsS'country_code'
p229
g204
sS'attributes'
p230
g206
sg24
g207
sg103
g208
sbsS'retweet_count'
p231
I0
sg110
g111
(S'\x07\xdf\x07\x08\x11(\x08\x00\x00\x00'
p232
tp233
Rp234
sS'in_reply_to_user_id'
p235
Nsb.