ccopy_reg
_reconstructor
p0
(ctweepy.models
Status
p1
c__builtin__
object
p2
Ntp3
Rp4
(dp5
S'favorited'
p6
I00
sS'contributors'
p7
NsS'truncated'
p8
I00
sS'text'
p9
VChocolaaaaaade.\u000a#X100s #nightshot @ Central Zurich https://t.co/g2m1Z3byk5
p10
sS'source_url'
p11
Vhttp://instagram.com
p12
sS'possibly_sensitive'
p13
I00
sS'in_reply_to_status_id'
p14
NsS'user'
p15
g0
(ctweepy.models
User
p16
g2
Ntp17
Rp18
(dp19
S'follow_request_sent'
p20
NsS'profile_use_background_image'
p21
I00
sS'profile_sidebar_fill_color'
p22
VEADEAA
p23
sS'id'
p24
I123202926
sS'verified'
p25
I00
sS'profile_image_url_https'
p26
Vhttps://pbs.twimg.com/profile_images/609430053567496192/bvGc67dH_normal.jpg
p27
sS'_json'
p28
(dp29
Vfollow_request_sent
p30
NsVprofile_use_background_image
p31
I00
sVdefault_profile_image
p32
I00
sVid
p33
I123202926
sVverified
p34
I00
sVprofile_image_url_https
p35
g27
sVprofile_sidebar_fill_color
p36
g23
sVprofile_text_color
p37
V333333
p38
sVfollowers_count
p39
I1244
sVprofile_sidebar_border_color
p40
VFFFFFF
p41
sVid_str
p42
V123202926
p43
sVprofile_background_color
p44
V333333
p45
sVlisted_count
p46
I70
sVprofile_background_image_url_https
p47
Vhttps://pbs.twimg.com/profile_background_images/378800000062859515/8bcdb00e12fcd19833498ac860775dcc.jpeg
p48
sVutc_offset
p49
I7200
sVstatuses_count
p50
I35549
sVdescription
p51
Vfotomalloot | muziekjunk | zeiler | hockeyer | interim manager |  programmamanager | schaatsenthousiast | mba | vader
p52
sVfriends_count
p53
I944
sVlocation
p54
VAbcoude
p55
sVprofile_link_color
p56
V26211E
p57
sVprofile_image_url
p58
Vhttp://pbs.twimg.com/profile_images/609430053567496192/bvGc67dH_normal.jpg
p59
sVfollowing
p60
NsVgeo_enabled
p61
I01
sVprofile_banner_url
p62
Vhttps://pbs.twimg.com/profile_banners/123202926/1411203841
p63
sVprofile_background_image_url
p64
Vhttp://pbs.twimg.com/profile_background_images/378800000062859515/8bcdb00e12fcd19833498ac860775dcc.jpeg
p65
sVname
p66
VEvert Blaauwendraad
p67
sVlang
p68
Ven
p69
sVprofile_background_tile
p70
I00
sVfavourites_count
p71
I2466
sVscreen_name
p72
Vblaauwendraad
p73
sVnotifications
p74
NsVurl
p75
NsVcreated_at
p76
VMon Mar 15 09:53:23 +0000 2010
p77
sVcontributors_enabled
p78
I00
sVtime_zone
p79
VAmsterdam
p80
sVprotected
p81
I00
sVdefault_profile
p82
I00
sVis_translator
p83
I00
ssS'contributors_enabled'
p84
I00
sS'profile_text_color'
p85
g38
sS'followers_count'
p86
I1244
sS'profile_sidebar_border_color'
p87
g41
sS'location'
p88
g55
sS'default_profile_image'
p89
I00
sS'id_str'
p90
g43
sS'utc_offset'
p91
I7200
sS'statuses_count'
p92
I35549
sS'description'
p93
g52
sS'friends_count'
p94
I944
sS'profile_link_color'
p95
g57
sS'profile_image_url'
p96
g59
sS'notifications'
p97
NsS'geo_enabled'
p98
I01
sS'profile_background_color'
p99
g45
sS'profile_banner_url'
p100
g63
sS'profile_background_image_url'
p101
g65
sS'name'
p102
g67
sS'lang'
p103
g69
sS'following'
p104
I00
sS'profile_background_tile'
p105
I00
sS'favourites_count'
p106
I2466
sS'screen_name'
p107
g73
sS'url'
p108
NsS'created_at'
p109
cdatetime
datetime
p110
(S'\x07\xda\x03\x0f\t5\x17\x00\x00\x00'
p111
tp112
Rp113
sS'profile_background_image_url_https'
p114
g48
sS'time_zone'
p115
g80
sS'protected'
p116
I00
sS'default_profile'
p117
I00
sS'is_translator'
p118
I00
sS'listed_count'
p119
I70
sbsS'filter_level'
p120
Vlow
p121
sS'geo'
p122
(dp123
Vtype
p124
VPoint
p125
sVcoordinates
p126
(lp127
F47.376899
aF8.543803
assg24
I619586194960158720
sS'favorite_count'
p128
I0
sS'source'
p129
VInstagram
p130
sg103
Ves
p131
sS'author'
p132
g18
sS'in_reply_to_user_id_str'
p133
Nsg28
(dp134
Vcontributors
p135
NsVtruncated
p136
I00
sVtext
p137
VChocolaaaaaade.\u000a#X100s #nightshot @ Central Zurich https://t.co/g2m1Z3byk5
p138
sVin_reply_to_status_id
p139
Nsg33
I619586194960158720
sVfavorite_count
p140
I0
sVsource
p141
V<a href="http://instagram.com" rel="nofollow">Instagram</a>
p142
sVretweeted
p143
I00
sg126
(dp144
g124
VPoint
p145
sg126
(lp146
F8.543803
aF47.376899
assVtimestamp_ms
p147
V1436555834890
p148
sVentities
p149
(dp150
Vuser_mentions
p151
(lp152
sVsymbols
p153
(lp154
sVtrends
p155
(lp156
sVhashtags
p157
(lp158
(dp159
Vindices
p160
(lp161
I16
aI22
asg137
VX100s
p162
sa(dp163
g160
(lp164
I23
aI33
asg137
Vnightshot
p165
sasVurls
p166
(lp167
(dp168
g75
Vhttps://t.co/g2m1Z3byk5
p169
sg160
(lp170
I51
aI74
asVexpanded_url
p171
Vhttps://instagram.com/p/495C2iCZKJ/
p172
sVdisplay_url
p173
Vinstagram.com/p/495C2iCZKJ/
p174
sassVin_reply_to_screen_name
p175
Nsg42
V619586194960158720
p176
sVretweet_count
p177
I0
sVin_reply_to_user_id
p178
NsVfavorited
p179
I00
sVuser
p180
g29
sVgeo
p181
g123
sVin_reply_to_user_id_str
p182
NsVpossibly_sensitive
p183
I00
sg68
g131
sg76
VFri Jul 10 19:17:14 +0000 2015
p184
sVfilter_level
p185
g121
sVin_reply_to_status_id_str
p186
NsVplace
p187
(dp188
Vfull_name
p189
VZurich, Switzerland
p190
sg75
Vhttps://api.twitter.com/1.1/geo/id/3acb748d0f1e9265.json
p191
sVcountry
p192
VSchweiz
p193
sVplace_type
p194
Vcity
p195
sVbounding_box
p196
(dp197
g124
VPolygon
p198
sg126
(lp199
(lp200
(lp201
F8.448081
aF47.320183
aa(lp202
F8.448081
aF47.434721
aa(lp203
F8.625442
aF47.434721
aa(lp204
F8.625442
aF47.320183
aaassVcountry_code
p205
VCH
p206
sVattributes
p207
(dp208
sg33
V3acb748d0f1e9265
p209
sg66
VZurich
p210
sssS'coordinates'
p211
g144
sS'timestamp_ms'
p212
g148
sS'entities'
p213
g150
sS'in_reply_to_status_id_str'
p214
NsS'in_reply_to_screen_name'
p215
Nsg90
g176
sS'retweeted'
p216
I00
sS'place'
p217
g0
(ctweepy.models
Place
p218
g2
Ntp219
Rp220
(dp221
S'full_name'
p222
g190
sg108
g191
sS'country'
p223
g193
sS'place_type'
p224
g195
sS'bounding_box'
p225
g0
(ctweepy.models
BoundingBox
p226
g2
Ntp227
Rp228
(dp229
S'type'
p230
g198
sg211
g199
sbsS'country_code'
p231
g206
sS'attributes'
p232
g208
sg24
g209
sg102
g210
sbsS'retweet_count'
p233
I0
sg109
g110
(S'\x07\xdf\x07\n\x13\x11\x0e\x00\x00\x00'
p234
tp235
Rp236
sS'in_reply_to_user_id'
p237
Nsb.