ccopy_reg
_reconstructor
p0
(ctweepy.models
Status
p1
c__builtin__
object
p2
Ntp3
Rp4
(dp5
S'favorited'
p6
I00
sS'contributors'
p7
NsS'truncated'
p8
I00
sS'text'
p9
VGuess who is joining @TheManaSource Wedge on his adventures! http://t.co/oXSTDwc3iQ
p10
sS'source_url'
p11
Vhttp://twitter.com
p12
sS'possibly_sensitive'
p13
I00
sS'in_reply_to_status_id'
p14
NsS'user'
p15
g0
(ctweepy.models
User
p16
g2
Ntp17
Rp18
(dp19
S'follow_request_sent'
p20
NsS'profile_use_background_image'
p21
I01
sS'profile_sidebar_fill_color'
p22
VDDEEF6
p23
sS'id'
p24
I2977834655
sS'verified'
p25
I00
sS'profile_image_url_https'
p26
Vhttps://pbs.twimg.com/profile_images/577213516169408512/Z6422MOv_normal.png
p27
sS'_json'
p28
(dp29
Vfollow_request_sent
p30
NsVprofile_use_background_image
p31
I01
sVdefault_profile_image
p32
I00
sVid
p33
I2977834655
sVverified
p34
I00
sVprofile_image_url_https
p35
g27
sVprofile_sidebar_fill_color
p36
g23
sVprofile_text_color
p37
V333333
p38
sVfollowers_count
p39
I2
sVprofile_sidebar_border_color
p40
VC0DEED
p41
sVid_str
p42
V2977834655
p43
sVprofile_background_color
p44
VACDED6
p45
sVlisted_count
p46
I0
sVprofile_background_image_url_https
p47
Vhttps://abs.twimg.com/images/themes/theme18/bg.gif
p48
sVutc_offset
p49
NsVstatuses_count
p50
I197
sVdescription
p51
VFreelance Graphic Designer & Student | Living the tough life, playing games, going out, eating food
p52
sVfriends_count
p53
I64
sVlocation
p54
VWinterthur, Switzerland
p55
sVprofile_link_color
p56
VFA743E
p57
sVprofile_image_url
p58
Vhttp://pbs.twimg.com/profile_images/577213516169408512/Z6422MOv_normal.png
p59
sVfollowing
p60
NsVgeo_enabled
p61
I01
sVprofile_background_image_url
p62
Vhttp://abs.twimg.com/images/themes/theme18/bg.gif
p63
sVname
p64
VSimon Fischer
p65
sVlang
p66
Ven
p67
sVprofile_background_tile
p68
I00
sVfavourites_count
p69
I203
sVscreen_name
p70
Valmostsimon1
p71
sVnotifications
p72
NsVurl
p73
Vhttp://www.cubee.ch
p74
sVcreated_at
p75
VWed Jan 14 10:17:22 +0000 2015
p76
sVcontributors_enabled
p77
I00
sVtime_zone
p78
NsVprotected
p79
I00
sVdefault_profile
p80
I00
sVis_translator
p81
I00
ssS'contributors_enabled'
p82
I00
sS'profile_text_color'
p83
g38
sS'followers_count'
p84
I2
sS'profile_sidebar_border_color'
p85
g41
sS'location'
p86
g55
sS'default_profile_image'
p87
I00
sS'id_str'
p88
g43
sS'utc_offset'
p89
NsS'statuses_count'
p90
I197
sS'description'
p91
g52
sS'friends_count'
p92
I64
sS'profile_link_color'
p93
g57
sS'profile_image_url'
p94
g59
sS'notifications'
p95
NsS'geo_enabled'
p96
I01
sS'profile_background_color'
p97
g45
sS'profile_background_image_url'
p98
g63
sS'name'
p99
g65
sS'lang'
p100
g67
sS'following'
p101
I00
sS'profile_background_tile'
p102
I00
sS'favourites_count'
p103
I203
sS'screen_name'
p104
g71
sS'url'
p105
g74
sS'created_at'
p106
cdatetime
datetime
p107
(S'\x07\xdf\x01\x0e\n\x11\x16\x00\x00\x00'
p108
tp109
Rp110
sS'profile_background_image_url_https'
p111
g48
sS'time_zone'
p112
NsS'protected'
p113
I00
sS'default_profile'
p114
I00
sS'is_translator'
p115
I00
sS'listed_count'
p116
I0
sbsS'filter_level'
p117
Vlow
p118
sS'geo'
p119
Nsg24
I619228234945839105
sS'favorite_count'
p120
I0
sS'source'
p121
VTwitter Web Client
p122
sg100
Ven
p123
sS'author'
p124
g18
sS'in_reply_to_user_id_str'
p125
Nsg28
(dp126
Vcontributors
p127
NsVtruncated
p128
I00
sVtext
p129
g10
sVin_reply_to_status_id
p130
Nsg33
I619228234945839105
sVfavorite_count
p131
I0
sVsource
p132
V<a href="http://twitter.com" rel="nofollow">Twitter Web Client</a>
p133
sVretweeted
p134
I00
sVcoordinates
p135
NsVtimestamp_ms
p136
V1436470490572
p137
sVentities
p138
(dp139
Vsymbols
p140
(lp141
sVmedia
p142
(lp143
(dp144
Vexpanded_url
p145
Vhttp://twitter.com/almostsimon1/status/619228234945839105/photo/1
p146
sVdisplay_url
p147
Vpic.twitter.com/oXSTDwc3iQ
p148
sg73
Vhttp://t.co/oXSTDwc3iQ
p149
sVmedia_url_https
p150
Vhttps://pbs.twimg.com/media/CJfwzFUWIAEPl8G.png
p151
sg42
V619228234178240513
p152
sVsizes
p153
(dp154
Vsmall
p155
(dp156
Vh
p157
I56
sVresize
p158
Vfit
p159
sVw
p160
I48
ssVlarge
p161
(dp162
g157
I56
sg158
Vfit
p163
sg160
I48
ssVmedium
p164
(dp165
g157
I56
sg158
Vfit
p166
sg160
I48
ssVthumb
p167
(dp168
g157
I56
sg158
Vcrop
p169
sg160
I48
sssVindices
p170
(lp171
I61
aI83
asVtype
p172
Vphoto
p173
sg33
I619228234178240513
sVmedia_url
p174
Vhttp://pbs.twimg.com/media/CJfwzFUWIAEPl8G.png
p175
sasVhashtags
p176
(lp177
sVuser_mentions
p178
(lp179
(dp180
g33
I1611951170
sg170
(lp181
I21
aI35
asg42
V1611951170
p182
sg70
VTheManaSource
p183
sg64
VTMS Wedge
p184
sasVtrends
p185
(lp186
sVurls
p187
(lp188
ssVin_reply_to_screen_name
p189
Nsg42
V619228234945839105
p190
sVretweet_count
p191
I0
sVin_reply_to_user_id
p192
NsVfavorited
p193
I00
sVuser
p194
g29
sVgeo
p195
NsVin_reply_to_user_id_str
p196
NsVpossibly_sensitive
p197
I00
sg66
g123
sg75
VThu Jul 09 19:34:50 +0000 2015
p198
sVfilter_level
p199
g118
sVin_reply_to_status_id_str
p200
NsVplace
p201
(dp202
Vfull_name
p203
VZurich, Switzerland
p204
sg73
Vhttps://api.twitter.com/1.1/geo/id/db94c1cccc67c4f4.json
p205
sVcountry
p206
VSchweiz
p207
sVplace_type
p208
Vadmin
p209
sVbounding_box
p210
(dp211
g172
VPolygon
p212
sg135
(lp213
(lp214
(lp215
F8.357749
aF47.159384
aa(lp216
F8.357749
aF47.694503
aa(lp217
F8.984445
aF47.694503
aa(lp218
F8.984445
aF47.159384
aaassVcountry_code
p219
VCH
p220
sVattributes
p221
(dp222
sg33
Vdb94c1cccc67c4f4
p223
sg64
VZurich
p224
ssVextended_entities
p225
(dp226
g142
(lp227
(dp228
g145
Vhttp://twitter.com/almostsimon1/status/619228234945839105/photo/1
p229
sg147
Vpic.twitter.com/oXSTDwc3iQ
p230
sg73
Vhttp://t.co/oXSTDwc3iQ
p231
sg150
Vhttps://pbs.twimg.com/media/CJfwzFUWIAEPl8G.png
p232
sg42
V619228234178240513
p233
sg153
(dp234
g155
(dp235
g157
I56
sg158
Vfit
p236
sg160
I48
ssg161
(dp237
g157
I56
sg158
Vfit
p238
sg160
I48
ssg164
(dp239
g157
I56
sg158
Vfit
p240
sg160
I48
ssg167
(dp241
g157
I56
sg158
Vcrop
p242
sg160
I48
sssg170
(lp243
I61
aI83
asg172
Vphoto
p244
sg33
I619228234178240513
sg174
Vhttp://pbs.twimg.com/media/CJfwzFUWIAEPl8G.png
p245
sasssS'coordinates'
p246
NsS'timestamp_ms'
p247
g137
sS'entities'
p248
g139
sS'in_reply_to_status_id_str'
p249
NsS'in_reply_to_screen_name'
p250
Nsg88
g190
sS'extended_entities'
p251
g226
sS'retweeted'
p252
I00
sS'place'
p253
g0
(ctweepy.models
Place
p254
g2
Ntp255
Rp256
(dp257
S'full_name'
p258
g204
sg105
g205
sS'country'
p259
g207
sS'place_type'
p260
g209
sS'bounding_box'
p261
g0
(ctweepy.models
BoundingBox
p262
g2
Ntp263
Rp264
(dp265
S'type'
p266
g212
sg246
g213
sbsS'country_code'
p267
g220
sS'attributes'
p268
g222
sg24
g223
sg99
g224
sbsS'retweet_count'
p269
I0
sg106
g107
(S'\x07\xdf\x07\t\x13"2\x00\x00\x00'
p270
tp271
Rp272
sS'in_reply_to_user_id'
p273
Nsb.