ccopy_reg
_reconstructor
p0
(ctweepy.models
Status
p1
c__builtin__
object
p2
Ntp3
Rp4
(dp5
S'favorited'
p6
I00
sS'contributors'
p7
NsS'truncated'
p8
I00
sS'text'
p9
VSorry I take a lot of pictures here (day 4 mount uetilberg \U0001f60a) http://t.co/bSm6Uqa269
p10
sS'source_url'
p11
Vhttp://twitter.com/download/iphone
p12
sS'possibly_sensitive'
p13
I00
sS'in_reply_to_status_id'
p14
NsS'user'
p15
g0
(ctweepy.models
User
p16
g2
Ntp17
Rp18
(dp19
S'follow_request_sent'
p20
NsS'profile_use_background_image'
p21
I01
sS'profile_sidebar_fill_color'
p22
VF0C8F0
p23
sS'id'
p24
I100200555
sS'verified'
p25
I00
sS'profile_image_url_https'
p26
Vhttps://pbs.twimg.com/profile_images/617191265466253312/0y2xck1U_normal.jpg
p27
sS'_json'
p28
(dp29
Vfollow_request_sent
p30
NsVprofile_use_background_image
p31
I01
sVdefault_profile_image
p32
I00
sVid
p33
I100200555
sVverified
p34
I00
sVprofile_image_url_https
p35
g27
sVprofile_sidebar_fill_color
p36
g23
sVprofile_text_color
p37
V6F0080
p38
sVfollowers_count
p39
I511
sVprofile_sidebar_border_color
p40
V000000
p41
sVid_str
p42
V100200555
p43
sVprofile_background_color
p44
V48414D
p45
sVlisted_count
p46
I3
sVprofile_background_image_url_https
p47
Vhttps://pbs.twimg.com/profile_background_images/378800000119636013/de8c56f02b44613b34a5aa84a5a5b062.jpeg
p48
sVutc_offset
p49
I-18000
sVstatuses_count
p50
I28117
sVdescription
p51
VLet's get lost
p52
sVfriends_count
p53
I324
sVlocation
p54
VSBHS15 - UF19
p55
sVprofile_link_color
p56
VC9047A
p57
sVprofile_image_url
p58
Vhttp://pbs.twimg.com/profile_images/617191265466253312/0y2xck1U_normal.jpg
p59
sVfollowing
p60
NsVgeo_enabled
p61
I01
sVprofile_banner_url
p62
Vhttps://pbs.twimg.com/profile_banners/100200555/1435908310
p63
sVprofile_background_image_url
p64
Vhttp://pbs.twimg.com/profile_background_images/378800000119636013/de8c56f02b44613b34a5aa84a5a5b062.jpeg
p65
sVname
p66
VAria
p67
sVlang
p68
Ven
p69
sVprofile_background_tile
p70
I01
sVfavourites_count
p71
I9660
sVscreen_name
p72
Variaella
p73
sVnotifications
p74
NsVurl
p75
NsVcreated_at
p76
VTue Dec 29 11:15:32 +0000 2009
p77
sVcontributors_enabled
p78
I00
sVtime_zone
p79
VCentral Time (US & Canada)
p80
sVprotected
p81
I00
sVdefault_profile
p82
I00
sVis_translator
p83
I00
ssS'contributors_enabled'
p84
I00
sS'profile_text_color'
p85
g38
sS'followers_count'
p86
I511
sS'profile_sidebar_border_color'
p87
g41
sS'location'
p88
g55
sS'default_profile_image'
p89
I00
sS'id_str'
p90
g43
sS'utc_offset'
p91
I-18000
sS'statuses_count'
p92
I28117
sS'description'
p93
g52
sS'friends_count'
p94
I324
sS'profile_link_color'
p95
g57
sS'profile_image_url'
p96
g59
sS'notifications'
p97
NsS'geo_enabled'
p98
I01
sS'profile_background_color'
p99
g45
sS'profile_banner_url'
p100
g63
sS'profile_background_image_url'
p101
g65
sS'name'
p102
g67
sS'lang'
p103
g69
sS'following'
p104
I00
sS'profile_background_tile'
p105
I01
sS'favourites_count'
p106
I9660
sS'screen_name'
p107
g73
sS'url'
p108
NsS'created_at'
p109
cdatetime
datetime
p110
(S'\x07\xd9\x0c\x1d\x0b\x0f \x00\x00\x00'
p111
tp112
Rp113
sS'profile_background_image_url_https'
p114
g48
sS'time_zone'
p115
g80
sS'protected'
p116
I00
sS'default_profile'
p117
I00
sS'is_translator'
p118
I00
sS'listed_count'
p119
I3
sbsS'filter_level'
p120
Vlow
p121
sS'geo'
p122
Nsg24
I620299039150632960
sS'favorite_count'
p123
I0
sS'source'
p124
VTwitter for iPhone
p125
sg103
Ven
p126
sS'author'
p127
g18
sS'in_reply_to_user_id_str'
p128
Nsg28
(dp129
Vcontributors
p130
NsVtruncated
p131
I00
sVtext
p132
g10
sVin_reply_to_status_id
p133
Nsg33
I620299039150632960
sVfavorite_count
p134
I0
sVsource
p135
V<a href="http://twitter.com/download/iphone" rel="nofollow">Twitter for iPhone</a>
p136
sVretweeted
p137
I00
sVcoordinates
p138
NsVtimestamp_ms
p139
V1436725790189
p140
sVentities
p141
(dp142
Vsymbols
p143
(lp144
sVmedia
p145
(lp146
(dp147
Vexpanded_url
p148
Vhttp://twitter.com/ariaella/status/620299039150632960/photo/1
p149
sVdisplay_url
p150
Vpic.twitter.com/bSm6Uqa269
p151
sg75
Vhttp://t.co/bSm6Uqa269
p152
sVmedia_url_https
p153
Vhttps://pbs.twimg.com/media/CJu-q_AWsAARI9K.jpg
p154
sg42
V620299019370278912
p155
sVsizes
p156
(dp157
Vsmall
p158
(dp159
Vh
p160
I250
sVresize
p161
Vfit
p162
sVw
p163
I340
ssVlarge
p164
(dp165
g160
I753
sg161
Vfit
p166
sg163
I1024
ssVmedium
p167
(dp168
g160
I441
sg161
Vfit
p169
sg163
I600
ssVthumb
p170
(dp171
g160
I150
sg161
Vcrop
p172
sg163
I150
sssVindices
p173
(lp174
I62
aI84
asVtype
p175
Vphoto
p176
sg33
I620299019370278912
sVmedia_url
p177
Vhttp://pbs.twimg.com/media/CJu-q_AWsAARI9K.jpg
p178
sasVhashtags
p179
(lp180
sVuser_mentions
p181
(lp182
sVtrends
p183
(lp184
sVurls
p185
(lp186
ssVin_reply_to_screen_name
p187
Nsg42
V620299039150632960
p188
sVretweet_count
p189
I0
sVin_reply_to_user_id
p190
NsVfavorited
p191
I00
sVuser
p192
g29
sVgeo
p193
NsVin_reply_to_user_id_str
p194
NsVpossibly_sensitive
p195
I00
sg68
g126
sg76
VSun Jul 12 18:29:50 +0000 2015
p196
sVfilter_level
p197
g121
sVin_reply_to_status_id_str
p198
NsVplace
p199
(dp200
Vfull_name
p201
VZurich, Switzerland
p202
sg75
Vhttps://api.twitter.com/1.1/geo/id/3acb748d0f1e9265.json
p203
sVcountry
p204
VSchweiz
p205
sVplace_type
p206
Vcity
p207
sVbounding_box
p208
(dp209
g175
VPolygon
p210
sg138
(lp211
(lp212
(lp213
F8.448081
aF47.320183
aa(lp214
F8.448081
aF47.434721
aa(lp215
F8.625442
aF47.434721
aa(lp216
F8.625442
aF47.320183
aaassVcountry_code
p217
VCH
p218
sVattributes
p219
(dp220
sg33
V3acb748d0f1e9265
p221
sg66
VZurich
p222
ssVextended_entities
p223
(dp224
g145
(lp225
(dp226
g148
Vhttp://twitter.com/ariaella/status/620299039150632960/photo/1
p227
sg150
Vpic.twitter.com/bSm6Uqa269
p228
sg75
Vhttp://t.co/bSm6Uqa269
p229
sg153
Vhttps://pbs.twimg.com/media/CJu-q_AWsAARI9K.jpg
p230
sg42
V620299019370278912
p231
sg156
(dp232
g158
(dp233
g160
I250
sg161
Vfit
p234
sg163
I340
ssg164
(dp235
g160
I753
sg161
Vfit
p236
sg163
I1024
ssg167
(dp237
g160
I441
sg161
Vfit
p238
sg163
I600
ssg170
(dp239
g160
I150
sg161
Vcrop
p240
sg163
I150
sssg173
(lp241
I62
aI84
asg175
Vphoto
p242
sg33
I620299019370278912
sg177
Vhttp://pbs.twimg.com/media/CJu-q_AWsAARI9K.jpg
p243
sa(dp244
g148
Vhttp://twitter.com/ariaella/status/620299039150632960/photo/1
p245
sg150
Vpic.twitter.com/bSm6Uqa269
p246
sg75
Vhttp://t.co/bSm6Uqa269
p247
sg153
Vhttps://pbs.twimg.com/media/CJu-q-7WEAEmvbC.jpg
p248
sg42
V620299019349266433
p249
sg156
(dp250
g158
(dp251
g160
I180
sg161
Vfit
p252
sg163
I340
ssg164
(dp253
g160
I543
sg161
Vfit
p254
sg163
I1024
ssg167
(dp255
g160
I318
sg161
Vfit
p256
sg163
I600
ssg170
(dp257
g160
I150
sg161
Vcrop
p258
sg163
I150
sssg173
(lp259
I62
aI84
asg175
Vphoto
p260
sg33
I620299019349266433
sg177
Vhttp://pbs.twimg.com/media/CJu-q-7WEAEmvbC.jpg
p261
sa(dp262
g148
Vhttp://twitter.com/ariaella/status/620299039150632960/photo/1
p263
sg150
Vpic.twitter.com/bSm6Uqa269
p264
sg75
Vhttp://t.co/bSm6Uqa269
p265
sg153
Vhttps://pbs.twimg.com/media/CJu-q_HWUAABltn.jpg
p266
sg42
V620299019399614464
p267
sg156
(dp268
g158
(dp269
g160
I255
sg161
Vfit
p270
sg163
I340
ssg164
(dp271
g160
I768
sg161
Vfit
p272
sg163
I1024
ssg167
(dp273
g160
I450
sg161
Vfit
p274
sg163
I600
ssg170
(dp275
g160
I150
sg161
Vcrop
p276
sg163
I150
sssg173
(lp277
I62
aI84
asg175
Vphoto
p278
sg33
I620299019399614464
sg177
Vhttp://pbs.twimg.com/media/CJu-q_HWUAABltn.jpg
p279
sasssS'coordinates'
p280
NsS'timestamp_ms'
p281
g140
sS'entities'
p282
g142
sS'in_reply_to_status_id_str'
p283
NsS'in_reply_to_screen_name'
p284
Nsg90
g188
sS'extended_entities'
p285
g224
sS'retweeted'
p286
I00
sS'place'
p287
g0
(ctweepy.models
Place
p288
g2
Ntp289
Rp290
(dp291
S'full_name'
p292
g202
sg108
g203
sS'country'
p293
g205
sS'place_type'
p294
g207
sS'bounding_box'
p295
g0
(ctweepy.models
BoundingBox
p296
g2
Ntp297
Rp298
(dp299
S'type'
p300
g210
sg280
g211
sbsS'country_code'
p301
g218
sS'attributes'
p302
g220
sg24
g221
sg102
g222
sbsS'retweet_count'
p303
I0
sg109
g110
(S'\x07\xdf\x07\x0c\x12\x1d2\x00\x00\x00'
p304
tp305
Rp306
sS'in_reply_to_user_id'
p307
Nsb.