ccopy_reg
_reconstructor
p0
(ctweepy.models
Status
p1
c__builtin__
object
p2
Ntp3
Rp4
(dp5
S'favorited'
p6
I00
sS'contributors'
p7
NsS'truncated'
p8
I00
sS'text'
p9
V@CodeofUrukagina @fame_hoe @LaffingTroll \u000a1337 1338 WHATEVER IT TAKES.
p10
sS'source_url'
p11
Vhttp://twitter.com
p12
sS'possibly_sensitive'
p13
I00
sS'in_reply_to_status_id'
p14
I620018002193334272
sS'user'
p15
g0
(ctweepy.models
User
p16
g2
Ntp17
Rp18
(dp19
S'follow_request_sent'
p20
NsS'profile_use_background_image'
p21
I00
sS'profile_sidebar_fill_color'
p22
V000000
p23
sS'id'
p24
I2879569993
sS'verified'
p25
I00
sS'profile_image_url_https'
p26
Vhttps://pbs.twimg.com/profile_images/610874208827146241/voSDsKk8_normal.png
p27
sS'_json'
p28
(dp29
Vfollow_request_sent
p30
NsVprofile_use_background_image
p31
I00
sVdefault_profile_image
p32
I00
sVid
p33
I2879569993
sVverified
p34
I00
sVprofile_image_url_https
p35
g27
sVprofile_sidebar_fill_color
p36
g23
sVprofile_text_color
p37
V000000
p38
sVfollowers_count
p39
I252
sVprofile_sidebar_border_color
p40
V000000
p41
sVid_str
p42
V2879569993
p43
sVprofile_background_color
p44
V000000
p45
sVlisted_count
p46
I3
sVprofile_background_image_url_https
p47
Vhttps://abs.twimg.com/images/themes/theme14/bg.gif
p48
sVutc_offset
p49
NsVstatuses_count
p50
I1311
sVdescription
p51
VNEVER COULD HIDE WHO I AM. \u000a.http://ish.re/JJRT -not me.
p52
sVfriends_count
p53
I277
sVlocation
p54
VRepublic of Mozambique
p55
sVprofile_link_color
p56
VDD2E44
p57
sVprofile_image_url
p58
Vhttp://pbs.twimg.com/profile_images/610874208827146241/voSDsKk8_normal.png
p59
sVfollowing
p60
NsVgeo_enabled
p61
I01
sVprofile_banner_url
p62
Vhttps://pbs.twimg.com/profile_banners/2879569993/1434478513
p63
sVprofile_background_image_url
p64
Vhttp://abs.twimg.com/images/themes/theme14/bg.gif
p65
sVname
p66
VD\u2200MN\u2200L\u308bX 
p67
sVlang
p68
Ven
p69
sVprofile_background_tile
p70
I00
sVfavourites_count
p71
I29
sVscreen_name
p72
VDd0xblack1
p73
sVnotifications
p74
NsVurl
p75
NsVcreated_at
p76
VMon Oct 27 13:04:37 +0000 2014
p77
sVcontributors_enabled
p78
I00
sVtime_zone
p79
NsVprotected
p80
I00
sVdefault_profile
p81
I00
sVis_translator
p82
I00
ssS'contributors_enabled'
p83
I00
sS'profile_text_color'
p84
g38
sS'followers_count'
p85
I252
sS'profile_sidebar_border_color'
p86
g41
sS'location'
p87
g55
sS'default_profile_image'
p88
I00
sS'id_str'
p89
g43
sS'utc_offset'
p90
NsS'statuses_count'
p91
I1311
sS'description'
p92
VNEVER COULD HIDE WHO I AM. \u000a.http://ish.re/JJRT -not me.
p93
sS'friends_count'
p94
I277
sS'profile_link_color'
p95
g57
sS'profile_image_url'
p96
g59
sS'notifications'
p97
NsS'geo_enabled'
p98
I01
sS'profile_background_color'
p99
g45
sS'profile_banner_url'
p100
g63
sS'profile_background_image_url'
p101
g65
sS'name'
p102
g67
sS'lang'
p103
g69
sS'following'
p104
I00
sS'profile_background_tile'
p105
I00
sS'favourites_count'
p106
I29
sS'screen_name'
p107
g73
sS'url'
p108
NsS'created_at'
p109
cdatetime
datetime
p110
(S'\x07\xde\n\x1b\r\x04%\x00\x00\x00'
p111
tp112
Rp113
sS'profile_background_image_url_https'
p114
g48
sS'time_zone'
p115
NsS'protected'
p116
I00
sS'default_profile'
p117
I00
sS'is_translator'
p118
I00
sS'listed_count'
p119
I3
sbsS'filter_level'
p120
Vlow
p121
sS'geo'
p122
Nsg24
I620085841470300161
sS'favorite_count'
p123
I0
sS'source'
p124
VTwitter Web Client
p125
sg103
Ven
p126
sS'author'
p127
g18
sS'in_reply_to_user_id_str'
p128
V3009632624
p129
sg28
(dp130
Vcontributors
p131
NsVtruncated
p132
I00
sVtext
p133
V@CodeofUrukagina @fame_hoe @LaffingTroll \u000a1337 1338 WHATEVER IT TAKES.
p134
sVin_reply_to_status_id
p135
I620018002193334272
sg33
I620085841470300161
sVfavorite_count
p136
I0
sVsource
p137
V<a href="http://twitter.com" rel="nofollow">Twitter Web Client</a>
p138
sVretweeted
p139
I00
sVcoordinates
p140
NsVtimestamp_ms
p141
V1436674959901
p142
sVentities
p143
(dp144
Vuser_mentions
p145
(lp146
(dp147
g33
I3009632624
sVindices
p148
(lp149
I0
aI16
asg42
V3009632624
p150
sg72
VCodeofUrukagina
p151
sg66
VUrukagina
p152
sa(dp153
g33
I3354051028
sg148
(lp154
I17
aI26
asg42
V3354051028
p155
sg72
Vfame_hoe
p156
sg66
V\u2588\u2588\u2588\u2588\u2588 \u2020 \u2588\u2588\u2588\u2588\u2588 
p157
sa(dp158
g33
I3316212040
sg148
(lp159
I27
aI40
asg42
V3316212040
p160
sg72
VLaffingTroll
p161
sg66
VU MAD BRO
p162
sasVsymbols
p163
(lp164
sVtrends
p165
(lp166
sVhashtags
p167
(lp168
sVurls
p169
(lp170
ssVin_reply_to_screen_name
p171
VCodeofUrukagina
p172
sg42
V620085841470300161
p173
sVretweet_count
p174
I0
sVin_reply_to_user_id
p175
I3009632624
sVfavorited
p176
I00
sVuser
p177
g29
sVgeo
p178
NsVin_reply_to_user_id_str
p179
g129
sVpossibly_sensitive
p180
I00
sg68
g126
sg76
VSun Jul 12 04:22:39 +0000 2015
p181
sVfilter_level
p182
g121
sVin_reply_to_status_id_str
p183
V620018002193334272
p184
sVplace
p185
(dp186
Vfull_name
p187
VBerne, Switzerland
p188
sg75
Vhttps://api.twitter.com/1.1/geo/id/5868d0e0749c9c47.json
p189
sVcountry
p190
VSchweiz
p191
sVplace_type
p192
Vadmin
p193
sVbounding_box
p194
(dp195
Vtype
p196
VPolygon
p197
sg140
(lp198
(lp199
(lp200
F6.861601
aF46.326441
aa(lp201
F6.861601
aF47.34528
aa(lp202
F8.455051
aF47.34528
aa(lp203
F8.455051
aF46.326441
aaassVcountry_code
p204
VCH
p205
sVattributes
p206
(dp207
sg33
V5868d0e0749c9c47
p208
sg66
VBern
p209
sssS'coordinates'
p210
NsS'timestamp_ms'
p211
g142
sS'entities'
p212
g144
sS'in_reply_to_status_id_str'
p213
g184
sS'in_reply_to_screen_name'
p214
g172
sg89
g173
sS'retweeted'
p215
I00
sS'place'
p216
g0
(ctweepy.models
Place
p217
g2
Ntp218
Rp219
(dp220
S'full_name'
p221
g188
sg108
g189
sS'country'
p222
g191
sS'place_type'
p223
g193
sS'bounding_box'
p224
g0
(ctweepy.models
BoundingBox
p225
g2
Ntp226
Rp227
(dp228
S'type'
p229
g197
sg210
g198
sbsS'country_code'
p230
g205
sS'attributes'
p231
g207
sg24
g208
sg102
g209
sbsS'retweet_count'
p232
I0
sg109
g110
(S"\x07\xdf\x07\x0c\x04\x16'\x00\x00\x00"
p233
tp234
Rp235
sS'in_reply_to_user_id'
p236
I3009632624
sb.