ccopy_reg
_reconstructor
p0
(ctweepy.models
Status
p1
c__builtin__
object
p2
Ntp3
Rp4
(dp5
S'favorited'
p6
I00
sS'contributors'
p7
NsS'truncated'
p8
I00
sS'text'
p9
VNighttime on Limmatquai as swan returns home http://t.co/euRu1OCSn3
p10
sS'source_url'
p11
Vhttp://twitter.com/download/iphone
p12
sS'possibly_sensitive'
p13
I00
sS'in_reply_to_status_id'
p14
NsS'user'
p15
g0
(ctweepy.models
User
p16
g2
Ntp17
Rp18
(dp19
S'follow_request_sent'
p20
NsS'profile_use_background_image'
p21
I01
sS'profile_sidebar_fill_color'
p22
VDDEEF6
p23
sS'id'
p24
I257387240
sS'verified'
p25
I00
sS'profile_image_url_https'
p26
Vhttps://pbs.twimg.com/profile_images/551334069318201344/RER1oHjk_normal.jpeg
p27
sS'_json'
p28
(dp29
Vfollow_request_sent
p30
NsVprofile_use_background_image
p31
I01
sVdefault_profile_image
p32
I00
sVid
p33
I257387240
sVverified
p34
I00
sVprofile_image_url_https
p35
g27
sVprofile_sidebar_fill_color
p36
g23
sVprofile_text_color
p37
V333333
p38
sVfollowers_count
p39
I1172
sVprofile_sidebar_border_color
p40
VC0DEED
p41
sVid_str
p42
V257387240
p43
sVprofile_background_color
p44
VC0DEED
p45
sVlisted_count
p46
I25
sVprofile_background_image_url_https
p47
Vhttps://abs.twimg.com/images/themes/theme1/bg.png
p48
sVutc_offset
p49
NsVstatuses_count
p50
I11665
sVdescription
p51
VSemi retired but still working to fund itinerant opera addiction, combined with cultural and culinary wanderings.
p52
sVfriends_count
p53
I1863
sVlocation
p54
VLeafy Suburbia
p55
sVprofile_link_color
p56
V0084B4
p57
sVprofile_image_url
p58
Vhttp://pbs.twimg.com/profile_images/551334069318201344/RER1oHjk_normal.jpeg
p59
sVfollowing
p60
NsVgeo_enabled
p61
I01
sVprofile_banner_url
p62
Vhttps://pbs.twimg.com/profile_banners/257387240/1427197683
p63
sVprofile_background_image_url
p64
Vhttp://abs.twimg.com/images/themes/theme1/bg.png
p65
sVname
p66
VJohn Johnston
p67
sVlang
p68
Ven
p69
sVprofile_background_tile
p70
I00
sVfavourites_count
p71
I4313
sVscreen_name
p72
VJohnVecchio
p73
sVnotifications
p74
NsVurl
p75
NsVcreated_at
p76
VFri Feb 25 09:16:47 +0000 2011
p77
sVcontributors_enabled
p78
I00
sVtime_zone
p79
NsVprotected
p80
I00
sVdefault_profile
p81
I01
sVis_translator
p82
I00
ssS'contributors_enabled'
p83
I00
sS'profile_text_color'
p84
g38
sS'followers_count'
p85
I1172
sS'profile_sidebar_border_color'
p86
g41
sS'location'
p87
g55
sS'default_profile_image'
p88
I00
sS'id_str'
p89
g43
sS'utc_offset'
p90
NsS'statuses_count'
p91
I11665
sS'description'
p92
g52
sS'friends_count'
p93
I1863
sS'profile_link_color'
p94
g57
sS'profile_image_url'
p95
g59
sS'notifications'
p96
NsS'geo_enabled'
p97
I01
sS'profile_background_color'
p98
g45
sS'profile_banner_url'
p99
g63
sS'profile_background_image_url'
p100
g65
sS'name'
p101
g67
sS'lang'
p102
g69
sS'following'
p103
I00
sS'profile_background_tile'
p104
I00
sS'favourites_count'
p105
I4313
sS'screen_name'
p106
g73
sS'url'
p107
NsS'created_at'
p108
cdatetime
datetime
p109
(S'\x07\xdb\x02\x19\t\x10/\x00\x00\x00'
p110
tp111
Rp112
sS'profile_background_image_url_https'
p113
g48
sS'time_zone'
p114
NsS'protected'
p115
I00
sS'default_profile'
p116
I01
sS'is_translator'
p117
I00
sS'listed_count'
p118
I25
sbsS'filter_level'
p119
Vlow
p120
sS'geo'
p121
Nsg24
I619975667862605825
sS'favorite_count'
p122
I0
sS'source'
p123
VTwitter for iPhone
p124
sg102
Ven
p125
sS'author'
p126
g18
sS'in_reply_to_user_id_str'
p127
Nsg28
(dp128
Vcontributors
p129
NsVtruncated
p130
I00
sVtext
p131
g10
sVin_reply_to_status_id
p132
Nsg33
I619975667862605825
sVfavorite_count
p133
I0
sVsource
p134
V<a href="http://twitter.com/download/iphone" rel="nofollow">Twitter for iPhone</a>
p135
sVretweeted
p136
I00
sVcoordinates
p137
NsVtimestamp_ms
p138
V1436648692466
p139
sVentities
p140
(dp141
Vsymbols
p142
(lp143
sVmedia
p144
(lp145
(dp146
Vexpanded_url
p147
Vhttp://twitter.com/JohnVecchio/status/619975667862605825/photo/1
p148
sVdisplay_url
p149
Vpic.twitter.com/euRu1OCSn3
p150
sg75
Vhttp://t.co/euRu1OCSn3
p151
sVmedia_url_https
p152
Vhttps://pbs.twimg.com/media/CJqYgndWoAEPWbs.jpg
p153
sg42
V619975584832200705
p154
sVsizes
p155
(dp156
Vsmall
p157
(dp158
Vh
p159
I255
sVresize
p160
Vfit
p161
sVw
p162
I340
ssVlarge
p163
(dp164
g159
I768
sg160
Vfit
p165
sg162
I1024
ssVmedium
p166
(dp167
g159
I450
sg160
Vfit
p168
sg162
I600
ssVthumb
p169
(dp170
g159
I150
sg160
Vcrop
p171
sg162
I150
sssVindices
p172
(lp173
I45
aI67
asVtype
p174
Vphoto
p175
sg33
I619975584832200705
sVmedia_url
p176
Vhttp://pbs.twimg.com/media/CJqYgndWoAEPWbs.jpg
p177
sasVhashtags
p178
(lp179
sVuser_mentions
p180
(lp181
sVtrends
p182
(lp183
sVurls
p184
(lp185
ssVin_reply_to_screen_name
p186
Nsg42
V619975667862605825
p187
sVretweet_count
p188
I0
sVin_reply_to_user_id
p189
NsVfavorited
p190
I00
sVuser
p191
g29
sVgeo
p192
NsVin_reply_to_user_id_str
p193
NsVpossibly_sensitive
p194
I00
sg68
g125
sg76
VSat Jul 11 21:04:52 +0000 2015
p195
sVfilter_level
p196
g120
sVin_reply_to_status_id_str
p197
NsVplace
p198
(dp199
Vfull_name
p200
VZurich, Switzerland
p201
sg75
Vhttps://api.twitter.com/1.1/geo/id/3acb748d0f1e9265.json
p202
sVcountry
p203
VSchweiz
p204
sVplace_type
p205
Vcity
p206
sVbounding_box
p207
(dp208
g174
VPolygon
p209
sg137
(lp210
(lp211
(lp212
F8.448081
aF47.320183
aa(lp213
F8.448081
aF47.434721
aa(lp214
F8.625442
aF47.434721
aa(lp215
F8.625442
aF47.320183
aaassVcountry_code
p216
VCH
p217
sVattributes
p218
(dp219
sg33
V3acb748d0f1e9265
p220
sg66
VZurich
p221
ssVextended_entities
p222
(dp223
g144
(lp224
(dp225
g147
Vhttp://twitter.com/JohnVecchio/status/619975667862605825/photo/1
p226
sg149
Vpic.twitter.com/euRu1OCSn3
p227
sg75
Vhttp://t.co/euRu1OCSn3
p228
sg152
Vhttps://pbs.twimg.com/media/CJqYgndWoAEPWbs.jpg
p229
sg42
V619975584832200705
p230
sg155
(dp231
g157
(dp232
g159
I255
sg160
Vfit
p233
sg162
I340
ssg163
(dp234
g159
I768
sg160
Vfit
p235
sg162
I1024
ssg166
(dp236
g159
I450
sg160
Vfit
p237
sg162
I600
ssg169
(dp238
g159
I150
sg160
Vcrop
p239
sg162
I150
sssg172
(lp240
I45
aI67
asg174
Vphoto
p241
sg33
I619975584832200705
sg176
Vhttp://pbs.twimg.com/media/CJqYgndWoAEPWbs.jpg
p242
sa(dp243
g147
Vhttp://twitter.com/JohnVecchio/status/619975667862605825/photo/1
p244
sg149
Vpic.twitter.com/euRu1OCSn3
p245
sg75
Vhttp://t.co/euRu1OCSn3
p246
sg152
Vhttps://pbs.twimg.com/media/CJqYgoKWwAEzCtS.jpg
p247
sg42
V619975585020952577
p248
sg155
(dp249
g157
(dp250
g159
I255
sg160
Vfit
p251
sg162
I340
ssg163
(dp252
g159
I768
sg160
Vfit
p253
sg162
I1024
ssg166
(dp254
g159
I450
sg160
Vfit
p255
sg162
I600
ssg169
(dp256
g159
I150
sg160
Vcrop
p257
sg162
I150
sssg172
(lp258
I45
aI67
asg174
Vphoto
p259
sg33
I619975585020952577
sg176
Vhttp://pbs.twimg.com/media/CJqYgoKWwAEzCtS.jpg
p260
sasssS'coordinates'
p261
NsS'timestamp_ms'
p262
g139
sS'entities'
p263
g141
sS'in_reply_to_status_id_str'
p264
NsS'in_reply_to_screen_name'
p265
Nsg89
g187
sS'extended_entities'
p266
g223
sS'retweeted'
p267
I00
sS'place'
p268
g0
(ctweepy.models
Place
p269
g2
Ntp270
Rp271
(dp272
S'full_name'
p273
g201
sg107
g202
sS'country'
p274
g204
sS'place_type'
p275
g206
sS'bounding_box'
p276
g0
(ctweepy.models
BoundingBox
p277
g2
Ntp278
Rp279
(dp280
S'type'
p281
g209
sg261
g210
sbsS'country_code'
p282
g217
sS'attributes'
p283
g219
sg24
g220
sg101
g221
sbsS'retweet_count'
p284
I0
sg108
g109
(S'\x07\xdf\x07\x0b\x15\x044\x00\x00\x00'
p285
tp286
Rp287
sS'in_reply_to_user_id'
p288
Nsb.