ccopy_reg
_reconstructor
p0
(ctweepy.models
Status
p1
c__builtin__
object
p2
Ntp3
Rp4
(dp5
S'favorited'
p6
I00
sS'contributors'
p7
NsS'truncated'
p8
I00
sS'text'
p9
VSummer evening concert with Fabio Luisi back on podium. 1st time to hear #Schoenberg Pelleas und Melisande live http://t.co/fEF0pF3NHg
p10
sS'source_url'
p11
Vhttp://twitter.com/download/iphone
p12
sS'possibly_sensitive'
p13
I00
sS'in_reply_to_status_id'
p14
NsS'user'
p15
g0
(ctweepy.models
User
p16
g2
Ntp17
Rp18
(dp19
S'follow_request_sent'
p20
NsS'profile_use_background_image'
p21
I01
sS'profile_sidebar_fill_color'
p22
VDDEEF6
p23
sS'id'
p24
I257387240
sS'verified'
p25
I00
sS'profile_image_url_https'
p26
Vhttps://pbs.twimg.com/profile_images/551334069318201344/RER1oHjk_normal.jpeg
p27
sS'_json'
p28
(dp29
Vfollow_request_sent
p30
NsVprofile_use_background_image
p31
I01
sVdefault_profile_image
p32
I00
sVid
p33
I257387240
sVverified
p34
I00
sVprofile_image_url_https
p35
g27
sVprofile_sidebar_fill_color
p36
g23
sVprofile_text_color
p37
V333333
p38
sVfollowers_count
p39
I1175
sVprofile_sidebar_border_color
p40
VC0DEED
p41
sVid_str
p42
V257387240
p43
sVprofile_background_color
p44
VC0DEED
p45
sVlisted_count
p46
I25
sVprofile_background_image_url_https
p47
Vhttps://abs.twimg.com/images/themes/theme1/bg.png
p48
sVutc_offset
p49
NsVstatuses_count
p50
I11693
sVdescription
p51
VSemi retired but still working to fund itinerant opera addiction, combined with cultural and culinary wanderings.
p52
sVfriends_count
p53
I1863
sVlocation
p54
VLeafy Suburbia
p55
sVprofile_link_color
p56
V0084B4
p57
sVprofile_image_url
p58
Vhttp://pbs.twimg.com/profile_images/551334069318201344/RER1oHjk_normal.jpeg
p59
sVfollowing
p60
NsVgeo_enabled
p61
I01
sVprofile_banner_url
p62
Vhttps://pbs.twimg.com/profile_banners/257387240/1427197683
p63
sVprofile_background_image_url
p64
Vhttp://abs.twimg.com/images/themes/theme1/bg.png
p65
sVname
p66
VJohn Johnston
p67
sVlang
p68
Ven
p69
sVprofile_background_tile
p70
I00
sVfavourites_count
p71
I4333
sVscreen_name
p72
VJohnVecchio
p73
sVnotifications
p74
NsVurl
p75
NsVcreated_at
p76
VFri Feb 25 09:16:47 +0000 2011
p77
sVcontributors_enabled
p78
I00
sVtime_zone
p79
NsVprotected
p80
I00
sVdefault_profile
p81
I01
sVis_translator
p82
I00
ssS'contributors_enabled'
p83
I00
sS'profile_text_color'
p84
g38
sS'followers_count'
p85
I1175
sS'profile_sidebar_border_color'
p86
g41
sS'location'
p87
g55
sS'default_profile_image'
p88
I00
sS'id_str'
p89
g43
sS'utc_offset'
p90
NsS'statuses_count'
p91
I11693
sS'description'
p92
g52
sS'friends_count'
p93
I1863
sS'profile_link_color'
p94
g57
sS'profile_image_url'
p95
g59
sS'notifications'
p96
NsS'geo_enabled'
p97
I01
sS'profile_background_color'
p98
g45
sS'profile_banner_url'
p99
g63
sS'profile_background_image_url'
p100
g65
sS'name'
p101
g67
sS'lang'
p102
g69
sS'following'
p103
I00
sS'profile_background_tile'
p104
I00
sS'favourites_count'
p105
I4333
sS'screen_name'
p106
g73
sS'url'
p107
NsS'created_at'
p108
cdatetime
datetime
p109
(S'\x07\xdb\x02\x19\t\x10/\x00\x00\x00'
p110
tp111
Rp112
sS'profile_background_image_url_https'
p113
g48
sS'time_zone'
p114
NsS'protected'
p115
I00
sS'default_profile'
p116
I01
sS'is_translator'
p117
I00
sS'listed_count'
p118
I25
sbsS'filter_level'
p119
Vlow
p120
sS'geo'
p121
Nsg24
I620284276005830656
sS'favorite_count'
p122
I0
sS'source'
p123
VTwitter for iPhone
p124
sg102
Ven
p125
sS'author'
p126
g18
sS'in_reply_to_user_id_str'
p127
Nsg28
(dp128
Vcontributors
p129
NsVtruncated
p130
I00
sVtext
p131
g10
sVin_reply_to_status_id
p132
Nsg33
I620284276005830656
sVfavorite_count
p133
I0
sVsource
p134
V<a href="http://twitter.com/download/iphone" rel="nofollow">Twitter for iPhone</a>
p135
sVretweeted
p136
I00
sVcoordinates
p137
NsVtimestamp_ms
p138
V1436722270381
p139
sVentities
p140
(dp141
Vsymbols
p142
(lp143
sVmedia
p144
(lp145
(dp146
Vexpanded_url
p147
Vhttp://twitter.com/JohnVecchio/status/620284276005830656/photo/1
p148
sVdisplay_url
p149
Vpic.twitter.com/fEF0pF3NHg
p150
sg75
Vhttp://t.co/fEF0pF3NHg
p151
sVmedia_url_https
p152
Vhttps://pbs.twimg.com/media/CJuxJB6WUAAaofy.jpg
p153
sg42
V620284142383681536
p154
sVsizes
p155
(dp156
Vsmall
p157
(dp158
Vh
p159
I453
sVresize
p160
Vfit
p161
sVw
p162
I340
ssVlarge
p163
(dp164
g159
I1024
sg160
Vfit
p165
sg162
I768
ssVmedium
p166
(dp167
g159
I800
sg160
Vfit
p168
sg162
I600
ssVthumb
p169
(dp170
g159
I150
sg160
Vcrop
p171
sg162
I150
sssVindices
p172
(lp173
I112
aI134
asVtype
p174
Vphoto
p175
sg33
I620284142383681536
sVmedia_url
p176
Vhttp://pbs.twimg.com/media/CJuxJB6WUAAaofy.jpg
p177
sasVhashtags
p178
(lp179
(dp180
g172
(lp181
I73
aI84
asg131
VSchoenberg
p182
sasVuser_mentions
p183
(lp184
sVtrends
p185
(lp186
sVurls
p187
(lp188
ssVin_reply_to_screen_name
p189
Nsg42
V620284276005830656
p190
sVretweet_count
p191
I0
sVin_reply_to_user_id
p192
NsVfavorited
p193
I00
sVuser
p194
g29
sVgeo
p195
NsVin_reply_to_user_id_str
p196
NsVpossibly_sensitive
p197
I00
sg68
g125
sg76
VSun Jul 12 17:31:10 +0000 2015
p198
sVfilter_level
p199
g120
sVin_reply_to_status_id_str
p200
NsVplace
p201
(dp202
Vfull_name
p203
VZurich, Switzerland
p204
sg75
Vhttps://api.twitter.com/1.1/geo/id/3acb748d0f1e9265.json
p205
sVcountry
p206
VSchweiz
p207
sVplace_type
p208
Vcity
p209
sVbounding_box
p210
(dp211
g174
VPolygon
p212
sg137
(lp213
(lp214
(lp215
F8.448081
aF47.320183
aa(lp216
F8.448081
aF47.434721
aa(lp217
F8.625442
aF47.434721
aa(lp218
F8.625442
aF47.320183
aaassVcountry_code
p219
VCH
p220
sVattributes
p221
(dp222
sg33
V3acb748d0f1e9265
p223
sg66
VZurich
p224
ssVextended_entities
p225
(dp226
g144
(lp227
(dp228
g147
Vhttp://twitter.com/JohnVecchio/status/620284276005830656/photo/1
p229
sg149
Vpic.twitter.com/fEF0pF3NHg
p230
sg75
Vhttp://t.co/fEF0pF3NHg
p231
sg152
Vhttps://pbs.twimg.com/media/CJuxJB6WUAAaofy.jpg
p232
sg42
V620284142383681536
p233
sg155
(dp234
g157
(dp235
g159
I453
sg160
Vfit
p236
sg162
I340
ssg163
(dp237
g159
I1024
sg160
Vfit
p238
sg162
I768
ssg166
(dp239
g159
I800
sg160
Vfit
p240
sg162
I600
ssg169
(dp241
g159
I150
sg160
Vcrop
p242
sg162
I150
sssg172
(lp243
I112
aI134
asg174
Vphoto
p244
sg33
I620284142383681536
sg176
Vhttp://pbs.twimg.com/media/CJuxJB6WUAAaofy.jpg
p245
sa(dp246
g147
Vhttp://twitter.com/JohnVecchio/status/620284276005830656/photo/1
p247
sg149
Vpic.twitter.com/fEF0pF3NHg
p248
sg75
Vhttp://t.co/fEF0pF3NHg
p249
sg152
Vhttps://pbs.twimg.com/media/CJuxJDYWsAE05eD.jpg
p250
sg42
V620284142777970689
p251
sg155
(dp252
g157
(dp253
g159
I255
sg160
Vfit
p254
sg162
I340
ssg163
(dp255
g159
I768
sg160
Vfit
p256
sg162
I1024
ssg166
(dp257
g159
I450
sg160
Vfit
p258
sg162
I600
ssg169
(dp259
g159
I150
sg160
Vcrop
p260
sg162
I150
sssg172
(lp261
I112
aI134
asg174
Vphoto
p262
sg33
I620284142777970689
sg176
Vhttp://pbs.twimg.com/media/CJuxJDYWsAE05eD.jpg
p263
sasssS'coordinates'
p264
NsS'timestamp_ms'
p265
g139
sS'entities'
p266
g141
sS'in_reply_to_status_id_str'
p267
NsS'in_reply_to_screen_name'
p268
Nsg89
g190
sS'extended_entities'
p269
g226
sS'retweeted'
p270
I00
sS'place'
p271
g0
(ctweepy.models
Place
p272
g2
Ntp273
Rp274
(dp275
S'full_name'
p276
g204
sg107
g205
sS'country'
p277
g207
sS'place_type'
p278
g209
sS'bounding_box'
p279
g0
(ctweepy.models
BoundingBox
p280
g2
Ntp281
Rp282
(dp283
S'type'
p284
g212
sg264
g213
sbsS'country_code'
p285
g220
sS'attributes'
p286
g222
sg24
g223
sg101
g224
sbsS'retweet_count'
p287
I0
sg108
g109
(S'\x07\xdf\x07\x0c\x11\x1f\n\x00\x00\x00'
p288
tp289
Rp290
sS'in_reply_to_user_id'
p291
Nsb.