ccopy_reg
_reconstructor
p0
(ctweepy.models
Status
p1
c__builtin__
object
p2
Ntp3
Rp4
(dp5
S'contributors'
p6
NsS'truncated'
p7
I00
sS'text'
p8
VBoonea: what is created when an incredible networker happens to be an IT guru #networking https://t.co/zy73hQO1Ov
p9
sS'in_reply_to_status_id'
p10
NsS'id'
p11
I618824782969180160
sS'favorite_count'
p12
I0
sS'entities'
p13
(dp14
Vuser_mentions
p15
(lp16
sVsymbols
p17
(lp18
sVtrends
p19
(lp20
sVhashtags
p21
(lp22
(dp23
Vindices
p24
(lp25
I78
aI89
asVtext
p26
Vnetworking
p27
sasVurls
p28
(lp29
(dp30
Vurl
p31
Vhttps://t.co/zy73hQO1Ov
p32
sg24
(lp33
I90
aI113
asVexpanded_url
p34
Vhttps://twitter.com/boonea_company/status/618804750696513536
p35
sVdisplay_url
p36
Vtwitter.com/boonea_company\u2026
p37
sassS'quoted_status_id'
p38
I618804750696513536
sS'_json'
p39
(dp40
Vcontributors
p41
NsVtruncated
p42
I00
sg26
g9
sVin_reply_to_status_id
p43
NsVid
p44
I618824782969180160
sVfavorite_count
p45
I0
sVsource
p46
V<a href="http://twitter.com/download/iphone" rel="nofollow">Twitter for iPhone</a>
p47
sVquoted_status_id
p48
I618804750696513536
sVretweeted
p49
I00
sVcoordinates
p50
NsVtimestamp_ms
p51
V1436374300125
p52
sVquoted_status
p53
(dp54
g41
Nsg42
I00
sg26
VThanks @1degree2connect for the great meeting! #Smart and #Charming
p55
sg43
Nsg44
I618804750696513536
sg45
I0
sg46
V<a href="http://twitter.com/download/iphone" rel="nofollow">Twitter for iPhone</a>
p56
sg49
I00
sg50
NsVentities
p57
(dp58
g15
(lp59
(dp60
g44
I3135200848
sg24
(lp61
I7
aI23
asVid_str
p62
V3135200848
p63
sVscreen_name
p64
V1degree2connect
p65
sVname
p66
Vonedegreetoconnect
p67
sasg17
(lp68
sg19
(lp69
sg21
(lp70
(dp71
g24
(lp72
I47
aI53
asg26
VSmart
p73
sa(dp74
g24
(lp75
I58
aI67
asg26
VCharming
p76
sasg28
(lp77
ssVin_reply_to_screen_name
p78
Nsg62
V618804750696513536
p79
sVretweet_count
p80
I0
sVin_reply_to_user_id
p81
NsVfavorited
p82
I00
sVuser
p83
(dp84
Vfollow_request_sent
p85
NsVprofile_use_background_image
p86
I00
sVdefault_profile_image
p87
I00
sg44
I3170307851
sVverified
p88
I00
sVprofile_image_url_https
p89
Vhttps://pbs.twimg.com/profile_images/611912987415175171/arJsXntw_normal.png
p90
sVprofile_sidebar_fill_color
p91
V000000
p92
sVprofile_text_color
p93
V000000
p94
sVfollowers_count
p95
I66
sVprofile_sidebar_border_color
p96
V000000
p97
sg62
V3170307851
p98
sVprofile_background_color
p99
V000000
p100
sVlisted_count
p101
I5
sVprofile_background_image_url_https
p102
Vhttps://abs.twimg.com/images/themes/theme1/bg.png
p103
sVutc_offset
p104
NsVstatuses_count
p105
I103
sVdescription
p106
VCEO & Founder Boonea AG.  Better relationships. Better collaboration. #hrtech #networking #sales #stress #relief\u000a#selfquant #selfmanagement
p107
sVfriends_count
p108
I301
sVlocation
p109
VZurich, Switzerland
p110
sVprofile_link_color
p111
VABB8C2
p112
sVprofile_image_url
p113
Vhttp://pbs.twimg.com/profile_images/611912987415175171/arJsXntw_normal.png
p114
sVfollowing
p115
NsVgeo_enabled
p116
I00
sVprofile_banner_url
p117
Vhttps://pbs.twimg.com/profile_banners/3170307851/1436026139
p118
sVprofile_background_image_url
p119
Vhttp://abs.twimg.com/images/themes/theme1/bg.png
p120
sg66
VFlurin Capaul
p121
sVlang
p122
Ven
p123
sVprofile_background_tile
p124
I00
sVfavourites_count
p125
I21
sg64
Vboonea_company
p126
sVnotifications
p127
Nsg31
Vhttp://www.boonea.com
p128
sVcreated_at
p129
VWed Apr 15 14:58:38 +0000 2015
p130
sVcontributors_enabled
p131
I00
sVtime_zone
p132
NsVprotected
p133
I00
sVdefault_profile
p134
I00
sVis_translator
p135
I00
ssVgeo
p136
NsVin_reply_to_user_id_str
p137
NsVpossibly_sensitive
p138
I00
sg122
Ven
p139
sg129
VWed Jul 08 15:32:04 +0000 2015
p140
sVfilter_level
p141
Vlow
p142
sVin_reply_to_status_id_str
p143
NsVplace
p144
Nssg57
g14
sg78
Nsg62
V618824782969180160
p145
sg80
I0
sg81
Nsg82
I00
sg83
(dp146
g85
Nsg86
I00
sg87
I00
sg44
I3135200848
sg88
I00
sg89
Vhttps://pbs.twimg.com/profile_images/584639083647004672/8KuTvX_n_normal.jpg
p147
sg91
V000000
p148
sg93
V000000
p149
sg95
I74
sg96
V000000
p150
sg62
V3135200848
p151
sg99
V000000
p152
sg101
I6
sg102
Vhttps://abs.twimg.com/images/themes/theme1/bg.png
p153
sg104
Nsg105
I284
sg106
VJessica Fabrizi on #networking and #connectingpeople | Six degrees of separation? One degree to connect!
p154
sg108
I167
sg109
VZurich, Switzerland
p155
sg111
VABB8C2
p156
sg113
Vhttp://pbs.twimg.com/profile_images/584639083647004672/8KuTvX_n_normal.jpg
p157
sg115
Nsg116
I01
sg117
Vhttps://pbs.twimg.com/profile_banners/3135200848/1428486071
p158
sg119
Vhttp://abs.twimg.com/images/themes/theme1/bg.png
p159
sg66
Vonedegreetoconnect
p160
sg122
Ven
p161
sg124
I00
sg125
I53
sg64
V1degree2connect
p162
sg127
Nsg31
Nsg129
VSat Apr 04 21:18:56 +0000 2015
p163
sg131
I00
sg132
Nsg133
I00
sg134
I00
sg135
I00
ssg136
Nsg137
Nsg138
I00
sg122
Ven
p164
sg129
VWed Jul 08 16:51:40 +0000 2015
p165
sVquoted_status_id_str
p166
V618804750696513536
p167
sg141
Vlow
p168
sg143
Nsg144
(dp169
Vfull_name
p170
VZurich, Switzerland
p171
sg31
Vhttps://api.twitter.com/1.1/geo/id/3acb748d0f1e9265.json
p172
sVcountry
p173
VSchweiz
p174
sVplace_type
p175
Vcity
p176
sVbounding_box
p177
(dp178
Vtype
p179
VPolygon
p180
sg50
(lp181
(lp182
(lp183
F8.448081
aF47.320183
aa(lp184
F8.448081
aF47.434721
aa(lp185
F8.625442
aF47.434721
aa(lp186
F8.625442
aF47.320183
aaassVcountry_code
p187
VCH
p188
sVattributes
p189
(dp190
sg44
V3acb748d0f1e9265
p191
sg66
VZurich
p192
sssS'coordinates'
p193
NsS'timestamp_ms'
p194
g52
sS'quoted_status'
p195
g54
sS'source'
p196
VTwitter for iPhone
p197
sS'in_reply_to_screen_name'
p198
NsS'id_str'
p199
g145
sS'retweet_count'
p200
I0
sS'in_reply_to_user_id'
p201
NsS'favorited'
p202
I00
sS'source_url'
p203
Vhttp://twitter.com/download/iphone
p204
sS'user'
p205
g0
(ctweepy.models
User
p206
g2
Ntp207
Rp208
(dp209
S'follow_request_sent'
p210
NsS'profile_use_background_image'
p211
I00
sS'profile_sidebar_fill_color'
p212
g148
sg11
I3135200848
sS'verified'
p213
I00
sS'profile_image_url_https'
p214
g147
sg39
g146
sS'contributors_enabled'
p215
I00
sS'profile_text_color'
p216
g149
sS'followers_count'
p217
I74
sS'profile_sidebar_border_color'
p218
g150
sS'location'
p219
g155
sS'default_profile_image'
p220
I00
sg199
g151
sS'utc_offset'
p221
NsS'statuses_count'
p222
I284
sS'description'
p223
g154
sS'friends_count'
p224
I167
sS'profile_link_color'
p225
g156
sS'profile_image_url'
p226
g157
sS'notifications'
p227
NsS'geo_enabled'
p228
I01
sS'profile_background_color'
p229
g152
sS'profile_banner_url'
p230
g158
sS'profile_background_image_url'
p231
g159
sS'name'
p232
g160
sS'lang'
p233
g161
sS'following'
p234
I00
sS'profile_background_tile'
p235
I00
sS'favourites_count'
p236
I53
sS'screen_name'
p237
g162
sS'url'
p238
NsS'created_at'
p239
cdatetime
datetime
p240
(S'\x07\xdf\x04\x04\x15\x128\x00\x00\x00'
p241
tp242
Rp243
sS'profile_background_image_url_https'
p244
g153
sS'time_zone'
p245
NsS'protected'
p246
I00
sS'default_profile'
p247
I00
sS'is_translator'
p248
I00
sS'listed_count'
p249
I6
sbsS'geo'
p250
NsS'in_reply_to_user_id_str'
p251
NsS'possibly_sensitive'
p252
I00
sg233
g164
sg239
g240
(S'\x07\xdf\x07\x08\x103(\x00\x00\x00'
p253
tp254
Rp255
sS'author'
p256
g208
sS'quoted_status_id_str'
p257
g167
sS'filter_level'
p258
g168
sS'in_reply_to_status_id_str'
p259
NsS'place'
p260
g0
(ctweepy.models
Place
p261
g2
Ntp262
Rp263
(dp264
S'full_name'
p265
g171
sg238
g172
sS'country'
p266
g174
sS'place_type'
p267
g176
sS'bounding_box'
p268
g0
(ctweepy.models
BoundingBox
p269
g2
Ntp270
Rp271
(dp272
S'type'
p273
g180
sg193
g181
sbsS'country_code'
p274
g188
sS'attributes'
p275
g190
sg11
g191
sg232
g192
sbsS'retweeted'
p276
I00
sb.