ccopy_reg
_reconstructor
p0
(ctweepy.models
Status
p1
c__builtin__
object
p2
Ntp3
Rp4
(dp5
S'favorited'
p6
I00
sS'contributors'
p7
NsS'truncated'
p8
I00
sS'text'
p9
Vhttps://t.co/xbQH91nk0K #TGIF #MUSIC #AllYouNeedisEcuador \u000aALL YOU NEED IS LOVE #QUITO #ECUACULTURE
p10
sS'source_url'
p11
Vhttp://twitter.com
p12
sS'possibly_sensitive'
p13
I00
sS'in_reply_to_status_id'
p14
NsS'user'
p15
g0
(ctweepy.models
User
p16
g2
Ntp17
Rp18
(dp19
S'follow_request_sent'
p20
NsS'profile_use_background_image'
p21
I00
sS'profile_sidebar_fill_color'
p22
V000000
p23
sS'id'
p24
I2867975837
sS'verified'
p25
I00
sS'profile_image_url_https'
p26
Vhttps://pbs.twimg.com/profile_images/586355549106745345/BcguLjXh_normal.jpg
p27
sS'_json'
p28
(dp29
Vfollow_request_sent
p30
NsVprofile_use_background_image
p31
I00
sVdefault_profile_image
p32
I00
sVid
p33
I2867975837
sVverified
p34
I00
sVprofile_image_url_https
p35
g27
sVprofile_sidebar_fill_color
p36
g23
sVprofile_text_color
p37
V000000
p38
sVfollowers_count
p39
I22
sVprofile_sidebar_border_color
p40
V000000
p41
sVid_str
p42
V2867975837
p43
sVprofile_background_color
p44
V000000
p45
sVlisted_count
p46
I7
sVprofile_background_image_url_https
p47
Vhttps://abs.twimg.com/images/themes/theme1/bg.png
p48
sVutc_offset
p49
I7200
sVstatuses_count
p50
I319
sVdescription
p51
VArt /News/Travel
p52
sVfriends_count
p53
I14
sVlocation
p54
VEcuador-Swiss
p55
sVprofile_link_color
p56
V94D487
p57
sVprofile_image_url
p58
Vhttp://pbs.twimg.com/profile_images/586355549106745345/BcguLjXh_normal.jpg
p59
sVfollowing
p60
NsVgeo_enabled
p61
I01
sVprofile_banner_url
p62
Vhttps://pbs.twimg.com/profile_banners/2867975837/1424645046
p63
sVprofile_background_image_url
p64
Vhttp://abs.twimg.com/images/themes/theme1/bg.png
p65
sVname
p66
VEcuaculture
p67
sVlang
p68
Vfr
p69
sVprofile_background_tile
p70
I00
sVfavourites_count
p71
I8
sVscreen_name
p72
Vecuaculture
p73
sVnotifications
p74
NsVurl
p75
Vhttp://www.ecuaculture.com
p76
sVcreated_at
p77
VSat Nov 08 21:20:29 +0000 2014
p78
sVcontributors_enabled
p79
I00
sVtime_zone
p80
VLjubljana
p81
sVprotected
p82
I00
sVdefault_profile
p83
I00
sVis_translator
p84
I00
ssS'contributors_enabled'
p85
I00
sS'profile_text_color'
p86
g38
sS'followers_count'
p87
I22
sS'profile_sidebar_border_color'
p88
g41
sS'location'
p89
g55
sS'default_profile_image'
p90
I00
sS'id_str'
p91
g43
sS'utc_offset'
p92
I7200
sS'statuses_count'
p93
I319
sS'description'
p94
g52
sS'friends_count'
p95
I14
sS'profile_link_color'
p96
g57
sS'profile_image_url'
p97
g59
sS'notifications'
p98
NsS'geo_enabled'
p99
I01
sS'profile_background_color'
p100
g45
sS'profile_banner_url'
p101
g63
sS'profile_background_image_url'
p102
g65
sS'name'
p103
g67
sS'lang'
p104
g69
sS'following'
p105
I00
sS'profile_background_tile'
p106
I00
sS'favourites_count'
p107
I8
sS'screen_name'
p108
g73
sS'url'
p109
g76
sS'created_at'
p110
cdatetime
datetime
p111
(S'\x07\xde\x0b\x08\x15\x14\x1d\x00\x00\x00'
p112
tp113
Rp114
sS'profile_background_image_url_https'
p115
g48
sS'time_zone'
p116
g81
sS'protected'
p117
I00
sS'default_profile'
p118
I00
sS'is_translator'
p119
I00
sS'listed_count'
p120
I7
sbsS'filter_level'
p121
Vlow
p122
sS'geo'
p123
Nsg24
I619264413854527490
sS'favorite_count'
p124
I0
sS'source'
p125
VTwitter Web Client
p126
sg104
Ven
p127
sS'author'
p128
g18
sS'in_reply_to_user_id_str'
p129
Nsg28
(dp130
Vcontributors
p131
NsVtruncated
p132
I00
sVtext
p133
Vhttps://t.co/xbQH91nk0K #TGIF #MUSIC #AllYouNeedisEcuador \u000aALL YOU NEED IS LOVE #QUITO #ECUACULTURE
p134
sVin_reply_to_status_id
p135
Nsg33
I619264413854527490
sVfavorite_count
p136
I0
sVsource
p137
V<a href="http://twitter.com" rel="nofollow">Twitter Web Client</a>
p138
sVretweeted
p139
I00
sVcoordinates
p140
NsVtimestamp_ms
p141
V1436479116296
p142
sVentities
p143
(dp144
Vuser_mentions
p145
(lp146
sVsymbols
p147
(lp148
sVtrends
p149
(lp150
sVhashtags
p151
(lp152
(dp153
Vindices
p154
(lp155
I24
aI29
asg133
VTGIF
p156
sa(dp157
g154
(lp158
I30
aI36
asg133
VMUSIC
p159
sa(dp160
g154
(lp161
I37
aI57
asg133
VAllYouNeedisEcuador
p162
sa(dp163
g154
(lp164
I80
aI86
asg133
VQUITO
p165
sa(dp166
g154
(lp167
I87
aI99
asg133
VECUACULTURE
p168
sasVurls
p169
(lp170
(dp171
g75
Vhttps://t.co/xbQH91nk0K
p172
sg154
(lp173
I0
aI23
asVexpanded_url
p174
Vhttps://www.youtube.com/watch?v=LhvSA-g1ry0
p175
sVdisplay_url
p176
Vyoutube.com/watch?v=LhvSA-\u2026
p177
sassVin_reply_to_screen_name
p178
Nsg42
V619264413854527490
p179
sVretweet_count
p180
I0
sVin_reply_to_user_id
p181
NsVfavorited
p182
I00
sVuser
p183
g29
sVgeo
p184
NsVin_reply_to_user_id_str
p185
NsVpossibly_sensitive
p186
I00
sg68
g127
sg77
VThu Jul 09 21:58:36 +0000 2015
p187
sVfilter_level
p188
g122
sVin_reply_to_status_id_str
p189
NsVplace
p190
(dp191
Vfull_name
p192
VZurich, Suisse
p193
sg75
Vhttps://api.twitter.com/1.1/geo/id/3acb748d0f1e9265.json
p194
sVcountry
p195
VSchweiz
p196
sVplace_type
p197
Vcity
p198
sVbounding_box
p199
(dp200
Vtype
p201
VPolygon
p202
sg140
(lp203
(lp204
(lp205
F8.448081
aF47.320183
aa(lp206
F8.448081
aF47.434721
aa(lp207
F8.625442
aF47.434721
aa(lp208
F8.625442
aF47.320183
aaassVcountry_code
p209
VCH
p210
sVattributes
p211
(dp212
sg33
V3acb748d0f1e9265
p213
sg66
VZurich
p214
sssS'coordinates'
p215
NsS'timestamp_ms'
p216
g142
sS'entities'
p217
g144
sS'in_reply_to_status_id_str'
p218
NsS'in_reply_to_screen_name'
p219
Nsg91
g179
sS'retweeted'
p220
I00
sS'place'
p221
g0
(ctweepy.models
Place
p222
g2
Ntp223
Rp224
(dp225
S'full_name'
p226
g193
sg109
g194
sS'country'
p227
g196
sS'place_type'
p228
g198
sS'bounding_box'
p229
g0
(ctweepy.models
BoundingBox
p230
g2
Ntp231
Rp232
(dp233
S'type'
p234
g202
sg215
g203
sbsS'country_code'
p235
g210
sS'attributes'
p236
g212
sg24
g213
sg103
g214
sbsS'retweet_count'
p237
I0
sg110
g111
(S'\x07\xdf\x07\t\x15:$\x00\x00\x00'
p238
tp239
Rp240
sS'in_reply_to_user_id'
p241
Nsb.