ccopy_reg
_reconstructor
p0
(ctweepy.models
Status
p1
c__builtin__
object
p2
Ntp3
Rp4
(dp5
S'contributors'
p6
NsS'truncated'
p7
I00
sS'text'
p8
VContoh tipe fraudnya yg gimana yah?. https://t.co/iayNNRsJp5
p9
sS'in_reply_to_status_id'
p10
NsS'id'
p11
I618980106665656321
sS'favorite_count'
p12
I0
sS'entities'
p13
(dp14
Vuser_mentions
p15
(lp16
sVsymbols
p17
(lp18
sVtrends
p19
(lp20
sVhashtags
p21
(lp22
sVurls
p23
(lp24
(dp25
Vurl
p26
Vhttps://t.co/iayNNRsJp5
p27
sVindices
p28
(lp29
I37
aI60
asVexpanded_url
p30
Vhttps://twitter.com/bloombergtvid/status/618978906259853312
p31
sVdisplay_url
p32
Vtwitter.com/bloombergtvid/\u2026
p33
sassS'quoted_status_id'
p34
I618978906259853312
sS'_json'
p35
(dp36
Vcontributors
p37
NsVtruncated
p38
I00
sVtext
p39
g9
sVin_reply_to_status_id
p40
NsVid
p41
I618980106665656321
sVfavorite_count
p42
I0
sVsource
p43
V<a href="http://twitter.com/download/iphone" rel="nofollow">Twitter for iPhone</a>
p44
sVquoted_status_id
p45
I618978906259853312
sVretweeted
p46
I00
sVcoordinates
p47
NsVtimestamp_ms
p48
V1436411332180
p49
sVquoted_status
p50
(dp51
g37
Nsg38
I00
sg39
VBEI kaji ketentuan ganti rugi dana investor di Pasar Modal yang hilang akibat fraud yang dilakukan perusahaan sekuritas #BloombergTVIDInfo
p52
sg40
Nsg41
I618978906259853312
sg42
I0
sg43
V<a href="https://about.twitter.com/products/tweetdeck" rel="nofollow">TweetDeck</a>
p53
sg46
I00
sg47
NsVentities
p54
(dp55
g15
(lp56
sg17
(lp57
sg19
(lp58
sg21
(lp59
(dp60
g28
(lp61
I120
aI138
asg39
VBloombergTVIDInfo
p62
sasg23
(lp63
ssVin_reply_to_screen_name
p64
NsVid_str
p65
V618978906259853312
p66
sVretweet_count
p67
I0
sVin_reply_to_user_id
p68
NsVfavorited
p69
I00
sVuser
p70
(dp71
Vfollow_request_sent
p72
NsVprofile_use_background_image
p73
I01
sVdefault_profile_image
p74
I00
sg41
I980201461
sVverified
p75
I00
sVprofile_image_url_https
p76
Vhttps://pbs.twimg.com/profile_images/610656304915312641/L255Q81s_normal.jpg
p77
sVprofile_sidebar_fill_color
p78
VDDEEF6
p79
sVprofile_text_color
p80
V333333
p81
sVfollowers_count
p82
I26368
sVprofile_sidebar_border_color
p83
VFFFFFF
p84
sg65
V980201461
p85
sVprofile_background_color
p86
VC0DEED
p87
sVlisted_count
p88
I276
sVprofile_background_image_url_https
p89
Vhttps://pbs.twimg.com/profile_background_images/610658124698030080/BAP_I0B5.jpg
p90
sVutc_offset
p91
I25200
sVstatuses_count
p92
I32456
sVdescription
p93
VOfficial Twitter account of Bloomberg TV Indonesia - Indonesia's first world class 24-hour business channel
p94
sVfriends_count
p95
I132
sVlocation
p96
VJakarta
p97
sVprofile_link_color
p98
V0084B4
p99
sVprofile_image_url
p100
Vhttp://pbs.twimg.com/profile_images/610656304915312641/L255Q81s_normal.jpg
p101
sVfollowing
p102
NsVgeo_enabled
p103
I00
sVprofile_banner_url
p104
Vhttps://pbs.twimg.com/profile_banners/980201461/1434426802
p105
sVprofile_background_image_url
p106
Vhttp://pbs.twimg.com/profile_background_images/610658124698030080/BAP_I0B5.jpg
p107
sVname
p108
VBloombergTVIndonesia
p109
sVlang
p110
Ven
p111
sVprofile_background_tile
p112
I01
sVfavourites_count
p113
I1
sVscreen_name
p114
VBloombergTVID
p115
sVnotifications
p116
Nsg26
Vhttp://www.bloombergindonesia.tv
p117
sVcreated_at
p118
VFri Nov 30 10:27:56 +0000 2012
p119
sVcontributors_enabled
p120
I00
sVtime_zone
p121
VBangkok
p122
sVprotected
p123
I00
sVdefault_profile
p124
I00
sVis_translator
p125
I00
ssVgeo
p126
NsVin_reply_to_user_id_str
p127
NsVpossibly_sensitive
p128
I00
sg110
Vin
p129
sg118
VThu Jul 09 03:04:05 +0000 2015
p130
sVfilter_level
p131
Vlow
p132
sVin_reply_to_status_id_str
p133
NsVplace
p134
Nssg54
g14
sg64
Nsg65
V618980106665656321
p135
sg67
I0
sg68
Nsg69
I00
sg70
(dp136
g72
Nsg73
I01
sg74
I00
sg41
I152612018
sg75
I00
sg76
Vhttps://pbs.twimg.com/profile_images/579456039361228800/EiokPL_6_normal.jpg
p137
sg78
VDDEEF6
p138
sg80
V333333
p139
sg82
I153
sg83
VC0DEED
p140
sg65
V152612018
p141
sg86
VC0DEED
p142
sg88
I0
sg89
Vhttps://abs.twimg.com/images/themes/theme1/bg.png
p143
sg91
Nsg92
I1548
sg93
VBuilt the empire.. BizTrader..
p144
sg95
I452
sg96
VBandung
p145
sg98
V0084B4
p146
sg100
Vhttp://pbs.twimg.com/profile_images/579456039361228800/EiokPL_6_normal.jpg
p147
sg102
Nsg103
I01
sg104
Vhttps://pbs.twimg.com/profile_banners/152612018/1415770978
p148
sg106
Vhttp://abs.twimg.com/images/themes/theme1/bg.png
p149
sg108
VRatno
p150
sg110
Ven
p151
sg112
I00
sg113
I239
sg114
Vratn2039
p152
sg116
Nsg26
Vhttp://www.newmont.co.id
p153
sg118
VSun Jun 06 12:14:41 +0000 2010
p154
sg120
I00
sg121
Nsg123
I00
sg124
I01
sg125
I00
ssg126
Nsg127
Nsg128
I00
sg110
Vin
p155
sg118
VThu Jul 09 03:08:52 +0000 2015
p156
sVquoted_status_id_str
p157
V618978906259853312
p158
sg131
Vlow
p159
sg133
Nsg134
(dp160
Vfull_name
p161
VZurich, Switzerland
p162
sg26
Vhttps://api.twitter.com/1.1/geo/id/3acb748d0f1e9265.json
p163
sVcountry
p164
VSchweiz
p165
sVplace_type
p166
Vcity
p167
sVbounding_box
p168
(dp169
Vtype
p170
VPolygon
p171
sg47
(lp172
(lp173
(lp174
F8.448081
aF47.320183
aa(lp175
F8.448081
aF47.434721
aa(lp176
F8.625442
aF47.434721
aa(lp177
F8.625442
aF47.320183
aaassVcountry_code
p178
VCH
p179
sVattributes
p180
(dp181
sg41
V3acb748d0f1e9265
p182
sg108
VZurich
p183
sssS'coordinates'
p184
NsS'timestamp_ms'
p185
g49
sS'quoted_status'
p186
g51
sS'source'
p187
VTwitter for iPhone
p188
sS'in_reply_to_screen_name'
p189
NsS'id_str'
p190
g135
sS'retweet_count'
p191
I0
sS'in_reply_to_user_id'
p192
NsS'favorited'
p193
I00
sS'source_url'
p194
Vhttp://twitter.com/download/iphone
p195
sS'user'
p196
g0
(ctweepy.models
User
p197
g2
Ntp198
Rp199
(dp200
S'follow_request_sent'
p201
NsS'profile_use_background_image'
p202
I01
sS'profile_sidebar_fill_color'
p203
g138
sg11
I152612018
sS'verified'
p204
I00
sS'profile_image_url_https'
p205
g137
sg35
g136
sS'contributors_enabled'
p206
I00
sS'profile_text_color'
p207
g139
sS'followers_count'
p208
I153
sS'profile_sidebar_border_color'
p209
g140
sS'location'
p210
g145
sS'default_profile_image'
p211
I00
sg190
g141
sS'utc_offset'
p212
NsS'statuses_count'
p213
I1548
sS'description'
p214
g144
sS'friends_count'
p215
I452
sS'profile_link_color'
p216
g146
sS'profile_image_url'
p217
g147
sS'notifications'
p218
NsS'geo_enabled'
p219
I01
sS'profile_background_color'
p220
g142
sS'profile_banner_url'
p221
g148
sS'profile_background_image_url'
p222
g149
sS'name'
p223
g150
sS'lang'
p224
g151
sS'following'
p225
I00
sS'profile_background_tile'
p226
I00
sS'favourites_count'
p227
I239
sS'screen_name'
p228
g152
sS'url'
p229
g153
sS'created_at'
p230
cdatetime
datetime
p231
(S'\x07\xda\x06\x06\x0c\x0e)\x00\x00\x00'
p232
tp233
Rp234
sS'profile_background_image_url_https'
p235
g143
sS'time_zone'
p236
NsS'protected'
p237
I00
sS'default_profile'
p238
I01
sS'is_translator'
p239
I00
sS'listed_count'
p240
I0
sbsS'geo'
p241
NsS'in_reply_to_user_id_str'
p242
NsS'possibly_sensitive'
p243
I00
sg224
g155
sg230
g231
(S'\x07\xdf\x07\t\x03\x084\x00\x00\x00'
p244
tp245
Rp246
sS'author'
p247
g199
sS'quoted_status_id_str'
p248
g158
sS'filter_level'
p249
g159
sS'in_reply_to_status_id_str'
p250
NsS'place'
p251
g0
(ctweepy.models
Place
p252
g2
Ntp253
Rp254
(dp255
S'full_name'
p256
g162
sg229
g163
sS'country'
p257
g165
sS'place_type'
p258
g167
sS'bounding_box'
p259
g0
(ctweepy.models
BoundingBox
p260
g2
Ntp261
Rp262
(dp263
S'type'
p264
g171
sg184
g172
sbsS'country_code'
p265
g179
sS'attributes'
p266
g181
sg11
g182
sg223
g183
sbsS'retweeted'
p267
I00
sb.