ccopy_reg
_reconstructor
p0
(ctweepy.models
Status
p1
c__builtin__
object
p2
Ntp3
Rp4
(dp5
S'favorited'
p6
I00
sS'contributors'
p7
NsS'truncated'
p8
I00
sS'text'
p9
VSame place four and half years ago. @ Stadelhofen ZH https://t.co/CGeTLJnr0D
p10
sS'source_url'
p11
Vhttp://instagram.com
p12
sS'possibly_sensitive'
p13
I00
sS'in_reply_to_status_id'
p14
NsS'user'
p15
g0
(ctweepy.models
User
p16
g2
Ntp17
Rp18
(dp19
S'follow_request_sent'
p20
NsS'profile_use_background_image'
p21
I01
sS'profile_sidebar_fill_color'
p22
V99CC33
p23
sS'id'
p24
I19090855
sS'verified'
p25
I00
sS'profile_image_url_https'
p26
Vhttps://pbs.twimg.com/profile_images/554337172963471360/shkYf15O_normal.jpeg
p27
sS'_json'
p28
(dp29
Vfollow_request_sent
p30
NsVprofile_use_background_image
p31
I01
sVdefault_profile_image
p32
I00
sVid
p33
I19090855
sVverified
p34
I00
sVprofile_image_url_https
p35
g27
sVprofile_sidebar_fill_color
p36
g23
sVprofile_text_color
p37
V3E4415
p38
sVfollowers_count
p39
I31
sVprofile_sidebar_border_color
p40
VFFFFFF
p41
sVid_str
p42
V19090855
p43
sVprofile_background_color
p44
V1A1B1F
p45
sVlisted_count
p46
I0
sVprofile_background_image_url_https
p47
Vhttps://abs.twimg.com/images/themes/theme5/bg.gif
p48
sVutc_offset
p49
I7200
sVstatuses_count
p50
I750
sVdescription
p51
NsVfriends_count
p52
I81
sVlocation
p53
V47.341739,8.597734
p54
sVprofile_link_color
p55
V2FC2EF
p56
sVprofile_image_url
p57
Vhttp://pbs.twimg.com/profile_images/554337172963471360/shkYf15O_normal.jpeg
p58
sVfollowing
p59
NsVgeo_enabled
p60
I01
sVprofile_background_image_url
p61
Vhttp://abs.twimg.com/images/themes/theme5/bg.gif
p62
sVname
p63
VCarl
p64
sVlang
p65
Ven
p66
sVprofile_background_tile
p67
I00
sVfavourites_count
p68
I5
sVscreen_name
p69
VDove11
p70
sVnotifications
p71
NsVurl
p72
NsVcreated_at
p73
VFri Jan 16 22:53:02 +0000 2009
p74
sVcontributors_enabled
p75
I00
sVtime_zone
p76
VBern
p77
sVprotected
p78
I00
sVdefault_profile
p79
I00
sVis_translator
p80
I00
ssS'contributors_enabled'
p81
I00
sS'profile_text_color'
p82
g38
sS'followers_count'
p83
I31
sS'profile_sidebar_border_color'
p84
g41
sS'location'
p85
g54
sS'default_profile_image'
p86
I00
sS'id_str'
p87
g43
sS'utc_offset'
p88
I7200
sS'statuses_count'
p89
I750
sS'description'
p90
NsS'friends_count'
p91
I81
sS'profile_link_color'
p92
g56
sS'profile_image_url'
p93
g58
sS'notifications'
p94
NsS'geo_enabled'
p95
I01
sS'profile_background_color'
p96
g45
sS'profile_background_image_url'
p97
g62
sS'name'
p98
g64
sS'lang'
p99
g66
sS'following'
p100
I00
sS'profile_background_tile'
p101
I00
sS'favourites_count'
p102
I5
sS'screen_name'
p103
g70
sS'url'
p104
NsS'created_at'
p105
cdatetime
datetime
p106
(S'\x07\xd9\x01\x10\x165\x02\x00\x00\x00'
p107
tp108
Rp109
sS'profile_background_image_url_https'
p110
g48
sS'time_zone'
p111
g77
sS'protected'
p112
I00
sS'default_profile'
p113
I00
sS'is_translator'
p114
I00
sS'listed_count'
p115
I0
sbsS'filter_level'
p116
Vlow
p117
sS'geo'
p118
(dp119
Vtype
p120
VPoint
p121
sVcoordinates
p122
(lp123
F47.36422
aF8.546085
assg24
I620702884863283204
sS'favorite_count'
p124
I0
sS'source'
p125
VInstagram
p126
sg99
Ven
p127
sS'author'
p128
g18
sS'in_reply_to_user_id_str'
p129
Nsg28
(dp130
Vcontributors
p131
NsVtruncated
p132
I00
sVtext
p133
g10
sVin_reply_to_status_id
p134
Nsg33
I620702884863283204
sVfavorite_count
p135
I0
sVsource
p136
V<a href="http://instagram.com" rel="nofollow">Instagram</a>
p137
sVretweeted
p138
I00
sg122
(dp139
g120
VPoint
p140
sg122
(lp141
F8.546085
aF47.36422
assVtimestamp_ms
p142
V1436822074510
p143
sVentities
p144
(dp145
Vuser_mentions
p146
(lp147
sVsymbols
p148
(lp149
sVtrends
p150
(lp151
sVhashtags
p152
(lp153
sVurls
p154
(lp155
(dp156
g72
Vhttps://t.co/CGeTLJnr0D
p157
sVindices
p158
(lp159
I53
aI76
asVexpanded_url
p160
Vhttps://instagram.com/p/5F021VHvTl/
p161
sVdisplay_url
p162
Vinstagram.com/p/5F021VHvTl/
p163
sassVin_reply_to_screen_name
p164
Nsg42
V620702884863283204
p165
sVretweet_count
p166
I0
sVin_reply_to_user_id
p167
NsVfavorited
p168
I00
sVuser
p169
g29
sVgeo
p170
g119
sVin_reply_to_user_id_str
p171
NsVpossibly_sensitive
p172
I00
sg65
g127
sg73
VMon Jul 13 21:14:34 +0000 2015
p173
sVfilter_level
p174
g117
sVin_reply_to_status_id_str
p175
NsVplace
p176
(dp177
Vfull_name
p178
VZurich, Switzerland
p179
sg72
Vhttps://api.twitter.com/1.1/geo/id/3acb748d0f1e9265.json
p180
sVcountry
p181
VSchweiz
p182
sVplace_type
p183
Vcity
p184
sVbounding_box
p185
(dp186
g120
VPolygon
p187
sg122
(lp188
(lp189
(lp190
F8.448081
aF47.320183
aa(lp191
F8.448081
aF47.434721
aa(lp192
F8.625442
aF47.434721
aa(lp193
F8.625442
aF47.320183
aaassVcountry_code
p194
VCH
p195
sVattributes
p196
(dp197
sg33
V3acb748d0f1e9265
p198
sg63
VZurich
p199
sssS'coordinates'
p200
g139
sS'timestamp_ms'
p201
g143
sS'entities'
p202
g145
sS'in_reply_to_status_id_str'
p203
NsS'in_reply_to_screen_name'
p204
Nsg87
g165
sS'retweeted'
p205
I00
sS'place'
p206
g0
(ctweepy.models
Place
p207
g2
Ntp208
Rp209
(dp210
S'full_name'
p211
g179
sg104
g180
sS'country'
p212
g182
sS'place_type'
p213
g184
sS'bounding_box'
p214
g0
(ctweepy.models
BoundingBox
p215
g2
Ntp216
Rp217
(dp218
S'type'
p219
g187
sg200
g188
sbsS'country_code'
p220
g195
sS'attributes'
p221
g197
sg24
g198
sg98
g199
sbsS'retweet_count'
p222
I0
sg105
g106
(S'\x07\xdf\x07\r\x15\x0e"\x00\x00\x00'
p223
tp224
Rp225
sS'in_reply_to_user_id'
p226
Nsb.