ccopy_reg
_reconstructor
p0
(ctweepy.models
Status
p1
c__builtin__
object
p2
Ntp3
Rp4
(dp5
S'favorited'
p6
I00
sS'contributors'
p7
NsS'truncated'
p8
I00
sS'text'
p9
V14th July starts the first #lunch #summer body tone-up #workout session for #women in #Zurich. Just POP-IN and try! http://t.co/j2sOaRi8b9
p10
sS'source_url'
p11
Vhttp://twitter.com/download/iphone
p12
sS'possibly_sensitive'
p13
I00
sS'in_reply_to_status_id'
p14
NsS'user'
p15
g0
(ctweepy.models
User
p16
g2
Ntp17
Rp18
(dp19
S'follow_request_sent'
p20
NsS'profile_use_background_image'
p21
I00
sS'profile_sidebar_fill_color'
p22
V000000
p23
sS'id'
p24
I3137546289
sS'verified'
p25
I00
sS'profile_image_url_https'
p26
Vhttps://pbs.twimg.com/profile_images/589503038965952513/my3mj34u_normal.jpg
p27
sS'_json'
p28
(dp29
Vfollow_request_sent
p30
NsVprofile_use_background_image
p31
I00
sVdefault_profile_image
p32
I00
sVid
p33
I3137546289
sVverified
p34
I00
sVprofile_image_url_https
p35
g27
sVprofile_sidebar_fill_color
p36
g23
sVprofile_text_color
p37
V000000
p38
sVfollowers_count
p39
I18
sVprofile_sidebar_border_color
p40
V000000
p41
sVid_str
p42
V3137546289
p43
sVprofile_background_color
p44
V000000
p45
sVlisted_count
p46
I2
sVprofile_background_image_url_https
p47
Vhttps://abs.twimg.com/images/themes/theme1/bg.png
p48
sVutc_offset
p49
NsVstatuses_count
p50
I109
sVdescription
p51
VGet yourself energised through my daily tweets in a healthier and happier body and soul.
p52
sVfriends_count
p53
I33
sVlocation
p54
VZurich
p55
sVprofile_link_color
p56
VFFCC4D
p57
sVprofile_image_url
p58
Vhttp://pbs.twimg.com/profile_images/589503038965952513/my3mj34u_normal.jpg
p59
sVfollowing
p60
NsVgeo_enabled
p61
I01
sVprofile_background_image_url
p62
Vhttp://abs.twimg.com/images/themes/theme1/bg.png
p63
sVname
p64
VThe DesiredMe
p65
sVlang
p66
Ven
p67
sVprofile_background_tile
p68
I00
sVfavourites_count
p69
I21
sVscreen_name
p70
Vthedesiredme
p71
sVnotifications
p72
NsVurl
p73
Vhttp://www.thedesiredme.com
p74
sVcreated_at
p75
VSun Apr 05 16:34:01 +0000 2015
p76
sVcontributors_enabled
p77
I00
sVtime_zone
p78
NsVprotected
p79
I00
sVdefault_profile
p80
I00
sVis_translator
p81
I00
ssS'contributors_enabled'
p82
I00
sS'profile_text_color'
p83
g38
sS'followers_count'
p84
I18
sS'profile_sidebar_border_color'
p85
g41
sS'location'
p86
g55
sS'default_profile_image'
p87
I00
sS'id_str'
p88
g43
sS'utc_offset'
p89
NsS'statuses_count'
p90
I109
sS'description'
p91
g52
sS'friends_count'
p92
I33
sS'profile_link_color'
p93
g57
sS'profile_image_url'
p94
g59
sS'notifications'
p95
NsS'geo_enabled'
p96
I01
sS'profile_background_color'
p97
g45
sS'profile_background_image_url'
p98
g63
sS'name'
p99
g65
sS'lang'
p100
g67
sS'following'
p101
I00
sS'profile_background_tile'
p102
I00
sS'favourites_count'
p103
I21
sS'screen_name'
p104
g71
sS'url'
p105
g74
sS'created_at'
p106
cdatetime
datetime
p107
(S'\x07\xdf\x04\x05\x10"\x01\x00\x00\x00'
p108
tp109
Rp110
sS'profile_background_image_url_https'
p111
g48
sS'time_zone'
p112
NsS'protected'
p113
I00
sS'default_profile'
p114
I00
sS'is_translator'
p115
I00
sS'listed_count'
p116
I2
sbsS'filter_level'
p117
Vlow
p118
sS'geo'
p119
Nsg24
I619025801196011520
sS'favorite_count'
p120
I0
sS'source'
p121
VTwitter for iPhone
p122
sg100
Ven
p123
sS'author'
p124
g18
sS'in_reply_to_user_id_str'
p125
Nsg28
(dp126
Vcontributors
p127
NsVtruncated
p128
I00
sVtext
p129
g10
sVin_reply_to_status_id
p130
Nsg33
I619025801196011520
sVfavorite_count
p131
I0
sVsource
p132
V<a href="http://twitter.com/download/iphone" rel="nofollow">Twitter for iPhone</a>
p133
sVretweeted
p134
I00
sVcoordinates
p135
NsVtimestamp_ms
p136
V1436422226605
p137
sVentities
p138
(dp139
Vsymbols
p140
(lp141
sVmedia
p142
(lp143
(dp144
Vexpanded_url
p145
Vhttp://twitter.com/thedesiredme/status/619025801196011520/photo/1
p146
sVdisplay_url
p147
Vpic.twitter.com/j2sOaRi8b9
p148
sg73
Vhttp://t.co/j2sOaRi8b9
p149
sVmedia_url_https
p150
Vhttps://pbs.twimg.com/media/CJc4qxkUYAAqaXj.jpg
p151
sg42
V619025781298061312
p152
sVsizes
p153
(dp154
Vsmall
p155
(dp156
Vh
p157
I459
sVresize
p158
Vfit
p159
sVw
p160
I340
ssVlarge
p161
(dp162
g157
I1024
sg158
Vfit
p163
sg160
I758
ssVmedium
p164
(dp165
g157
I810
sg158
Vfit
p166
sg160
I600
ssVthumb
p167
(dp168
g157
I150
sg158
Vcrop
p169
sg160
I150
sssVindices
p170
(lp171
I116
aI138
asVtype
p172
Vphoto
p173
sg33
I619025781298061312
sVmedia_url
p174
Vhttp://pbs.twimg.com/media/CJc4qxkUYAAqaXj.jpg
p175
sasVhashtags
p176
(lp177
(dp178
g170
(lp179
I27
aI33
asg129
Vlunch
p180
sa(dp181
g170
(lp182
I34
aI41
asg129
Vsummer
p183
sa(dp184
g170
(lp185
I55
aI63
asg129
Vworkout
p186
sa(dp187
g170
(lp188
I76
aI82
asg129
Vwomen
p189
sa(dp190
g170
(lp191
I86
aI93
asg129
VZurich
p192
sasVuser_mentions
p193
(lp194
sVtrends
p195
(lp196
sVurls
p197
(lp198
ssVin_reply_to_screen_name
p199
Nsg42
V619025801196011520
p200
sVretweet_count
p201
I0
sVin_reply_to_user_id
p202
NsVfavorited
p203
I00
sVuser
p204
g29
sVgeo
p205
NsVin_reply_to_user_id_str
p206
NsVpossibly_sensitive
p207
I00
sg66
g123
sg75
VThu Jul 09 06:10:26 +0000 2015
p208
sVfilter_level
p209
g118
sVin_reply_to_status_id_str
p210
NsVplace
p211
(dp212
Vfull_name
p213
VZurich, Switzerland
p214
sg73
Vhttps://api.twitter.com/1.1/geo/id/3acb748d0f1e9265.json
p215
sVcountry
p216
VSchweiz
p217
sVplace_type
p218
Vcity
p219
sVbounding_box
p220
(dp221
g172
VPolygon
p222
sg135
(lp223
(lp224
(lp225
F8.448081
aF47.320183
aa(lp226
F8.448081
aF47.434721
aa(lp227
F8.625442
aF47.434721
aa(lp228
F8.625442
aF47.320183
aaassVcountry_code
p229
VCH
p230
sVattributes
p231
(dp232
sg33
V3acb748d0f1e9265
p233
sg64
VZurich
p234
ssVextended_entities
p235
(dp236
g142
(lp237
(dp238
g145
Vhttp://twitter.com/thedesiredme/status/619025801196011520/photo/1
p239
sg147
Vpic.twitter.com/j2sOaRi8b9
p240
sg73
Vhttp://t.co/j2sOaRi8b9
p241
sg150
Vhttps://pbs.twimg.com/media/CJc4qxkUYAAqaXj.jpg
p242
sg42
V619025781298061312
p243
sg153
(dp244
g155
(dp245
g157
I459
sg158
Vfit
p246
sg160
I340
ssg161
(dp247
g157
I1024
sg158
Vfit
p248
sg160
I758
ssg164
(dp249
g157
I810
sg158
Vfit
p250
sg160
I600
ssg167
(dp251
g157
I150
sg158
Vcrop
p252
sg160
I150
sssg170
(lp253
I116
aI138
asg172
Vphoto
p254
sg33
I619025781298061312
sg174
Vhttp://pbs.twimg.com/media/CJc4qxkUYAAqaXj.jpg
p255
sasssS'coordinates'
p256
NsS'timestamp_ms'
p257
g137
sS'entities'
p258
g139
sS'in_reply_to_status_id_str'
p259
NsS'in_reply_to_screen_name'
p260
Nsg88
g200
sS'extended_entities'
p261
g236
sS'retweeted'
p262
I00
sS'place'
p263
g0
(ctweepy.models
Place
p264
g2
Ntp265
Rp266
(dp267
S'full_name'
p268
g214
sg105
g215
sS'country'
p269
g217
sS'place_type'
p270
g219
sS'bounding_box'
p271
g0
(ctweepy.models
BoundingBox
p272
g2
Ntp273
Rp274
(dp275
S'type'
p276
g222
sg256
g223
sbsS'country_code'
p277
g230
sS'attributes'
p278
g232
sg24
g233
sg99
g234
sbsS'retweet_count'
p279
I0
sg106
g107
(S'\x07\xdf\x07\t\x06\n\x1a\x00\x00\x00'
p280
tp281
Rp282
sS'in_reply_to_user_id'
p283
Nsb.