ccopy_reg
_reconstructor
p0
(ctweepy.models
Status
p1
c__builtin__
object
p2
Ntp3
Rp4
(dp5
S'favorited'
p6
I00
sS'contributors'
p7
NsS'truncated'
p8
I00
sS'text'
p9
VGreat kickoff for the stop plastic pollution in #CH coalition @DdeBuman @EXPEDITION_P @MyTreeTV @biomish @GreenGoWeb http://t.co/kPVradnudW
p10
sS'source_url'
p11
Vhttp://twitter.com/download/iphone
p12
sS'possibly_sensitive'
p13
I00
sS'in_reply_to_status_id'
p14
NsS'user'
p15
g0
(ctweepy.models
User
p16
g2
Ntp17
Rp18
(dp19
S'follow_request_sent'
p20
NsS'profile_use_background_image'
p21
I01
sS'profile_sidebar_fill_color'
p22
V99CC33
p23
sS'id'
p24
I110670818
sS'verified'
p25
I00
sS'profile_image_url_https'
p26
Vhttps://pbs.twimg.com/profile_images/1520933993/logoROUND_normal.png
p27
sS'_json'
p28
(dp29
Vfollow_request_sent
p30
NsVprofile_use_background_image
p31
I01
sVdefault_profile_image
p32
I00
sVid
p33
I110670818
sVverified
p34
I00
sVprofile_image_url_https
p35
g27
sVprofile_sidebar_fill_color
p36
g23
sVprofile_text_color
p37
V3E4415
p38
sVfollowers_count
p39
I331
sVprofile_sidebar_border_color
p40
V829D5E
p41
sVid_str
p42
V110670818
p43
sVprofile_background_color
p44
V352726
p45
sVlisted_count
p46
I31
sVprofile_background_image_url_https
p47
Vhttps://abs.twimg.com/images/themes/theme5/bg.gif
p48
sVutc_offset
p49
I7200
sVstatuses_count
p50
I1940
sVdescription
p51
VFighting plastics with biodegradable, biobased and compostable alternatives. Frederic, founder, tweeting
p52
sVfriends_count
p53
I362
sVlocation
p54
VSwitzerland / US
p55
sVprofile_link_color
p56
VD02B55
p57
sVprofile_image_url
p58
Vhttp://pbs.twimg.com/profile_images/1520933993/logoROUND_normal.png
p59
sVfollowing
p60
NsVgeo_enabled
p61
I01
sVprofile_banner_url
p62
Vhttps://pbs.twimg.com/profile_banners/110670818/1417497998
p63
sVprofile_background_image_url
p64
Vhttp://abs.twimg.com/images/themes/theme5/bg.gif
p65
sVname
p66
VBioApply
p67
sVlang
p68
Ven
p69
sVprofile_background_tile
p70
I00
sVfavourites_count
p71
I1170
sVscreen_name
p72
VBioApply
p73
sVnotifications
p74
NsVurl
p75
Vhttp://www.bioapply.com
p76
sVcreated_at
p77
VTue Feb 02 10:58:59 +0000 2010
p78
sVcontributors_enabled
p79
I00
sVtime_zone
p80
VParis
p81
sVprotected
p82
I00
sVdefault_profile
p83
I00
sVis_translator
p84
I00
ssS'contributors_enabled'
p85
I00
sS'profile_text_color'
p86
g38
sS'followers_count'
p87
I331
sS'profile_sidebar_border_color'
p88
g41
sS'location'
p89
g55
sS'default_profile_image'
p90
I00
sS'id_str'
p91
g43
sS'utc_offset'
p92
I7200
sS'statuses_count'
p93
I1940
sS'description'
p94
g52
sS'friends_count'
p95
I362
sS'profile_link_color'
p96
g57
sS'profile_image_url'
p97
g59
sS'notifications'
p98
NsS'geo_enabled'
p99
I01
sS'profile_background_color'
p100
g45
sS'profile_banner_url'
p101
g63
sS'profile_background_image_url'
p102
g65
sS'name'
p103
g67
sS'lang'
p104
g69
sS'following'
p105
I00
sS'profile_background_tile'
p106
I00
sS'favourites_count'
p107
I1170
sS'screen_name'
p108
g73
sS'url'
p109
g76
sS'created_at'
p110
cdatetime
datetime
p111
(S'\x07\xda\x02\x02\n:;\x00\x00\x00'
p112
tp113
Rp114
sS'profile_background_image_url_https'
p115
g48
sS'time_zone'
p116
g81
sS'protected'
p117
I00
sS'default_profile'
p118
I00
sS'is_translator'
p119
I00
sS'listed_count'
p120
I31
sbsS'filter_level'
p121
Vlow
p122
sS'geo'
p123
Nsg24
I620986721036038144
sS'favorite_count'
p124
I0
sS'source'
p125
VTwitter for iPhone
p126
sg104
Ven
p127
sS'author'
p128
g18
sS'in_reply_to_user_id_str'
p129
Nsg28
(dp130
Vcontributors
p131
NsVtruncated
p132
I00
sVtext
p133
g10
sVin_reply_to_status_id
p134
Nsg33
I620986721036038144
sVfavorite_count
p135
I0
sVsource
p136
V<a href="http://twitter.com/download/iphone" rel="nofollow">Twitter for iPhone</a>
p137
sVretweeted
p138
I00
sVcoordinates
p139
NsVtimestamp_ms
p140
V1436889746327
p141
sVentities
p142
(dp143
Vsymbols
p144
(lp145
sVmedia
p146
(lp147
(dp148
Vexpanded_url
p149
Vhttp://twitter.com/BioApply/status/620986721036038144/photo/1
p150
sVdisplay_url
p151
Vpic.twitter.com/kPVradnudW
p152
sg75
Vhttp://t.co/kPVradnudW
p153
sVmedia_url_https
p154
Vhttps://pbs.twimg.com/media/CJ4wHggUcAAIkLL.jpg
p155
sg42
V620986704166416384
p156
sVsizes
p157
(dp158
Vsmall
p159
(dp160
Vh
p161
I340
sVresize
p162
Vfit
p163
sVw
p164
I340
ssVlarge
p165
(dp166
g161
I1024
sg162
Vfit
p167
sg164
I1024
ssVmedium
p168
(dp169
g161
I600
sg162
Vfit
p170
sg164
I600
ssVthumb
p171
(dp172
g161
I150
sg162
Vcrop
p173
sg164
I150
sssVindices
p174
(lp175
I117
aI139
asVtype
p176
Vphoto
p177
sg33
I620986704166416384
sVmedia_url
p178
Vhttp://pbs.twimg.com/media/CJ4wHggUcAAIkLL.jpg
p179
sasVhashtags
p180
(lp181
(dp182
g174
(lp183
I48
aI51
asg133
VCH
p184
sasVuser_mentions
p185
(lp186
(dp187
g33
I627501106
sg174
(lp188
I62
aI71
asg42
V627501106
p189
sg72
VDdeBuman
p190
sg66
VDominique de Buman
p191
sa(dp192
g33
I2433946680
sg174
(lp193
I72
aI85
asg42
V2433946680
p194
sg72
VEXPEDITION_P
p195
sg66
VExpedition Plastik
p196
sa(dp197
g33
I59195104
sg174
(lp198
I86
aI95
asg42
V59195104
p199
sg72
VMyTreeTV
p200
sg66
VTREEmagazine
p201
sa(dp202
g33
I110690455
sg174
(lp203
I96
aI104
asg42
V110690455
p204
sg72
Vbiomish
p205
sg66
VMichel Pikhanov
p206
sa(dp207
g33
I2176097090
sg174
(lp208
I105
aI116
asg42
V2176097090
p209
sg72
VGreenGoWeb
p210
sg66
VGreenGo
p211
sasVtrends
p212
(lp213
sVurls
p214
(lp215
ssVin_reply_to_screen_name
p216
Nsg42
V620986721036038144
p217
sVretweet_count
p218
I0
sVin_reply_to_user_id
p219
NsVfavorited
p220
I00
sVuser
p221
g29
sVgeo
p222
NsVin_reply_to_user_id_str
p223
NsVpossibly_sensitive
p224
I00
sg68
g127
sg77
VTue Jul 14 16:02:26 +0000 2015
p225
sVfilter_level
p226
g122
sVin_reply_to_status_id_str
p227
NsVplace
p228
(dp229
Vfull_name
p230
VZurich, Switzerland
p231
sg75
Vhttps://api.twitter.com/1.1/geo/id/3acb748d0f1e9265.json
p232
sVcountry
p233
VSchweiz
p234
sVplace_type
p235
Vcity
p236
sVbounding_box
p237
(dp238
g176
VPolygon
p239
sg139
(lp240
(lp241
(lp242
F8.448081
aF47.320183
aa(lp243
F8.448081
aF47.434721
aa(lp244
F8.625442
aF47.434721
aa(lp245
F8.625442
aF47.320183
aaassVcountry_code
p246
VCH
p247
sVattributes
p248
(dp249
sg33
V3acb748d0f1e9265
p250
sg66
VZurich
p251
ssVextended_entities
p252
(dp253
g146
(lp254
(dp255
g149
Vhttp://twitter.com/BioApply/status/620986721036038144/photo/1
p256
sg151
Vpic.twitter.com/kPVradnudW
p257
sg75
Vhttp://t.co/kPVradnudW
p258
sg154
Vhttps://pbs.twimg.com/media/CJ4wHggUcAAIkLL.jpg
p259
sg42
V620986704166416384
p260
sg157
(dp261
g159
(dp262
g161
I340
sg162
Vfit
p263
sg164
I340
ssg165
(dp264
g161
I1024
sg162
Vfit
p265
sg164
I1024
ssg168
(dp266
g161
I600
sg162
Vfit
p267
sg164
I600
ssg171
(dp268
g161
I150
sg162
Vcrop
p269
sg164
I150
sssg174
(lp270
I117
aI139
asg176
Vphoto
p271
sg33
I620986704166416384
sg178
Vhttp://pbs.twimg.com/media/CJ4wHggUcAAIkLL.jpg
p272
sasssS'coordinates'
p273
NsS'timestamp_ms'
p274
g141
sS'entities'
p275
g143
sS'in_reply_to_status_id_str'
p276
NsS'in_reply_to_screen_name'
p277
Nsg91
g217
sS'extended_entities'
p278
g253
sS'retweeted'
p279
I00
sS'place'
p280
g0
(ctweepy.models
Place
p281
g2
Ntp282
Rp283
(dp284
S'full_name'
p285
g231
sg109
g232
sS'country'
p286
g234
sS'place_type'
p287
g236
sS'bounding_box'
p288
g0
(ctweepy.models
BoundingBox
p289
g2
Ntp290
Rp291
(dp292
S'type'
p293
g239
sg273
g240
sbsS'country_code'
p294
g247
sS'attributes'
p295
g249
sg24
g250
sg103
g251
sbsS'retweet_count'
p296
I0
sg110
g111
(S'\x07\xdf\x07\x0e\x10\x02\x1a\x00\x00\x00'
p297
tp298
Rp299
sS'in_reply_to_user_id'
p300
Nsb.