ccopy_reg
_reconstructor
p0
(ctweepy.models
Status
p1
c__builtin__
object
p2
Ntp3
Rp4
(dp5
S'favorited'
p6
I00
sS'contributors'
p7
NsS'truncated'
p8
I00
sS'text'
p9
V\u041a\u0430\u043a \u0445\u043e\u0440\u043e\u0448\u043e \u0447\u0442\u043e \u0432 \u043d\u0430\u0448\u0435\u043c \u043d\u0430\u0441\u0442\u043e\u044f\u0449\u0435\u043c \u0432\u0441\u0435 \u043f\u0440\u0430\u0432\u0438\u0442\u0435\u043b\u044c\u0441\u0442\u0432\u0430 \u0441\u0432\u043e\u0431\u043e\u0434\u043d\u044b \u0438\u0437\u0431\u0438\u0440\u0430\u044e\u0442\u0441\u044f \u043d\u0430\u0440\u043e\u0434\u043e\u043c \u0438 \u043e\u0442\u0432\u0435\u0447\u0430\u044e\u0442 \u043f\u0435\u0440\u0435\u0434 \u043d\u0438\u043c \u0430 \u0441\u043e\u0432\u0435\u0441\u0442\u044c \u043e\u043f\u0440\u0435\u0434\u0435\u043b\u044f\u0435\u0442 \u0432\u0441\u0435 \u0438\u0445 \u0434\u0435\u0439\u0441\u0442\u0432\u0438\u044f
p10
sS'source_url'
p11
Vhttp://twitter.com
p12
sS'possibly_sensitive'
p13
I01
sS'in_reply_to_status_id'
p14
NsS'user'
p15
g0
(ctweepy.models
User
p16
g2
Ntp17
Rp18
(dp19
S'follow_request_sent'
p20
NsS'profile_use_background_image'
p21
I01
sS'profile_sidebar_fill_color'
p22
V1C1610
p23
sS'id'
p24
I328935502
sS'verified'
p25
I00
sS'profile_image_url_https'
p26
Vhttps://pbs.twimg.com/profile_images/530859726909624321/Pzrp59_-_normal.png
p27
sS'_json'
p28
(dp29
Vfollow_request_sent
p30
NsVprofile_use_background_image
p31
I01
sVdefault_profile_image
p32
I00
sVid
p33
I328935502
sVverified
p34
I00
sVprofile_image_url_https
p35
g27
sVprofile_sidebar_fill_color
p36
g23
sVprofile_text_color
p37
VAD7B18
p38
sVfollowers_count
p39
I4893
sVprofile_sidebar_border_color
p40
VFFFFFF
p41
sVid_str
p42
V328935502
p43
sVprofile_background_color
p44
V3F452C
p45
sVlisted_count
p46
I107
sVprofile_background_image_url_https
p47
Vhttps://pbs.twimg.com/profile_background_images/378800000019759781/b325b55a4e6b15404d077b782dc9abb1.png
p48
sVutc_offset
p49
I14400
sVstatuses_count
p50
I1564
sVdescription
p51
V@18+ ...\u0433\u043b\u044f\u0434\u044f \u043d\u0430 \u043b\u043e\u0448\u0430\u0434\u0438\u043d\u044b\u0435 \u043c\u043e\u0440\u0434\u044b \u0438 \u043b\u0438\u0446\u0430 \u043b\u044e\u0434\u0435\u0439, \u043d\u0430 \u0431\u0435\u0437\u0431\u0440\u0435\u0436\u043d\u044b\u0439 \u0436\u0438\u0432\u043e\u0439 \u043f\u043e\u0442\u043e\u043a, \u043f\u043e\u0434\u043d\u044f\u0442\u044b\u0439 \u043c\u043e\u0435\u0439 \u0432\u043e\u043b\u0435\u0439 \u0438 \u043c\u0447\u0430\u0449\u0438\u0439\u0441\u044f..
p52
sVfriends_count
p53
I57
sVlocation
p54
VXuiasia
p55
sVprofile_link_color
p56
V63802E
p57
sVprofile_image_url
p58
Vhttp://pbs.twimg.com/profile_images/530859726909624321/Pzrp59_-_normal.png
p59
sVfollowing
p60
NsVgeo_enabled
p61
I01
sVprofile_banner_url
p62
Vhttps://pbs.twimg.com/profile_banners/328935502/1415401837
p63
sVprofile_background_image_url
p64
Vhttp://pbs.twimg.com/profile_background_images/378800000019759781/b325b55a4e6b15404d077b782dc9abb1.png
p65
sVname
p66
V\u0427E\u041f\u0410\u0419! 18+
p67
sVlang
p68
Ven
p69
sVprofile_background_tile
p70
I01
sVfavourites_count
p71
I25072
sVscreen_name
p72
VVOLGA_SUN
p73
sVnotifications
p74
NsVurl
p75
Vhttps://blockchain.info/address/1M6gwbgH3yoZPtkKJceCaX8AueSffq2LLw
p76
sVcreated_at
p77
VMon Jul 04 08:51:56 +0000 2011
p78
sVcontributors_enabled
p79
I00
sVtime_zone
p80
VTbilisi
p81
sVprotected
p82
I00
sVdefault_profile
p83
I00
sVis_translator
p84
I00
ssS'contributors_enabled'
p85
I00
sS'profile_text_color'
p86
g38
sS'followers_count'
p87
I4893
sS'profile_sidebar_border_color'
p88
g41
sS'location'
p89
g55
sS'default_profile_image'
p90
I00
sS'id_str'
p91
g43
sS'utc_offset'
p92
I14400
sS'statuses_count'
p93
I1564
sS'description'
p94
g52
sS'friends_count'
p95
I57
sS'profile_link_color'
p96
g57
sS'profile_image_url'
p97
g59
sS'notifications'
p98
NsS'geo_enabled'
p99
I01
sS'profile_background_color'
p100
g45
sS'profile_banner_url'
p101
g63
sS'profile_background_image_url'
p102
g65
sS'name'
p103
g67
sS'lang'
p104
g69
sS'following'
p105
I00
sS'profile_background_tile'
p106
I01
sS'favourites_count'
p107
I25072
sS'screen_name'
p108
g73
sS'url'
p109
g76
sS'created_at'
p110
cdatetime
datetime
p111
(S'\x07\xdb\x07\x04\x0838\x00\x00\x00'
p112
tp113
Rp114
sS'profile_background_image_url_https'
p115
g48
sS'time_zone'
p116
g81
sS'protected'
p117
I00
sS'default_profile'
p118
I00
sS'is_translator'
p119
I00
sS'listed_count'
p120
I107
sbsS'filter_level'
p121
Vlow
p122
sS'geo'
p123
Nsg24
I620159276288471040
sS'favorite_count'
p124
I0
sS'source'
p125
VTwitter Web Client
p126
sg104
Vru
p127
sS'author'
p128
g18
sS'in_reply_to_user_id_str'
p129
Nsg28
(dp130
Vcontributors
p131
NsVtruncated
p132
I00
sVtext
p133
g10
sVin_reply_to_status_id
p134
Nsg33
I620159276288471040
sVfavorite_count
p135
I0
sVsource
p136
V<a href="http://twitter.com" rel="nofollow">Twitter Web Client</a>
p137
sVretweeted
p138
I00
sVcoordinates
p139
NsVtimestamp_ms
p140
V1436692468126
p141
sVentities
p142
(dp143
Vuser_mentions
p144
(lp145
sVsymbols
p146
(lp147
sVtrends
p148
(lp149
sVhashtags
p150
(lp151
sVurls
p152
(lp153
ssVin_reply_to_screen_name
p154
Nsg42
V620159276288471040
p155
sVretweet_count
p156
I0
sVin_reply_to_user_id
p157
NsVfavorited
p158
I00
sVuser
p159
g29
sVgeo
p160
NsVin_reply_to_user_id_str
p161
NsVpossibly_sensitive
p162
I01
sg68
g127
sg77
VSun Jul 12 09:14:28 +0000 2015
p163
sVfilter_level
p164
g122
sVin_reply_to_status_id_str
p165
NsVplace
p166
(dp167
Vfull_name
p168
VZurich, Switzerland
p169
sg75
Vhttps://api.twitter.com/1.1/geo/id/3acb748d0f1e9265.json
p170
sVcountry
p171
VSchweiz
p172
sVplace_type
p173
Vcity
p174
sVbounding_box
p175
(dp176
Vtype
p177
VPolygon
p178
sg139
(lp179
(lp180
(lp181
F8.448081
aF47.320183
aa(lp182
F8.448081
aF47.434721
aa(lp183
F8.625442
aF47.434721
aa(lp184
F8.625442
aF47.320183
aaassVcountry_code
p185
VCH
p186
sVattributes
p187
(dp188
sg33
V3acb748d0f1e9265
p189
sg66
VZurich
p190
sssS'coordinates'
p191
NsS'timestamp_ms'
p192
g141
sS'entities'
p193
g143
sS'in_reply_to_status_id_str'
p194
NsS'in_reply_to_screen_name'
p195
Nsg91
g155
sS'retweeted'
p196
I00
sS'place'
p197
g0
(ctweepy.models
Place
p198
g2
Ntp199
Rp200
(dp201
S'full_name'
p202
g169
sg109
g170
sS'country'
p203
g172
sS'place_type'
p204
g174
sS'bounding_box'
p205
g0
(ctweepy.models
BoundingBox
p206
g2
Ntp207
Rp208
(dp209
S'type'
p210
g178
sg191
g179
sbsS'country_code'
p211
g186
sS'attributes'
p212
g188
sg24
g189
sg103
g190
sbsS'retweet_count'
p213
I0
sg110
g111
(S'\x07\xdf\x07\x0c\t\x0e\x1c\x00\x00\x00'
p214
tp215
Rp216
sS'in_reply_to_user_id'
p217
Nsb.