ccopy_reg
_reconstructor
p0
(ctweepy.models
Status
p1
c__builtin__
object
p2
Ntp3
Rp4
(dp5
S'favorited'
p6
I00
sS'contributors'
p7
NsS'truncated'
p8
I00
sS'text'
p9
V@fkstylinson JA, a mi me ignoran siempre forever alone\u000amuy bien tu?
p10
sS'source_url'
p11
Vhttp://twitter.com
p12
sS'possibly_sensitive'
p13
I00
sS'in_reply_to_status_id'
p14
I619616487909818369
sS'user'
p15
g0
(ctweepy.models
User
p16
g2
Ntp17
Rp18
(dp19
S'follow_request_sent'
p20
NsS'profile_use_background_image'
p21
I01
sS'profile_sidebar_fill_color'
p22
VE5507E
p23
sS'id'
p24
I130640431
sS'verified'
p25
I00
sS'profile_image_url_https'
p26
Vhttps://pbs.twimg.com/profile_images/618149327953858560/5bf39rkP_normal.jpg
p27
sS'_json'
p28
(dp29
Vfollow_request_sent
p30
NsVprofile_use_background_image
p31
I01
sVdefault_profile_image
p32
I00
sVid
p33
I130640431
sVverified
p34
I00
sVprofile_image_url_https
p35
g27
sVprofile_sidebar_fill_color
p36
g23
sVprofile_text_color
p37
V362720
p38
sVfollowers_count
p39
I688
sVprofile_sidebar_border_color
p40
VFFFFFF
p41
sVid_str
p42
V130640431
p43
sVprofile_background_color
p44
VFF6699
p45
sVlisted_count
p46
I6
sVprofile_background_image_url_https
p47
Vhttps://pbs.twimg.com/profile_background_images/779686728/8d70c90d4aa2e311f145a56a531ffbbf.jpeg
p48
sVutc_offset
p49
I-36000
sVstatuses_count
p50
I31039
sVdescription
p51
V\u27284 in our eyes 5 in our hearts\u2728 \u2716\ufe0fNiallgirl\u2716\ufe0f Nuestros hilos rojos estan unidos.
p52
sVfriends_count
p53
I654
sVlocation
p54
V
p55
sVprofile_link_color
p56
VB40B43
p57
sVprofile_image_url
p58
Vhttp://pbs.twimg.com/profile_images/618149327953858560/5bf39rkP_normal.jpg
p59
sVfollowing
p60
NsVgeo_enabled
p61
I01
sVprofile_banner_url
p62
Vhttps://pbs.twimg.com/profile_banners/130640431/1434396096
p63
sVprofile_background_image_url
p64
Vhttp://pbs.twimg.com/profile_background_images/779686728/8d70c90d4aa2e311f145a56a531ffbbf.jpeg
p65
sVname
p66
V\u274c TYSM OTY/GD3 \u274c
p67
sVlang
p68
Ves
p69
sVprofile_background_tile
p70
I01
sVfavourites_count
p71
I255
sVscreen_name
p72
VFvpz05
p73
sVnotifications
p74
NsVurl
p75
Vhttp://noisetrade.com/cimorelli/hearts-on-fire
p76
sVcreated_at
p77
VWed Apr 07 22:10:59 +0000 2010
p78
sVcontributors_enabled
p79
I00
sVtime_zone
p80
VHawaii
p81
sVprotected
p82
I00
sVdefault_profile
p83
I00
sVis_translator
p84
I00
ssS'contributors_enabled'
p85
I00
sS'profile_text_color'
p86
g38
sS'followers_count'
p87
I688
sS'profile_sidebar_border_color'
p88
g41
sS'location'
p89
g55
sS'default_profile_image'
p90
I00
sS'id_str'
p91
g43
sS'utc_offset'
p92
I-36000
sS'statuses_count'
p93
I31039
sS'description'
p94
g52
sS'friends_count'
p95
I654
sS'profile_link_color'
p96
g57
sS'profile_image_url'
p97
g59
sS'notifications'
p98
NsS'geo_enabled'
p99
I01
sS'profile_background_color'
p100
g45
sS'profile_banner_url'
p101
g63
sS'profile_background_image_url'
p102
g65
sS'name'
p103
g67
sS'lang'
p104
g69
sS'following'
p105
I00
sS'profile_background_tile'
p106
I01
sS'favourites_count'
p107
I255
sS'screen_name'
p108
g73
sS'url'
p109
g76
sS'created_at'
p110
cdatetime
datetime
p111
(S'\x07\xda\x04\x07\x16\n;\x00\x00\x00'
p112
tp113
Rp114
sS'profile_background_image_url_https'
p115
g48
sS'time_zone'
p116
g81
sS'protected'
p117
I00
sS'default_profile'
p118
I00
sS'is_translator'
p119
I00
sS'listed_count'
p120
I6
sbsS'filter_level'
p121
Vlow
p122
sS'geo'
p123
Nsg24
I619616745507188736
sS'favorite_count'
p124
I0
sS'source'
p125
VTwitter Web Client
p126
sg104
Ves
p127
sS'author'
p128
g18
sS'in_reply_to_user_id_str'
p129
V853904112
p130
sg28
(dp131
Vcontributors
p132
NsVtruncated
p133
I00
sVtext
p134
V@fkstylinson JA, a mi me ignoran siempre forever alone\u000amuy bien tu?
p135
sVin_reply_to_status_id
p136
I619616487909818369
sg33
I619616745507188736
sVfavorite_count
p137
I0
sVsource
p138
V<a href="http://twitter.com" rel="nofollow">Twitter Web Client</a>
p139
sVretweeted
p140
I00
sVcoordinates
p141
NsVtimestamp_ms
p142
V1436563118708
p143
sVentities
p144
(dp145
Vuser_mentions
p146
(lp147
(dp148
g33
I853904112
sVindices
p149
(lp150
I0
aI12
asg42
V853904112
p151
sg72
Vfkstylinson
p152
sg66
VLern Jergi 
p153
sasVsymbols
p154
(lp155
sVtrends
p156
(lp157
sVhashtags
p158
(lp159
sVurls
p160
(lp161
ssVin_reply_to_screen_name
p162
Vfkstylinson
p163
sg42
V619616745507188736
p164
sVretweet_count
p165
I0
sVin_reply_to_user_id
p166
I853904112
sVfavorited
p167
I00
sVuser
p168
g29
sVgeo
p169
NsVin_reply_to_user_id_str
p170
g130
sVpossibly_sensitive
p171
I00
sg68
g127
sg77
VFri Jul 10 21:18:38 +0000 2015
p172
sVfilter_level
p173
g122
sVin_reply_to_status_id_str
p174
V619616487909818369
p175
sVplace
p176
(dp177
Vfull_name
p178
VZurich, Suiza
p179
sg75
Vhttps://api.twitter.com/1.1/geo/id/db94c1cccc67c4f4.json
p180
sVcountry
p181
VSchweiz
p182
sVplace_type
p183
Vadmin
p184
sVbounding_box
p185
(dp186
Vtype
p187
VPolygon
p188
sg141
(lp189
(lp190
(lp191
F8.357749
aF47.159384
aa(lp192
F8.357749
aF47.694503
aa(lp193
F8.984445
aF47.694503
aa(lp194
F8.984445
aF47.159384
aaassVcountry_code
p195
VCH
p196
sVattributes
p197
(dp198
sg33
Vdb94c1cccc67c4f4
p199
sg66
VZurich
p200
sssS'coordinates'
p201
NsS'timestamp_ms'
p202
g143
sS'entities'
p203
g145
sS'in_reply_to_status_id_str'
p204
g175
sS'in_reply_to_screen_name'
p205
g163
sg91
g164
sS'retweeted'
p206
I00
sS'place'
p207
g0
(ctweepy.models
Place
p208
g2
Ntp209
Rp210
(dp211
S'full_name'
p212
g179
sg109
g180
sS'country'
p213
g182
sS'place_type'
p214
g184
sS'bounding_box'
p215
g0
(ctweepy.models
BoundingBox
p216
g2
Ntp217
Rp218
(dp219
S'type'
p220
g188
sg201
g189
sbsS'country_code'
p221
g196
sS'attributes'
p222
g198
sg24
g199
sg103
g200
sbsS'retweet_count'
p223
I0
sg110
g111
(S'\x07\xdf\x07\n\x15\x12&\x00\x00\x00'
p224
tp225
Rp226
sS'in_reply_to_user_id'
p227
I853904112
sb.