ccopy_reg
_reconstructor
p0
(ctweepy.models
Status
p1
c__builtin__
object
p2
Ntp3
Rp4
(dp5
S'favorited'
p6
I00
sS'contributors'
p7
NsS'truncated'
p8
I00
sS'text'
p9
V@Montecitorio @uambrosoli Probabile COMMESTIONE tra MAFIA e POLITICA  .O no ?
p10
sS'source_url'
p11
Vhttp://twitter.com
p12
sS'possibly_sensitive'
p13
I00
sS'in_reply_to_status_id'
p14
I619769851574362112
sS'user'
p15
g0
(ctweepy.models
User
p16
g2
Ntp17
Rp18
(dp19
S'follow_request_sent'
p20
NsS'profile_use_background_image'
p21
I01
sS'profile_sidebar_fill_color'
p22
VDDEEF6
p23
sS'id'
p24
I1128044090
sS'verified'
p25
I00
sS'profile_image_url_https'
p26
Vhttps://pbs.twimg.com/profile_images/468467588524015616/YYs0ZsRl_normal.jpeg
p27
sS'_json'
p28
(dp29
Vfollow_request_sent
p30
NsVprofile_use_background_image
p31
I01
sVdefault_profile_image
p32
I00
sVid
p33
I1128044090
sVverified
p34
I00
sVprofile_image_url_https
p35
g27
sVprofile_sidebar_fill_color
p36
g23
sVprofile_text_color
p37
V333333
p38
sVfollowers_count
p39
I38
sVprofile_sidebar_border_color
p40
VC0DEED
p41
sVid_str
p42
V1128044090
p43
sVprofile_background_color
p44
VC0DEED
p45
sVlisted_count
p46
I0
sVprofile_background_image_url_https
p47
Vhttps://abs.twimg.com/images/themes/theme1/bg.png
p48
sVutc_offset
p49
I10800
sVstatuses_count
p50
I9446
sVdescription
p51
NsVfriends_count
p52
I79
sVlocation
p53
V
p54
sVprofile_link_color
p55
V0084B4
p56
sVprofile_image_url
p57
Vhttp://pbs.twimg.com/profile_images/468467588524015616/YYs0ZsRl_normal.jpeg
p58
sVfollowing
p59
NsVgeo_enabled
p60
I01
sVprofile_background_image_url
p61
Vhttp://abs.twimg.com/images/themes/theme1/bg.png
p62
sVname
p63
Vfranco  de marco
p64
sVlang
p65
Vit
p66
sVprofile_background_tile
p67
I00
sVfavourites_count
p68
I6
sVscreen_name
p69
V_fdm1
p70
sVnotifications
p71
NsVurl
p72
NsVcreated_at
p73
VMon Jan 28 13:18:29 +0000 2013
p74
sVcontributors_enabled
p75
I00
sVtime_zone
p76
VAthens
p77
sVprotected
p78
I00
sVdefault_profile
p79
I01
sVis_translator
p80
I00
ssS'contributors_enabled'
p81
I00
sS'profile_text_color'
p82
g38
sS'followers_count'
p83
I38
sS'profile_sidebar_border_color'
p84
g41
sS'location'
p85
g54
sS'default_profile_image'
p86
I00
sS'id_str'
p87
g43
sS'utc_offset'
p88
I10800
sS'statuses_count'
p89
I9446
sS'description'
p90
NsS'friends_count'
p91
I79
sS'profile_link_color'
p92
g56
sS'profile_image_url'
p93
g58
sS'notifications'
p94
NsS'geo_enabled'
p95
I01
sS'profile_background_color'
p96
g45
sS'profile_background_image_url'
p97
g62
sS'name'
p98
g64
sS'lang'
p99
g66
sS'following'
p100
I00
sS'profile_background_tile'
p101
I00
sS'favourites_count'
p102
I6
sS'screen_name'
p103
g70
sS'url'
p104
NsS'created_at'
p105
cdatetime
datetime
p106
(S'\x07\xdd\x01\x1c\r\x12\x1d\x00\x00\x00'
p107
tp108
Rp109
sS'profile_background_image_url_https'
p110
g48
sS'time_zone'
p111
g77
sS'protected'
p112
I00
sS'default_profile'
p113
I01
sS'is_translator'
p114
I00
sS'listed_count'
p115
I0
sbsS'filter_level'
p116
Vlow
p117
sS'geo'
p118
Nsg24
I619855844302290945
sS'favorite_count'
p119
I0
sS'source'
p120
VTwitter Web Client
p121
sg99
Vit
p122
sS'author'
p123
g18
sS'in_reply_to_user_id_str'
p124
V2278995820
p125
sg28
(dp126
Vcontributors
p127
NsVtruncated
p128
I00
sVtext
p129
g10
sVin_reply_to_status_id
p130
I619769851574362112
sg33
I619855844302290945
sVfavorite_count
p131
I0
sVsource
p132
V<a href="http://twitter.com" rel="nofollow">Twitter Web Client</a>
p133
sVretweeted
p134
I00
sVcoordinates
p135
NsVtimestamp_ms
p136
V1436620124303
p137
sVentities
p138
(dp139
Vuser_mentions
p140
(lp141
(dp142
g33
I2278995820
sVindices
p143
(lp144
I0
aI13
asg42
V2278995820
p145
sg69
VMontecitorio
p146
sg63
VCamera dei deputati
p147
sa(dp148
g33
I53632842
sg143
(lp149
I14
aI25
asg42
V53632842
p150
sg69
Vuambrosoli
p151
sg63
VUmberto Ambrosoli
p152
sasVsymbols
p153
(lp154
sVtrends
p155
(lp156
sVhashtags
p157
(lp158
sVurls
p159
(lp160
ssVin_reply_to_screen_name
p161
VMontecitorio
p162
sg42
V619855844302290945
p163
sVretweet_count
p164
I0
sVin_reply_to_user_id
p165
I2278995820
sVfavorited
p166
I00
sVuser
p167
g29
sVgeo
p168
NsVin_reply_to_user_id_str
p169
g125
sVpossibly_sensitive
p170
I00
sg65
g122
sg73
VSat Jul 11 13:08:44 +0000 2015
p171
sVfilter_level
p172
g117
sVin_reply_to_status_id_str
p173
V619769851574362112
p174
sVplace
p175
(dp176
Vfull_name
p177
VZurigo, Svizzera
p178
sg72
Vhttps://api.twitter.com/1.1/geo/id/3acb748d0f1e9265.json
p179
sVcountry
p180
VSchweiz
p181
sVplace_type
p182
Vcity
p183
sVbounding_box
p184
(dp185
Vtype
p186
VPolygon
p187
sg135
(lp188
(lp189
(lp190
F8.448081
aF47.320183
aa(lp191
F8.448081
aF47.434721
aa(lp192
F8.625442
aF47.434721
aa(lp193
F8.625442
aF47.320183
aaassVcountry_code
p194
VCH
p195
sVattributes
p196
(dp197
sg33
V3acb748d0f1e9265
p198
sg63
VZurigo
p199
sssS'coordinates'
p200
NsS'timestamp_ms'
p201
g137
sS'entities'
p202
g139
sS'in_reply_to_status_id_str'
p203
g174
sS'in_reply_to_screen_name'
p204
g162
sg87
g163
sS'retweeted'
p205
I00
sS'place'
p206
g0
(ctweepy.models
Place
p207
g2
Ntp208
Rp209
(dp210
S'full_name'
p211
g178
sg104
g179
sS'country'
p212
g181
sS'place_type'
p213
g183
sS'bounding_box'
p214
g0
(ctweepy.models
BoundingBox
p215
g2
Ntp216
Rp217
(dp218
S'type'
p219
g187
sg200
g188
sbsS'country_code'
p220
g195
sS'attributes'
p221
g197
sg24
g198
sg98
g199
sbsS'retweet_count'
p222
I0
sg105
g106
(S'\x07\xdf\x07\x0b\r\x08,\x00\x00\x00'
p223
tp224
Rp225
sS'in_reply_to_user_id'
p226
I2278995820
sb.