ccopy_reg
_reconstructor
p0
(ctweepy.models
Status
p1
c__builtin__
object
p2
Ntp3
Rp4
(dp5
S'contributors'
p6
NsS'truncated'
p7
I00
sS'text'
p8
Vjoe you did a sterling job all round. a memorable night https://t.co/wt3tqerCAT
p9
sS'in_reply_to_status_id'
p10
NsS'id'
p11
I620921282041876480
sS'favorite_count'
p12
I0
sS'entities'
p13
(dp14
Vuser_mentions
p15
(lp16
sVsymbols
p17
(lp18
sVtrends
p19
(lp20
sVhashtags
p21
(lp22
sVurls
p23
(lp24
(dp25
Vurl
p26
Vhttps://t.co/wt3tqerCAT
p27
sVindices
p28
(lp29
I56
aI79
asVexpanded_url
p30
Vhttps://twitter.com/EASYSTRIDEBAND/status/618822798413312000
p31
sVdisplay_url
p32
Vtwitter.com/EASYSTRIDEBAND\u2026
p33
sassS'quoted_status_id'
p34
I618822798413312000
sS'_json'
p35
(dp36
Vcontributors
p37
NsVtruncated
p38
I00
sVtext
p39
g9
sVin_reply_to_status_id
p40
NsVid
p41
I620921282041876480
sVfavorite_count
p42
I0
sVsource
p43
V<a href="http://twitter.com" rel="nofollow">Twitter Web Client</a>
p44
sVquoted_status_id
p45
I618822798413312000
sVretweeted
p46
I00
sVcoordinates
p47
NsVtimestamp_ms
p48
V1436874144455
p49
sVquoted_status
p50
(dp51
g37
Nsg38
I00
sg39
VBig honour to support the mighty @MERZmusic last night at the Pineapple club! @PledgeMusic #pledgeonthescene @YellBrickMusic
p52
sg40
Nsg41
I618822798413312000
sg42
I0
sg43
V<a href="http://twitter.com/download/iphone" rel="nofollow">Twitter for iPhone</a>
p53
sg46
I00
sg47
NsVentities
p54
(dp55
g15
(lp56
(dp57
g41
I133828602
sg28
(lp58
I33
aI43
asVid_str
p59
V133828602
p60
sVscreen_name
p61
VMERZmusic
p62
sVname
p63
VMerz
p64
sa(dp65
g41
I34278049
sg28
(lp66
I78
aI90
asg59
V34278049
p67
sg61
VPledgeMusic
p68
sg63
VPledgeMusic
p69
sa(dp70
g41
I619159466
sg28
(lp71
I109
aI124
asg59
V619159466
p72
sg61
VYellBrickMusic
p73
sg63
VYellowbrick Music
p74
sasg17
(lp75
sg19
(lp76
sg21
(lp77
(dp78
g28
(lp79
I91
aI108
asg39
Vpledgeonthescene
p80
sasg23
(lp81
ssVin_reply_to_screen_name
p82
Nsg59
V618822798413312000
p83
sVretweet_count
p84
I0
sVin_reply_to_user_id
p85
NsVfavorited
p86
I00
sVuser
p87
(dp88
Vfollow_request_sent
p89
NsVprofile_use_background_image
p90
I01
sVdefault_profile_image
p91
I00
sg41
I464808284
sVverified
p92
I00
sVprofile_image_url_https
p93
Vhttps://pbs.twimg.com/profile_images/619239697856860162/5p3TXpw1_normal.jpg
p94
sVprofile_sidebar_fill_color
p95
VDDEEF6
p96
sVprofile_text_color
p97
V333333
p98
sVfollowers_count
p99
I272
sVprofile_sidebar_border_color
p100
VFFFFFF
p101
sg59
V464808284
p102
sVprofile_background_color
p103
VC0DEED
p104
sVlisted_count
p105
I3
sVprofile_background_image_url_https
p106
Vhttps://pbs.twimg.com/profile_background_images/619241974038532096/97r71mrR.jpg
p107
sVutc_offset
p108
I-25200
sVstatuses_count
p109
I630
sVdescription
p110
VReggae, Beats, Bass
p111
sVfriends_count
p112
I470
sVlocation
p113
V
p114
sVprofile_link_color
p115
V0084B4
p116
sVprofile_image_url
p117
Vhttp://pbs.twimg.com/profile_images/619239697856860162/5p3TXpw1_normal.jpg
p118
sVfollowing
p119
NsVgeo_enabled
p120
I00
sVprofile_banner_url
p121
Vhttps://pbs.twimg.com/profile_banners/464808284/1436473958
p122
sVprofile_background_image_url
p123
Vhttp://pbs.twimg.com/profile_background_images/619241974038532096/97r71mrR.jpg
p124
sg63
VEASY STRIDE BAND
p125
sVlang
p126
Ven
p127
sVprofile_background_tile
p128
I00
sVfavourites_count
p129
I136
sg61
VEASYSTRIDEBAND
p130
sVnotifications
p131
Nsg26
Vhttp://www.easystrideband.com
p132
sVcreated_at
p133
VSun Jan 15 17:06:30 +0000 2012
p134
sVcontributors_enabled
p135
I00
sVtime_zone
p136
VPacific Time (US & Canada)
p137
sVprotected
p138
I00
sVdefault_profile
p139
I00
sVis_translator
p140
I00
ssVgeo
p141
NsVin_reply_to_user_id_str
p142
NsVpossibly_sensitive
p143
I00
sg126
Ven
p144
sg133
VWed Jul 08 16:43:46 +0000 2015
p145
sVfilter_level
p146
Vlow
p147
sVin_reply_to_status_id_str
p148
NsVplace
p149
Nssg54
g14
sg82
Nsg59
V620921282041876480
p150
sg84
I0
sg85
Nsg86
I00
sg87
(dp151
g89
Nsg90
I00
sg91
I00
sg41
I133828602
sg92
I00
sg93
Vhttps://pbs.twimg.com/profile_images/423867971379802112/3xV0G1lN_normal.jpeg
p152
sg95
V000000
p153
sg97
V000000
p154
sg99
I429
sg100
V000000
p155
sg59
V133828602
p156
sg103
V000000
p157
sg105
I13
sg106
Vhttps://abs.twimg.com/images/themes/theme14/bg.gif
p158
sg108
I7200
sg109
I1963
sg110
VThinking Like A Mountain
p159
sg112
I191
sg113
g114
sg115
V3B94D9
p160
sg117
Vhttp://pbs.twimg.com/profile_images/423867971379802112/3xV0G1lN_normal.jpeg
p161
sg119
Nsg120
I01
sg121
Vhttps://pbs.twimg.com/profile_banners/133828602/1432684786
p162
sg123
Vhttp://abs.twimg.com/images/themes/theme14/bg.gif
p163
sg63
VMerz
p164
sg126
Ven
p165
sg128
I00
sg129
I465
sg61
VMERZmusic
p166
sg131
Nsg26
Vhttp://www.merz.co.uk/shows
p167
sg133
VFri Apr 16 18:52:21 +0000 2010
p168
sg135
I00
sg136
VBern
p169
sg138
I00
sg139
I00
sg140
I00
ssg141
Nsg142
Nsg143
I00
sg126
Ven
p170
sg133
VTue Jul 14 11:42:24 +0000 2015
p171
sVquoted_status_id_str
p172
V618822798413312000
p173
sg146
Vlow
p174
sg148
Nsg149
(dp175
Vfull_name
p176
VBerne, Switzerland
p177
sg26
Vhttps://api.twitter.com/1.1/geo/id/5868d0e0749c9c47.json
p178
sVcountry
p179
VSchweiz
p180
sVplace_type
p181
Vadmin
p182
sVbounding_box
p183
(dp184
Vtype
p185
VPolygon
p186
sg47
(lp187
(lp188
(lp189
F6.861601
aF46.326441
aa(lp190
F6.861601
aF47.34528
aa(lp191
F8.455051
aF47.34528
aa(lp192
F8.455051
aF46.326441
aaassVcountry_code
p193
VCH
p194
sVattributes
p195
(dp196
sg41
V5868d0e0749c9c47
p197
sg63
VBern
p198
sssS'coordinates'
p199
NsS'timestamp_ms'
p200
g49
sS'quoted_status'
p201
g51
sS'source'
p202
VTwitter Web Client
p203
sS'in_reply_to_screen_name'
p204
NsS'id_str'
p205
g150
sS'retweet_count'
p206
I0
sS'in_reply_to_user_id'
p207
NsS'favorited'
p208
I00
sS'source_url'
p209
Vhttp://twitter.com
p210
sS'user'
p211
g0
(ctweepy.models
User
p212
g2
Ntp213
Rp214
(dp215
S'follow_request_sent'
p216
NsS'profile_use_background_image'
p217
I00
sS'profile_sidebar_fill_color'
p218
g153
sg11
I133828602
sS'verified'
p219
I00
sS'profile_image_url_https'
p220
g152
sg35
g151
sS'contributors_enabled'
p221
I00
sS'profile_text_color'
p222
g154
sS'followers_count'
p223
I429
sS'profile_sidebar_border_color'
p224
g155
sS'location'
p225
g114
sS'default_profile_image'
p226
I00
sg205
g156
sS'utc_offset'
p227
I7200
sS'statuses_count'
p228
I1963
sS'description'
p229
g159
sS'friends_count'
p230
I191
sS'profile_link_color'
p231
g160
sS'profile_image_url'
p232
g161
sS'notifications'
p233
NsS'geo_enabled'
p234
I01
sS'profile_background_color'
p235
g157
sS'profile_banner_url'
p236
g162
sS'profile_background_image_url'
p237
g163
sS'name'
p238
g164
sS'lang'
p239
g165
sS'following'
p240
I00
sS'profile_background_tile'
p241
I00
sS'favourites_count'
p242
I465
sS'screen_name'
p243
g166
sS'url'
p244
g167
sS'created_at'
p245
cdatetime
datetime
p246
(S'\x07\xda\x04\x10\x124\x15\x00\x00\x00'
p247
tp248
Rp249
sS'profile_background_image_url_https'
p250
g158
sS'time_zone'
p251
g169
sS'protected'
p252
I00
sS'default_profile'
p253
I00
sS'is_translator'
p254
I00
sS'listed_count'
p255
I13
sbsS'geo'
p256
NsS'in_reply_to_user_id_str'
p257
NsS'possibly_sensitive'
p258
I00
sg239
g170
sg245
g246
(S'\x07\xdf\x07\x0e\x0b*\x18\x00\x00\x00'
p259
tp260
Rp261
sS'author'
p262
g214
sS'quoted_status_id_str'
p263
g173
sS'filter_level'
p264
g174
sS'in_reply_to_status_id_str'
p265
NsS'place'
p266
g0
(ctweepy.models
Place
p267
g2
Ntp268
Rp269
(dp270
S'full_name'
p271
g177
sg244
g178
sS'country'
p272
g180
sS'place_type'
p273
g182
sS'bounding_box'
p274
g0
(ctweepy.models
BoundingBox
p275
g2
Ntp276
Rp277
(dp278
S'type'
p279
g186
sg199
g187
sbsS'country_code'
p280
g194
sS'attributes'
p281
g196
sg11
g197
sg238
g198
sbsS'retweeted'
p282
I00
sb.