ccopy_reg
_reconstructor
p0
(ctweepy.models
Status
p1
c__builtin__
object
p2
Ntp3
Rp4
(dp5
S'favorited'
p6
I00
sS'contributors'
p7
NsS'truncated'
p8
I00
sS'text'
p9
V@BRICS2015_Rus http://t.co/Xgk4PBXKKZ
p10
sS'source_url'
p11
Vhttp://twitter.com
p12
sS'possibly_sensitive'
p13
I00
sS'in_reply_to_status_id'
p14
I619153565869834240
sS'user'
p15
g0
(ctweepy.models
User
p16
g2
Ntp17
Rp18
(dp19
S'follow_request_sent'
p20
NsS'profile_use_background_image'
p21
I01
sS'profile_sidebar_fill_color'
p22
VDDEEF6
p23
sS'id'
p24
I1308012740
sS'verified'
p25
I00
sS'profile_image_url_https'
p26
Vhttps://pbs.twimg.com/profile_images/521638961199214592/jbdc5PSP_normal.jpeg
p27
sS'_json'
p28
(dp29
Vfollow_request_sent
p30
NsVprofile_use_background_image
p31
I01
sVdefault_profile_image
p32
I00
sVid
p33
I1308012740
sVverified
p34
I00
sVprofile_image_url_https
p35
g27
sVprofile_sidebar_fill_color
p36
g23
sVprofile_text_color
p37
V333333
p38
sVfollowers_count
p39
I87
sVprofile_sidebar_border_color
p40
VC0DEED
p41
sVid_str
p42
V1308012740
p43
sVprofile_background_color
p44
VC0DEED
p45
sVlisted_count
p46
I2
sVprofile_background_image_url_https
p47
Vhttps://pbs.twimg.com/profile_background_images/559046890394628096/3gUugHju.jpeg
p48
sVutc_offset
p49
I7200
sVstatuses_count
p50
I1699
sVdescription
p51
VInternational Trade.Investment.Project Promoter PATSCO SWITZERLAND
p52
sVfriends_count
p53
I321
sVlocation
p54
VCH 8840 Switzerland
p55
sVprofile_link_color
p56
V0084B4
p57
sVprofile_image_url
p58
Vhttp://pbs.twimg.com/profile_images/521638961199214592/jbdc5PSP_normal.jpeg
p59
sVfollowing
p60
NsVgeo_enabled
p61
I01
sVprofile_banner_url
p62
Vhttps://pbs.twimg.com/profile_banners/1308012740/1422122250
p63
sVprofile_background_image_url
p64
Vhttp://pbs.twimg.com/profile_background_images/559046890394628096/3gUugHju.jpeg
p65
sVname
p66
VPatrick PARAMAN
p67
sVlang
p68
Ven
p69
sVprofile_background_tile
p70
I00
sVfavourites_count
p71
I38
sVscreen_name
p72
VPatrickPARAMAN
p73
sVnotifications
p74
NsVurl
p75
Vhttp://www.patsco.ch
p76
sVcreated_at
p77
VWed Mar 27 16:55:41 +0000 2013
p78
sVcontributors_enabled
p79
I00
sVtime_zone
p80
VBern
p81
sVprotected
p82
I00
sVdefault_profile
p83
I00
sVis_translator
p84
I00
ssS'contributors_enabled'
p85
I00
sS'profile_text_color'
p86
g38
sS'followers_count'
p87
I87
sS'profile_sidebar_border_color'
p88
g41
sS'location'
p89
g55
sS'default_profile_image'
p90
I00
sS'id_str'
p91
g43
sS'utc_offset'
p92
I7200
sS'statuses_count'
p93
I1699
sS'description'
p94
g52
sS'friends_count'
p95
I321
sS'profile_link_color'
p96
g57
sS'profile_image_url'
p97
g59
sS'notifications'
p98
NsS'geo_enabled'
p99
I01
sS'profile_background_color'
p100
g45
sS'profile_banner_url'
p101
g63
sS'profile_background_image_url'
p102
g65
sS'name'
p103
g67
sS'lang'
p104
g69
sS'following'
p105
I00
sS'profile_background_tile'
p106
I00
sS'favourites_count'
p107
I38
sS'screen_name'
p108
g73
sS'url'
p109
g76
sS'created_at'
p110
cdatetime
datetime
p111
(S'\x07\xdd\x03\x1b\x107)\x00\x00\x00'
p112
tp113
Rp114
sS'profile_background_image_url_https'
p115
g48
sS'time_zone'
p116
g81
sS'protected'
p117
I00
sS'default_profile'
p118
I00
sS'is_translator'
p119
I00
sS'listed_count'
p120
I2
sbsS'filter_level'
p121
Vlow
p122
sS'geo'
p123
Nsg24
I619970157637693440
sS'favorite_count'
p124
I0
sS'source'
p125
VTwitter Web Client
p126
sg104
Vund
p127
sS'author'
p128
g18
sS'in_reply_to_user_id_str'
p129
V3107447944
p130
sg28
(dp131
Vcontributors
p132
NsVtruncated
p133
I00
sVtext
p134
g10
sVin_reply_to_status_id
p135
I619153565869834240
sg33
I619970157637693440
sVfavorite_count
p136
I0
sVsource
p137
V<a href="http://twitter.com" rel="nofollow">Twitter Web Client</a>
p138
sVretweeted
p139
I00
sVcoordinates
p140
NsVtimestamp_ms
p141
V1436647378726
p142
sVentities
p143
(dp144
Vsymbols
p145
(lp146
sVmedia
p147
(lp148
(dp149
Vexpanded_url
p150
Vhttp://twitter.com/PatrickPARAMAN/status/619970157637693440/photo/1
p151
sVdisplay_url
p152
Vpic.twitter.com/Xgk4PBXKKZ
p153
sg75
Vhttp://t.co/Xgk4PBXKKZ
p154
sVmedia_url_https
p155
Vhttps://pbs.twimg.com/media/CJqTkpjXAAMEbdz.jpg
p156
sg42
V619970156555599875
p157
sVsizes
p158
(dp159
Vsmall
p160
(dp161
Vh
p162
I310
sVresize
p163
Vfit
p164
sVw
p165
I340
ssVlarge
p166
(dp167
g162
I871
sg163
Vfit
p168
sg165
I954
ssVmedium
p169
(dp170
g162
I547
sg163
Vfit
p171
sg165
I600
ssVthumb
p172
(dp173
g162
I150
sg163
Vcrop
p174
sg165
I150
sssVindices
p175
(lp176
I15
aI37
asVtype
p177
Vphoto
p178
sg33
I619970156555599875
sVmedia_url
p179
Vhttp://pbs.twimg.com/media/CJqTkpjXAAMEbdz.jpg
p180
sasVhashtags
p181
(lp182
sVuser_mentions
p183
(lp184
(dp185
g33
I3107447944
sg175
(lp186
I0
aI14
asg42
V3107447944
p187
sg72
VBRICS2015_Rus
p188
sg66
V\u0411\u0420\u0418\u041a\u04212015
p189
sasVtrends
p190
(lp191
sVurls
p192
(lp193
ssVin_reply_to_screen_name
p194
VBRICS2015_Rus
p195
sg42
V619970157637693440
p196
sVretweet_count
p197
I0
sVin_reply_to_user_id
p198
I3107447944
sVfavorited
p199
I00
sVuser
p200
g29
sVgeo
p201
NsVin_reply_to_user_id_str
p202
g130
sVpossibly_sensitive
p203
I00
sg68
g127
sg77
VSat Jul 11 20:42:58 +0000 2015
p204
sVfilter_level
p205
g122
sVin_reply_to_status_id_str
p206
V619153565869834240
p207
sVplace
p208
(dp209
Vfull_name
p210
VZurich, Switzerland
p211
sg75
Vhttps://api.twitter.com/1.1/geo/id/3acb748d0f1e9265.json
p212
sVcountry
p213
VSchweiz
p214
sVplace_type
p215
Vcity
p216
sVbounding_box
p217
(dp218
g177
VPolygon
p219
sg140
(lp220
(lp221
(lp222
F8.448081
aF47.320183
aa(lp223
F8.448081
aF47.434721
aa(lp224
F8.625442
aF47.434721
aa(lp225
F8.625442
aF47.320183
aaassVcountry_code
p226
VCH
p227
sVattributes
p228
(dp229
sg33
V3acb748d0f1e9265
p230
sg66
VZurich
p231
ssVextended_entities
p232
(dp233
g147
(lp234
(dp235
g150
Vhttp://twitter.com/PatrickPARAMAN/status/619970157637693440/photo/1
p236
sg152
Vpic.twitter.com/Xgk4PBXKKZ
p237
sg75
Vhttp://t.co/Xgk4PBXKKZ
p238
sg155
Vhttps://pbs.twimg.com/media/CJqTkpjXAAMEbdz.jpg
p239
sg42
V619970156555599875
p240
sg158
(dp241
g160
(dp242
g162
I310
sg163
Vfit
p243
sg165
I340
ssg166
(dp244
g162
I871
sg163
Vfit
p245
sg165
I954
ssg169
(dp246
g162
I547
sg163
Vfit
p247
sg165
I600
ssg172
(dp248
g162
I150
sg163
Vcrop
p249
sg165
I150
sssg175
(lp250
I15
aI37
asg177
Vphoto
p251
sg33
I619970156555599875
sg179
Vhttp://pbs.twimg.com/media/CJqTkpjXAAMEbdz.jpg
p252
sa(dp253
g150
Vhttp://twitter.com/PatrickPARAMAN/status/619970157637693440/photo/1
p254
sg152
Vpic.twitter.com/Xgk4PBXKKZ
p255
sg75
Vhttp://t.co/Xgk4PBXKKZ
p256
sg155
Vhttps://pbs.twimg.com/media/CJqTkkUWoAESfiF.jpg
p257
sg42
V619970155150483457
p258
sg158
(dp259
g160
(dp260
g162
I310
sg163
Vfit
p261
sg165
I340
ssg166
(dp262
g162
I457
sg163
Vfit
p263
sg165
I500
ssg169
(dp264
g162
I457
sg163
Vfit
p265
sg165
I500
ssg172
(dp266
g162
I150
sg163
Vcrop
p267
sg165
I150
sssg175
(lp268
I15
aI37
asg177
Vphoto
p269
sg33
I619970155150483457
sg179
Vhttp://pbs.twimg.com/media/CJqTkkUWoAESfiF.jpg
p270
sasssS'coordinates'
p271
NsS'timestamp_ms'
p272
g142
sS'entities'
p273
g144
sS'in_reply_to_status_id_str'
p274
g207
sS'in_reply_to_screen_name'
p275
g195
sg91
g196
sS'extended_entities'
p276
g233
sS'retweeted'
p277
I00
sS'place'
p278
g0
(ctweepy.models
Place
p279
g2
Ntp280
Rp281
(dp282
S'full_name'
p283
g211
sg109
g212
sS'country'
p284
g214
sS'place_type'
p285
g216
sS'bounding_box'
p286
g0
(ctweepy.models
BoundingBox
p287
g2
Ntp288
Rp289
(dp290
S'type'
p291
g219
sg271
g220
sbsS'country_code'
p292
g227
sS'attributes'
p293
g229
sg24
g230
sg103
g231
sbsS'retweet_count'
p294
I0
sg110
g111
(S'\x07\xdf\x07\x0b\x14*:\x00\x00\x00'
p295
tp296
Rp297
sS'in_reply_to_user_id'
p298
I3107447944
sb.