ccopy_reg
_reconstructor
p0
(ctweepy.models
Status
p1
c__builtin__
object
p2
Ntp3
Rp4
(dp5
S'favorited'
p6
I00
sS'contributors'
p7
NsS'truncated'
p8
I00
sS'text'
p9
V@SkumbagKrepo @FnaticYellOwStR is such a beast #LCS #LCSBigPlays for carrying the whole game with incredible shotcalling and team leading!
p10
sS'source_url'
p11
Vhttp://twitter.com
p12
sS'possibly_sensitive'
p13
I00
sS'in_reply_to_status_id'
p14
I619234194712084481
sS'user'
p15
g0
(ctweepy.models
User
p16
g2
Ntp17
Rp18
(dp19
S'follow_request_sent'
p20
NsS'profile_use_background_image'
p21
I01
sS'profile_sidebar_fill_color'
p22
VDDEEF6
p23
sS'id'
p24
I2977834655
sS'verified'
p25
I00
sS'profile_image_url_https'
p26
Vhttps://pbs.twimg.com/profile_images/577213516169408512/Z6422MOv_normal.png
p27
sS'_json'
p28
(dp29
Vfollow_request_sent
p30
NsVprofile_use_background_image
p31
I01
sVdefault_profile_image
p32
I00
sVid
p33
I2977834655
sVverified
p34
I00
sVprofile_image_url_https
p35
g27
sVprofile_sidebar_fill_color
p36
g23
sVprofile_text_color
p37
V333333
p38
sVfollowers_count
p39
I2
sVprofile_sidebar_border_color
p40
VC0DEED
p41
sVid_str
p42
V2977834655
p43
sVprofile_background_color
p44
VACDED6
p45
sVlisted_count
p46
I0
sVprofile_background_image_url_https
p47
Vhttps://abs.twimg.com/images/themes/theme18/bg.gif
p48
sVutc_offset
p49
NsVstatuses_count
p50
I201
sVdescription
p51
VFreelance Graphic Designer & Student | Living the tough life, playing games, going out, eating food
p52
sVfriends_count
p53
I64
sVlocation
p54
VWinterthur, Switzerland
p55
sVprofile_link_color
p56
VFA743E
p57
sVprofile_image_url
p58
Vhttp://pbs.twimg.com/profile_images/577213516169408512/Z6422MOv_normal.png
p59
sVfollowing
p60
NsVgeo_enabled
p61
I01
sVprofile_background_image_url
p62
Vhttp://abs.twimg.com/images/themes/theme18/bg.gif
p63
sVname
p64
VSimon Fischer
p65
sVlang
p66
Ven
p67
sVprofile_background_tile
p68
I00
sVfavourites_count
p69
I205
sVscreen_name
p70
Valmostsimon1
p71
sVnotifications
p72
NsVurl
p73
Vhttp://www.cubee.ch
p74
sVcreated_at
p75
VWed Jan 14 10:17:22 +0000 2015
p76
sVcontributors_enabled
p77
I00
sVtime_zone
p78
NsVprotected
p79
I00
sVdefault_profile
p80
I00
sVis_translator
p81
I00
ssS'contributors_enabled'
p82
I00
sS'profile_text_color'
p83
g38
sS'followers_count'
p84
I2
sS'profile_sidebar_border_color'
p85
g41
sS'location'
p86
g55
sS'default_profile_image'
p87
I00
sS'id_str'
p88
g43
sS'utc_offset'
p89
NsS'statuses_count'
p90
I201
sS'description'
p91
g52
sS'friends_count'
p92
I64
sS'profile_link_color'
p93
g57
sS'profile_image_url'
p94
g59
sS'notifications'
p95
NsS'geo_enabled'
p96
I01
sS'profile_background_color'
p97
g45
sS'profile_background_image_url'
p98
g63
sS'name'
p99
g65
sS'lang'
p100
g67
sS'following'
p101
I00
sS'profile_background_tile'
p102
I00
sS'favourites_count'
p103
I205
sS'screen_name'
p104
g71
sS'url'
p105
g74
sS'created_at'
p106
cdatetime
datetime
p107
(S'\x07\xdf\x01\x0e\n\x11\x16\x00\x00\x00'
p108
tp109
Rp110
sS'profile_background_image_url_https'
p111
g48
sS'time_zone'
p112
NsS'protected'
p113
I00
sS'default_profile'
p114
I00
sS'is_translator'
p115
I00
sS'listed_count'
p116
I0
sbsS'filter_level'
p117
Vlow
p118
sS'geo'
p119
Nsg24
I619234552242941953
sS'favorite_count'
p120
I0
sS'source'
p121
VTwitter Web Client
p122
sg100
Ven
p123
sS'author'
p124
g18
sS'in_reply_to_user_id_str'
p125
V477212920
p126
sg28
(dp127
Vcontributors
p128
NsVtruncated
p129
I00
sVtext
p130
g10
sVin_reply_to_status_id
p131
I619234194712084481
sg33
I619234552242941953
sVfavorite_count
p132
I0
sVsource
p133
V<a href="http://twitter.com" rel="nofollow">Twitter Web Client</a>
p134
sVretweeted
p135
I00
sVcoordinates
p136
NsVtimestamp_ms
p137
V1436471996733
p138
sVentities
p139
(dp140
Vuser_mentions
p141
(lp142
(dp143
g33
I477212920
sVindices
p144
(lp145
I0
aI13
asg42
V477212920
p146
sg70
VSkumbagKrepo
p147
sg64
VMitch Voorspoels
p148
sa(dp149
g33
I71506201
sg144
(lp150
I14
aI30
asg42
V71506201
p151
sg70
VFnaticYellOwStR
p152
sg64
VYellOwStaR
p153
sasVsymbols
p154
(lp155
sVtrends
p156
(lp157
sVhashtags
p158
(lp159
(dp160
g144
(lp161
I47
aI51
asg130
VLCS
p162
sa(dp163
g144
(lp164
I52
aI64
asg130
VLCSBigPlays
p165
sasVurls
p166
(lp167
ssVin_reply_to_screen_name
p168
VSkumbagKrepo
p169
sg42
V619234552242941953
p170
sVretweet_count
p171
I0
sVin_reply_to_user_id
p172
I477212920
sVfavorited
p173
I00
sVuser
p174
g29
sVgeo
p175
NsVin_reply_to_user_id_str
p176
g126
sVpossibly_sensitive
p177
I00
sg66
g123
sg75
VThu Jul 09 19:59:56 +0000 2015
p178
sVfilter_level
p179
g118
sVin_reply_to_status_id_str
p180
V619234194712084481
p181
sVplace
p182
(dp183
Vfull_name
p184
VZurich, Switzerland
p185
sg73
Vhttps://api.twitter.com/1.1/geo/id/db94c1cccc67c4f4.json
p186
sVcountry
p187
VSchweiz
p188
sVplace_type
p189
Vadmin
p190
sVbounding_box
p191
(dp192
Vtype
p193
VPolygon
p194
sg136
(lp195
(lp196
(lp197
F8.357749
aF47.159384
aa(lp198
F8.357749
aF47.694503
aa(lp199
F8.984445
aF47.694503
aa(lp200
F8.984445
aF47.159384
aaassVcountry_code
p201
VCH
p202
sVattributes
p203
(dp204
sg33
Vdb94c1cccc67c4f4
p205
sg64
VZurich
p206
sssS'coordinates'
p207
NsS'timestamp_ms'
p208
g138
sS'entities'
p209
g140
sS'in_reply_to_status_id_str'
p210
g181
sS'in_reply_to_screen_name'
p211
g169
sg88
g170
sS'retweeted'
p212
I00
sS'place'
p213
g0
(ctweepy.models
Place
p214
g2
Ntp215
Rp216
(dp217
S'full_name'
p218
g185
sg105
g186
sS'country'
p219
g188
sS'place_type'
p220
g190
sS'bounding_box'
p221
g0
(ctweepy.models
BoundingBox
p222
g2
Ntp223
Rp224
(dp225
S'type'
p226
g194
sg207
g195
sbsS'country_code'
p227
g202
sS'attributes'
p228
g204
sg24
g205
sg99
g206
sbsS'retweet_count'
p229
I0
sg106
g107
(S'\x07\xdf\x07\t\x13;8\x00\x00\x00'
p230
tp231
Rp232
sS'in_reply_to_user_id'
p233
I477212920
sb.