ccopy_reg
_reconstructor
p0
(ctweepy.models
Status
p1
c__builtin__
object
p2
Ntp3
Rp4
(dp5
S'favorited'
p6
I00
sS'contributors'
p7
NsS'truncated'
p8
I00
sS'text'
p9
V#WSIS Forum 2015 (Geneva) launched #WSIS-#SDG Matrix establishing clear link See outcomes at http://t.co/8dNsyJ2QuE http://t.co/IjSuDNIm5e
p10
sS'source_url'
p11
Vhttp://twitter.com
p12
sS'possibly_sensitive'
p13
I00
sS'in_reply_to_status_id'
p14
NsS'user'
p15
g0
(ctweepy.models
User
p16
g2
Ntp17
Rp18
(dp19
S'follow_request_sent'
p20
NsS'profile_use_background_image'
p21
I01
sS'profile_sidebar_fill_color'
p22
VF6FFD1
p23
sS'id'
p24
I53025802
sS'verified'
p25
I00
sS'profile_image_url_https'
p26
Vhttps://pbs.twimg.com/profile_images/1270356364/image_normal.jpg
p27
sS'_json'
p28
(dp29
Vfollow_request_sent
p30
NsVprofile_use_background_image
p31
I01
sVdefault_profile_image
p32
I00
sVid
p33
I53025802
sVverified
p34
I00
sVprofile_image_url_https
p35
g27
sVprofile_sidebar_fill_color
p36
g23
sVprofile_text_color
p37
V333333
p38
sVfollowers_count
p39
I406
sVprofile_sidebar_border_color
p40
VFFF8AD
p41
sVid_str
p42
V53025802
p43
sVprofile_background_color
p44
VFFF04D
p45
sVlisted_count
p46
I18
sVprofile_background_image_url_https
p47
Vhttps://pbs.twimg.com/profile_background_images/120674482/HandConnectCIS.gif
p48
sVutc_offset
p49
I7200
sVstatuses_count
p50
I598
sVdescription
p51
VStrategy and Policy Advisor at the International Telecommunication Union
p52
sVfriends_count
p53
I198
sVlocation
p54
VSwitzerland
p55
sVprofile_link_color
p56
V0099CC
p57
sVprofile_image_url
p58
Vhttp://pbs.twimg.com/profile_images/1270356364/image_normal.jpg
p59
sVfollowing
p60
NsVgeo_enabled
p61
I01
sVprofile_background_image_url
p62
Vhttp://pbs.twimg.com/profile_background_images/120674482/HandConnectCIS.gif
p63
sVname
p64
VJaroslaw K. PONDER
p65
sVlang
p66
Ven
p67
sVprofile_background_tile
p68
I01
sVfavourites_count
p69
I4
sVscreen_name
p70
VJaroslawPONDER
p71
sVnotifications
p72
NsVurl
p73
Vhttp://www.ponder.ch
p74
sVcreated_at
p75
VThu Jul 02 10:18:21 +0000 2009
p76
sVcontributors_enabled
p77
I00
sVtime_zone
p78
VBerlin
p79
sVprotected
p80
I00
sVdefault_profile
p81
I00
sVis_translator
p82
I00
ssS'contributors_enabled'
p83
I00
sS'profile_text_color'
p84
g38
sS'followers_count'
p85
I406
sS'profile_sidebar_border_color'
p86
g41
sS'location'
p87
g55
sS'default_profile_image'
p88
I00
sS'id_str'
p89
g43
sS'utc_offset'
p90
I7200
sS'statuses_count'
p91
I598
sS'description'
p92
g52
sS'friends_count'
p93
I198
sS'profile_link_color'
p94
g57
sS'profile_image_url'
p95
g59
sS'notifications'
p96
NsS'geo_enabled'
p97
I01
sS'profile_background_color'
p98
g45
sS'profile_background_image_url'
p99
g63
sS'name'
p100
g65
sS'lang'
p101
g67
sS'following'
p102
I00
sS'profile_background_tile'
p103
I01
sS'favourites_count'
p104
I4
sS'screen_name'
p105
g71
sS'url'
p106
g74
sS'created_at'
p107
cdatetime
datetime
p108
(S'\x07\xd9\x07\x02\n\x12\x15\x00\x00\x00'
p109
tp110
Rp111
sS'profile_background_image_url_https'
p112
g48
sS'time_zone'
p113
g79
sS'protected'
p114
I00
sS'default_profile'
p115
I00
sS'is_translator'
p116
I00
sS'listed_count'
p117
I18
sbsS'filter_level'
p118
Vlow
p119
sS'geo'
p120
Nsg24
I618826615817170944
sS'favorite_count'
p121
I0
sS'source'
p122
VTwitter Web Client
p123
sg101
Ven
p124
sS'author'
p125
g18
sS'in_reply_to_user_id_str'
p126
Nsg28
(dp127
Vcontributors
p128
NsVtruncated
p129
I00
sVtext
p130
g10
sVin_reply_to_status_id
p131
Nsg33
I618826615817170944
sVfavorite_count
p132
I0
sVsource
p133
V<a href="http://twitter.com" rel="nofollow">Twitter Web Client</a>
p134
sVretweeted
p135
I00
sVcoordinates
p136
NsVtimestamp_ms
p137
V1436374737110
p138
sVentities
p139
(dp140
Vsymbols
p141
(lp142
sVmedia
p143
(lp144
(dp145
Vexpanded_url
p146
Vhttp://twitter.com/JaroslawPONDER/status/618826615817170944/photo/1
p147
sVdisplay_url
p148
Vpic.twitter.com/IjSuDNIm5e
p149
sg73
Vhttp://t.co/IjSuDNIm5e
p150
sVmedia_url_https
p151
Vhttps://pbs.twimg.com/media/CJaDhwrVAAAhZ3_.jpg
p152
sg42
V618826614835576832
p153
sVsizes
p154
(dp155
Vlarge
p156
(dp157
Vh
p158
I156
sVresize
p159
Vfit
p160
sVw
p161
I483
ssVsmall
p162
(dp163
g158
I109
sg159
Vfit
p164
sg161
I340
ssVmedium
p165
(dp166
g158
I156
sg159
Vfit
p167
sg161
I483
ssVthumb
p168
(dp169
g158
I150
sg159
Vcrop
p170
sg161
I150
sssVindices
p171
(lp172
I116
aI138
asVtype
p173
Vphoto
p174
sg33
I618826614835576832
sVmedia_url
p175
Vhttp://pbs.twimg.com/media/CJaDhwrVAAAhZ3_.jpg
p176
sasVhashtags
p177
(lp178
(dp179
g171
(lp180
I0
aI5
asg130
VWSIS
p181
sa(dp182
g171
(lp183
I35
aI40
asg130
VWSIS
p184
sa(dp185
g171
(lp186
I41
aI45
asg130
VSDG
p187
sasVuser_mentions
p188
(lp189
sVtrends
p190
(lp191
sVurls
p192
(lp193
(dp194
g73
Vhttp://t.co/8dNsyJ2QuE
p195
sg171
(lp196
I93
aI115
asg146
Vhttp://www.wsis.org/forum
p197
sg148
Vwsis.org/forum
p198
sassVin_reply_to_screen_name
p199
Nsg42
V618826615817170944
p200
sVretweet_count
p201
I0
sVin_reply_to_user_id
p202
NsVfavorited
p203
I00
sVuser
p204
g29
sVgeo
p205
NsVin_reply_to_user_id_str
p206
NsVpossibly_sensitive
p207
I00
sg66
g124
sg75
VWed Jul 08 16:58:57 +0000 2015
p208
sVfilter_level
p209
g119
sVin_reply_to_status_id_str
p210
NsVplace
p211
(dp212
Vfull_name
p213
VZurich, Switzerland
p214
sg73
Vhttps://api.twitter.com/1.1/geo/id/3acb748d0f1e9265.json
p215
sVcountry
p216
VSchweiz
p217
sVplace_type
p218
Vcity
p219
sVbounding_box
p220
(dp221
g173
VPolygon
p222
sg136
(lp223
(lp224
(lp225
F8.448081
aF47.320183
aa(lp226
F8.448081
aF47.434721
aa(lp227
F8.625442
aF47.434721
aa(lp228
F8.625442
aF47.320183
aaassVcountry_code
p229
VCH
p230
sVattributes
p231
(dp232
sg33
V3acb748d0f1e9265
p233
sg64
VZurich
p234
ssVextended_entities
p235
(dp236
g143
(lp237
(dp238
g146
Vhttp://twitter.com/JaroslawPONDER/status/618826615817170944/photo/1
p239
sg148
Vpic.twitter.com/IjSuDNIm5e
p240
sg73
Vhttp://t.co/IjSuDNIm5e
p241
sg151
Vhttps://pbs.twimg.com/media/CJaDhwrVAAAhZ3_.jpg
p242
sg42
V618826614835576832
p243
sg154
(dp244
g156
(dp245
g158
I156
sg159
Vfit
p246
sg161
I483
ssg162
(dp247
g158
I109
sg159
Vfit
p248
sg161
I340
ssg165
(dp249
g158
I156
sg159
Vfit
p250
sg161
I483
ssg168
(dp251
g158
I150
sg159
Vcrop
p252
sg161
I150
sssg171
(lp253
I116
aI138
asg173
Vphoto
p254
sg33
I618826614835576832
sg175
Vhttp://pbs.twimg.com/media/CJaDhwrVAAAhZ3_.jpg
p255
sasssS'coordinates'
p256
NsS'timestamp_ms'
p257
g138
sS'entities'
p258
g140
sS'in_reply_to_status_id_str'
p259
NsS'in_reply_to_screen_name'
p260
Nsg89
g200
sS'extended_entities'
p261
g236
sS'retweeted'
p262
I00
sS'place'
p263
g0
(ctweepy.models
Place
p264
g2
Ntp265
Rp266
(dp267
S'full_name'
p268
g214
sg106
g215
sS'country'
p269
g217
sS'place_type'
p270
g219
sS'bounding_box'
p271
g0
(ctweepy.models
BoundingBox
p272
g2
Ntp273
Rp274
(dp275
S'type'
p276
g222
sg256
g223
sbsS'country_code'
p277
g230
sS'attributes'
p278
g232
sg24
g233
sg100
g234
sbsS'retweet_count'
p279
I0
sg107
g108
(S'\x07\xdf\x07\x08\x10:9\x00\x00\x00'
p280
tp281
Rp282
sS'in_reply_to_user_id'
p283
Nsb.