ccopy_reg
_reconstructor
p0
(ctweepy.models
Status
p1
c__builtin__
object
p2
Ntp3
Rp4
(dp5
S'contributors'
p6
NsS'truncated'
p7
I00
sS'text'
p8
VWash! https://t.co/KZn2FpsTPf
p9
sS'in_reply_to_status_id'
p10
NsS'id'
p11
I618850606934028288
sS'favorite_count'
p12
I0
sS'entities'
p13
(dp14
Vuser_mentions
p15
(lp16
sVsymbols
p17
(lp18
sVtrends
p19
(lp20
sVhashtags
p21
(lp22
sVurls
p23
(lp24
(dp25
Vurl
p26
Vhttps://t.co/KZn2FpsTPf
p27
sVindices
p28
(lp29
I6
aI29
asVexpanded_url
p30
Vhttps://twitter.com/assey240/status/618848855107485696
p31
sVdisplay_url
p32
Vtwitter.com/assey240/statu\u2026
p33
sassS'quoted_status_id'
p34
I618848855107485696
sS'_json'
p35
(dp36
Vcontributors
p37
NsVtruncated
p38
I00
sVtext
p39
g9
sVin_reply_to_status_id
p40
NsVid
p41
I618850606934028288
sVfavorite_count
p42
I0
sVsource
p43
V<a href="http://twitter.com/download/iphone" rel="nofollow">Twitter for iPhone</a>
p44
sVquoted_status_id
p45
I618848855107485696
sVretweeted
p46
I00
sVcoordinates
p47
NsVtimestamp_ms
p48
V1436380457038
p49
sVquoted_status
p50
(dp51
g37
Nsg38
I00
sg39
VIkorodu bank robbery was led by a lady with charms round  her neck. - witness\u000aPolice only paraded 4guys,where is the lady? @Gidi_Traffic
p52
sg40
Nsg41
I618848855107485696
sg42
I0
sg43
V<a href="http://twitter.com/download/android" rel="nofollow">Twitter for Android</a>
p53
sg46
I00
sg47
NsVentities
p54
(dp55
g15
(lp56
(dp57
g41
I378809160
sg28
(lp58
I123
aI136
asVid_str
p59
V378809160
p60
sVscreen_name
p61
VGidi_Traffic
p62
sVname
p63
VGIDITRAFFIC
p64
sasg17
(lp65
sg19
(lp66
sg21
(lp67
sg23
(lp68
ssVin_reply_to_screen_name
p69
Nsg59
V618848855107485696
p70
sVretweet_count
p71
I0
sVin_reply_to_user_id
p72
NsVfavorited
p73
I00
sVuser
p74
(dp75
Vfollow_request_sent
p76
NsVprofile_use_background_image
p77
I01
sVdefault_profile_image
p78
I00
sg41
I345862225
sVverified
p79
I00
sVprofile_image_url_https
p80
Vhttps://pbs.twimg.com/profile_images/609459411724144640/J9WMrg2x_normal.jpg
p81
sVprofile_sidebar_fill_color
p82
VDDEEF6
p83
sVprofile_text_color
p84
V333333
p85
sVfollowers_count
p86
I425
sVprofile_sidebar_border_color
p87
VC0DEED
p88
sg59
V345862225
p89
sVprofile_background_color
p90
VC0DEED
p91
sVlisted_count
p92
I2
sVprofile_background_image_url_https
p93
Vhttps://abs.twimg.com/images/themes/theme1/bg.png
p94
sVutc_offset
p95
NsVstatuses_count
p96
I13629
sVdescription
p97
VOnly the hunting mind is bold enough to break beyond the walls of the unknown and make or unmake a god for the dead minds.
p98
sVfriends_count
p99
I478
sVlocation
p100
VNigeria
p101
sVprofile_link_color
p102
V0084B4
p103
sVprofile_image_url
p104
Vhttp://pbs.twimg.com/profile_images/609459411724144640/J9WMrg2x_normal.jpg
p105
sVfollowing
p106
NsVgeo_enabled
p107
I01
sVprofile_banner_url
p108
Vhttps://pbs.twimg.com/profile_banners/345862225/1415204534
p109
sVprofile_background_image_url
p110
Vhttp://abs.twimg.com/images/themes/theme1/bg.png
p111
sg63
VGANJA LIBERTY
p112
sVlang
p113
Ven
p114
sVprofile_background_tile
p115
I00
sVfavourites_count
p116
I92
sg61
Vassey240
p117
sVnotifications
p118
Nsg26
NsVcreated_at
p119
VSun Jul 31 09:01:21 +0000 2011
p120
sVcontributors_enabled
p121
I00
sVtime_zone
p122
NsVprotected
p123
I00
sVdefault_profile
p124
I01
sVis_translator
p125
I00
ssVgeo
p126
NsVin_reply_to_user_id_str
p127
NsVpossibly_sensitive
p128
I00
sg113
Ven
p129
sg119
VWed Jul 08 18:27:19 +0000 2015
p130
sVfilter_level
p131
Vlow
p132
sVin_reply_to_status_id_str
p133
NsVplace
p134
Nssg54
g14
sg69
Nsg59
V618850606934028288
p135
sg71
I0
sg72
Nsg73
I00
sg74
(dp136
g76
Nsg77
I01
sg78
I00
sg41
I271361465
sg79
I00
sg80
Vhttps://pbs.twimg.com/profile_images/605507470363099136/ML2klFEV_normal.jpg
p137
sg82
VDDEEF6
p138
sg84
V333333
p139
sg86
I434
sg87
VC0DEED
p140
sg59
V271361465
p141
sg90
VC0DEED
p142
sg92
I25
sg93
Vhttps://abs.twimg.com/images/themes/theme1/bg.png
p143
sg95
Nsg96
I19222
sg97
VConsummate PR and Corporate Communication buff. Proudly flying Djembe communications flag across the West Africa region
p144
sg99
I596
sg100
V
p145
sg102
V0084B4
p146
sg104
Vhttp://pbs.twimg.com/profile_images/605507470363099136/ML2klFEV_normal.jpg
p147
sg106
Nsg107
I01
sg108
Vhttps://pbs.twimg.com/profile_banners/271361465/1424263426
p148
sg110
Vhttp://abs.twimg.com/images/themes/theme1/bg.png
p149
sg63
VOnome Okwah
p150
sg113
Ven
p151
sg115
I00
sg116
I44
sg61
Vomookwah
p152
sg118
Nsg26
Nsg119
VThu Mar 24 10:38:08 +0000 2011
p153
sg121
I00
sg122
Nsg123
I00
sg124
I01
sg125
I00
ssg126
Nsg127
Nsg128
I00
sg113
Ven
p154
sg119
VWed Jul 08 18:34:17 +0000 2015
p155
sVquoted_status_id_str
p156
V618848855107485696
p157
sg131
Vlow
p158
sg133
Nsg134
(dp159
Vfull_name
p160
VZurich, Switzerland
p161
sg26
Vhttps://api.twitter.com/1.1/geo/id/3acb748d0f1e9265.json
p162
sVcountry
p163
VSchweiz
p164
sVplace_type
p165
Vcity
p166
sVbounding_box
p167
(dp168
Vtype
p169
VPolygon
p170
sg47
(lp171
(lp172
(lp173
F8.448081
aF47.320183
aa(lp174
F8.448081
aF47.434721
aa(lp175
F8.625442
aF47.434721
aa(lp176
F8.625442
aF47.320183
aaassVcountry_code
p177
VCH
p178
sVattributes
p179
(dp180
sg41
V3acb748d0f1e9265
p181
sg63
VZurich
p182
sssS'coordinates'
p183
NsS'timestamp_ms'
p184
g49
sS'quoted_status'
p185
g51
sS'source'
p186
VTwitter for iPhone
p187
sS'in_reply_to_screen_name'
p188
NsS'id_str'
p189
g135
sS'retweet_count'
p190
I0
sS'in_reply_to_user_id'
p191
NsS'favorited'
p192
I00
sS'source_url'
p193
Vhttp://twitter.com/download/iphone
p194
sS'user'
p195
g0
(ctweepy.models
User
p196
g2
Ntp197
Rp198
(dp199
S'follow_request_sent'
p200
NsS'profile_use_background_image'
p201
I01
sS'profile_sidebar_fill_color'
p202
g138
sg11
I271361465
sS'verified'
p203
I00
sS'profile_image_url_https'
p204
g137
sg35
g136
sS'contributors_enabled'
p205
I00
sS'profile_text_color'
p206
g139
sS'followers_count'
p207
I434
sS'profile_sidebar_border_color'
p208
g140
sS'location'
p209
g145
sS'default_profile_image'
p210
I00
sg189
g141
sS'utc_offset'
p211
NsS'statuses_count'
p212
I19222
sS'description'
p213
g144
sS'friends_count'
p214
I596
sS'profile_link_color'
p215
g146
sS'profile_image_url'
p216
g147
sS'notifications'
p217
NsS'geo_enabled'
p218
I01
sS'profile_background_color'
p219
g142
sS'profile_banner_url'
p220
g148
sS'profile_background_image_url'
p221
g149
sS'name'
p222
g150
sS'lang'
p223
g151
sS'following'
p224
I00
sS'profile_background_tile'
p225
I00
sS'favourites_count'
p226
I44
sS'screen_name'
p227
g152
sS'url'
p228
NsS'created_at'
p229
cdatetime
datetime
p230
(S'\x07\xdb\x03\x18\n&\x08\x00\x00\x00'
p231
tp232
Rp233
sS'profile_background_image_url_https'
p234
g143
sS'time_zone'
p235
NsS'protected'
p236
I00
sS'default_profile'
p237
I01
sS'is_translator'
p238
I00
sS'listed_count'
p239
I25
sbsS'geo'
p240
NsS'in_reply_to_user_id_str'
p241
NsS'possibly_sensitive'
p242
I00
sg223
g154
sg229
g230
(S'\x07\xdf\x07\x08\x12"\x11\x00\x00\x00'
p243
tp244
Rp245
sS'author'
p246
g198
sS'quoted_status_id_str'
p247
g157
sS'filter_level'
p248
g158
sS'in_reply_to_status_id_str'
p249
NsS'place'
p250
g0
(ctweepy.models
Place
p251
g2
Ntp252
Rp253
(dp254
S'full_name'
p255
g161
sg228
g162
sS'country'
p256
g164
sS'place_type'
p257
g166
sS'bounding_box'
p258
g0
(ctweepy.models
BoundingBox
p259
g2
Ntp260
Rp261
(dp262
S'type'
p263
g170
sg183
g171
sbsS'country_code'
p264
g178
sS'attributes'
p265
g180
sg11
g181
sg222
g182
sbsS'retweeted'
p266
I00
sb.