ccopy_reg
_reconstructor
p0
(ctweepy.models
Status
p1
c__builtin__
object
p2
Ntp3
Rp4
(dp5
S'contributors'
p6
NsS'truncated'
p7
I00
sS'text'
p8
VKujichocha nayo https://t.co/YpUuSwYLKn
p9
sS'in_reply_to_status_id'
p10
NsS'id'
p11
I618896203942596608
sS'favorite_count'
p12
I0
sS'entities'
p13
(dp14
Vuser_mentions
p15
(lp16
sVsymbols
p17
(lp18
sVtrends
p19
(lp20
sVhashtags
p21
(lp22
sVurls
p23
(lp24
(dp25
Vurl
p26
Vhttps://t.co/YpUuSwYLKn
p27
sVindices
p28
(lp29
I16
aI39
asVexpanded_url
p30
Vhttps://twitter.com/CapitalFM_kenya/status/618887334465921024
p31
sVdisplay_url
p32
Vtwitter.com/CapitalFM_keny\u2026
p33
sassS'quoted_status_id'
p34
I618887334465921024
sS'_json'
p35
(dp36
Vcontributors
p37
NsVtruncated
p38
I00
sVtext
p39
g9
sVin_reply_to_status_id
p40
NsVid
p41
I618896203942596608
sVfavorite_count
p42
I0
sVsource
p43
V<a href="http://twitter.com/download/android" rel="nofollow">Twitter for Android</a>
p44
sVquoted_status_id
p45
I618887334465921024
sVretweeted
p46
I00
sVcoordinates
p47
NsVtimestamp_ms
p48
V1436391328212
p49
sVquoted_status
p50
(dp51
g37
Nsg38
I00
sg39
VNEWS BULLETIN: Machar gives Kiir 12-hour quit ultimatum, watch more Top stories via https://t.co/mKNA7Q0ASM http://t.co/FVwoJbcuxE
p52
sg40
Nsg41
I618887334465921024
sg42
I0
sg43
V<a href="https://about.twitter.com/products/tweetdeck" rel="nofollow">TweetDeck</a>
p53
sg46
I00
sg47
NsVentities
p54
(dp55
g17
(lp56
sVmedia
p57
(lp58
(dp59
g30
Vhttp://twitter.com/CapitalFM_kenya/status/618887334465921024/photo/1
p60
sg32
Vpic.twitter.com/FVwoJbcuxE
p61
sg26
Vhttp://t.co/FVwoJbcuxE
p62
sVmedia_url_https
p63
Vhttps://pbs.twimg.com/media/CJaraViUAAASTcK.jpg
p64
sVid_str
p65
V618870467756032000
p66
sVsizes
p67
(dp68
Vlarge
p69
(dp70
Vh
p71
I350
sVresize
p72
Vfit
p73
sVw
p74
I630
ssVsmall
p75
(dp76
g71
I188
sg72
Vfit
p77
sg74
I340
ssVmedium
p78
(dp79
g71
I333
sg72
Vfit
p80
sg74
I600
ssVthumb
p81
(dp82
g71
I150
sg72
Vcrop
p83
sg74
I150
sssg28
(lp84
I108
aI130
asVtype
p85
Vphoto
p86
sg41
I618870467756032000
sVmedia_url
p87
Vhttp://pbs.twimg.com/media/CJaraViUAAASTcK.jpg
p88
sasg21
(lp89
sg15
(lp90
sg19
(lp91
sg23
(lp92
(dp93
g26
Vhttps://t.co/mKNA7Q0ASM
p94
sg28
(lp95
I84
aI107
asg30
Vhttps://goo.gl/kKCgf7
p96
sg32
Vgoo.gl/kKCgf7
p97
sassVin_reply_to_screen_name
p98
Nsg65
V618887334465921024
p99
sVretweet_count
p100
I0
sVin_reply_to_user_id
p101
NsVfavorited
p102
I00
sVuser
p103
(dp104
Vfollow_request_sent
p105
NsVprofile_use_background_image
p106
I00
sVdefault_profile_image
p107
I00
sg41
I92731878
sVverified
p108
I01
sVprofile_image_url_https
p109
Vhttps://pbs.twimg.com/profile_images/542311320435970050/criQh2di_normal.jpeg
p110
sVprofile_sidebar_fill_color
p111
VDDEEF6
p112
sVprofile_text_color
p113
V333333
p114
sVfollowers_count
p115
I499527
sVprofile_sidebar_border_color
p116
VFFFFFF
p117
sg65
V92731878
p118
sVprofile_background_color
p119
V000000
p120
sVlisted_count
p121
I776
sVprofile_background_image_url_https
p122
Vhttps://pbs.twimg.com/profile_background_images/520474675336331265/2_HHJR2J.jpeg
p123
sVutc_offset
p124
I10800
sVstatuses_count
p125
I169430
sVdescription
p126
VThe best mix of music/ news/ sports/ lifestyle.
p127
sVfriends_count
p128
I180
sVlocation
p129
VNairobi, Kenya
p130
sVprofile_link_color
p131
V0084B4
p132
sVprofile_image_url
p133
Vhttp://pbs.twimg.com/profile_images/542311320435970050/criQh2di_normal.jpeg
p134
sVfollowing
p135
NsVgeo_enabled
p136
I01
sVprofile_banner_url
p137
Vhttps://pbs.twimg.com/profile_banners/92731878/1418132089
p138
sVprofile_background_image_url
p139
Vhttp://pbs.twimg.com/profile_background_images/520474675336331265/2_HHJR2J.jpeg
p140
sVname
p141
VCapital FM Kenya
p142
sVlang
p143
Ven
p144
sVprofile_background_tile
p145
I00
sVfavourites_count
p146
I82
sVscreen_name
p147
VCapitalFM_kenya
p148
sVnotifications
p149
Nsg26
Vhttp://www.capitalfm.co.ke
p150
sVcreated_at
p151
VThu Nov 26 10:59:27 +0000 2009
p152
sVcontributors_enabled
p153
I00
sVtime_zone
p154
VNairobi
p155
sVprotected
p156
I00
sVdefault_profile
p157
I00
sVis_translator
p158
I00
ssVgeo
p159
NsVin_reply_to_user_id_str
p160
NsVpossibly_sensitive
p161
I00
sg143
Ven
p162
sg151
VWed Jul 08 21:00:13 +0000 2015
p163
sVfilter_level
p164
Vlow
p165
sVin_reply_to_status_id_str
p166
NsVplace
p167
NsVextended_entities
p168
(dp169
g57
(lp170
(dp171
g30
Vhttp://twitter.com/CapitalFM_kenya/status/618887334465921024/photo/1
p172
sg32
Vpic.twitter.com/FVwoJbcuxE
p173
sg26
Vhttp://t.co/FVwoJbcuxE
p174
sg63
Vhttps://pbs.twimg.com/media/CJaraViUAAASTcK.jpg
p175
sg65
V618870467756032000
p176
sg67
(dp177
g69
(dp178
g71
I350
sg72
Vfit
p179
sg74
I630
ssg75
(dp180
g71
I188
sg72
Vfit
p181
sg74
I340
ssg78
(dp182
g71
I333
sg72
Vfit
p183
sg74
I600
ssg81
(dp184
g71
I150
sg72
Vcrop
p185
sg74
I150
sssg28
(lp186
I108
aI130
asg85
Vphoto
p187
sg41
I618870467756032000
sg87
Vhttp://pbs.twimg.com/media/CJaraViUAAASTcK.jpg
p188
sasssg54
g14
sg98
Nsg65
V618896203942596608
p189
sg100
I0
sg101
Nsg102
I00
sg103
(dp190
g105
Nsg106
I01
sg107
I00
sg41
I76316161
sg108
I00
sg109
Vhttps://pbs.twimg.com/profile_images/547838132411170816/1lC48J4T_normal.jpeg
p191
sg111
VDDEEF6
p192
sg113
V333333
p193
sg115
I292
sg116
VC0DEED
p194
sg65
V76316161
p195
sg119
VC0DEED
p196
sg121
I4
sg122
Vhttps://pbs.twimg.com/profile_background_images/439187292/Backtrack_51.jpg
p197
sg124
I10800
sg125
I4626
sg126
V|Binary Lifestyle|
p198
sg128
I210
sg129
V|Two-5-Four |020|          
p199
sg131
V0084B4
p200
sg133
Vhttp://pbs.twimg.com/profile_images/547838132411170816/1lC48J4T_normal.jpeg
p201
sg135
Nsg136
I01
sg137
Vhttps://pbs.twimg.com/profile_banners/76316161/1360760484
p202
sg139
Vhttp://pbs.twimg.com/profile_background_images/439187292/Backtrack_51.jpg
p203
sg141
VWahome Lincoln
p204
sg143
Ven
p205
sg145
I00
sg146
I503
sg147
VMwananishi
p206
sg149
Nsg26
Nsg151
VTue Sep 22 12:10:50 +0000 2009
p207
sg153
I00
sg154
VNairobi
p208
sg156
I00
sg157
I00
sg158
I00
ssg159
Nsg160
Nsg161
I00
sg143
Vsk
p209
sg151
VWed Jul 08 21:35:28 +0000 2015
p210
sVquoted_status_id_str
p211
V618887334465921024
p212
sg164
Vlow
p213
sg166
Nsg167
(dp214
Vfull_name
p215
VBerne, Switzerland
p216
sg26
Vhttps://api.twitter.com/1.1/geo/id/5868d0e0749c9c47.json
p217
sVcountry
p218
VSchweiz
p219
sVplace_type
p220
Vadmin
p221
sVbounding_box
p222
(dp223
g85
VPolygon
p224
sg47
(lp225
(lp226
(lp227
F6.861601
aF46.326441
aa(lp228
F6.861601
aF47.34528
aa(lp229
F8.455051
aF47.34528
aa(lp230
F8.455051
aF46.326441
aaassVcountry_code
p231
VCH
p232
sVattributes
p233
(dp234
sg41
V5868d0e0749c9c47
p235
sg141
VBern
p236
sssS'coordinates'
p237
NsS'timestamp_ms'
p238
g49
sS'quoted_status'
p239
g51
sS'source'
p240
VTwitter for Android
p241
sS'in_reply_to_screen_name'
p242
NsS'id_str'
p243
g189
sS'retweet_count'
p244
I0
sS'in_reply_to_user_id'
p245
NsS'favorited'
p246
I00
sS'source_url'
p247
Vhttp://twitter.com/download/android
p248
sS'user'
p249
g0
(ctweepy.models
User
p250
g2
Ntp251
Rp252
(dp253
S'follow_request_sent'
p254
NsS'profile_use_background_image'
p255
I01
sS'profile_sidebar_fill_color'
p256
g192
sg11
I76316161
sS'verified'
p257
I00
sS'profile_image_url_https'
p258
g191
sg35
g190
sS'contributors_enabled'
p259
I00
sS'profile_text_color'
p260
g193
sS'followers_count'
p261
I292
sS'profile_sidebar_border_color'
p262
g194
sS'location'
p263
g199
sS'default_profile_image'
p264
I00
sg243
g195
sS'utc_offset'
p265
I10800
sS'statuses_count'
p266
I4626
sS'description'
p267
g198
sS'friends_count'
p268
I210
sS'profile_link_color'
p269
g200
sS'profile_image_url'
p270
g201
sS'notifications'
p271
NsS'geo_enabled'
p272
I01
sS'profile_background_color'
p273
g196
sS'profile_banner_url'
p274
g202
sS'profile_background_image_url'
p275
g203
sS'name'
p276
g204
sS'lang'
p277
g205
sS'following'
p278
I00
sS'profile_background_tile'
p279
I00
sS'favourites_count'
p280
I503
sS'screen_name'
p281
g206
sS'url'
p282
NsS'created_at'
p283
cdatetime
datetime
p284
(S'\x07\xd9\t\x16\x0c\n2\x00\x00\x00'
p285
tp286
Rp287
sS'profile_background_image_url_https'
p288
g197
sS'time_zone'
p289
g208
sS'protected'
p290
I00
sS'default_profile'
p291
I00
sS'is_translator'
p292
I00
sS'listed_count'
p293
I4
sbsS'geo'
p294
NsS'in_reply_to_user_id_str'
p295
NsS'possibly_sensitive'
p296
I00
sg277
g209
sg283
g284
(S'\x07\xdf\x07\x08\x15#\x1c\x00\x00\x00'
p297
tp298
Rp299
sS'author'
p300
g252
sS'quoted_status_id_str'
p301
g212
sS'filter_level'
p302
g213
sS'in_reply_to_status_id_str'
p303
NsS'place'
p304
g0
(ctweepy.models
Place
p305
g2
Ntp306
Rp307
(dp308
S'full_name'
p309
g216
sg282
g217
sS'country'
p310
g219
sS'place_type'
p311
g221
sS'bounding_box'
p312
g0
(ctweepy.models
BoundingBox
p313
g2
Ntp314
Rp315
(dp316
S'type'
p317
g224
sg237
g225
sbsS'country_code'
p318
g232
sS'attributes'
p319
g234
sg11
g235
sg276
g236
sbsS'retweeted'
p320
I00
sb.