ccopy_reg
_reconstructor
p0
(ctweepy.models
Status
p1
c__builtin__
object
p2
Ntp3
Rp4
(dp5
S'favorited'
p6
I00
sS'contributors'
p7
NsS'truncated'
p8
I00
sS'text'
p9
VMaybe it's because I'm bias, but there's no athlete that's more joyful to watch at the top of his game than Roger Federer #wimbledon #fed
p10
sS'source_url'
p11
Vhttp://twitter.com
p12
sS'possibly_sensitive'
p13
I00
sS'in_reply_to_status_id'
p14
NsS'user'
p15
g0
(ctweepy.models
User
p16
g2
Ntp17
Rp18
(dp19
S'follow_request_sent'
p20
NsS'profile_use_background_image'
p21
I01
sS'profile_sidebar_fill_color'
p22
VDDEEF6
p23
sS'id'
p24
I35228278
sS'verified'
p25
I00
sS'profile_image_url_https'
p26
Vhttps://pbs.twimg.com/profile_images/539857311640977408/hagw6oyV_normal.jpeg
p27
sS'_json'
p28
(dp29
Vfollow_request_sent
p30
NsVprofile_use_background_image
p31
I01
sVdefault_profile_image
p32
I00
sVid
p33
I35228278
sVverified
p34
I00
sVprofile_image_url_https
p35
g27
sVprofile_sidebar_fill_color
p36
g23
sVprofile_text_color
p37
V333333
p38
sVfollowers_count
p39
I176
sVprofile_sidebar_border_color
p40
VFFFFFF
p41
sVid_str
p42
V35228278
p43
sVprofile_background_color
p44
VC0DEED
p45
sVlisted_count
p46
I5
sVprofile_background_image_url_https
p47
Vhttps://pbs.twimg.com/profile_background_images/803896475/9fdb4d628e87f475520dae96242acecf.jpeg
p48
sVutc_offset
p49
I7200
sVstatuses_count
p50
I3399
sVdescription
p51
VHouse and Techno music fiend. Rossonero.
p52
sVfriends_count
p53
I282
sVlocation
p54
VLugano, Switzerland
p55
sVprofile_link_color
p56
V0084B4
p57
sVprofile_image_url
p58
Vhttp://pbs.twimg.com/profile_images/539857311640977408/hagw6oyV_normal.jpeg
p59
sVfollowing
p60
NsVgeo_enabled
p61
I01
sVprofile_banner_url
p62
Vhttps://pbs.twimg.com/profile_banners/35228278/1436166217
p63
sVprofile_background_image_url
p64
Vhttp://pbs.twimg.com/profile_background_images/803896475/9fdb4d628e87f475520dae96242acecf.jpeg
p65
sVname
p66
VPhil Sigg
p67
sVlang
p68
Ven
p69
sVprofile_background_tile
p70
I01
sVfavourites_count
p71
I2410
sVscreen_name
p72
VPhilSigg
p73
sVnotifications
p74
NsVurl
p75
NsVcreated_at
p76
VSat Apr 25 14:57:38 +0000 2009
p77
sVcontributors_enabled
p78
I00
sVtime_zone
p79
VBern
p80
sVprotected
p81
I00
sVdefault_profile
p82
I00
sVis_translator
p83
I00
ssS'contributors_enabled'
p84
I00
sS'profile_text_color'
p85
g38
sS'followers_count'
p86
I176
sS'profile_sidebar_border_color'
p87
g41
sS'location'
p88
g55
sS'default_profile_image'
p89
I00
sS'id_str'
p90
g43
sS'utc_offset'
p91
I7200
sS'statuses_count'
p92
I3399
sS'description'
p93
g52
sS'friends_count'
p94
I282
sS'profile_link_color'
p95
g57
sS'profile_image_url'
p96
g59
sS'notifications'
p97
NsS'geo_enabled'
p98
I01
sS'profile_background_color'
p99
g45
sS'profile_banner_url'
p100
g63
sS'profile_background_image_url'
p101
g65
sS'name'
p102
g67
sS'lang'
p103
g69
sS'following'
p104
I00
sS'profile_background_tile'
p105
I01
sS'favourites_count'
p106
I2410
sS'screen_name'
p107
g73
sS'url'
p108
NsS'created_at'
p109
cdatetime
datetime
p110
(S'\x07\xd9\x04\x19\x0e9&\x00\x00\x00'
p111
tp112
Rp113
sS'profile_background_image_url_https'
p114
g48
sS'time_zone'
p115
g80
sS'protected'
p116
I00
sS'default_profile'
p117
I00
sS'is_translator'
p118
I00
sS'listed_count'
p119
I5
sbsS'filter_level'
p120
Vlow
p121
sS'geo'
p122
Nsg24
I619553446627250180
sS'favorite_count'
p123
I0
sS'source'
p124
VTwitter Web Client
p125
sg103
Ven
p126
sS'author'
p127
g18
sS'in_reply_to_user_id_str'
p128
Nsg28
(dp129
Vcontributors
p130
NsVtruncated
p131
I00
sVtext
p132
g10
sVin_reply_to_status_id
p133
Nsg33
I619553446627250180
sVfavorite_count
p134
I0
sVsource
p135
V<a href="http://twitter.com" rel="nofollow">Twitter Web Client</a>
p136
sVretweeted
p137
I00
sVcoordinates
p138
NsVtimestamp_ms
p139
V1436548027079
p140
sVentities
p141
(dp142
Vuser_mentions
p143
(lp144
sVsymbols
p145
(lp146
sVtrends
p147
(lp148
sVhashtags
p149
(lp150
(dp151
Vindices
p152
(lp153
I122
aI132
asg132
Vwimbledon
p154
sa(dp155
g152
(lp156
I133
aI137
asg132
Vfed
p157
sasVurls
p158
(lp159
ssVin_reply_to_screen_name
p160
Nsg42
V619553446627250180
p161
sVretweet_count
p162
I0
sVin_reply_to_user_id
p163
NsVfavorited
p164
I00
sVuser
p165
g29
sVgeo
p166
NsVin_reply_to_user_id_str
p167
NsVpossibly_sensitive
p168
I00
sg68
g126
sg76
VFri Jul 10 17:07:07 +0000 2015
p169
sVfilter_level
p170
g121
sVin_reply_to_status_id_str
p171
NsVplace
p172
(dp173
Vfull_name
p174
VZurich, Switzerland
p175
sg75
Vhttps://api.twitter.com/1.1/geo/id/3acb748d0f1e9265.json
p176
sVcountry
p177
VSchweiz
p178
sVplace_type
p179
Vcity
p180
sVbounding_box
p181
(dp182
Vtype
p183
VPolygon
p184
sg138
(lp185
(lp186
(lp187
F8.448081
aF47.320183
aa(lp188
F8.448081
aF47.434721
aa(lp189
F8.625442
aF47.434721
aa(lp190
F8.625442
aF47.320183
aaassVcountry_code
p191
VCH
p192
sVattributes
p193
(dp194
sg33
V3acb748d0f1e9265
p195
sg66
VZurich
p196
sssS'coordinates'
p197
NsS'timestamp_ms'
p198
g140
sS'entities'
p199
g142
sS'in_reply_to_status_id_str'
p200
NsS'in_reply_to_screen_name'
p201
Nsg90
g161
sS'retweeted'
p202
I00
sS'place'
p203
g0
(ctweepy.models
Place
p204
g2
Ntp205
Rp206
(dp207
S'full_name'
p208
g175
sg108
g176
sS'country'
p209
g178
sS'place_type'
p210
g180
sS'bounding_box'
p211
g0
(ctweepy.models
BoundingBox
p212
g2
Ntp213
Rp214
(dp215
S'type'
p216
g184
sg197
g185
sbsS'country_code'
p217
g192
sS'attributes'
p218
g194
sg24
g195
sg102
g196
sbsS'retweet_count'
p219
I0
sg109
g110
(S'\x07\xdf\x07\n\x11\x07\x07\x00\x00\x00'
p220
tp221
Rp222
sS'in_reply_to_user_id'
p223
Nsb.