ccopy_reg
_reconstructor
p0
(ctweepy.models
Status
p1
c__builtin__
object
p2
Ntp3
Rp4
(dp5
S'favorited'
p6
I00
sS'contributors'
p7
NsS'truncated'
p8
I00
sS'text'
p9
V2 Stellen in #Berlin: http://t.co/qiob0ZF6Fq und http://t.co/rEZqg3zseb Projektbetreuer/innen gesucht
p10
sS'source_url'
p11
Vhttp://twitter.com
p12
sS'possibly_sensitive'
p13
I00
sS'in_reply_to_status_id'
p14
NsS'user'
p15
g0
(ctweepy.models
User
p16
g2
Ntp17
Rp18
(dp19
S'follow_request_sent'
p20
NsS'profile_use_background_image'
p21
I00
sS'profile_sidebar_fill_color'
p22
VDDEEF6
p23
sS'id'
p24
I142696766
sS'verified'
p25
I00
sS'profile_image_url_https'
p26
Vhttps://pbs.twimg.com/profile_images/2961647105/53fc9c3eaaf820c7b87386b0660d4100_normal.jpeg
p27
sS'_json'
p28
(dp29
Vfollow_request_sent
p30
NsVprofile_use_background_image
p31
I00
sVdefault_profile_image
p32
I00
sVid
p33
I142696766
sVverified
p34
I00
sVprofile_image_url_https
p35
g27
sVprofile_sidebar_fill_color
p36
g23
sVprofile_text_color
p37
V333333
p38
sVfollowers_count
p39
I1817
sVprofile_sidebar_border_color
p40
VFFFFFF
p41
sVid_str
p42
V142696766
p43
sVprofile_background_color
p44
VC0DEED
p45
sVlisted_count
p46
I92
sVprofile_background_image_url_https
p47
Vhttps://pbs.twimg.com/profile_background_images/378800000161739943/DwtWV2IL.jpeg
p48
sVutc_offset
p49
NsVstatuses_count
p50
I5466
sVdescription
p51
VWe write,  we edit,  we translate.  Tweeting for CLS Communication: Sandra Wendland in Basel, Switzerland. Suggestions? Contact: web@cls-communication.com ..
p52
sVfriends_count
p53
I2000
sVlocation
p54
VBasel, Switzerland
p55
sVprofile_link_color
p56
V004078
p57
sVprofile_image_url
p58
Vhttp://pbs.twimg.com/profile_images/2961647105/53fc9c3eaaf820c7b87386b0660d4100_normal.jpeg
p59
sVfollowing
p60
NsVgeo_enabled
p61
I01
sVprofile_banner_url
p62
Vhttps://pbs.twimg.com/profile_banners/142696766/1435826015
p63
sVprofile_background_image_url
p64
Vhttp://pbs.twimg.com/profile_background_images/378800000161739943/DwtWV2IL.jpeg
p65
sVname
p66
VCLS Communication
p67
sVlang
p68
Ven
p69
sVprofile_background_tile
p70
I00
sVfavourites_count
p71
I3039
sVscreen_name
p72
VCLSnews
p73
sVnotifications
p74
NsVurl
p75
Vhttp://www.cls-communication.com/
p76
sVcreated_at
p77
VTue May 11 14:23:07 +0000 2010
p78
sVcontributors_enabled
p79
I00
sVtime_zone
p80
NsVprotected
p81
I00
sVdefault_profile
p82
I00
sVis_translator
p83
I00
ssS'contributors_enabled'
p84
I00
sS'profile_text_color'
p85
g38
sS'followers_count'
p86
I1817
sS'profile_sidebar_border_color'
p87
g41
sS'location'
p88
g55
sS'default_profile_image'
p89
I00
sS'id_str'
p90
g43
sS'utc_offset'
p91
NsS'statuses_count'
p92
I5466
sS'description'
p93
g52
sS'friends_count'
p94
I2000
sS'profile_link_color'
p95
g57
sS'profile_image_url'
p96
g59
sS'notifications'
p97
NsS'geo_enabled'
p98
I01
sS'profile_background_color'
p99
g45
sS'profile_banner_url'
p100
g63
sS'profile_background_image_url'
p101
g65
sS'name'
p102
g67
sS'lang'
p103
g69
sS'following'
p104
I00
sS'profile_background_tile'
p105
I00
sS'favourites_count'
p106
I3039
sS'screen_name'
p107
g73
sS'url'
p108
g76
sS'created_at'
p109
cdatetime
datetime
p110
(S'\x07\xda\x05\x0b\x0e\x17\x07\x00\x00\x00'
p111
tp112
Rp113
sS'profile_background_image_url_https'
p114
g48
sS'time_zone'
p115
NsS'protected'
p116
I00
sS'default_profile'
p117
I00
sS'is_translator'
p118
I00
sS'listed_count'
p119
I92
sbsS'filter_level'
p120
Vlow
p121
sS'geo'
p122
Nsg24
I619051869223186432
sS'favorite_count'
p123
I0
sS'source'
p124
VTwitter Web Client
p125
sg103
Vde
p126
sS'author'
p127
g18
sS'in_reply_to_user_id_str'
p128
Nsg28
(dp129
Vcontributors
p130
NsVtruncated
p131
I00
sVtext
p132
g10
sVin_reply_to_status_id
p133
Nsg33
I619051869223186432
sVfavorite_count
p134
I0
sVsource
p135
V<a href="http://twitter.com" rel="nofollow">Twitter Web Client</a>
p136
sVretweeted
p137
I00
sVcoordinates
p138
NsVtimestamp_ms
p139
V1436428441707
p140
sVentities
p141
(dp142
Vuser_mentions
p143
(lp144
sVsymbols
p145
(lp146
sVtrends
p147
(lp148
sVhashtags
p149
(lp150
(dp151
Vindices
p152
(lp153
I13
aI20
asg132
VBerlin
p154
sasVurls
p155
(lp156
(dp157
g75
Vhttp://t.co/qiob0ZF6Fq
p158
sg152
(lp159
I22
aI44
asVexpanded_url
p160
Vhttp://www.cls-communication.com/de/jobs/projektbetreuer-mw-befristet
p161
sVdisplay_url
p162
Vcls-communication.com/de/jobs/projek\u2026
p163
sa(dp164
g75
Vhttp://t.co/rEZqg3zseb
p165
sg152
(lp166
I49
aI71
asg160
Vhttp://www.cls-communication.com/de/jobs/projektbetreuer-mw
p167
sg162
Vcls-communication.com/de/jobs/projek\u2026
p168
sassVin_reply_to_screen_name
p169
Nsg42
V619051869223186432
p170
sVretweet_count
p171
I0
sVin_reply_to_user_id
p172
NsVfavorited
p173
I00
sVuser
p174
g29
sVgeo
p175
NsVin_reply_to_user_id_str
p176
NsVpossibly_sensitive
p177
I00
sg68
g126
sg77
VThu Jul 09 07:54:01 +0000 2015
p178
sVfilter_level
p179
g121
sVin_reply_to_status_id_str
p180
NsVplace
p181
(dp182
Vfull_name
p183
VZurich, Switzerland
p184
sg75
Vhttps://api.twitter.com/1.1/geo/id/3acb748d0f1e9265.json
p185
sVcountry
p186
VSchweiz
p187
sVplace_type
p188
Vcity
p189
sVbounding_box
p190
(dp191
Vtype
p192
VPolygon
p193
sg138
(lp194
(lp195
(lp196
F8.448081
aF47.320183
aa(lp197
F8.448081
aF47.434721
aa(lp198
F8.625442
aF47.434721
aa(lp199
F8.625442
aF47.320183
aaassVcountry_code
p200
VCH
p201
sVattributes
p202
(dp203
sg33
V3acb748d0f1e9265
p204
sg66
VZurich
p205
sssS'coordinates'
p206
NsS'timestamp_ms'
p207
g140
sS'entities'
p208
g142
sS'in_reply_to_status_id_str'
p209
NsS'in_reply_to_screen_name'
p210
Nsg90
g170
sS'retweeted'
p211
I00
sS'place'
p212
g0
(ctweepy.models
Place
p213
g2
Ntp214
Rp215
(dp216
S'full_name'
p217
g184
sg108
g185
sS'country'
p218
g187
sS'place_type'
p219
g189
sS'bounding_box'
p220
g0
(ctweepy.models
BoundingBox
p221
g2
Ntp222
Rp223
(dp224
S'type'
p225
g193
sg206
g194
sbsS'country_code'
p226
g201
sS'attributes'
p227
g203
sg24
g204
sg102
g205
sbsS'retweet_count'
p228
I0
sg109
g110
(S'\x07\xdf\x07\t\x076\x01\x00\x00\x00'
p229
tp230
Rp231
sS'in_reply_to_user_id'
p232
Nsb.