ccopy_reg
_reconstructor
p0
(ctweepy.models
Status
p1
c__builtin__
object
p2
Ntp3
Rp4
(dp5
S'favorited'
p6
I00
sS'contributors'
p7
NsS'truncated'
p8
I00
sS'text'
p9
VHow does world-record 7 time winner @ronschildknecht prepare before the ZH @IRONMANtri?\u000ahttp://t.co/6UE5rktvhj http://t.co/J14hjpRJ96
p10
sS'source_url'
p11
Vhttp://twitter.com
p12
sS'possibly_sensitive'
p13
I00
sS'in_reply_to_status_id'
p14
NsS'user'
p15
g0
(ctweepy.models
User
p16
g2
Ntp17
Rp18
(dp19
S'follow_request_sent'
p20
NsS'profile_use_background_image'
p21
I01
sS'profile_sidebar_fill_color'
p22
VDDEEF6
p23
sS'id'
p24
I1900561705
sS'verified'
p25
I00
sS'profile_image_url_https'
p26
Vhttps://pbs.twimg.com/profile_images/567652835320692737/xffEL_4n_normal.jpeg
p27
sS'_json'
p28
(dp29
Vfollow_request_sent
p30
NsVprofile_use_background_image
p31
I01
sVdefault_profile_image
p32
I00
sVid
p33
I1900561705
sVverified
p34
I00
sVprofile_image_url_https
p35
g27
sVprofile_sidebar_fill_color
p36
g23
sVprofile_text_color
p37
V333333
p38
sVfollowers_count
p39
I122
sVprofile_sidebar_border_color
p40
VC0DEED
p41
sVid_str
p42
V1900561705
p43
sVprofile_background_color
p44
VC0DEED
p45
sVlisted_count
p46
I3
sVprofile_background_image_url_https
p47
Vhttps://abs.twimg.com/images/themes/theme1/bg.png
p48
sVutc_offset
p49
I7200
sVstatuses_count
p50
I295
sVdescription
p51
VZurich based Swiss startup reinventing footwear. Worldwide patented technology. Get to know us better at http://www.gnlfootwear.com
p52
sVfriends_count
p53
I80
sVlocation
p54
VSwitzerland
p55
sVprofile_link_color
p56
VE8761E
p57
sVprofile_image_url
p58
Vhttp://pbs.twimg.com/profile_images/567652835320692737/xffEL_4n_normal.jpeg
p59
sVfollowing
p60
NsVgeo_enabled
p61
I01
sVprofile_banner_url
p62
Vhttps://pbs.twimg.com/profile_banners/1900561705/1434445563
p63
sVprofile_background_image_url
p64
Vhttp://abs.twimg.com/images/themes/theme1/bg.png
p65
sVname
p66
VGnL Footwear
p67
sVlang
p68
Ven
p69
sVprofile_background_tile
p70
I00
sVfavourites_count
p71
I107
sVscreen_name
p72
Vgnlfootwear
p73
sVnotifications
p74
NsVurl
p75
Vhttp://www.gnlfootwear.com
p76
sVcreated_at
p77
VTue Sep 24 13:41:53 +0000 2013
p78
sVcontributors_enabled
p79
I00
sVtime_zone
p80
VBerlin
p81
sVprotected
p82
I00
sVdefault_profile
p83
I00
sVis_translator
p84
I00
ssS'contributors_enabled'
p85
I00
sS'profile_text_color'
p86
g38
sS'followers_count'
p87
I122
sS'profile_sidebar_border_color'
p88
g41
sS'location'
p89
g55
sS'default_profile_image'
p90
I00
sS'id_str'
p91
g43
sS'utc_offset'
p92
I7200
sS'statuses_count'
p93
I295
sS'description'
p94
g52
sS'friends_count'
p95
I80
sS'profile_link_color'
p96
g57
sS'profile_image_url'
p97
g59
sS'notifications'
p98
NsS'geo_enabled'
p99
I01
sS'profile_background_color'
p100
g45
sS'profile_banner_url'
p101
g63
sS'profile_background_image_url'
p102
g65
sS'name'
p103
g67
sS'lang'
p104
g69
sS'following'
p105
I00
sS'profile_background_tile'
p106
I00
sS'favourites_count'
p107
I107
sS'screen_name'
p108
g73
sS'url'
p109
g76
sS'created_at'
p110
cdatetime
datetime
p111
(S'\x07\xdd\t\x18\r)5\x00\x00\x00'
p112
tp113
Rp114
sS'profile_background_image_url_https'
p115
g48
sS'time_zone'
p116
g81
sS'protected'
p117
I00
sS'default_profile'
p118
I00
sS'is_translator'
p119
I00
sS'listed_count'
p120
I3
sbsS'filter_level'
p121
Vlow
p122
sS'geo'
p123
Nsg24
I620924912719556609
sS'favorite_count'
p124
I0
sS'source'
p125
VTwitter Web Client
p126
sg104
Ven
p127
sS'author'
p128
g18
sS'in_reply_to_user_id_str'
p129
Nsg28
(dp130
Vcontributors
p131
NsVtruncated
p132
I00
sVtext
p133
VHow does world-record 7 time winner @ronschildknecht prepare before the ZH @IRONMANtri?\u000ahttp://t.co/6UE5rktvhj http://t.co/J14hjpRJ96
p134
sVin_reply_to_status_id
p135
Nsg33
I620924912719556609
sVfavorite_count
p136
I0
sVsource
p137
V<a href="http://twitter.com" rel="nofollow">Twitter Web Client</a>
p138
sVretweeted
p139
I00
sVcoordinates
p140
NsVtimestamp_ms
p141
V1436875010076
p142
sVentities
p143
(dp144
Vsymbols
p145
(lp146
sVmedia
p147
(lp148
(dp149
Vexpanded_url
p150
Vhttp://twitter.com/gnlfootwear/status/620924912719556609/photo/1
p151
sVdisplay_url
p152
Vpic.twitter.com/J14hjpRJ96
p153
sg75
Vhttp://t.co/J14hjpRJ96
p154
sVmedia_url_https
p155
Vhttps://pbs.twimg.com/media/CJ336tkUYAAXSKk.jpg
p156
sg42
V620924911683395584
p157
sVsizes
p158
(dp159
Vsmall
p160
(dp161
Vh
p162
I226
sVresize
p163
Vfit
p164
sVw
p165
I340
ssVlarge
p166
(dp167
g162
I433
sg163
Vfit
p168
sg165
I650
ssVmedium
p169
(dp170
g162
I399
sg163
Vfit
p171
sg165
I600
ssVthumb
p172
(dp173
g162
I150
sg163
Vcrop
p174
sg165
I150
sssVindices
p175
(lp176
I111
aI133
asVtype
p177
Vphoto
p178
sg33
I620924911683395584
sVmedia_url
p179
Vhttp://pbs.twimg.com/media/CJ336tkUYAAXSKk.jpg
p180
sasVhashtags
p181
(lp182
sVuser_mentions
p183
(lp184
(dp185
g33
I38149426
sg175
(lp186
I36
aI52
asg42
V38149426
p187
sg72
Vronschildknecht
p188
sg66
VRonnie Schildknecht
p189
sa(dp190
g33
I12512092
sg175
(lp191
I75
aI86
asg42
V12512092
p192
sg72
VIRONMANtri
p193
sg66
VIRONMAN Triathlon
p194
sasVtrends
p195
(lp196
sVurls
p197
(lp198
(dp199
g75
Vhttp://t.co/6UE5rktvhj
p200
sg175
(lp201
I88
aI110
asg150
Vhttp://www.gnlfootwear.com/news/details/item/interview-mit-weltrekordhalter-ronnie-i-ron-schildknecht/
p202
sg152
Vgnlfootwear.com/news/details/i\u2026
p203
sassVin_reply_to_screen_name
p204
Nsg42
V620924912719556609
p205
sVretweet_count
p206
I0
sVin_reply_to_user_id
p207
NsVfavorited
p208
I00
sVuser
p209
g29
sVgeo
p210
NsVin_reply_to_user_id_str
p211
NsVpossibly_sensitive
p212
I00
sg68
g127
sg77
VTue Jul 14 11:56:50 +0000 2015
p213
sVfilter_level
p214
g122
sVin_reply_to_status_id_str
p215
NsVplace
p216
(dp217
Vfull_name
p218
VZurich, Switzerland
p219
sg75
Vhttps://api.twitter.com/1.1/geo/id/3acb748d0f1e9265.json
p220
sVcountry
p221
VSchweiz
p222
sVplace_type
p223
Vcity
p224
sVbounding_box
p225
(dp226
g177
VPolygon
p227
sg140
(lp228
(lp229
(lp230
F8.448081
aF47.320183
aa(lp231
F8.448081
aF47.434721
aa(lp232
F8.625442
aF47.434721
aa(lp233
F8.625442
aF47.320183
aaassVcountry_code
p234
VCH
p235
sVattributes
p236
(dp237
sg33
V3acb748d0f1e9265
p238
sg66
VZurich
p239
ssVextended_entities
p240
(dp241
g147
(lp242
(dp243
g150
Vhttp://twitter.com/gnlfootwear/status/620924912719556609/photo/1
p244
sg152
Vpic.twitter.com/J14hjpRJ96
p245
sg75
Vhttp://t.co/J14hjpRJ96
p246
sg155
Vhttps://pbs.twimg.com/media/CJ336tkUYAAXSKk.jpg
p247
sg42
V620924911683395584
p248
sg158
(dp249
g160
(dp250
g162
I226
sg163
Vfit
p251
sg165
I340
ssg166
(dp252
g162
I433
sg163
Vfit
p253
sg165
I650
ssg169
(dp254
g162
I399
sg163
Vfit
p255
sg165
I600
ssg172
(dp256
g162
I150
sg163
Vcrop
p257
sg165
I150
sssg175
(lp258
I111
aI133
asg177
Vphoto
p259
sg33
I620924911683395584
sg179
Vhttp://pbs.twimg.com/media/CJ336tkUYAAXSKk.jpg
p260
sasssS'coordinates'
p261
NsS'timestamp_ms'
p262
g142
sS'entities'
p263
g144
sS'in_reply_to_status_id_str'
p264
NsS'in_reply_to_screen_name'
p265
Nsg91
g205
sS'extended_entities'
p266
g241
sS'retweeted'
p267
I00
sS'place'
p268
g0
(ctweepy.models
Place
p269
g2
Ntp270
Rp271
(dp272
S'full_name'
p273
g219
sg109
g220
sS'country'
p274
g222
sS'place_type'
p275
g224
sS'bounding_box'
p276
g0
(ctweepy.models
BoundingBox
p277
g2
Ntp278
Rp279
(dp280
S'type'
p281
g227
sg261
g228
sbsS'country_code'
p282
g235
sS'attributes'
p283
g237
sg24
g238
sg103
g239
sbsS'retweet_count'
p284
I0
sg110
g111
(S'\x07\xdf\x07\x0e\x0b82\x00\x00\x00'
p285
tp286
Rp287
sS'in_reply_to_user_id'
p288
Nsb.