ccopy_reg
_reconstructor
p0
(ctweepy.models
Status
p1
c__builtin__
object
p2
Ntp3
Rp4
(dp5
S'favorited'
p6
I00
sS'contributors'
p7
NsS'truncated'
p8
I00
sS'text'
p9
VAbout to start the evening PTs @CenturionClubZH 33c indoors,that should get the blood pumping!\u000ahttp://t.co/DqPzNg9o5m http://t.co/Ha2riTb9gP
p10
sS'source_url'
p11
Vhttp://twitter.com
p12
sS'possibly_sensitive'
p13
I00
sS'in_reply_to_status_id'
p14
NsS'user'
p15
g0
(ctweepy.models
User
p16
g2
Ntp17
Rp18
(dp19
S'follow_request_sent'
p20
NsS'profile_use_background_image'
p21
I01
sS'profile_sidebar_fill_color'
p22
VFFFFFF
p23
sS'id'
p24
I200055472
sS'verified'
p25
I00
sS'profile_image_url_https'
p26
Vhttps://pbs.twimg.com/profile_images/571952269998817280/LLd_2L5__normal.jpeg
p27
sS'_json'
p28
(dp29
Vfollow_request_sent
p30
NsVprofile_use_background_image
p31
I01
sVdefault_profile_image
p32
I00
sVid
p33
I200055472
sVverified
p34
I00
sVprofile_image_url_https
p35
g27
sVprofile_sidebar_fill_color
p36
g23
sVprofile_text_color
p37
V333333
p38
sVfollowers_count
p39
I36161
sVprofile_sidebar_border_color
p40
VFFFFFF
p41
sVid_str
p42
V200055472
p43
sVprofile_background_color
p44
VB2DFDA
p45
sVlisted_count
p46
I311
sVprofile_background_image_url_https
p47
Vhttps://pbs.twimg.com/profile_background_images/477716103217422336/xROsBjsT.jpeg
p48
sVutc_offset
p49
I7200
sVstatuses_count
p50
I38844
sVdescription
p51
VPersonal Trainer and Nutrition Expert. TV, Radio and Magazine features. http://t.co/1qC3Dnah8m Owner of http://t.co/FtpUPKkrub and http://t.co/mMR2ldAqt1
p52
sVfriends_count
p53
I505
sVlocation
p54
VZurich, Switzerland
p55
sVprofile_link_color
p56
V93A644
p57
sVprofile_image_url
p58
Vhttp://pbs.twimg.com/profile_images/571952269998817280/LLd_2L5__normal.jpeg
p59
sVfollowing
p60
NsVgeo_enabled
p61
I01
sVprofile_banner_url
p62
Vhttps://pbs.twimg.com/profile_banners/200055472/1435216448
p63
sVprofile_background_image_url
p64
Vhttp://pbs.twimg.com/profile_background_images/477716103217422336/xROsBjsT.jpeg
p65
sVname
p66
VCindy Landolt
p67
sVlang
p68
Ven
p69
sVprofile_background_tile
p70
I01
sVfavourites_count
p71
I433
sVscreen_name
p72
VCindyTraining
p73
sVnotifications
p74
NsVurl
p75
Vhttp://www.cindytraining.com/
p76
sVcreated_at
p77
VFri Oct 08 10:20:42 +0000 2010
p78
sVcontributors_enabled
p79
I00
sVtime_zone
p80
VBern
p81
sVprotected
p82
I00
sVdefault_profile
p83
I00
sVis_translator
p84
I00
ssS'contributors_enabled'
p85
I00
sS'profile_text_color'
p86
g38
sS'followers_count'
p87
I36161
sS'profile_sidebar_border_color'
p88
g41
sS'location'
p89
g55
sS'default_profile_image'
p90
I00
sS'id_str'
p91
g43
sS'utc_offset'
p92
I7200
sS'statuses_count'
p93
I38844
sS'description'
p94
g52
sS'friends_count'
p95
I505
sS'profile_link_color'
p96
g57
sS'profile_image_url'
p97
g59
sS'notifications'
p98
NsS'geo_enabled'
p99
I01
sS'profile_background_color'
p100
g45
sS'profile_banner_url'
p101
g63
sS'profile_background_image_url'
p102
g65
sS'name'
p103
g67
sS'lang'
p104
g69
sS'following'
p105
I00
sS'profile_background_tile'
p106
I01
sS'favourites_count'
p107
I433
sS'screen_name'
p108
g73
sS'url'
p109
g76
sS'created_at'
p110
cdatetime
datetime
p111
(S'\x07\xda\n\x08\n\x14*\x00\x00\x00'
p112
tp113
Rp114
sS'profile_background_image_url_https'
p115
g48
sS'time_zone'
p116
g81
sS'protected'
p117
I00
sS'default_profile'
p118
I00
sS'is_translator'
p119
I00
sS'listed_count'
p120
I311
sbsS'filter_level'
p121
Vlow
p122
sS'geo'
p123
Nsg24
I618440500794798080
sS'favorite_count'
p124
I0
sS'source'
p125
VTwitter Web Client
p126
sg104
Ven
p127
sS'author'
p128
g18
sS'in_reply_to_user_id_str'
p129
Nsg28
(dp130
Vcontributors
p131
NsVtruncated
p132
I00
sVtext
p133
VAbout to start the evening PTs @CenturionClubZH 33c indoors,that should get the blood pumping!\u000ahttp://t.co/DqPzNg9o5m http://t.co/Ha2riTb9gP
p134
sVin_reply_to_status_id
p135
Nsg33
I618440500794798080
sVfavorite_count
p136
I0
sVsource
p137
V<a href="http://twitter.com" rel="nofollow">Twitter Web Client</a>
p138
sVretweeted
p139
I00
sVcoordinates
p140
NsVtimestamp_ms
p141
V1436282680115
p142
sVentities
p143
(dp144
Vsymbols
p145
(lp146
sVmedia
p147
(lp148
(dp149
Vexpanded_url
p150
Vhttp://twitter.com/CindyTraining/status/618440500794798080/photo/1
p151
sVdisplay_url
p152
Vpic.twitter.com/Ha2riTb9gP
p153
sg75
Vhttp://t.co/Ha2riTb9gP
p154
sVmedia_url_https
p155
Vhttps://pbs.twimg.com/media/CJUkW4-WsAAV1K_.jpg
p156
sg42
V618440499502952448
p157
sVsizes
p158
(dp159
Vlarge
p160
(dp161
Vh
p162
I1536
sVresize
p163
Vfit
p164
sVw
p165
I1024
ssVsmall
p166
(dp167
g162
I510
sg163
Vfit
p168
sg165
I340
ssVmedium
p169
(dp170
g162
I900
sg163
Vfit
p171
sg165
I600
ssVthumb
p172
(dp173
g162
I150
sg163
Vcrop
p174
sg165
I150
sssVindices
p175
(lp176
I118
aI140
asVtype
p177
Vphoto
p178
sg33
I618440499502952448
sVmedia_url
p179
Vhttp://pbs.twimg.com/media/CJUkW4-WsAAV1K_.jpg
p180
sasVhashtags
p181
(lp182
sVuser_mentions
p183
(lp184
(dp185
g33
I2546697344
sg175
(lp186
I31
aI47
asg42
V2546697344
p187
sg72
VCenturionClubZH
p188
sg66
VCenturion Club
p189
sasVtrends
p190
(lp191
sVurls
p192
(lp193
(dp194
g75
Vhttp://t.co/DqPzNg9o5m
p195
sg175
(lp196
I95
aI117
asg150
Vhttp://www.cindylandolt.ch
p197
sg152
Vcindylandolt.ch
p198
sassVin_reply_to_screen_name
p199
Nsg42
V618440500794798080
p200
sVretweet_count
p201
I0
sVin_reply_to_user_id
p202
NsVfavorited
p203
I00
sVuser
p204
g29
sVgeo
p205
NsVin_reply_to_user_id_str
p206
NsVpossibly_sensitive
p207
I00
sg68
g127
sg77
VTue Jul 07 15:24:40 +0000 2015
p208
sVfilter_level
p209
g122
sVin_reply_to_status_id_str
p210
NsVplace
p211
(dp212
Vfull_name
p213
VZurich, Switzerland
p214
sg75
Vhttps://api.twitter.com/1.1/geo/id/3acb748d0f1e9265.json
p215
sVcountry
p216
VSchweiz
p217
sVplace_type
p218
Vcity
p219
sVbounding_box
p220
(dp221
g177
VPolygon
p222
sg140
(lp223
(lp224
(lp225
F8.448081
aF47.320183
aa(lp226
F8.448081
aF47.434721
aa(lp227
F8.625442
aF47.434721
aa(lp228
F8.625442
aF47.320183
aaassVcountry_code
p229
VCH
p230
sVattributes
p231
(dp232
sg33
V3acb748d0f1e9265
p233
sg66
VZurich
p234
ssVextended_entities
p235
(dp236
g147
(lp237
(dp238
g150
Vhttp://twitter.com/CindyTraining/status/618440500794798080/photo/1
p239
sg152
Vpic.twitter.com/Ha2riTb9gP
p240
sg75
Vhttp://t.co/Ha2riTb9gP
p241
sg155
Vhttps://pbs.twimg.com/media/CJUkW4-WsAAV1K_.jpg
p242
sg42
V618440499502952448
p243
sg158
(dp244
g160
(dp245
g162
I1536
sg163
Vfit
p246
sg165
I1024
ssg166
(dp247
g162
I510
sg163
Vfit
p248
sg165
I340
ssg169
(dp249
g162
I900
sg163
Vfit
p250
sg165
I600
ssg172
(dp251
g162
I150
sg163
Vcrop
p252
sg165
I150
sssg175
(lp253
I118
aI140
asg177
Vphoto
p254
sg33
I618440499502952448
sg179
Vhttp://pbs.twimg.com/media/CJUkW4-WsAAV1K_.jpg
p255
sasssS'coordinates'
p256
NsS'timestamp_ms'
p257
g142
sS'entities'
p258
g144
sS'in_reply_to_status_id_str'
p259
NsS'in_reply_to_screen_name'
p260
Nsg91
g200
sS'extended_entities'
p261
g236
sS'retweeted'
p262
I00
sS'place'
p263
g0
(ctweepy.models
Place
p264
g2
Ntp265
Rp266
(dp267
S'full_name'
p268
g214
sg109
g215
sS'country'
p269
g217
sS'place_type'
p270
g219
sS'bounding_box'
p271
g0
(ctweepy.models
BoundingBox
p272
g2
Ntp273
Rp274
(dp275
S'type'
p276
g222
sg256
g223
sbsS'country_code'
p277
g230
sS'attributes'
p278
g232
sg24
g233
sg103
g234
sbsS'retweet_count'
p279
I0
sg110
g111
(S'\x07\xdf\x07\x07\x0f\x18(\x00\x00\x00'
p280
tp281
Rp282
sS'in_reply_to_user_id'
p283
Nsb.