ccopy_reg
_reconstructor
p0
(ctweepy.models
Status
p1
c__builtin__
object
p2
Ntp3
Rp4
(dp5
S'favorited'
p6
I00
sS'contributors'
p7
NsS'truncated'
p8
I00
sS'text'
p9
V\u0632\u0631\u062a \u0627\u0644\u064a\u0648\u0645 \u0627\u062d\u062f \u0645\u0642\u0631\u0627\u062a \u0627\u0644\u0641\u064a\u0641\u0627 \u0641\u064a \u0632\u064a\u0648\u0631\u062e \u0648\u062d\u0635\u0644\u062a \u0647\u0630\u0647 \u0627\u0644\u0644\u0648\u062d\u0629 \u0648\u0639\u0644\u064a\u0647\u0627 \u0627\u0633\u0645 \u0627\u0644\u0645\u063a\u0641\u0648\u0631 \u0644\u0647 \u0628\u0625\u0630\u0646 \u0627\u0644\u0644\u0647 \u0627\u0644\u0627\u0633\u062a\u0627\u0630 \u0639\u0628\u062f\u0627\u0644\u0644\u0647 \u0627\u0644\u062f\u0628\u0644 \u0639\u0636\u0648 \u0627\u0644\u0641\u064a\u0641\u0627 http://t.co/SXg3ltDpZX
p10
sS'source_url'
p11
Vhttp://twitter.com/download/iphone
p12
sS'possibly_sensitive'
p13
I00
sS'in_reply_to_status_id'
p14
NsS'user'
p15
g0
(ctweepy.models
User
p16
g2
Ntp17
Rp18
(dp19
S'follow_request_sent'
p20
NsS'profile_use_background_image'
p21
I01
sS'profile_sidebar_fill_color'
p22
VEFF5F7
p23
sS'id'
p24
I327111975
sS'verified'
p25
I00
sS'profile_image_url_https'
p26
Vhttps://pbs.twimg.com/profile_images/605781341645324289/chd9Xhjk_normal.jpg
p27
sS'_json'
p28
(dp29
Vfollow_request_sent
p30
NsVprofile_use_background_image
p31
I01
sVdefault_profile_image
p32
I00
sVid
p33
I327111975
sVverified
p34
I00
sVprofile_image_url_https
p35
g27
sVprofile_sidebar_fill_color
p36
g23
sVprofile_text_color
p37
V000000
p38
sVfollowers_count
p39
I20773
sVprofile_sidebar_border_color
p40
VC0DEED
p41
sVid_str
p42
V327111975
p43
sVprofile_background_color
p44
VFFFFFF
p45
sVlisted_count
p46
I10
sVprofile_background_image_url_https
p47
Vhttps://pbs.twimg.com/profile_background_images/353682871/IMG_9073_2.jpg
p48
sVutc_offset
p49
I-25200
sVstatuses_count
p50
I8248
sVdescription
p51
VBorn in Oregon, USA.      Graduated from @Portland_State University. Working in Saudi Arabian Football Federation. #FIFAMASTER 15th edition candidate @sportcies
p52
sVfriends_count
p53
I392
sVlocation
p54
VSaudi Arabia / Switzerland  
p55
sVprofile_link_color
p56
V0084B4
p57
sVprofile_image_url
p58
Vhttp://pbs.twimg.com/profile_images/605781341645324289/chd9Xhjk_normal.jpg
p59
sVfollowing
p60
NsVgeo_enabled
p61
I01
sVprofile_banner_url
p62
Vhttps://pbs.twimg.com/profile_banners/327111975/1349328635
p63
sVprofile_background_image_url
p64
Vhttp://pbs.twimg.com/profile_background_images/353682871/IMG_9073_2.jpg
p65
sVname
p66
VAbdulrahman AlSayyar
p67
sVlang
p68
Ven
p69
sVprofile_background_tile
p70
I00
sVfavourites_count
p71
I317
sVscreen_name
p72
V_ALSAYYAR
p73
sVnotifications
p74
NsVurl
p75
Vhttp://sa.linkedin.com/in/alsayyar
p76
sVcreated_at
p77
VFri Jul 01 00:58:52 +0000 2011
p78
sVcontributors_enabled
p79
I00
sVtime_zone
p80
VPacific Time (US & Canada)
p81
sVprotected
p82
I00
sVdefault_profile
p83
I00
sVis_translator
p84
I00
ssS'contributors_enabled'
p85
I00
sS'profile_text_color'
p86
g38
sS'followers_count'
p87
I20773
sS'profile_sidebar_border_color'
p88
g41
sS'location'
p89
g55
sS'default_profile_image'
p90
I00
sS'id_str'
p91
g43
sS'utc_offset'
p92
I-25200
sS'statuses_count'
p93
I8248
sS'description'
p94
g52
sS'friends_count'
p95
I392
sS'profile_link_color'
p96
g57
sS'profile_image_url'
p97
g59
sS'notifications'
p98
NsS'geo_enabled'
p99
I01
sS'profile_background_color'
p100
g45
sS'profile_banner_url'
p101
g63
sS'profile_background_image_url'
p102
g65
sS'name'
p103
g67
sS'lang'
p104
g69
sS'following'
p105
I00
sS'profile_background_tile'
p106
I00
sS'favourites_count'
p107
I317
sS'screen_name'
p108
g73
sS'url'
p109
g76
sS'created_at'
p110
cdatetime
datetime
p111
(S'\x07\xdb\x07\x01\x00:4\x00\x00\x00'
p112
tp113
Rp114
sS'profile_background_image_url_https'
p115
g48
sS'time_zone'
p116
g81
sS'protected'
p117
I00
sS'default_profile'
p118
I00
sS'is_translator'
p119
I00
sS'listed_count'
p120
I10
sbsS'filter_level'
p121
Vlow
p122
sS'geo'
p123
Nsg24
I618876782427656192
sS'favorite_count'
p124
I0
sS'source'
p125
VTwitter for iPhone
p126
sg104
Var
p127
sS'author'
p128
g18
sS'in_reply_to_user_id_str'
p129
Nsg28
(dp130
Vcontributors
p131
NsVtruncated
p132
I00
sVtext
p133
g10
sVin_reply_to_status_id
p134
Nsg33
I618876782427656192
sVfavorite_count
p135
I0
sVsource
p136
V<a href="http://twitter.com/download/iphone" rel="nofollow">Twitter for iPhone</a>
p137
sVretweeted
p138
I00
sVcoordinates
p139
NsVtimestamp_ms
p140
V1436386697762
p141
sVentities
p142
(dp143
Vsymbols
p144
(lp145
sVmedia
p146
(lp147
(dp148
Vexpanded_url
p149
Vhttp://twitter.com/_ALSAYYAR/status/618876782427656192/photo/1
p150
sVdisplay_url
p151
Vpic.twitter.com/SXg3ltDpZX
p152
sg75
Vhttp://t.co/SXg3ltDpZX
p153
sVmedia_url_https
p154
Vhttps://pbs.twimg.com/media/CJaxJLKWUAAWZF4.jpg
p155
sg42
V618876769983156224
p156
sVsizes
p157
(dp158
Vsmall
p159
(dp160
Vh
p161
I453
sVresize
p162
Vfit
p163
sVw
p164
I340
ssVlarge
p165
(dp166
g161
I1024
sg162
Vfit
p167
sg164
I768
ssVmedium
p168
(dp169
g161
I800
sg162
Vfit
p170
sg164
I600
ssVthumb
p171
(dp172
g161
I150
sg162
Vcrop
p173
sg164
I150
sssVindices
p174
(lp175
I118
aI140
asVtype
p176
Vphoto
p177
sg33
I618876769983156224
sVmedia_url
p178
Vhttp://pbs.twimg.com/media/CJaxJLKWUAAWZF4.jpg
p179
sasVhashtags
p180
(lp181
sVuser_mentions
p182
(lp183
sVtrends
p184
(lp185
sVurls
p186
(lp187
ssVin_reply_to_screen_name
p188
Nsg42
V618876782427656192
p189
sVretweet_count
p190
I0
sVin_reply_to_user_id
p191
NsVfavorited
p192
I00
sVuser
p193
g29
sVgeo
p194
NsVin_reply_to_user_id_str
p195
NsVpossibly_sensitive
p196
I00
sg68
g127
sg77
VWed Jul 08 20:18:17 +0000 2015
p197
sVfilter_level
p198
g122
sVin_reply_to_status_id_str
p199
NsVplace
p200
(dp201
Vfull_name
p202
VZurich, Switzerland
p203
sg75
Vhttps://api.twitter.com/1.1/geo/id/db94c1cccc67c4f4.json
p204
sVcountry
p205
VSchweiz
p206
sVplace_type
p207
Vadmin
p208
sVbounding_box
p209
(dp210
g176
VPolygon
p211
sg139
(lp212
(lp213
(lp214
F8.357749
aF47.159384
aa(lp215
F8.357749
aF47.694503
aa(lp216
F8.984445
aF47.694503
aa(lp217
F8.984445
aF47.159384
aaassVcountry_code
p218
VCH
p219
sVattributes
p220
(dp221
sg33
Vdb94c1cccc67c4f4
p222
sg66
VZurich
p223
ssVextended_entities
p224
(dp225
g146
(lp226
(dp227
g149
Vhttp://twitter.com/_ALSAYYAR/status/618876782427656192/photo/1
p228
sg151
Vpic.twitter.com/SXg3ltDpZX
p229
sg75
Vhttp://t.co/SXg3ltDpZX
p230
sg154
Vhttps://pbs.twimg.com/media/CJaxJLKWUAAWZF4.jpg
p231
sg42
V618876769983156224
p232
sg157
(dp233
g159
(dp234
g161
I453
sg162
Vfit
p235
sg164
I340
ssg165
(dp236
g161
I1024
sg162
Vfit
p237
sg164
I768
ssg168
(dp238
g161
I800
sg162
Vfit
p239
sg164
I600
ssg171
(dp240
g161
I150
sg162
Vcrop
p241
sg164
I150
sssg174
(lp242
I118
aI140
asg176
Vphoto
p243
sg33
I618876769983156224
sg178
Vhttp://pbs.twimg.com/media/CJaxJLKWUAAWZF4.jpg
p244
sa(dp245
g149
Vhttp://twitter.com/_ALSAYYAR/status/618876782427656192/photo/1
p246
sg151
Vpic.twitter.com/SXg3ltDpZX
p247
sg75
Vhttp://t.co/SXg3ltDpZX
p248
sg154
Vhttps://pbs.twimg.com/media/CJaxJLeWcAAZ-ar.jpg
p249
sg42
V618876770067050496
p250
sg157
(dp251
g159
(dp252
g161
I453
sg162
Vfit
p253
sg164
I340
ssg165
(dp254
g161
I1024
sg162
Vfit
p255
sg164
I768
ssg168
(dp256
g161
I800
sg162
Vfit
p257
sg164
I600
ssg171
(dp258
g161
I150
sg162
Vcrop
p259
sg164
I150
sssg174
(lp260
I118
aI140
asg176
Vphoto
p261
sg33
I618876770067050496
sg178
Vhttp://pbs.twimg.com/media/CJaxJLeWcAAZ-ar.jpg
p262
sasssS'coordinates'
p263
NsS'timestamp_ms'
p264
g141
sS'entities'
p265
g143
sS'in_reply_to_status_id_str'
p266
NsS'in_reply_to_screen_name'
p267
Nsg91
g189
sS'extended_entities'
p268
g225
sS'retweeted'
p269
I00
sS'place'
p270
g0
(ctweepy.models
Place
p271
g2
Ntp272
Rp273
(dp274
S'full_name'
p275
g203
sg109
g204
sS'country'
p276
g206
sS'place_type'
p277
g208
sS'bounding_box'
p278
g0
(ctweepy.models
BoundingBox
p279
g2
Ntp280
Rp281
(dp282
S'type'
p283
g211
sg263
g212
sbsS'country_code'
p284
g219
sS'attributes'
p285
g221
sg24
g222
sg103
g223
sbsS'retweet_count'
p286
I0
sg110
g111
(S'\x07\xdf\x07\x08\x14\x12\x11\x00\x00\x00'
p287
tp288
Rp289
sS'in_reply_to_user_id'
p290
Nsb.