ccopy_reg
_reconstructor
p0
(ctweepy.models
Status
p1
c__builtin__
object
p2
Ntp3
Rp4
(dp5
S'favorited'
p6
I00
sS'contributors'
p7
NsS'truncated'
p8
I00
sS'text'
p9
V@Moz @TomAnthonySEO it says "Post not found" on http://t.co/bEA3OjbvDb
p10
sS'source_url'
p11
Vhttp://twitter.com
p12
sS'possibly_sensitive'
p13
I00
sS'in_reply_to_status_id'
p14
I620496135598116866
sS'user'
p15
g0
(ctweepy.models
User
p16
g2
Ntp17
Rp18
(dp19
S'follow_request_sent'
p20
NsS'profile_use_background_image'
p21
I00
sS'profile_sidebar_fill_color'
p22
VDDEEF6
p23
sS'id'
p24
I142696766
sS'verified'
p25
I00
sS'profile_image_url_https'
p26
Vhttps://pbs.twimg.com/profile_images/2961647105/53fc9c3eaaf820c7b87386b0660d4100_normal.jpeg
p27
sS'_json'
p28
(dp29
Vfollow_request_sent
p30
NsVprofile_use_background_image
p31
I00
sVdefault_profile_image
p32
I00
sVid
p33
I142696766
sVverified
p34
I00
sVprofile_image_url_https
p35
g27
sVprofile_sidebar_fill_color
p36
g23
sVprofile_text_color
p37
V333333
p38
sVfollowers_count
p39
I1811
sVprofile_sidebar_border_color
p40
VFFFFFF
p41
sVid_str
p42
V142696766
p43
sVprofile_background_color
p44
VC0DEED
p45
sVlisted_count
p46
I92
sVprofile_background_image_url_https
p47
Vhttps://pbs.twimg.com/profile_background_images/378800000161739943/DwtWV2IL.jpeg
p48
sVutc_offset
p49
NsVstatuses_count
p50
I5485
sVdescription
p51
VWe write,  we edit,  we translate.  Tweeting for CLS Communication: Sandra Wendland in Basel, Switzerland. Suggestions? Contact: web@cls-communication.com ..
p52
sVfriends_count
p53
I1999
sVlocation
p54
VBasel, Switzerland
p55
sVprofile_link_color
p56
V004078
p57
sVprofile_image_url
p58
Vhttp://pbs.twimg.com/profile_images/2961647105/53fc9c3eaaf820c7b87386b0660d4100_normal.jpeg
p59
sVfollowing
p60
NsVgeo_enabled
p61
I01
sVprofile_banner_url
p62
Vhttps://pbs.twimg.com/profile_banners/142696766/1435826015
p63
sVprofile_background_image_url
p64
Vhttp://pbs.twimg.com/profile_background_images/378800000161739943/DwtWV2IL.jpeg
p65
sVname
p66
VCLS Communication
p67
sVlang
p68
Ven
p69
sVprofile_background_tile
p70
I00
sVfavourites_count
p71
I3062
sVscreen_name
p72
VCLSnews
p73
sVnotifications
p74
NsVurl
p75
Vhttp://www.cls-communication.com/
p76
sVcreated_at
p77
VTue May 11 14:23:07 +0000 2010
p78
sVcontributors_enabled
p79
I00
sVtime_zone
p80
NsVprotected
p81
I00
sVdefault_profile
p82
I00
sVis_translator
p83
I00
ssS'contributors_enabled'
p84
I00
sS'profile_text_color'
p85
g38
sS'followers_count'
p86
I1811
sS'profile_sidebar_border_color'
p87
g41
sS'location'
p88
g55
sS'default_profile_image'
p89
I00
sS'id_str'
p90
g43
sS'utc_offset'
p91
NsS'statuses_count'
p92
I5485
sS'description'
p93
g52
sS'friends_count'
p94
I1999
sS'profile_link_color'
p95
g57
sS'profile_image_url'
p96
g59
sS'notifications'
p97
NsS'geo_enabled'
p98
I01
sS'profile_background_color'
p99
g45
sS'profile_banner_url'
p100
g63
sS'profile_background_image_url'
p101
g65
sS'name'
p102
g67
sS'lang'
p103
g69
sS'following'
p104
I00
sS'profile_background_tile'
p105
I00
sS'favourites_count'
p106
I3062
sS'screen_name'
p107
g73
sS'url'
p108
g76
sS'created_at'
p109
cdatetime
datetime
p110
(S'\x07\xda\x05\x0b\x0e\x17\x07\x00\x00\x00'
p111
tp112
Rp113
sS'profile_background_image_url_https'
p114
g48
sS'time_zone'
p115
NsS'protected'
p116
I00
sS'default_profile'
p117
I00
sS'is_translator'
p118
I00
sS'listed_count'
p119
I92
sbsS'filter_level'
p120
Vlow
p121
sS'geo'
p122
Nsg24
I620496894305914880
sS'favorite_count'
p123
I0
sS'source'
p124
VTwitter Web Client
p125
sg103
Ven
p126
sS'author'
p127
g18
sS'in_reply_to_user_id_str'
p128
V15651700
p129
sg28
(dp130
Vcontributors
p131
NsVtruncated
p132
I00
sVtext
p133
g10
sVin_reply_to_status_id
p134
I620496135598116866
sg33
I620496894305914880
sVfavorite_count
p135
I0
sVsource
p136
V<a href="http://twitter.com" rel="nofollow">Twitter Web Client</a>
p137
sVretweeted
p138
I00
sVcoordinates
p139
NsVtimestamp_ms
p140
V1436772962534
p141
sVentities
p142
(dp143
Vuser_mentions
p144
(lp145
(dp146
g33
I15651700
sVindices
p147
(lp148
I0
aI4
asg42
V15651700
p149
sg72
VMoz
p150
sg66
VMoz
p151
sa(dp152
g33
I17213198
sg147
(lp153
I5
aI19
asg42
V17213198
p154
sg72
VTomAnthonySEO
p155
sg66
VTom Anthony
p156
sasVsymbols
p157
(lp158
sVtrends
p159
(lp160
sVhashtags
p161
(lp162
sVurls
p163
(lp164
(dp165
g75
Vhttp://t.co/bEA3OjbvDb
p166
sg147
(lp167
I48
aI70
asVexpanded_url
p168
Vhttp://Moz.com
p169
sVdisplay_url
p170
VMoz.com
p171
sassVin_reply_to_screen_name
p172
VMoz
p173
sg42
V620496894305914880
p174
sVretweet_count
p175
I0
sVin_reply_to_user_id
p176
I15651700
sVfavorited
p177
I00
sVuser
p178
g29
sVgeo
p179
NsVin_reply_to_user_id_str
p180
g129
sVpossibly_sensitive
p181
I00
sg68
g126
sg77
VMon Jul 13 07:36:02 +0000 2015
p182
sVfilter_level
p183
g121
sVin_reply_to_status_id_str
p184
V620496135598116866
p185
sVplace
p186
(dp187
Vfull_name
p188
VZurich, Switzerland
p189
sg75
Vhttps://api.twitter.com/1.1/geo/id/3acb748d0f1e9265.json
p190
sVcountry
p191
VSchweiz
p192
sVplace_type
p193
Vcity
p194
sVbounding_box
p195
(dp196
Vtype
p197
VPolygon
p198
sg139
(lp199
(lp200
(lp201
F8.448081
aF47.320183
aa(lp202
F8.448081
aF47.434721
aa(lp203
F8.625442
aF47.434721
aa(lp204
F8.625442
aF47.320183
aaassVcountry_code
p205
VCH
p206
sVattributes
p207
(dp208
sg33
V3acb748d0f1e9265
p209
sg66
VZurich
p210
sssS'coordinates'
p211
NsS'timestamp_ms'
p212
g141
sS'entities'
p213
g143
sS'in_reply_to_status_id_str'
p214
g185
sS'in_reply_to_screen_name'
p215
g173
sg90
g174
sS'retweeted'
p216
I00
sS'place'
p217
g0
(ctweepy.models
Place
p218
g2
Ntp219
Rp220
(dp221
S'full_name'
p222
g189
sg108
g190
sS'country'
p223
g192
sS'place_type'
p224
g194
sS'bounding_box'
p225
g0
(ctweepy.models
BoundingBox
p226
g2
Ntp227
Rp228
(dp229
S'type'
p230
g198
sg211
g199
sbsS'country_code'
p231
g206
sS'attributes'
p232
g208
sg24
g209
sg102
g210
sbsS'retweet_count'
p233
I0
sg109
g110
(S'\x07\xdf\x07\r\x07$\x02\x00\x00\x00'
p234
tp235
Rp236
sS'in_reply_to_user_id'
p237
I15651700
sb.