ccopy_reg
_reconstructor
p0
(ctweepy.models
Status
p1
c__builtin__
object
p2
Ntp3
Rp4
(dp5
S'favorited'
p6
I00
sS'contributors'
p7
NsS'truncated'
p8
I00
sS'text'
p9
V#erttsipras \u03b7 \u03a0\u03b5\u03c1\u03b9\u03c3\u03c4\u03ad\u03c1\u03b1 \u03ad\u03c0\u03b1\u03b9\u03c1\u03bd\u03b5 \u03c4\u03b7\u03bb\u03ad\u03c6\u03c9\u03bd\u03bf?
p10
sS'source_url'
p11
Vhttp://twitter.com/download/iphone
p12
sS'possibly_sensitive'
p13
I00
sS'in_reply_to_status_id'
p14
NsS'user'
p15
g0
(ctweepy.models
User
p16
g2
Ntp17
Rp18
(dp19
S'follow_request_sent'
p20
NsS'profile_use_background_image'
p21
I01
sS'profile_sidebar_fill_color'
p22
VDDEEF6
p23
sS'id'
p24
I3023046141
sS'verified'
p25
I00
sS'profile_image_url_https'
p26
Vhttps://pbs.twimg.com/profile_images/611285766904381441/5I7fjzhF_normal.jpg
p27
sS'_json'
p28
(dp29
Vfollow_request_sent
p30
NsVprofile_use_background_image
p31
I01
sVdefault_profile_image
p32
I00
sVid
p33
I3023046141
sVverified
p34
I00
sVprofile_image_url_https
p35
g27
sVprofile_sidebar_fill_color
p36
g23
sVprofile_text_color
p37
V333333
p38
sVfollowers_count
p39
I122
sVprofile_sidebar_border_color
p40
VC0DEED
p41
sVid_str
p42
V3023046141
p43
sVprofile_background_color
p44
VC0DEED
p45
sVlisted_count
p46
I3
sVprofile_background_image_url_https
p47
Vhttps://abs.twimg.com/images/themes/theme1/bg.png
p48
sVutc_offset
p49
NsVstatuses_count
p50
I1416
sVdescription
p51
V\u03b1\u03c5\u03c4\u03bf\u03b5\u03be\u03cc\u03c1\u03b9\u03c3\u03c4\u03bf\u03c2, \u03b1\u03c5\u03c4\u03bf\u03b1\u03be\u03cd\u03c1\u03b9\u03c3\u03c4\u03bf\u03c2 \u03c0\u03c1\u03ce\u03b7\u03bd \u03b4\u03b1\u03c0\u03af\u03c4\u03b7\u03c2 \u03bd\u03c5\u03bd \u03b1\u03c1\u03b9\u03c3\u03c4\u03b5\u03c1\u03cc\u03c2 \u03b3\u03b9\u03b1\u03c4\u03c1\u03cc\u03c2 \u03c3\u03c4\u03b7\u03bd \u03b6\u03c5\u03c1\u03af\u03c7\u03b7, coach \u03c4\u03c9\u03bd zurich titans bc \u03bc\u03b1 \u03ba\u03c5\u03c1\u03af\u03c9\u03c2 \u03ba\u03b1\u03b9 \u03c0\u03ac\u03bd\u03c9 \u03b1\u03c0'\u03cc\u03bb\u03b1 \u03a0\u0391\u039f\u039a
p52
sVfriends_count
p53
I220
sVlocation
p54
VZurich
p55
sVprofile_link_color
p56
V0084B4
p57
sVprofile_image_url
p58
Vhttp://pbs.twimg.com/profile_images/611285766904381441/5I7fjzhF_normal.jpg
p59
sVfollowing
p60
NsVgeo_enabled
p61
I01
sVprofile_banner_url
p62
Vhttps://pbs.twimg.com/profile_banners/3023046141/1436345858
p63
sVprofile_background_image_url
p64
Vhttp://abs.twimg.com/images/themes/theme1/bg.png
p65
sVname
p66
Vtitan
p67
sVlang
p68
Ven
p69
sVprofile_background_tile
p70
I00
sVfavourites_count
p71
I937
sVscreen_name
p72
Vcoachs_s
p73
sVnotifications
p74
NsVurl
p75
NsVcreated_at
p76
VSat Feb 07 11:38:53 +0000 2015
p77
sVcontributors_enabled
p78
I00
sVtime_zone
p79
NsVprotected
p80
I00
sVdefault_profile
p81
I01
sVis_translator
p82
I00
ssS'contributors_enabled'
p83
I00
sS'profile_text_color'
p84
g38
sS'followers_count'
p85
I122
sS'profile_sidebar_border_color'
p86
g41
sS'location'
p87
g55
sS'default_profile_image'
p88
I00
sS'id_str'
p89
g43
sS'utc_offset'
p90
NsS'statuses_count'
p91
I1416
sS'description'
p92
g52
sS'friends_count'
p93
I220
sS'profile_link_color'
p94
g57
sS'profile_image_url'
p95
g59
sS'notifications'
p96
NsS'geo_enabled'
p97
I01
sS'profile_background_color'
p98
g45
sS'profile_banner_url'
p99
g63
sS'profile_background_image_url'
p100
g65
sS'name'
p101
g67
sS'lang'
p102
g69
sS'following'
p103
I00
sS'profile_background_tile'
p104
I00
sS'favourites_count'
p105
I937
sS'screen_name'
p106
g73
sS'url'
p107
NsS'created_at'
p108
cdatetime
datetime
p109
(S'\x07\xdf\x02\x07\x0b&5\x00\x00\x00'
p110
tp111
Rp112
sS'profile_background_image_url_https'
p113
g48
sS'time_zone'
p114
NsS'protected'
p115
I00
sS'default_profile'
p116
I01
sS'is_translator'
p117
I00
sS'listed_count'
p118
I3
sbsS'filter_level'
p119
Vlow
p120
sS'geo'
p121
Nsg24
I621045768099635200
sS'favorite_count'
p122
I0
sS'source'
p123
VTwitter for iPhone
p124
sg102
Vel
p125
sS'author'
p126
g18
sS'in_reply_to_user_id_str'
p127
Nsg28
(dp128
Vcontributors
p129
NsVtruncated
p130
I00
sVtext
p131
g10
sVin_reply_to_status_id
p132
Nsg33
I621045768099635200
sVfavorite_count
p133
I0
sVsource
p134
V<a href="http://twitter.com/download/iphone" rel="nofollow">Twitter for iPhone</a>
p135
sVretweeted
p136
I00
sVcoordinates
p137
NsVtimestamp_ms
p138
V1436903824244
p139
sVentities
p140
(dp141
Vuser_mentions
p142
(lp143
sVsymbols
p144
(lp145
sVtrends
p146
(lp147
sVhashtags
p148
(lp149
(dp150
Vindices
p151
(lp152
I0
aI11
asg131
Verttsipras
p153
sasVurls
p154
(lp155
ssVin_reply_to_screen_name
p156
Nsg42
V621045768099635200
p157
sVretweet_count
p158
I0
sVin_reply_to_user_id
p159
NsVfavorited
p160
I00
sVuser
p161
g29
sVgeo
p162
NsVin_reply_to_user_id_str
p163
NsVpossibly_sensitive
p164
I00
sg68
g125
sg76
VTue Jul 14 19:57:04 +0000 2015
p165
sVfilter_level
p166
g120
sVin_reply_to_status_id_str
p167
NsVplace
p168
(dp169
Vfull_name
p170
VZurich, Switzerland
p171
sg75
Vhttps://api.twitter.com/1.1/geo/id/3acb748d0f1e9265.json
p172
sVcountry
p173
VSchweiz
p174
sVplace_type
p175
Vcity
p176
sVbounding_box
p177
(dp178
Vtype
p179
VPolygon
p180
sg137
(lp181
(lp182
(lp183
F8.448081
aF47.320183
aa(lp184
F8.448081
aF47.434721
aa(lp185
F8.625442
aF47.434721
aa(lp186
F8.625442
aF47.320183
aaassVcountry_code
p187
VCH
p188
sVattributes
p189
(dp190
sg33
V3acb748d0f1e9265
p191
sg66
VZurich
p192
sssS'coordinates'
p193
NsS'timestamp_ms'
p194
g139
sS'entities'
p195
g141
sS'in_reply_to_status_id_str'
p196
NsS'in_reply_to_screen_name'
p197
Nsg89
g157
sS'retweeted'
p198
I00
sS'place'
p199
g0
(ctweepy.models
Place
p200
g2
Ntp201
Rp202
(dp203
S'full_name'
p204
g171
sg107
g172
sS'country'
p205
g174
sS'place_type'
p206
g176
sS'bounding_box'
p207
g0
(ctweepy.models
BoundingBox
p208
g2
Ntp209
Rp210
(dp211
S'type'
p212
g180
sg193
g181
sbsS'country_code'
p213
g188
sS'attributes'
p214
g190
sg24
g191
sg101
g192
sbsS'retweet_count'
p215
I0
sg108
g109
(S'\x07\xdf\x07\x0e\x139\x04\x00\x00\x00'
p216
tp217
Rp218
sS'in_reply_to_user_id'
p219
Nsb.