ccopy_reg
_reconstructor
p0
(ctweepy.models
Status
p1
c__builtin__
object
p2
Ntp3
Rp4
(dp5
S'favorited'
p6
I00
sS'contributors'
p7
NsS'truncated'
p8
I00
sS'text'
p9
V@MaximusMode @SHANE_2O15 @Plug___Mode___ @GIN3RMOD3 SHOULD CALL HIM WHAT HIS FATHER CALLS HIM.. DADDYS LITTLE #DISAPOINTMENT'\u000aOR SHAME.LOLOL
p10
sS'source_url'
p11
Vhttp://twitter.com
p12
sS'possibly_sensitive'
p13
I00
sS'in_reply_to_status_id'
p14
I620114091995230208
sS'user'
p15
g0
(ctweepy.models
User
p16
g2
Ntp17
Rp18
(dp19
S'follow_request_sent'
p20
NsS'profile_use_background_image'
p21
I00
sS'profile_sidebar_fill_color'
p22
V000000
p23
sS'id'
p24
I2879569993
sS'verified'
p25
I00
sS'profile_image_url_https'
p26
Vhttps://pbs.twimg.com/profile_images/610874208827146241/voSDsKk8_normal.png
p27
sS'_json'
p28
(dp29
Vfollow_request_sent
p30
NsVprofile_use_background_image
p31
I00
sVdefault_profile_image
p32
I00
sVid
p33
I2879569993
sVverified
p34
I00
sVprofile_image_url_https
p35
g27
sVprofile_sidebar_fill_color
p36
g23
sVprofile_text_color
p37
V000000
p38
sVfollowers_count
p39
I253
sVprofile_sidebar_border_color
p40
V000000
p41
sVid_str
p42
V2879569993
p43
sVprofile_background_color
p44
V000000
p45
sVlisted_count
p46
I3
sVprofile_background_image_url_https
p47
Vhttps://abs.twimg.com/images/themes/theme14/bg.gif
p48
sVutc_offset
p49
NsVstatuses_count
p50
I1317
sVdescription
p51
VNEVER COULD HIDE WHO I AM. \u000a.http://ish.re/JJRT -not me.
p52
sVfriends_count
p53
I278
sVlocation
p54
VRepublic of Mozambique
p55
sVprofile_link_color
p56
VDD2E44
p57
sVprofile_image_url
p58
Vhttp://pbs.twimg.com/profile_images/610874208827146241/voSDsKk8_normal.png
p59
sVfollowing
p60
NsVgeo_enabled
p61
I01
sVprofile_banner_url
p62
Vhttps://pbs.twimg.com/profile_banners/2879569993/1434478513
p63
sVprofile_background_image_url
p64
Vhttp://abs.twimg.com/images/themes/theme14/bg.gif
p65
sVname
p66
VD\u2200MN\u2200L\u308bX 
p67
sVlang
p68
Ven
p69
sVprofile_background_tile
p70
I00
sVfavourites_count
p71
I29
sVscreen_name
p72
VDd0xblack1
p73
sVnotifications
p74
NsVurl
p75
NsVcreated_at
p76
VMon Oct 27 13:04:37 +0000 2014
p77
sVcontributors_enabled
p78
I00
sVtime_zone
p79
NsVprotected
p80
I00
sVdefault_profile
p81
I00
sVis_translator
p82
I00
ssS'contributors_enabled'
p83
I00
sS'profile_text_color'
p84
g38
sS'followers_count'
p85
I253
sS'profile_sidebar_border_color'
p86
g41
sS'location'
p87
g55
sS'default_profile_image'
p88
I00
sS'id_str'
p89
g43
sS'utc_offset'
p90
NsS'statuses_count'
p91
I1317
sS'description'
p92
VNEVER COULD HIDE WHO I AM. \u000a.http://ish.re/JJRT -not me.
p93
sS'friends_count'
p94
I278
sS'profile_link_color'
p95
g57
sS'profile_image_url'
p96
g59
sS'notifications'
p97
NsS'geo_enabled'
p98
I01
sS'profile_background_color'
p99
g45
sS'profile_banner_url'
p100
g63
sS'profile_background_image_url'
p101
g65
sS'name'
p102
g67
sS'lang'
p103
g69
sS'following'
p104
I00
sS'profile_background_tile'
p105
I00
sS'favourites_count'
p106
I29
sS'screen_name'
p107
g73
sS'url'
p108
NsS'created_at'
p109
cdatetime
datetime
p110
(S'\x07\xde\n\x1b\r\x04%\x00\x00\x00'
p111
tp112
Rp113
sS'profile_background_image_url_https'
p114
g48
sS'time_zone'
p115
NsS'protected'
p116
I00
sS'default_profile'
p117
I00
sS'is_translator'
p118
I00
sS'listed_count'
p119
I3
sbsS'filter_level'
p120
Vlow
p121
sS'geo'
p122
Nsg24
I620116640122961924
sS'favorite_count'
p123
I0
sS'source'
p124
VTwitter Web Client
p125
sg103
Ven
p126
sS'author'
p127
g18
sS'in_reply_to_user_id_str'
p128
V3362182210
p129
sg28
(dp130
Vcontributors
p131
NsVtruncated
p132
I00
sVtext
p133
V@MaximusMode @SHANE_2O15 @Plug___Mode___ @GIN3RMOD3 SHOULD CALL HIM WHAT HIS FATHER CALLS HIM.. DADDYS LITTLE #DISAPOINTMENT'\u000aOR SHAME.LOLOL
p134
sVin_reply_to_status_id
p135
I620114091995230208
sg33
I620116640122961924
sVfavorite_count
p136
I0
sVsource
p137
V<a href="http://twitter.com" rel="nofollow">Twitter Web Client</a>
p138
sVretweeted
p139
I00
sVcoordinates
p140
NsVtimestamp_ms
p141
V1436682302872
p142
sVentities
p143
(dp144
Vuser_mentions
p145
(lp146
(dp147
g33
I3362182210
sVindices
p148
(lp149
I0
aI12
asg42
V3362182210
p150
sg72
VMaximusMode
p151
sg66
V2DAMAX MODE
p152
sa(dp153
g33
I3367944251
sg148
(lp154
I13
aI24
asg42
V3367944251
p155
sg72
VSHANE_2O15
p156
sg66
V\u2550\u256c\u2550\u2550\u2550\u256c\u2550
p157
sa(dp158
g33
I2400557433
sg148
(lp159
I25
aI40
asg42
V2400557433
p160
sg72
VPlug___Mode___
p161
sg66
VPlugus Modus
p162
sa(dp163
g33
I3268626204
sg148
(lp164
I41
aI51
asg42
V3268626204
p165
sg72
VGIN3RMOD3
p166
sg66
V\u5350 GINER MODE \u5350
p167
sasVsymbols
p168
(lp169
sVtrends
p170
(lp171
sVhashtags
p172
(lp173
(dp174
g148
(lp175
I110
aI124
asg133
VDISAPOINTMENT
p176
sasVurls
p177
(lp178
ssVin_reply_to_screen_name
p179
VMaximusMode
p180
sg42
V620116640122961924
p181
sVretweet_count
p182
I0
sVin_reply_to_user_id
p183
I3362182210
sVfavorited
p184
I00
sVuser
p185
g29
sVgeo
p186
NsVin_reply_to_user_id_str
p187
g129
sVpossibly_sensitive
p188
I00
sg68
g126
sg76
VSun Jul 12 06:25:02 +0000 2015
p189
sVfilter_level
p190
g121
sVin_reply_to_status_id_str
p191
V620114091995230208
p192
sVplace
p193
(dp194
Vfull_name
p195
VZurich, Switzerland
p196
sg75
Vhttps://api.twitter.com/1.1/geo/id/3acb748d0f1e9265.json
p197
sVcountry
p198
VSchweiz
p199
sVplace_type
p200
Vcity
p201
sVbounding_box
p202
(dp203
Vtype
p204
VPolygon
p205
sg140
(lp206
(lp207
(lp208
F8.448081
aF47.320183
aa(lp209
F8.448081
aF47.434721
aa(lp210
F8.625442
aF47.434721
aa(lp211
F8.625442
aF47.320183
aaassVcountry_code
p212
VCH
p213
sVattributes
p214
(dp215
sg33
V3acb748d0f1e9265
p216
sg66
VZurich
p217
sssS'coordinates'
p218
NsS'timestamp_ms'
p219
g142
sS'entities'
p220
g144
sS'in_reply_to_status_id_str'
p221
g192
sS'in_reply_to_screen_name'
p222
g180
sg89
g181
sS'retweeted'
p223
I00
sS'place'
p224
g0
(ctweepy.models
Place
p225
g2
Ntp226
Rp227
(dp228
S'full_name'
p229
g196
sg108
g197
sS'country'
p230
g199
sS'place_type'
p231
g201
sS'bounding_box'
p232
g0
(ctweepy.models
BoundingBox
p233
g2
Ntp234
Rp235
(dp236
S'type'
p237
g205
sg218
g206
sbsS'country_code'
p238
g213
sS'attributes'
p239
g215
sg24
g216
sg102
g217
sbsS'retweet_count'
p240
I0
sg109
g110
(S'\x07\xdf\x07\x0c\x06\x19\x02\x00\x00\x00'
p241
tp242
Rp243
sS'in_reply_to_user_id'
p244
I3362182210
sb.