ccopy_reg
_reconstructor
p0
(ctweepy.models
Status
p1
c__builtin__
object
p2
Ntp3
Rp4
(dp5
S'favorited'
p6
I00
sS'contributors'
p7
NsS'truncated'
p8
I00
sS'text'
p9
VLetter to cynical,mean, grumpy baby boomers.  What's wrong? \u000ahttp://t.co/N9IEPeO3bX @sixtyandme #boomerly http://t.co/bgqQJfTkQR
p10
sS'source_url'
p11
Vhttp://twitter.com
p12
sS'possibly_sensitive'
p13
I00
sS'in_reply_to_status_id'
p14
NsS'user'
p15
g0
(ctweepy.models
User
p16
g2
Ntp17
Rp18
(dp19
S'follow_request_sent'
p20
NsS'profile_use_background_image'
p21
I01
sS'profile_sidebar_fill_color'
p22
VF3F3F3
p23
sS'id'
p24
I955350608
sS'verified'
p25
I00
sS'profile_image_url_https'
p26
Vhttps://pbs.twimg.com/profile_images/564447504066818048/t1W1zL6G_normal.png
p27
sS'_json'
p28
(dp29
Vfollow_request_sent
p30
NsVprofile_use_background_image
p31
I01
sVdefault_profile_image
p32
I00
sVid
p33
I955350608
sVverified
p34
I00
sVprofile_image_url_https
p35
g27
sVprofile_sidebar_fill_color
p36
g23
sVprofile_text_color
p37
V333333
p38
sVfollowers_count
p39
I3604
sVprofile_sidebar_border_color
p40
VDFDFDF
p41
sVid_str
p42
V955350608
p43
sVprofile_background_color
p44
VEBEBEB
p45
sVlisted_count
p46
I111
sVprofile_background_image_url_https
p47
Vhttps://abs.twimg.com/images/themes/theme7/bg.gif
p48
sVutc_offset
p49
NsVstatuses_count
p50
I12119
sVdescription
p51
VSixty and Me is a global community of 100,000 women over 60. Helping boomer women to live healthy, independent and financially secure lives. By Margaret Manning
p52
sVfriends_count
p53
I1777
sVlocation
p54
VSwitzerland 
p55
sVprofile_link_color
p56
V990000
p57
sVprofile_image_url
p58
Vhttp://pbs.twimg.com/profile_images/564447504066818048/t1W1zL6G_normal.png
p59
sVfollowing
p60
NsVgeo_enabled
p61
I01
sVprofile_banner_url
p62
Vhttps://pbs.twimg.com/profile_banners/955350608/1423417866
p63
sVprofile_background_image_url
p64
Vhttp://abs.twimg.com/images/themes/theme7/bg.gif
p65
sVname
p66
VSixty and Me 
p67
sVlang
p68
Ven
p69
sVprofile_background_tile
p70
I00
sVfavourites_count
p71
I253
sVscreen_name
p72
Vsixtyandme
p73
sVnotifications
p74
NsVurl
p75
Vhttp://sixtyandme.com
p76
sVcreated_at
p77
VSun Nov 18 11:54:24 +0000 2012
p78
sVcontributors_enabled
p79
I00
sVtime_zone
p80
NsVprotected
p81
I00
sVdefault_profile
p82
I00
sVis_translator
p83
I00
ssS'contributors_enabled'
p84
I00
sS'profile_text_color'
p85
g38
sS'followers_count'
p86
I3604
sS'profile_sidebar_border_color'
p87
g41
sS'location'
p88
g55
sS'default_profile_image'
p89
I00
sS'id_str'
p90
g43
sS'utc_offset'
p91
NsS'statuses_count'
p92
I12119
sS'description'
p93
g52
sS'friends_count'
p94
I1777
sS'profile_link_color'
p95
g57
sS'profile_image_url'
p96
g59
sS'notifications'
p97
NsS'geo_enabled'
p98
I01
sS'profile_background_color'
p99
g45
sS'profile_banner_url'
p100
g63
sS'profile_background_image_url'
p101
g65
sS'name'
p102
g67
sS'lang'
p103
g69
sS'following'
p104
I00
sS'profile_background_tile'
p105
I00
sS'favourites_count'
p106
I253
sS'screen_name'
p107
g73
sS'url'
p108
g76
sS'created_at'
p109
cdatetime
datetime
p110
(S'\x07\xdc\x0b\x12\x0b6\x18\x00\x00\x00'
p111
tp112
Rp113
sS'profile_background_image_url_https'
p114
g48
sS'time_zone'
p115
NsS'protected'
p116
I00
sS'default_profile'
p117
I00
sS'is_translator'
p118
I00
sS'listed_count'
p119
I111
sbsS'filter_level'
p120
Vlow
p121
sS'geo'
p122
Nsg24
I620179475922337792
sS'favorite_count'
p123
I0
sS'source'
p124
VTwitter Web Client
p125
sg103
Ven
p126
sS'author'
p127
g18
sS'in_reply_to_user_id_str'
p128
Nsg28
(dp129
Vcontributors
p130
NsVtruncated
p131
I00
sVtext
p132
VLetter to cynical,mean, grumpy baby boomers.  What's wrong? \u000ahttp://t.co/N9IEPeO3bX @sixtyandme #boomerly http://t.co/bgqQJfTkQR
p133
sVin_reply_to_status_id
p134
Nsg33
I620179475922337792
sVfavorite_count
p135
I0
sVsource
p136
V<a href="http://twitter.com" rel="nofollow">Twitter Web Client</a>
p137
sVretweeted
p138
I00
sVcoordinates
p139
NsVtimestamp_ms
p140
V1436697284094
p141
sVentities
p142
(dp143
Vsymbols
p144
(lp145
sVmedia
p146
(lp147
(dp148
Vexpanded_url
p149
Vhttp://twitter.com/sixtyandme/status/620179475922337792/photo/1
p150
sVdisplay_url
p151
Vpic.twitter.com/bgqQJfTkQR
p152
sg75
Vhttp://t.co/bgqQJfTkQR
p153
sVmedia_url_https
p154
Vhttps://pbs.twimg.com/media/CJtR8lgWwAAPILJ.jpg
p155
sg42
V620179474995396608
p156
sVsizes
p157
(dp158
Vlarge
p159
(dp160
Vh
p161
I483
sVresize
p162
Vfit
p163
sVw
p164
I725
ssVsmall
p165
(dp166
g161
I226
sg162
Vfit
p167
sg164
I340
ssVmedium
p168
(dp169
g161
I399
sg162
Vfit
p170
sg164
I600
ssVthumb
p171
(dp172
g161
I150
sg162
Vcrop
p173
sg164
I150
sssVindices
p174
(lp175
I106
aI128
asVtype
p176
Vphoto
p177
sg33
I620179474995396608
sVmedia_url
p178
Vhttp://pbs.twimg.com/media/CJtR8lgWwAAPILJ.jpg
p179
sasVhashtags
p180
(lp181
(dp182
g174
(lp183
I96
aI105
asg132
Vboomerly
p184
sasVuser_mentions
p185
(lp186
(dp187
g33
I955350608
sg174
(lp188
I84
aI95
asg42
V955350608
p189
sg72
Vsixtyandme
p190
sg66
VSixty and Me 
p191
sasVtrends
p192
(lp193
sVurls
p194
(lp195
(dp196
g75
Vhttp://t.co/N9IEPeO3bX
p197
sg174
(lp198
I61
aI83
asg149
Vhttp://www.boomerly.com/letter-to-cynical-mean-grumpy-baby-boomers/
p199
sg151
Vboomerly.com/letter-to-cyni\u2026
p200
sassVin_reply_to_screen_name
p201
Nsg42
V620179475922337792
p202
sVretweet_count
p203
I0
sVin_reply_to_user_id
p204
NsVfavorited
p205
I00
sVuser
p206
g29
sVgeo
p207
NsVin_reply_to_user_id_str
p208
NsVpossibly_sensitive
p209
I00
sg68
g126
sg77
VSun Jul 12 10:34:44 +0000 2015
p210
sVfilter_level
p211
g121
sVin_reply_to_status_id_str
p212
NsVplace
p213
(dp214
Vfull_name
p215
VZurich, Switzerland
p216
sg75
Vhttps://api.twitter.com/1.1/geo/id/3acb748d0f1e9265.json
p217
sVcountry
p218
VSchweiz
p219
sVplace_type
p220
Vcity
p221
sVbounding_box
p222
(dp223
g176
VPolygon
p224
sg139
(lp225
(lp226
(lp227
F8.448081
aF47.320183
aa(lp228
F8.448081
aF47.434721
aa(lp229
F8.625442
aF47.434721
aa(lp230
F8.625442
aF47.320183
aaassVcountry_code
p231
VCH
p232
sVattributes
p233
(dp234
sg33
V3acb748d0f1e9265
p235
sg66
VZurich
p236
ssVextended_entities
p237
(dp238
g146
(lp239
(dp240
g149
Vhttp://twitter.com/sixtyandme/status/620179475922337792/photo/1
p241
sg151
Vpic.twitter.com/bgqQJfTkQR
p242
sg75
Vhttp://t.co/bgqQJfTkQR
p243
sg154
Vhttps://pbs.twimg.com/media/CJtR8lgWwAAPILJ.jpg
p244
sg42
V620179474995396608
p245
sg157
(dp246
g159
(dp247
g161
I483
sg162
Vfit
p248
sg164
I725
ssg165
(dp249
g161
I226
sg162
Vfit
p250
sg164
I340
ssg168
(dp251
g161
I399
sg162
Vfit
p252
sg164
I600
ssg171
(dp253
g161
I150
sg162
Vcrop
p254
sg164
I150
sssg174
(lp255
I106
aI128
asg176
Vphoto
p256
sg33
I620179474995396608
sg178
Vhttp://pbs.twimg.com/media/CJtR8lgWwAAPILJ.jpg
p257
sasssS'coordinates'
p258
NsS'timestamp_ms'
p259
g141
sS'entities'
p260
g143
sS'in_reply_to_status_id_str'
p261
NsS'in_reply_to_screen_name'
p262
Nsg90
g202
sS'extended_entities'
p263
g238
sS'retweeted'
p264
I00
sS'place'
p265
g0
(ctweepy.models
Place
p266
g2
Ntp267
Rp268
(dp269
S'full_name'
p270
g216
sg108
g217
sS'country'
p271
g219
sS'place_type'
p272
g221
sS'bounding_box'
p273
g0
(ctweepy.models
BoundingBox
p274
g2
Ntp275
Rp276
(dp277
S'type'
p278
g224
sg258
g225
sbsS'country_code'
p279
g232
sS'attributes'
p280
g234
sg24
g235
sg102
g236
sbsS'retweet_count'
p281
I0
sg109
g110
(S'\x07\xdf\x07\x0c\n",\x00\x00\x00'
p282
tp283
Rp284
sS'in_reply_to_user_id'
p285
Nsb.