ccopy_reg
_reconstructor
p0
(ctweepy.models
Status
p1
c__builtin__
object
p2
Ntp3
Rp4
(dp5
S'favorited'
p6
I00
sS'contributors'
p7
NsS'truncated'
p8
I00
sS'text'
p9
V6 LIKES TO GO FOR THE 1000 &amp; GIVING AWAY 2 FREE SUMMER CAMPS. Help us make it to win #InterSoccer
p10
sS'source_url'
p11
Vhttp://twitter.com
p12
sS'possibly_sensitive'
p13
I00
sS'in_reply_to_status_id'
p14
NsS'user'
p15
g0
(ctweepy.models
User
p16
g2
Ntp17
Rp18
(dp19
S'follow_request_sent'
p20
NsS'profile_use_background_image'
p21
I01
sS'profile_sidebar_fill_color'
p22
VDDEEF6
p23
sS'id'
p24
I600180316
sS'verified'
p25
I00
sS'profile_image_url_https'
p26
Vhttps://pbs.twimg.com/profile_images/511496377872838658/z5C5K5AI_normal.jpeg
p27
sS'_json'
p28
(dp29
Vfollow_request_sent
p30
NsVprofile_use_background_image
p31
I01
sVdefault_profile_image
p32
I00
sVid
p33
I600180316
sVverified
p34
I00
sVprofile_image_url_https
p35
g27
sVprofile_sidebar_fill_color
p36
g23
sVprofile_text_color
p37
V333333
p38
sVfollowers_count
p39
I100
sVprofile_sidebar_border_color
p40
VFFFFFF
p41
sVid_str
p42
V600180316
p43
sVprofile_background_color
p44
VC0DEED
p45
sVlisted_count
p46
I1
sVprofile_background_image_url_https
p47
Vhttps://pbs.twimg.com/profile_background_images/378800000066701950/baf8a308d6d8e646e8d4de2037f769ce.jpeg
p48
sVutc_offset
p49
I10800
sVstatuses_count
p50
I225
sVdescription
p51
VWe are the largest supplier of grassroots football in Switzerland for Boys & Girls. We offer boys & girls aged 3-13 fun football courses & camps!
p52
sVfriends_count
p53
I208
sVlocation
p54
VSwitzerland
p55
sVprofile_link_color
p56
V4A913C
p57
sVprofile_image_url
p58
Vhttp://pbs.twimg.com/profile_images/511496377872838658/z5C5K5AI_normal.jpeg
p59
sVfollowing
p60
NsVgeo_enabled
p61
I01
sVprofile_banner_url
p62
Vhttps://pbs.twimg.com/profile_banners/600180316/1410533546
p63
sVprofile_background_image_url
p64
Vhttp://pbs.twimg.com/profile_background_images/378800000066701950/baf8a308d6d8e646e8d4de2037f769ce.jpeg
p65
sVname
p66
VInterSoccer 
p67
sVlang
p68
Ven
p69
sVprofile_background_tile
p70
I01
sVfavourites_count
p71
I6
sVscreen_name
p72
VInterSoccer_
p73
sVnotifications
p74
NsVurl
p75
Vhttp://www.intersoccer.ch/
p76
sVcreated_at
p77
VTue Jun 05 15:09:47 +0000 2012
p78
sVcontributors_enabled
p79
I00
sVtime_zone
p80
VAthens
p81
sVprotected
p82
I00
sVdefault_profile
p83
I00
sVis_translator
p84
I00
ssS'contributors_enabled'
p85
I00
sS'profile_text_color'
p86
g38
sS'followers_count'
p87
I100
sS'profile_sidebar_border_color'
p88
g41
sS'location'
p89
g55
sS'default_profile_image'
p90
I00
sS'id_str'
p91
g43
sS'utc_offset'
p92
I10800
sS'statuses_count'
p93
I225
sS'description'
p94
g52
sS'friends_count'
p95
I208
sS'profile_link_color'
p96
g57
sS'profile_image_url'
p97
g59
sS'notifications'
p98
NsS'geo_enabled'
p99
I01
sS'profile_background_color'
p100
g45
sS'profile_banner_url'
p101
g63
sS'profile_background_image_url'
p102
g65
sS'name'
p103
g67
sS'lang'
p104
g69
sS'following'
p105
I00
sS'profile_background_tile'
p106
I01
sS'favourites_count'
p107
I6
sS'screen_name'
p108
g73
sS'url'
p109
g76
sS'created_at'
p110
cdatetime
datetime
p111
(S'\x07\xdc\x06\x05\x0f\t/\x00\x00\x00'
p112
tp113
Rp114
sS'profile_background_image_url_https'
p115
g48
sS'time_zone'
p116
g81
sS'protected'
p117
I00
sS'default_profile'
p118
I00
sS'is_translator'
p119
I00
sS'listed_count'
p120
I1
sbsS'filter_level'
p121
Vlow
p122
sS'geo'
p123
Nsg24
I619150950138281984
sS'favorite_count'
p124
I0
sS'source'
p125
VTwitter Web Client
p126
sg104
Ven
p127
sS'author'
p128
g18
sS'in_reply_to_user_id_str'
p129
Nsg28
(dp130
Vcontributors
p131
NsVtruncated
p132
I00
sVtext
p133
g10
sVin_reply_to_status_id
p134
Nsg33
I619150950138281984
sVfavorite_count
p135
I0
sVsource
p136
V<a href="http://twitter.com" rel="nofollow">Twitter Web Client</a>
p137
sVretweeted
p138
I00
sVcoordinates
p139
NsVtimestamp_ms
p140
V1436452064438
p141
sVentities
p142
(dp143
Vuser_mentions
p144
(lp145
sVsymbols
p146
(lp147
sVtrends
p148
(lp149
sVhashtags
p150
(lp151
(dp152
Vindices
p153
(lp154
I89
aI101
asg133
VInterSoccer
p155
sasVurls
p156
(lp157
ssVin_reply_to_screen_name
p158
Nsg42
V619150950138281984
p159
sVretweet_count
p160
I0
sVin_reply_to_user_id
p161
NsVfavorited
p162
I00
sVuser
p163
g29
sVgeo
p164
NsVin_reply_to_user_id_str
p165
NsVpossibly_sensitive
p166
I00
sg68
g127
sg77
VThu Jul 09 14:27:44 +0000 2015
p167
sVfilter_level
p168
g122
sVin_reply_to_status_id_str
p169
NsVplace
p170
(dp171
Vfull_name
p172
VZurich, Switzerland
p173
sg75
Vhttps://api.twitter.com/1.1/geo/id/3acb748d0f1e9265.json
p174
sVcountry
p175
VSchweiz
p176
sVplace_type
p177
Vcity
p178
sVbounding_box
p179
(dp180
Vtype
p181
VPolygon
p182
sg139
(lp183
(lp184
(lp185
F8.448081
aF47.320183
aa(lp186
F8.448081
aF47.434721
aa(lp187
F8.625442
aF47.434721
aa(lp188
F8.625442
aF47.320183
aaassVcountry_code
p189
VCH
p190
sVattributes
p191
(dp192
sg33
V3acb748d0f1e9265
p193
sg66
VZurich
p194
sssS'coordinates'
p195
NsS'timestamp_ms'
p196
g141
sS'entities'
p197
g143
sS'in_reply_to_status_id_str'
p198
NsS'in_reply_to_screen_name'
p199
Nsg91
g159
sS'retweeted'
p200
I00
sS'place'
p201
g0
(ctweepy.models
Place
p202
g2
Ntp203
Rp204
(dp205
S'full_name'
p206
g173
sg109
g174
sS'country'
p207
g176
sS'place_type'
p208
g178
sS'bounding_box'
p209
g0
(ctweepy.models
BoundingBox
p210
g2
Ntp211
Rp212
(dp213
S'type'
p214
g182
sg195
g183
sbsS'country_code'
p215
g190
sS'attributes'
p216
g192
sg24
g193
sg103
g194
sbsS'retweet_count'
p217
I0
sg110
g111
(S'\x07\xdf\x07\t\x0e\x1b,\x00\x00\x00'
p218
tp219
Rp220
sS'in_reply_to_user_id'
p221
Nsb.