ccopy_reg
_reconstructor
p0
(ctweepy.models
Status
p1
c__builtin__
object
p2
Ntp3
Rp4
(dp5
S'favorited'
p6
I00
sS'contributors'
p7
NsS'truncated'
p8
I00
sS'text'
p9
VDon't ignore your swiss fans @jamesmaslow :(
p10
sS'source_url'
p11
Vhttp://twitter.com
p12
sS'possibly_sensitive'
p13
I00
sS'in_reply_to_status_id'
p14
NsS'user'
p15
g0
(ctweepy.models
User
p16
g2
Ntp17
Rp18
(dp19
S'follow_request_sent'
p20
NsS'profile_use_background_image'
p21
I01
sS'profile_sidebar_fill_color'
p22
V95E8EC
p23
sS'id'
p24
I349959192
sS'verified'
p25
I00
sS'profile_image_url_https'
p26
Vhttps://pbs.twimg.com/profile_images/620994151857934336/9J96hh-A_normal.jpg
p27
sS'_json'
p28
(dp29
Vfollow_request_sent
p30
NsVprofile_use_background_image
p31
I01
sVdefault_profile_image
p32
I00
sVid
p33
I349959192
sVverified
p34
I00
sVprofile_image_url_https
p35
g27
sVprofile_sidebar_fill_color
p36
g23
sVprofile_text_color
p37
V3C3940
p38
sVfollowers_count
p39
I355
sVprofile_sidebar_border_color
p40
V5ED4DC
p41
sVid_str
p42
V349959192
p43
sVprofile_background_color
p44
V0099B9
p45
sVlisted_count
p46
I2
sVprofile_background_image_url_https
p47
Vhttps://abs.twimg.com/images/themes/theme4/bg.gif
p48
sVutc_offset
p49
I-18000
sVstatuses_count
p50
I4099
sVdescription
p51
VThe most important thing is to enjoy your life - to be happy - it's all that matters.
p52
sVfriends_count
p53
I478
sVlocation
p54
VBern, Schweiz
p55
sVprofile_link_color
p56
V0099B9
p57
sVprofile_image_url
p58
Vhttp://pbs.twimg.com/profile_images/620994151857934336/9J96hh-A_normal.jpg
p59
sVfollowing
p60
NsVgeo_enabled
p61
I01
sVprofile_banner_url
p62
Vhttps://pbs.twimg.com/profile_banners/349959192/1433636337
p63
sVprofile_background_image_url
p64
Vhttp://abs.twimg.com/images/themes/theme4/bg.gif
p65
sVname
p66
VSara
p67
sVlang
p68
Vde
p69
sVprofile_background_tile
p70
I00
sVfavourites_count
p71
I571
sVscreen_name
p72
V_SwissSara23
p73
sVnotifications
p74
NsVurl
p75
NsVcreated_at
p76
VSun Aug 07 00:15:06 +0000 2011
p77
sVcontributors_enabled
p78
I00
sVtime_zone
p79
VCentral Time (US & Canada)
p80
sVprotected
p81
I00
sVdefault_profile
p82
I00
sVis_translator
p83
I00
ssS'contributors_enabled'
p84
I00
sS'profile_text_color'
p85
g38
sS'followers_count'
p86
I355
sS'profile_sidebar_border_color'
p87
g41
sS'location'
p88
g55
sS'default_profile_image'
p89
I00
sS'id_str'
p90
g43
sS'utc_offset'
p91
I-18000
sS'statuses_count'
p92
I4099
sS'description'
p93
g52
sS'friends_count'
p94
I478
sS'profile_link_color'
p95
g57
sS'profile_image_url'
p96
g59
sS'notifications'
p97
NsS'geo_enabled'
p98
I01
sS'profile_background_color'
p99
g45
sS'profile_banner_url'
p100
g63
sS'profile_background_image_url'
p101
g65
sS'name'
p102
g67
sS'lang'
p103
g69
sS'following'
p104
I00
sS'profile_background_tile'
p105
I00
sS'favourites_count'
p106
I571
sS'screen_name'
p107
g73
sS'url'
p108
NsS'created_at'
p109
cdatetime
datetime
p110
(S'\x07\xdb\x08\x07\x00\x0f\x06\x00\x00\x00'
p111
tp112
Rp113
sS'profile_background_image_url_https'
p114
g48
sS'time_zone'
p115
g80
sS'protected'
p116
I00
sS'default_profile'
p117
I00
sS'is_translator'
p118
I00
sS'listed_count'
p119
I2
sbsS'filter_level'
p120
Vlow
p121
sS'geo'
p122
Nsg24
I621116043965136896
sS'favorite_count'
p123
I0
sS'source'
p124
VTwitter Web Client
p125
sg103
Ven
p126
sS'author'
p127
g18
sS'in_reply_to_user_id_str'
p128
Nsg28
(dp129
Vcontributors
p130
NsVtruncated
p131
I00
sVtext
p132
g10
sVin_reply_to_status_id
p133
Nsg33
I621116043965136896
sVfavorite_count
p134
I0
sVsource
p135
V<a href="http://twitter.com" rel="nofollow">Twitter Web Client</a>
p136
sVretweeted
p137
I00
sVcoordinates
p138
NsVtimestamp_ms
p139
V1436920579316
p140
sVentities
p141
(dp142
Vuser_mentions
p143
(lp144
(dp145
g33
I69751644
sVindices
p146
(lp147
I29
aI41
asg42
V69751644
p148
sg72
Vjamesmaslow
p149
sg66
VJames Maslow
p150
sasVsymbols
p151
(lp152
sVtrends
p153
(lp154
sVhashtags
p155
(lp156
sVurls
p157
(lp158
ssVin_reply_to_screen_name
p159
Nsg42
V621116043965136896
p160
sVretweet_count
p161
I0
sVin_reply_to_user_id
p162
NsVfavorited
p163
I00
sVuser
p164
g29
sVgeo
p165
NsVin_reply_to_user_id_str
p166
NsVpossibly_sensitive
p167
I00
sg68
g126
sg76
VWed Jul 15 00:36:19 +0000 2015
p168
sVfilter_level
p169
g121
sVin_reply_to_status_id_str
p170
NsVplace
p171
(dp172
Vfull_name
p173
VBern, Schweiz
p174
sg75
Vhttps://api.twitter.com/1.1/geo/id/5868d0e0749c9c47.json
p175
sVcountry
p176
VSchweiz
p177
sVplace_type
p178
Vadmin
p179
sVbounding_box
p180
(dp181
Vtype
p182
VPolygon
p183
sg138
(lp184
(lp185
(lp186
F6.861601
aF46.326441
aa(lp187
F6.861601
aF47.34528
aa(lp188
F8.455051
aF47.34528
aa(lp189
F8.455051
aF46.326441
aaassVcountry_code
p190
VCH
p191
sVattributes
p192
(dp193
sg33
V5868d0e0749c9c47
p194
sg66
VBern
p195
sssS'coordinates'
p196
NsS'timestamp_ms'
p197
g140
sS'entities'
p198
g142
sS'in_reply_to_status_id_str'
p199
NsS'in_reply_to_screen_name'
p200
Nsg90
g160
sS'retweeted'
p201
I00
sS'place'
p202
g0
(ctweepy.models
Place
p203
g2
Ntp204
Rp205
(dp206
S'full_name'
p207
g174
sg108
g175
sS'country'
p208
g177
sS'place_type'
p209
g179
sS'bounding_box'
p210
g0
(ctweepy.models
BoundingBox
p211
g2
Ntp212
Rp213
(dp214
S'type'
p215
g183
sg196
g184
sbsS'country_code'
p216
g191
sS'attributes'
p217
g193
sg24
g194
sg102
g195
sbsS'retweet_count'
p218
I0
sg109
g110
(S'\x07\xdf\x07\x0f\x00$\x13\x00\x00\x00'
p219
tp220
Rp221
sS'in_reply_to_user_id'
p222
Nsb.