ccopy_reg
_reconstructor
p0
(ctweepy.models
Status
p1
c__builtin__
object
p2
Ntp3
Rp4
(dp5
S'favorited'
p6
I00
sS'contributors'
p7
NsS'truncated'
p8
I00
sS'text'
p9
VTruth be told. I don't live in Beverly Hills and my post code's not 90210. #welcomeeircode #whatyoudonthavepostcodes? http://t.co/ZMaLbxG1E4
p10
sS'source_url'
p11
Vhttp://twitter.com/download/iphone
p12
sS'possibly_sensitive'
p13
I00
sS'in_reply_to_status_id'
p14
NsS'user'
p15
g0
(ctweepy.models
User
p16
g2
Ntp17
Rp18
(dp19
S'follow_request_sent'
p20
NsS'profile_use_background_image'
p21
I01
sS'profile_sidebar_fill_color'
p22
VEFEFEF
p23
sS'id'
p24
I198212427
sS'verified'
p25
I00
sS'profile_image_url_https'
p26
Vhttps://pbs.twimg.com/profile_images/3579847527/2a68b44ef4f590b11b5b9d8d42c879c7_normal.jpeg
p27
sS'_json'
p28
(dp29
Vfollow_request_sent
p30
NsVprofile_use_background_image
p31
I01
sVdefault_profile_image
p32
I00
sVid
p33
I198212427
sVverified
p34
I00
sVprofile_image_url_https
p35
g27
sVprofile_sidebar_fill_color
p36
g23
sVprofile_text_color
p37
V333333
p38
sVfollowers_count
p39
I66
sVprofile_sidebar_border_color
p40
VEEEEEE
p41
sVid_str
p42
V198212427
p43
sVprofile_background_color
p44
V131516
p45
sVlisted_count
p46
I4
sVprofile_background_image_url_https
p47
Vhttps://abs.twimg.com/images/themes/theme14/bg.gif
p48
sVutc_offset
p49
NsVstatuses_count
p50
I2122
sVdescription
p51
VTaking the shortest route since 1976.
p52
sVfriends_count
p53
I56
sVlocation
p54
VDublin Zuerich
p55
sVprofile_link_color
p56
V009999
p57
sVprofile_image_url
p58
Vhttp://pbs.twimg.com/profile_images/3579847527/2a68b44ef4f590b11b5b9d8d42c879c7_normal.jpeg
p59
sVfollowing
p60
NsVgeo_enabled
p61
I01
sVprofile_banner_url
p62
Vhttps://pbs.twimg.com/profile_banners/198212427/1428754031
p63
sVprofile_background_image_url
p64
Vhttp://abs.twimg.com/images/themes/theme14/bg.gif
p65
sVname
p66
Vasthecrawflies
p67
sVlang
p68
Ven
p69
sVprofile_background_tile
p70
I01
sVfavourites_count
p71
I46
sVscreen_name
p72
Vasthecrawflies
p73
sVnotifications
p74
NsVurl
p75
NsVcreated_at
p76
VSun Oct 03 17:32:21 +0000 2010
p77
sVcontributors_enabled
p78
I00
sVtime_zone
p79
NsVprotected
p80
I00
sVdefault_profile
p81
I00
sVis_translator
p82
I00
ssS'contributors_enabled'
p83
I00
sS'profile_text_color'
p84
g38
sS'followers_count'
p85
I66
sS'profile_sidebar_border_color'
p86
g41
sS'location'
p87
g55
sS'default_profile_image'
p88
I00
sS'id_str'
p89
g43
sS'utc_offset'
p90
NsS'statuses_count'
p91
I2122
sS'description'
p92
g52
sS'friends_count'
p93
I56
sS'profile_link_color'
p94
g57
sS'profile_image_url'
p95
g59
sS'notifications'
p96
NsS'geo_enabled'
p97
I01
sS'profile_background_color'
p98
g45
sS'profile_banner_url'
p99
g63
sS'profile_background_image_url'
p100
g65
sS'name'
p101
g67
sS'lang'
p102
g69
sS'following'
p103
I00
sS'profile_background_tile'
p104
I01
sS'favourites_count'
p105
I46
sS'screen_name'
p106
g73
sS'url'
p107
NsS'created_at'
p108
cdatetime
datetime
p109
(S'\x07\xda\n\x03\x11 \x15\x00\x00\x00'
p110
tp111
Rp112
sS'profile_background_image_url_https'
p113
g48
sS'time_zone'
p114
NsS'protected'
p115
I00
sS'default_profile'
p116
I00
sS'is_translator'
p117
I00
sS'listed_count'
p118
I4
sbsS'filter_level'
p119
Vlow
p120
sS'geo'
p121
Nsg24
I620689641537163264
sS'favorite_count'
p122
I0
sS'source'
p123
VTwitter for iPhone
p124
sg102
Ven
p125
sS'author'
p126
g18
sS'in_reply_to_user_id_str'
p127
Nsg28
(dp128
Vcontributors
p129
NsVtruncated
p130
I00
sVtext
p131
g10
sVin_reply_to_status_id
p132
Nsg33
I620689641537163264
sVfavorite_count
p133
I0
sVsource
p134
V<a href="http://twitter.com/download/iphone" rel="nofollow">Twitter for iPhone</a>
p135
sVretweeted
p136
I00
sVcoordinates
p137
NsVtimestamp_ms
p138
V1436818917055
p139
sVentities
p140
(dp141
Vsymbols
p142
(lp143
sVmedia
p144
(lp145
(dp146
Vexpanded_url
p147
Vhttp://twitter.com/asthecrawflies/status/620689641537163264/photo/1
p148
sVdisplay_url
p149
Vpic.twitter.com/ZMaLbxG1E4
p150
sg75
Vhttp://t.co/ZMaLbxG1E4
p151
sVmedia_url_https
p152
Vhttps://pbs.twimg.com/media/CJ0h7szWcAAkKXz.jpg
p153
sg42
V620689633169534976
p154
sVsizes
p155
(dp156
Vsmall
p157
(dp158
Vh
p159
I342
sVresize
p160
Vfit
p161
sVw
p162
I340
ssVlarge
p163
(dp164
g159
I594
sg160
Vfit
p165
sg162
I590
ssVmedium
p166
(dp167
g159
I594
sg160
Vfit
p168
sg162
I590
ssVthumb
p169
(dp170
g159
I150
sg160
Vcrop
p171
sg162
I150
sssVindices
p172
(lp173
I118
aI140
asVtype
p174
Vphoto
p175
sg33
I620689633169534976
sVmedia_url
p176
Vhttp://pbs.twimg.com/media/CJ0h7szWcAAkKXz.jpg
p177
sasVhashtags
p178
(lp179
(dp180
g172
(lp181
I75
aI90
asg131
Vwelcomeeircode
p182
sa(dp183
g172
(lp184
I91
aI116
asg131
Vwhatyoudonthavepostcodes
p185
sasVuser_mentions
p186
(lp187
sVtrends
p188
(lp189
sVurls
p190
(lp191
ssVin_reply_to_screen_name
p192
Nsg42
V620689641537163264
p193
sVretweet_count
p194
I0
sVin_reply_to_user_id
p195
NsVfavorited
p196
I00
sVuser
p197
g29
sVgeo
p198
NsVin_reply_to_user_id_str
p199
NsVpossibly_sensitive
p200
I00
sg68
g125
sg76
VMon Jul 13 20:21:57 +0000 2015
p201
sVfilter_level
p202
g120
sVin_reply_to_status_id_str
p203
NsVplace
p204
(dp205
Vfull_name
p206
VZurich, Switzerland
p207
sg75
Vhttps://api.twitter.com/1.1/geo/id/3acb748d0f1e9265.json
p208
sVcountry
p209
VSchweiz
p210
sVplace_type
p211
Vcity
p212
sVbounding_box
p213
(dp214
g174
VPolygon
p215
sg137
(lp216
(lp217
(lp218
F8.448081
aF47.320183
aa(lp219
F8.448081
aF47.434721
aa(lp220
F8.625442
aF47.434721
aa(lp221
F8.625442
aF47.320183
aaassVcountry_code
p222
VCH
p223
sVattributes
p224
(dp225
sg33
V3acb748d0f1e9265
p226
sg66
VZurich
p227
ssVextended_entities
p228
(dp229
g144
(lp230
(dp231
g147
Vhttp://twitter.com/asthecrawflies/status/620689641537163264/photo/1
p232
sg149
Vpic.twitter.com/ZMaLbxG1E4
p233
sg75
Vhttp://t.co/ZMaLbxG1E4
p234
sg152
Vhttps://pbs.twimg.com/media/CJ0h7szWcAAkKXz.jpg
p235
sg42
V620689633169534976
p236
sg155
(dp237
g157
(dp238
g159
I342
sg160
Vfit
p239
sg162
I340
ssg163
(dp240
g159
I594
sg160
Vfit
p241
sg162
I590
ssg166
(dp242
g159
I594
sg160
Vfit
p243
sg162
I590
ssg169
(dp244
g159
I150
sg160
Vcrop
p245
sg162
I150
sssg172
(lp246
I118
aI140
asg174
Vphoto
p247
sg33
I620689633169534976
sg176
Vhttp://pbs.twimg.com/media/CJ0h7szWcAAkKXz.jpg
p248
sasssS'coordinates'
p249
NsS'timestamp_ms'
p250
g139
sS'entities'
p251
g141
sS'in_reply_to_status_id_str'
p252
NsS'in_reply_to_screen_name'
p253
Nsg89
g193
sS'extended_entities'
p254
g229
sS'retweeted'
p255
I00
sS'place'
p256
g0
(ctweepy.models
Place
p257
g2
Ntp258
Rp259
(dp260
S'full_name'
p261
g207
sg107
g208
sS'country'
p262
g210
sS'place_type'
p263
g212
sS'bounding_box'
p264
g0
(ctweepy.models
BoundingBox
p265
g2
Ntp266
Rp267
(dp268
S'type'
p269
g215
sg249
g216
sbsS'country_code'
p270
g223
sS'attributes'
p271
g225
sg24
g226
sg101
g227
sbsS'retweet_count'
p272
I0
sg108
g109
(S'\x07\xdf\x07\r\x14\x159\x00\x00\x00'
p273
tp274
Rp275
sS'in_reply_to_user_id'
p276
Nsb.