ccopy_reg
_reconstructor
p0
(ctweepy.models
Status
p1
c__builtin__
object
p2
Ntp3
Rp4
(dp5
S'favorited'
p6
I00
sS'contributors'
p7
NsS'truncated'
p8
I00
sS'text'
p9
VSome @vicfirth sticks a flyin! @BrianDelaney @metheridge
p10
sS'source_url'
p11
Vhttp://twitter.com
p12
sS'possibly_sensitive'
p13
I00
sS'in_reply_to_status_id'
p14
NsS'user'
p15
g0
(ctweepy.models
User
p16
g2
Ntp17
Rp18
(dp19
S'follow_request_sent'
p20
NsS'profile_use_background_image'
p21
I01
sS'profile_sidebar_fill_color'
p22
V252429
p23
sS'id'
p24
I19027934
sS'verified'
p25
I00
sS'profile_image_url_https'
p26
Vhttps://pbs.twimg.com/profile_images/621093669207195648/j1XjZ8XC_normal.jpg
p27
sS'_json'
p28
(dp29
Vfollow_request_sent
p30
NsVprofile_use_background_image
p31
I01
sVdefault_profile_image
p32
I00
sVid
p33
I19027934
sVverified
p34
I00
sVprofile_image_url_https
p35
g27
sVprofile_sidebar_fill_color
p36
g23
sVprofile_text_color
p37
V666666
p38
sVfollowers_count
p39
I262
sVprofile_sidebar_border_color
p40
V181A1E
p41
sVid_str
p42
V19027934
p43
sVprofile_background_color
p44
V1A1B1F
p45
sVlisted_count
p46
I9
sVprofile_background_image_url_https
p47
Vhttps://abs.twimg.com/images/themes/theme9/bg.gif
p48
sVutc_offset
p49
I-14400
sVstatuses_count
p50
I896
sVdescription
p51
VI play drums and geek out on the Mac.
p52
sVfriends_count
p53
I78
sVlocation
p54
VNew York City
p55
sVprofile_link_color
p56
V2FC2EF
p57
sVprofile_image_url
p58
Vhttp://pbs.twimg.com/profile_images/621093669207195648/j1XjZ8XC_normal.jpg
p59
sVfollowing
p60
NsVgeo_enabled
p61
I01
sVprofile_banner_url
p62
Vhttps://pbs.twimg.com/profile_banners/19027934/1433088674
p63
sVprofile_background_image_url
p64
Vhttp://abs.twimg.com/images/themes/theme9/bg.gif
p65
sVname
p66
VBrian Delaney
p67
sVlang
p68
Ven
p69
sVprofile_background_tile
p70
I00
sVfavourites_count
p71
I55
sVscreen_name
p72
VBrianDelaney
p73
sVnotifications
p74
NsVurl
p75
NsVcreated_at
p76
VThu Jan 15 16:40:58 +0000 2009
p77
sVcontributors_enabled
p78
I00
sVtime_zone
p79
VEastern Time (US & Canada)
p80
sVprotected
p81
I00
sVdefault_profile
p82
I00
sVis_translator
p83
I00
ssS'contributors_enabled'
p84
I00
sS'profile_text_color'
p85
g38
sS'followers_count'
p86
I262
sS'profile_sidebar_border_color'
p87
g41
sS'location'
p88
g55
sS'default_profile_image'
p89
I00
sS'id_str'
p90
g43
sS'utc_offset'
p91
I-14400
sS'statuses_count'
p92
I896
sS'description'
p93
g52
sS'friends_count'
p94
I78
sS'profile_link_color'
p95
g57
sS'profile_image_url'
p96
g59
sS'notifications'
p97
NsS'geo_enabled'
p98
I01
sS'profile_background_color'
p99
g45
sS'profile_banner_url'
p100
g63
sS'profile_background_image_url'
p101
g65
sS'name'
p102
g67
sS'lang'
p103
g69
sS'following'
p104
I00
sS'profile_background_tile'
p105
I00
sS'favourites_count'
p106
I55
sS'screen_name'
p107
g73
sS'url'
p108
NsS'created_at'
p109
cdatetime
datetime
p110
(S'\x07\xd9\x01\x0f\x10(:\x00\x00\x00'
p111
tp112
Rp113
sS'profile_background_image_url_https'
p114
g48
sS'time_zone'
p115
g80
sS'protected'
p116
I00
sS'default_profile'
p117
I00
sS'is_translator'
p118
I00
sS'listed_count'
p119
I9
sbsS'filter_level'
p120
Vlow
p121
sS'geo'
p122
Nsg24
I621100106901778432
sS'favorite_count'
p123
I0
sS'source'
p124
VTwitter Web Client
p125
sg103
Ven
p126
sS'author'
p127
g18
sS'in_reply_to_user_id_str'
p128
Nsg28
(dp129
Vcontributors
p130
NsVtruncated
p131
I00
sVtext
p132
g10
sVin_reply_to_status_id
p133
Nsg33
I621100106901778432
sVfavorite_count
p134
I0
sVsource
p135
V<a href="http://twitter.com" rel="nofollow">Twitter Web Client</a>
p136
sVretweeted
p137
I00
sVcoordinates
p138
NsVtimestamp_ms
p139
V1436916779624
p140
sVentities
p141
(dp142
Vuser_mentions
p143
(lp144
(dp145
g33
I67319716
sVindices
p146
(lp147
I5
aI14
asg42
V67319716
p148
sg72
Vvicfirth
p149
sg66
VVic Firth
p150
sa(dp151
g33
I19027934
sg146
(lp152
I31
aI44
asg42
V19027934
p153
sg72
VBrianDelaney
p154
sg66
VBrian Delaney
p155
sa(dp156
g33
I35885940
sg146
(lp157
I45
aI56
asg42
V35885940
p158
sg72
Vmetheridge
p159
sg66
VMelissa Etheridge
p160
sasVsymbols
p161
(lp162
sVtrends
p163
(lp164
sVhashtags
p165
(lp166
sVurls
p167
(lp168
ssVin_reply_to_screen_name
p169
Nsg42
V621100106901778432
p170
sVretweet_count
p171
I0
sVin_reply_to_user_id
p172
NsVfavorited
p173
I00
sVuser
p174
g29
sVgeo
p175
NsVin_reply_to_user_id_str
p176
NsVpossibly_sensitive
p177
I00
sg68
g126
sg76
VTue Jul 14 23:32:59 +0000 2015
p178
sVfilter_level
p179
g121
sVin_reply_to_status_id_str
p180
NsVplace
p181
(dp182
Vfull_name
p183
VZurich, Switzerland
p184
sg75
Vhttps://api.twitter.com/1.1/geo/id/3acb748d0f1e9265.json
p185
sVcountry
p186
VSchweiz
p187
sVplace_type
p188
Vcity
p189
sVbounding_box
p190
(dp191
Vtype
p192
VPolygon
p193
sg138
(lp194
(lp195
(lp196
F8.448081
aF47.320183
aa(lp197
F8.448081
aF47.434721
aa(lp198
F8.625442
aF47.434721
aa(lp199
F8.625442
aF47.320183
aaassVcountry_code
p200
VCH
p201
sVattributes
p202
(dp203
sg33
V3acb748d0f1e9265
p204
sg66
VZurich
p205
sssS'coordinates'
p206
NsS'timestamp_ms'
p207
g140
sS'entities'
p208
g142
sS'in_reply_to_status_id_str'
p209
NsS'in_reply_to_screen_name'
p210
Nsg90
g170
sS'retweeted'
p211
I00
sS'place'
p212
g0
(ctweepy.models
Place
p213
g2
Ntp214
Rp215
(dp216
S'full_name'
p217
g184
sg108
g185
sS'country'
p218
g187
sS'place_type'
p219
g189
sS'bounding_box'
p220
g0
(ctweepy.models
BoundingBox
p221
g2
Ntp222
Rp223
(dp224
S'type'
p225
g193
sg206
g194
sbsS'country_code'
p226
g201
sS'attributes'
p227
g203
sg24
g204
sg102
g205
sbsS'retweet_count'
p228
I0
sg109
g110
(S'\x07\xdf\x07\x0e\x17 ;\x00\x00\x00'
p229
tp230
Rp231
sS'in_reply_to_user_id'
p232
Nsb.