ccopy_reg
_reconstructor
p0
(ctweepy.models
Status
p1
c__builtin__
object
p2
Ntp3
Rp4
(dp5
S'favorited'
p6
I00
sS'contributors'
p7
NsS'truncated'
p8
I00
sS'text'
p9
VMy flight from ALG left 30 minutes late today bcs "the control tower lost our flight plan". Took them 20mins to find it.\u000a\u000a#confidence
p10
sS'source_url'
p11
Vhttp://twitter.com
p12
sS'possibly_sensitive'
p13
I00
sS'in_reply_to_status_id'
p14
NsS'user'
p15
g0
(ctweepy.models
User
p16
g2
Ntp17
Rp18
(dp19
S'follow_request_sent'
p20
NsS'profile_use_background_image'
p21
I01
sS'profile_sidebar_fill_color'
p22
VE1E1E1
p23
sS'id'
p24
I9527232
sS'verified'
p25
I00
sS'profile_image_url_https'
p26
Vhttps://pbs.twimg.com/profile_images/378800000832053881/ab4bd7068e5e690c3c2c08c73631b2ea_normal.jpeg
p27
sS'_json'
p28
(dp29
Vfollow_request_sent
p30
NsVprofile_use_background_image
p31
I01
sVdefault_profile_image
p32
I00
sVid
p33
I9527232
sVverified
p34
I00
sVprofile_image_url_https
p35
g27
sVprofile_sidebar_fill_color
p36
g23
sVprofile_text_color
p37
V000000
p38
sVfollowers_count
p39
I488
sVprofile_sidebar_border_color
p40
V747D68
p41
sVid_str
p42
V9527232
p43
sVprofile_background_color
p44
V9AE4E8
p45
sVlisted_count
p46
I21
sVprofile_background_image_url_https
p47
Vhttps://pbs.twimg.com/profile_background_images/2824757/berichte_gradient.png
p48
sVutc_offset
p49
NsVstatuses_count
p50
I8515
sVdescription
p51
VGerman expat in Switzerland (ex Northern England & Southern France). Father of 4 girls.
p52
sVfriends_count
p53
I524
sVlocation
p54
VBasel, Switzerland
p55
sVprofile_link_color
p56
V0000FF
p57
sVprofile_image_url
p58
Vhttp://pbs.twimg.com/profile_images/378800000832053881/ab4bd7068e5e690c3c2c08c73631b2ea_normal.jpeg
p59
sVfollowing
p60
NsVgeo_enabled
p61
I01
sVprofile_banner_url
p62
Vhttps://pbs.twimg.com/profile_banners/9527232/1354112816
p63
sVprofile_background_image_url
p64
Vhttp://pbs.twimg.com/profile_background_images/2824757/berichte_gradient.png
p65
sVname
p66
VJan Exner
p67
sVlang
p68
Ven
p69
sVprofile_background_tile
p70
I01
sVfavourites_count
p71
I3633
sVscreen_name
p72
Vjexner
p73
sVnotifications
p74
NsVurl
p75
Vhttp://www.jan-exner.de/
p76
sVcreated_at
p77
VThu Oct 18 18:46:10 +0000 2007
p78
sVcontributors_enabled
p79
I00
sVtime_zone
p80
NsVprotected
p81
I00
sVdefault_profile
p82
I00
sVis_translator
p83
I00
ssS'contributors_enabled'
p84
I00
sS'profile_text_color'
p85
g38
sS'followers_count'
p86
I488
sS'profile_sidebar_border_color'
p87
g41
sS'location'
p88
g55
sS'default_profile_image'
p89
I00
sS'id_str'
p90
g43
sS'utc_offset'
p91
NsS'statuses_count'
p92
I8515
sS'description'
p93
g52
sS'friends_count'
p94
I524
sS'profile_link_color'
p95
g57
sS'profile_image_url'
p96
g59
sS'notifications'
p97
NsS'geo_enabled'
p98
I01
sS'profile_background_color'
p99
g45
sS'profile_banner_url'
p100
g63
sS'profile_background_image_url'
p101
g65
sS'name'
p102
g67
sS'lang'
p103
g69
sS'following'
p104
I00
sS'profile_background_tile'
p105
I01
sS'favourites_count'
p106
I3633
sS'screen_name'
p107
g73
sS'url'
p108
g76
sS'created_at'
p109
cdatetime
datetime
p110
(S'\x07\xd7\n\x12\x12.\n\x00\x00\x00'
p111
tp112
Rp113
sS'profile_background_image_url_https'
p114
g48
sS'time_zone'
p115
NsS'protected'
p116
I00
sS'default_profile'
p117
I00
sS'is_translator'
p118
I00
sS'listed_count'
p119
I21
sbsS'filter_level'
p120
Vlow
p121
sS'geo'
p122
Nsg24
I621390618821042176
sS'favorite_count'
p123
I0
sS'source'
p124
VTwitter Web Client
p125
sg103
Ven
p126
sS'author'
p127
g18
sS'in_reply_to_user_id_str'
p128
Nsg28
(dp129
Vcontributors
p130
NsVtruncated
p131
I00
sVtext
p132
VMy flight from ALG left 30 minutes late today bcs "the control tower lost our flight plan". Took them 20mins to find it.\u000a\u000a#confidence
p133
sVin_reply_to_status_id
p134
Nsg33
I621390618821042176
sVfavorite_count
p135
I0
sVsource
p136
V<a href="http://twitter.com" rel="nofollow">Twitter Web Client</a>
p137
sVretweeted
p138
I00
sVcoordinates
p139
NsVtimestamp_ms
p140
V1436986043063
p141
sVentities
p142
(dp143
Vuser_mentions
p144
(lp145
sVsymbols
p146
(lp147
sVtrends
p148
(lp149
sVhashtags
p150
(lp151
(dp152
Vindices
p153
(lp154
I122
aI133
asg132
Vconfidence
p155
sasVurls
p156
(lp157
ssVin_reply_to_screen_name
p158
Nsg42
V621390618821042176
p159
sVretweet_count
p160
I0
sVin_reply_to_user_id
p161
NsVfavorited
p162
I00
sVuser
p163
g29
sVgeo
p164
NsVin_reply_to_user_id_str
p165
NsVpossibly_sensitive
p166
I00
sg68
g126
sg77
VWed Jul 15 18:47:23 +0000 2015
p167
sVfilter_level
p168
g121
sVin_reply_to_status_id_str
p169
NsVplace
p170
(dp171
Vfull_name
p172
VBerne, Switzerland
p173
sg75
Vhttps://api.twitter.com/1.1/geo/id/5868d0e0749c9c47.json
p174
sVcountry
p175
VSchweiz
p176
sVplace_type
p177
Vadmin
p178
sVbounding_box
p179
(dp180
Vtype
p181
VPolygon
p182
sg139
(lp183
(lp184
(lp185
F6.861601
aF46.326441
aa(lp186
F6.861601
aF47.34528
aa(lp187
F8.455051
aF47.34528
aa(lp188
F8.455051
aF46.326441
aaassVcountry_code
p189
VCH
p190
sVattributes
p191
(dp192
sg33
V5868d0e0749c9c47
p193
sg66
VBern
p194
sssS'coordinates'
p195
NsS'timestamp_ms'
p196
g141
sS'entities'
p197
g143
sS'in_reply_to_status_id_str'
p198
NsS'in_reply_to_screen_name'
p199
Nsg90
g159
sS'retweeted'
p200
I00
sS'place'
p201
g0
(ctweepy.models
Place
p202
g2
Ntp203
Rp204
(dp205
S'full_name'
p206
g173
sg108
g174
sS'country'
p207
g176
sS'place_type'
p208
g178
sS'bounding_box'
p209
g0
(ctweepy.models
BoundingBox
p210
g2
Ntp211
Rp212
(dp213
S'type'
p214
g182
sg195
g183
sbsS'country_code'
p215
g190
sS'attributes'
p216
g192
sg24
g193
sg102
g194
sbsS'retweet_count'
p217
I0
sg109
g110
(S'\x07\xdf\x07\x0f\x12/\x17\x00\x00\x00'
p218
tp219
Rp220
sS'in_reply_to_user_id'
p221
Nsb.