ccopy_reg
_reconstructor
p0
(ctweepy.models
Status
p1
c__builtin__
object
p2
Ntp3
Rp4
(dp5
S'favorited'
p6
I00
sS'contributors'
p7
NsS'truncated'
p8
I00
sS'text'
p9
VICYMI: The 32 female &amp; male athletes qualified for the @YouthOlympics Skills Challenge in @lillehammer2016 are known. http://t.co/XL9L6ANUfQ
p10
sS'source_url'
p11
Vhttp://twitter.com
p12
sS'possibly_sensitive'
p13
I00
sS'in_reply_to_status_id'
p14
NsS'user'
p15
g0
(ctweepy.models
User
p16
g2
Ntp17
Rp18
(dp19
S'follow_request_sent'
p20
NsS'profile_use_background_image'
p21
I01
sS'profile_sidebar_fill_color'
p22
VB9C9E1
p23
sS'id'
p24
I34895713
sS'verified'
p25
I01
sS'profile_image_url_https'
p26
Vhttps://pbs.twimg.com/profile_images/611179023960440834/8Bl7CYkd_normal.jpg
p27
sS'_json'
p28
(dp29
Vfollow_request_sent
p30
NsVprofile_use_background_image
p31
I01
sVdefault_profile_image
p32
I00
sVid
p33
I34895713
sVverified
p34
I01
sVprofile_image_url_https
p35
g27
sVprofile_sidebar_fill_color
p36
g23
sVprofile_text_color
p37
V474747
p38
sVfollowers_count
p39
I82907
sVprofile_sidebar_border_color
p40
VFFFFFF
p41
sVid_str
p42
V34895713
p43
sVprofile_background_color
p44
V195A97
p45
sVlisted_count
p46
I1199
sVprofile_background_image_url_https
p47
Vhttps://pbs.twimg.com/profile_background_images/499851833766969344/fx69FQr6.jpeg
p48
sVutc_offset
p49
I7200
sVstatuses_count
p50
I9142
sVdescription
p51
VWelcome to the official Twitter account of the International Ice Hockey Federation. For live scores from our events also follow @IIHFScores.
p52
sVfriends_count
p53
I331
sVlocation
p54
VZurich, Switzerland
p55
sVprofile_link_color
p56
V0084B4
p57
sVprofile_image_url
p58
Vhttp://pbs.twimg.com/profile_images/611179023960440834/8Bl7CYkd_normal.jpg
p59
sVfollowing
p60
NsVgeo_enabled
p61
I01
sVprofile_banner_url
p62
Vhttps://pbs.twimg.com/profile_banners/34895713/1429795536
p63
sVprofile_background_image_url
p64
Vhttp://pbs.twimg.com/profile_background_images/499851833766969344/fx69FQr6.jpeg
p65
sVname
p66
VIIHF
p67
sVlang
p68
Ven
p69
sVprofile_background_tile
p70
I01
sVfavourites_count
p71
I3
sVscreen_name
p72
VIIHFHockey
p73
sVnotifications
p74
NsVurl
p75
Vhttp://www.iihf.com
p76
sVcreated_at
p77
VFri Apr 24 10:38:35 +0000 2009
p78
sVcontributors_enabled
p79
I00
sVtime_zone
p80
VBern
p81
sVprotected
p82
I00
sVdefault_profile
p83
I00
sVis_translator
p84
I00
ssS'contributors_enabled'
p85
I00
sS'profile_text_color'
p86
g38
sS'followers_count'
p87
I82907
sS'profile_sidebar_border_color'
p88
g41
sS'location'
p89
g55
sS'default_profile_image'
p90
I00
sS'id_str'
p91
g43
sS'utc_offset'
p92
I7200
sS'statuses_count'
p93
I9142
sS'description'
p94
g52
sS'friends_count'
p95
I331
sS'profile_link_color'
p96
g57
sS'profile_image_url'
p97
g59
sS'notifications'
p98
NsS'geo_enabled'
p99
I01
sS'profile_background_color'
p100
g45
sS'profile_banner_url'
p101
g63
sS'profile_background_image_url'
p102
g65
sS'name'
p103
g67
sS'lang'
p104
g69
sS'following'
p105
I00
sS'profile_background_tile'
p106
I01
sS'favourites_count'
p107
I3
sS'screen_name'
p108
g73
sS'url'
p109
g76
sS'created_at'
p110
cdatetime
datetime
p111
(S'\x07\xd9\x04\x18\n&#\x00\x00\x00'
p112
tp113
Rp114
sS'profile_background_image_url_https'
p115
g48
sS'time_zone'
p116
g81
sS'protected'
p117
I00
sS'default_profile'
p118
I00
sS'is_translator'
p119
I00
sS'listed_count'
p120
I1199
sbsS'filter_level'
p121
Vlow
p122
sS'geo'
p123
Nsg24
I620501572603236352
sS'favorite_count'
p124
I0
sS'source'
p125
VTwitter Web Client
p126
sg104
Ven
p127
sS'author'
p128
g18
sS'in_reply_to_user_id_str'
p129
Nsg28
(dp130
Vcontributors
p131
NsVtruncated
p132
I00
sVtext
p133
g10
sVin_reply_to_status_id
p134
Nsg33
I620501572603236352
sVfavorite_count
p135
I0
sVsource
p136
V<a href="http://twitter.com" rel="nofollow">Twitter Web Client</a>
p137
sVretweeted
p138
I00
sVcoordinates
p139
NsVtimestamp_ms
p140
V1436774077927
p141
sVentities
p142
(dp143
Vuser_mentions
p144
(lp145
(dp146
g33
I91189330
sVindices
p147
(lp148
I59
aI73
asg42
V91189330
p149
sg72
Vyoutholympics
p150
sg66
VYouth Olympic Games
p151
sa(dp152
g33
I40714381
sg147
(lp153
I94
aI110
asg42
V40714381
p154
sg72
Vlillehammer2016
p155
sg66
VLillehammer2016
p156
sasVsymbols
p157
(lp158
sVtrends
p159
(lp160
sVhashtags
p161
(lp162
sVurls
p163
(lp164
(dp165
g75
Vhttp://t.co/XL9L6ANUfQ
p166
sg147
(lp167
I122
aI144
asVexpanded_url
p168
Vhttp://www.iihf.com/home-of-hockey/news/news-singleview/?tx_ttnews%5Btt_news%5D=9926&cHash=34bd3ea0fa2a2c77fd2d7c2a005c4a63
p169
sVdisplay_url
p170
Viihf.com/home-of-hockey\u2026
p171
sassVin_reply_to_screen_name
p172
Nsg42
V620501572603236352
p173
sVretweet_count
p174
I0
sVin_reply_to_user_id
p175
NsVfavorited
p176
I00
sVuser
p177
g29
sVgeo
p178
NsVin_reply_to_user_id_str
p179
NsVpossibly_sensitive
p180
I00
sg68
g127
sg77
VMon Jul 13 07:54:37 +0000 2015
p181
sVfilter_level
p182
g122
sVin_reply_to_status_id_str
p183
NsVplace
p184
(dp185
Vfull_name
p186
VZurich, Switzerland
p187
sg75
Vhttps://api.twitter.com/1.1/geo/id/3acb748d0f1e9265.json
p188
sVcountry
p189
VSchweiz
p190
sVplace_type
p191
Vcity
p192
sVbounding_box
p193
(dp194
Vtype
p195
VPolygon
p196
sg139
(lp197
(lp198
(lp199
F8.448081
aF47.320183
aa(lp200
F8.448081
aF47.434721
aa(lp201
F8.625442
aF47.434721
aa(lp202
F8.625442
aF47.320183
aaassVcountry_code
p203
VCH
p204
sVattributes
p205
(dp206
sg33
V3acb748d0f1e9265
p207
sg66
VZurich
p208
sssS'coordinates'
p209
NsS'timestamp_ms'
p210
g141
sS'entities'
p211
g143
sS'in_reply_to_status_id_str'
p212
NsS'in_reply_to_screen_name'
p213
Nsg91
g173
sS'retweeted'
p214
I00
sS'place'
p215
g0
(ctweepy.models
Place
p216
g2
Ntp217
Rp218
(dp219
S'full_name'
p220
g187
sg109
g188
sS'country'
p221
g190
sS'place_type'
p222
g192
sS'bounding_box'
p223
g0
(ctweepy.models
BoundingBox
p224
g2
Ntp225
Rp226
(dp227
S'type'
p228
g196
sg209
g197
sbsS'country_code'
p229
g204
sS'attributes'
p230
g206
sg24
g207
sg103
g208
sbsS'retweet_count'
p231
I0
sg110
g111
(S'\x07\xdf\x07\r\x076%\x00\x00\x00'
p232
tp233
Rp234
sS'in_reply_to_user_id'
p235
Nsb.