ccopy_reg
_reconstructor
p0
(ctweepy.models
Status
p1
c__builtin__
object
p2
Ntp3
Rp4
(dp5
S'favorited'
p6
I00
sS'contributors'
p7
NsS'truncated'
p8
I00
sS'text'
p9
V#fischersfritz #evenings #friyay #jeweltattoo #flashtattoo #hermes #collierdechien #handcandy @\u2026 https://t.co/eInEbW2v4F
p10
sS'source_url'
p11
Vhttp://instagram.com
p12
sS'possibly_sensitive'
p13
I00
sS'in_reply_to_status_id'
p14
NsS'user'
p15
g0
(ctweepy.models
User
p16
g2
Ntp17
Rp18
(dp19
S'follow_request_sent'
p20
NsS'profile_use_background_image'
p21
I01
sS'profile_sidebar_fill_color'
p22
VDDEEF6
p23
sS'id'
p24
I324805864
sS'verified'
p25
I00
sS'profile_image_url_https'
p26
Vhttps://pbs.twimg.com/profile_images/581603815104856064/l9ofQV32_normal.jpg
p27
sS'_json'
p28
(dp29
Vfollow_request_sent
p30
NsVprofile_use_background_image
p31
I01
sVdefault_profile_image
p32
I00
sVid
p33
I324805864
sVverified
p34
I00
sVprofile_image_url_https
p35
g27
sVprofile_sidebar_fill_color
p36
g23
sVprofile_text_color
p37
V333333
p38
sVfollowers_count
p39
I87
sVprofile_sidebar_border_color
p40
VC0DEED
p41
sVid_str
p42
V324805864
p43
sVprofile_background_color
p44
VC0DEED
p45
sVlisted_count
p46
I13
sVprofile_background_image_url_https
p47
Vhttps://abs.twimg.com/images/themes/theme1/bg.png
p48
sVutc_offset
p49
I7200
sVstatuses_count
p50
I1081
sVdescription
p51
NsVfriends_count
p52
I25
sVlocation
p53
VZurich, Switzerland
p54
sVprofile_link_color
p55
V9BA8AD
p56
sVprofile_image_url
p57
Vhttp://pbs.twimg.com/profile_images/581603815104856064/l9ofQV32_normal.jpg
p58
sVfollowing
p59
NsVgeo_enabled
p60
I01
sVprofile_banner_url
p61
Vhttps://pbs.twimg.com/profile_banners/324805864/1427500129
p62
sVprofile_background_image_url
p63
Vhttp://abs.twimg.com/images/themes/theme1/bg.png
p64
sVname
p65
VSylwina Annina
p66
sVlang
p67
Ven
p68
sVprofile_background_tile
p69
I00
sVfavourites_count
p70
I21
sVscreen_name
p71
Vsylwina
p72
sVnotifications
p73
NsVurl
p74
Vhttp://www.sylwina.com
p75
sVcreated_at
p76
VMon Jun 27 07:23:31 +0000 2011
p77
sVcontributors_enabled
p78
I00
sVtime_zone
p79
VParis
p80
sVprotected
p81
I00
sVdefault_profile
p82
I00
sVis_translator
p83
I00
ssS'contributors_enabled'
p84
I00
sS'profile_text_color'
p85
g38
sS'followers_count'
p86
I87
sS'profile_sidebar_border_color'
p87
g41
sS'location'
p88
g54
sS'default_profile_image'
p89
I00
sS'id_str'
p90
g43
sS'utc_offset'
p91
I7200
sS'statuses_count'
p92
I1081
sS'description'
p93
NsS'friends_count'
p94
I25
sS'profile_link_color'
p95
g56
sS'profile_image_url'
p96
g58
sS'notifications'
p97
NsS'geo_enabled'
p98
I01
sS'profile_background_color'
p99
g45
sS'profile_banner_url'
p100
g62
sS'profile_background_image_url'
p101
g64
sS'name'
p102
g66
sS'lang'
p103
g68
sS'following'
p104
I00
sS'profile_background_tile'
p105
I00
sS'favourites_count'
p106
I21
sS'screen_name'
p107
g72
sS'url'
p108
g75
sS'created_at'
p109
cdatetime
datetime
p110
(S'\x07\xdb\x06\x1b\x07\x17\x1f\x00\x00\x00'
p111
tp112
Rp113
sS'profile_background_image_url_https'
p114
g48
sS'time_zone'
p115
g80
sS'protected'
p116
I00
sS'default_profile'
p117
I00
sS'is_translator'
p118
I00
sS'listed_count'
p119
I13
sbsS'filter_level'
p120
Vlow
p121
sS'geo'
p122
(dp123
Vtype
p124
VPoint
p125
sVcoordinates
p126
(lp127
F47.336024
aF8.54194
assg24
I619604861110341632
sS'favorite_count'
p128
I0
sS'source'
p129
VInstagram
p130
sg103
Vund
p131
sS'author'
p132
g18
sS'in_reply_to_user_id_str'
p133
Nsg28
(dp134
Vcontributors
p135
NsVtruncated
p136
I00
sVtext
p137
g10
sVin_reply_to_status_id
p138
Nsg33
I619604861110341632
sVfavorite_count
p139
I0
sVsource
p140
V<a href="http://instagram.com" rel="nofollow">Instagram</a>
p141
sVretweeted
p142
I00
sg126
(dp143
g124
VPoint
p144
sg126
(lp145
F8.54194
aF47.336024
assVtimestamp_ms
p146
V1436560285247
p147
sVentities
p148
(dp149
Vuser_mentions
p150
(lp151
sVsymbols
p152
(lp153
sVtrends
p154
(lp155
sVhashtags
p156
(lp157
(dp158
Vindices
p159
(lp160
I0
aI14
asg137
Vfischersfritz
p161
sa(dp162
g159
(lp163
I15
aI24
asg137
Vevenings
p164
sa(dp165
g159
(lp166
I25
aI32
asg137
Vfriyay
p167
sa(dp168
g159
(lp169
I33
aI45
asg137
Vjeweltattoo
p170
sa(dp171
g159
(lp172
I46
aI58
asg137
Vflashtattoo
p173
sa(dp174
g159
(lp175
I59
aI66
asg137
Vhermes
p176
sa(dp177
g159
(lp178
I67
aI82
asg137
Vcollierdechien
p179
sa(dp180
g159
(lp181
I83
aI93
asg137
Vhandcandy
p182
sasVurls
p183
(lp184
(dp185
g74
Vhttps://t.co/eInEbW2v4F
p186
sg159
(lp187
I97
aI120
asVexpanded_url
p188
Vhttps://instagram.com/p/4-BiHWxZ3h/
p189
sVdisplay_url
p190
Vinstagram.com/p/4-BiHWxZ3h/
p191
sassVin_reply_to_screen_name
p192
Nsg42
V619604861110341632
p193
sVretweet_count
p194
I0
sVin_reply_to_user_id
p195
NsVfavorited
p196
I00
sVuser
p197
g29
sVgeo
p198
g123
sVin_reply_to_user_id_str
p199
NsVpossibly_sensitive
p200
I00
sg67
g131
sg76
VFri Jul 10 20:31:25 +0000 2015
p201
sVfilter_level
p202
g121
sVin_reply_to_status_id_str
p203
NsVplace
p204
(dp205
Vfull_name
p206
VZurich, Switzerland
p207
sg74
Vhttps://api.twitter.com/1.1/geo/id/3acb748d0f1e9265.json
p208
sVcountry
p209
VSchweiz
p210
sVplace_type
p211
Vcity
p212
sVbounding_box
p213
(dp214
g124
VPolygon
p215
sg126
(lp216
(lp217
(lp218
F8.448081
aF47.320183
aa(lp219
F8.448081
aF47.434721
aa(lp220
F8.625442
aF47.434721
aa(lp221
F8.625442
aF47.320183
aaassVcountry_code
p222
VCH
p223
sVattributes
p224
(dp225
sg33
V3acb748d0f1e9265
p226
sg65
VZurich
p227
sssS'coordinates'
p228
g143
sS'timestamp_ms'
p229
g147
sS'entities'
p230
g149
sS'in_reply_to_status_id_str'
p231
NsS'in_reply_to_screen_name'
p232
Nsg90
g193
sS'retweeted'
p233
I00
sS'place'
p234
g0
(ctweepy.models
Place
p235
g2
Ntp236
Rp237
(dp238
S'full_name'
p239
g207
sg108
g208
sS'country'
p240
g210
sS'place_type'
p241
g212
sS'bounding_box'
p242
g0
(ctweepy.models
BoundingBox
p243
g2
Ntp244
Rp245
(dp246
S'type'
p247
g215
sg228
g216
sbsS'country_code'
p248
g223
sS'attributes'
p249
g225
sg24
g226
sg102
g227
sbsS'retweet_count'
p250
I0
sg109
g110
(S'\x07\xdf\x07\n\x14\x1f\x19\x00\x00\x00'
p251
tp252
Rp253
sS'in_reply_to_user_id'
p254
Nsb.