ccopy_reg
_reconstructor
p0
(ctweepy.models
Status
p1
c__builtin__
object
p2
Ntp3
Rp4
(dp5
S'favorited'
p6
I00
sS'contributors'
p7
NsS'truncated'
p8
I00
sS'text'
p9
V@vivosolopernoi lo so idiota.
p10
sS'source_url'
p11
Vhttp://twitter.com/download/iphone
p12
sS'possibly_sensitive'
p13
I00
sS'in_reply_to_status_id'
p14
I620237339781169152
sS'user'
p15
g0
(ctweepy.models
User
p16
g2
Ntp17
Rp18
(dp19
S'follow_request_sent'
p20
NsS'profile_use_background_image'
p21
I01
sS'profile_sidebar_fill_color'
p22
VDDEEF6
p23
sS'id'
p24
I3100564391
sS'verified'
p25
I00
sS'profile_image_url_https'
p26
Vhttps://pbs.twimg.com/profile_images/620228589577965568/Wt0Spe68_normal.jpg
p27
sS'_json'
p28
(dp29
Vfollow_request_sent
p30
NsVprofile_use_background_image
p31
I01
sVdefault_profile_image
p32
I00
sVid
p33
I3100564391
sVverified
p34
I00
sVprofile_image_url_https
p35
g27
sVprofile_sidebar_fill_color
p36
g23
sVprofile_text_color
p37
V333333
p38
sVfollowers_count
p39
I134
sVprofile_sidebar_border_color
p40
VC0DEED
p41
sVid_str
p42
V3100564391
p43
sVprofile_background_color
p44
VABB8C2
p45
sVlisted_count
p46
I0
sVprofile_background_image_url_https
p47
Vhttps://pbs.twimg.com/profile_background_images/582257421361369088/RwfAvwon.png
p48
sVutc_offset
p49
I7200
sVstatuses_count
p50
I484
sVdescription
p51
VI don't have no fear of death. My olny fear is coming back reincarnated. @vivosolopernoi , @ustillthend & @imsexyfortattoos are my besti. \u2764\ufe0f
p52
sVfriends_count
p53
I149
sVlocation
p54
Vscopando @ustillthend
p55
sVprofile_link_color
p56
VABB8C2
p57
sVprofile_image_url
p58
Vhttp://pbs.twimg.com/profile_images/620228589577965568/Wt0Spe68_normal.jpg
p59
sVfollowing
p60
NsVgeo_enabled
p61
I01
sVprofile_banner_url
p62
Vhttps://pbs.twimg.com/profile_banners/3100564391/1436710501
p63
sVprofile_background_image_url
p64
Vhttp://pbs.twimg.com/profile_background_images/582257421361369088/RwfAvwon.png
p65
sVname
p66
Vhemris. 
p67
sVlang
p68
Vit
p69
sVprofile_background_tile
p70
I01
sVfavourites_count
p71
I264
sVscreen_name
p72
Vigetmypleasure
p73
sVnotifications
p74
NsVurl
p75
NsVcreated_at
p76
VFri Mar 20 23:07:45 +0000 2015
p77
sVcontributors_enabled
p78
I00
sVtime_zone
p79
VBelgrade
p80
sVprotected
p81
I00
sVdefault_profile
p82
I00
sVis_translator
p83
I00
ssS'contributors_enabled'
p84
I00
sS'profile_text_color'
p85
g38
sS'followers_count'
p86
I134
sS'profile_sidebar_border_color'
p87
g41
sS'location'
p88
g55
sS'default_profile_image'
p89
I00
sS'id_str'
p90
g43
sS'utc_offset'
p91
I7200
sS'statuses_count'
p92
I484
sS'description'
p93
g52
sS'friends_count'
p94
I149
sS'profile_link_color'
p95
g57
sS'profile_image_url'
p96
g59
sS'notifications'
p97
NsS'geo_enabled'
p98
I01
sS'profile_background_color'
p99
g45
sS'profile_banner_url'
p100
g63
sS'profile_background_image_url'
p101
g65
sS'name'
p102
g67
sS'lang'
p103
g69
sS'following'
p104
I00
sS'profile_background_tile'
p105
I01
sS'favourites_count'
p106
I264
sS'screen_name'
p107
g73
sS'url'
p108
NsS'created_at'
p109
cdatetime
datetime
p110
(S'\x07\xdf\x03\x14\x17\x07-\x00\x00\x00'
p111
tp112
Rp113
sS'profile_background_image_url_https'
p114
g48
sS'time_zone'
p115
g80
sS'protected'
p116
I00
sS'default_profile'
p117
I00
sS'is_translator'
p118
I00
sS'listed_count'
p119
I0
sbsS'filter_level'
p120
Vlow
p121
sS'geo'
p122
Nsg24
I620237504390803456
sS'favorite_count'
p123
I0
sS'source'
p124
VTwitter for iPhone
p125
sg103
Ves
p126
sS'author'
p127
g18
sS'in_reply_to_user_id_str'
p128
V457829070
p129
sg28
(dp130
Vcontributors
p131
NsVtruncated
p132
I00
sVtext
p133
g10
sVin_reply_to_status_id
p134
I620237339781169152
sg33
I620237504390803456
sVfavorite_count
p135
I0
sVsource
p136
V<a href="http://twitter.com/download/iphone" rel="nofollow">Twitter for iPhone</a>
p137
sVretweeted
p138
I00
sVcoordinates
p139
NsVtimestamp_ms
p140
V1436711119159
p141
sVentities
p142
(dp143
Vuser_mentions
p144
(lp145
(dp146
g33
I457829070
sVindices
p147
(lp148
I0
aI15
asg42
V457829070
p149
sg72
Vvivosolopernoi
p150
sg66
VJacqueline, \u6211;\u5979;\u7231\u3002
p151
sasVsymbols
p152
(lp153
sVtrends
p154
(lp155
sVhashtags
p156
(lp157
sVurls
p158
(lp159
ssVin_reply_to_screen_name
p160
Vvivosolopernoi
p161
sg42
V620237504390803456
p162
sVretweet_count
p163
I0
sVin_reply_to_user_id
p164
I457829070
sVfavorited
p165
I00
sVuser
p166
g29
sVgeo
p167
NsVin_reply_to_user_id_str
p168
g129
sVpossibly_sensitive
p169
I00
sg68
g126
sg76
VSun Jul 12 14:25:19 +0000 2015
p170
sVfilter_level
p171
g121
sVin_reply_to_status_id_str
p172
V620237339781169152
p173
sVplace
p174
(dp175
Vfull_name
p176
VZurigo, Svizzera
p177
sg75
Vhttps://api.twitter.com/1.1/geo/id/3acb748d0f1e9265.json
p178
sVcountry
p179
VSchweiz
p180
sVplace_type
p181
Vcity
p182
sVbounding_box
p183
(dp184
Vtype
p185
VPolygon
p186
sg139
(lp187
(lp188
(lp189
F8.448081
aF47.320183
aa(lp190
F8.448081
aF47.434721
aa(lp191
F8.625442
aF47.434721
aa(lp192
F8.625442
aF47.320183
aaassVcountry_code
p193
VCH
p194
sVattributes
p195
(dp196
sg33
V3acb748d0f1e9265
p197
sg66
VZurigo
p198
sssS'coordinates'
p199
NsS'timestamp_ms'
p200
g141
sS'entities'
p201
g143
sS'in_reply_to_status_id_str'
p202
g173
sS'in_reply_to_screen_name'
p203
g161
sg90
g162
sS'retweeted'
p204
I00
sS'place'
p205
g0
(ctweepy.models
Place
p206
g2
Ntp207
Rp208
(dp209
S'full_name'
p210
g177
sg108
g178
sS'country'
p211
g180
sS'place_type'
p212
g182
sS'bounding_box'
p213
g0
(ctweepy.models
BoundingBox
p214
g2
Ntp215
Rp216
(dp217
S'type'
p218
g186
sg199
g187
sbsS'country_code'
p219
g194
sS'attributes'
p220
g196
sg24
g197
sg102
g198
sbsS'retweet_count'
p221
I0
sg109
g110
(S'\x07\xdf\x07\x0c\x0e\x19\x13\x00\x00\x00'
p222
tp223
Rp224
sS'in_reply_to_user_id'
p225
I457829070
sb.