ccopy_reg
_reconstructor
p0
(ctweepy.models
Status
p1
c__builtin__
object
p2
Ntp3
Rp4
(dp5
S'favorited'
p6
I00
sS'contributors'
p7
NsS'truncated'
p8
I00
sS'text'
p9
V#ZAYNHASNOCHILL \u000a#ZAUGHTYISDEAD \u000a#LMAO
p10
sS'source_url'
p11
Vhttp://twitter.com/download/android
p12
sS'possibly_sensitive'
p13
I00
sS'in_reply_to_status_id'
p14
NsS'user'
p15
g0
(ctweepy.models
User
p16
g2
Ntp17
Rp18
(dp19
S'follow_request_sent'
p20
NsS'profile_use_background_image'
p21
I01
sS'profile_sidebar_fill_color'
p22
VDDEEF6
p23
sS'id'
p24
I2494832063
sS'verified'
p25
I00
sS'profile_image_url_https'
p26
Vhttps://pbs.twimg.com/profile_images/550007221695025152/1fvx3dMz_normal.jpeg
p27
sS'_json'
p28
(dp29
Vfollow_request_sent
p30
NsVprofile_use_background_image
p31
I01
sVdefault_profile_image
p32
I00
sVid
p33
I2494832063
sVverified
p34
I00
sVprofile_image_url_https
p35
g27
sVprofile_sidebar_fill_color
p36
g23
sVprofile_text_color
p37
V333333
p38
sVfollowers_count
p39
I78
sVprofile_sidebar_border_color
p40
VC0DEED
p41
sVid_str
p42
V2494832063
p43
sVprofile_background_color
p44
VC0DEED
p45
sVlisted_count
p46
I1
sVprofile_background_image_url_https
p47
Vhttps://abs.twimg.com/images/themes/theme1/bg.png
p48
sVutc_offset
p49
NsVstatuses_count
p50
I1764
sVdescription
p51
V#NarryIsOTP
p52
sVfriends_count
p53
I104
sVlocation
p54
VSwitzerland
p55
sVprofile_link_color
p56
V0084B4
p57
sVprofile_image_url
p58
Vhttp://pbs.twimg.com/profile_images/550007221695025152/1fvx3dMz_normal.jpeg
p59
sVfollowing
p60
NsVgeo_enabled
p61
I01
sVprofile_banner_url
p62
Vhttps://pbs.twimg.com/profile_banners/2494832063/1427319729
p63
sVprofile_background_image_url
p64
Vhttp://abs.twimg.com/images/themes/theme1/bg.png
p65
sVname
p66
VMoesha
p67
sVlang
p68
Ven
p69
sVprofile_background_tile
p70
I00
sVfavourites_count
p71
I1959
sVscreen_name
p72
VMoeshaHorlik
p73
sVnotifications
p74
NsVurl
p75
Vhttp://youtube.com/onedirection
p76
sVcreated_at
p77
VSat Apr 19 14:06:50 +0000 2014
p78
sVcontributors_enabled
p79
I00
sVtime_zone
p80
NsVprotected
p81
I00
sVdefault_profile
p82
I01
sVis_translator
p83
I00
ssS'contributors_enabled'
p84
I00
sS'profile_text_color'
p85
g38
sS'followers_count'
p86
I78
sS'profile_sidebar_border_color'
p87
g41
sS'location'
p88
g55
sS'default_profile_image'
p89
I00
sS'id_str'
p90
g43
sS'utc_offset'
p91
NsS'statuses_count'
p92
I1764
sS'description'
p93
g52
sS'friends_count'
p94
I104
sS'profile_link_color'
p95
g57
sS'profile_image_url'
p96
g59
sS'notifications'
p97
NsS'geo_enabled'
p98
I01
sS'profile_background_color'
p99
g45
sS'profile_banner_url'
p100
g63
sS'profile_background_image_url'
p101
g65
sS'name'
p102
g67
sS'lang'
p103
g69
sS'following'
p104
I00
sS'profile_background_tile'
p105
I00
sS'favourites_count'
p106
I1959
sS'screen_name'
p107
g73
sS'url'
p108
g76
sS'created_at'
p109
cdatetime
datetime
p110
(S'\x07\xde\x04\x13\x0e\x062\x00\x00\x00'
p111
tp112
Rp113
sS'profile_background_image_url_https'
p114
g48
sS'time_zone'
p115
NsS'protected'
p116
I00
sS'default_profile'
p117
I01
sS'is_translator'
p118
I00
sS'listed_count'
p119
I1
sbsS'filter_level'
p120
Vlow
p121
sS'geo'
p122
Nsg24
I621054994083659776
sS'favorite_count'
p123
I0
sS'source'
p124
VTwitter for Android
p125
sg103
Vund
p126
sS'author'
p127
g18
sS'in_reply_to_user_id_str'
p128
Nsg28
(dp129
Vcontributors
p130
NsVtruncated
p131
I00
sVtext
p132
V#ZAYNHASNOCHILL \u000a#ZAUGHTYISDEAD \u000a#LMAO
p133
sVin_reply_to_status_id
p134
Nsg33
I621054994083659776
sVfavorite_count
p135
I0
sVsource
p136
V<a href="http://twitter.com/download/android" rel="nofollow">Twitter for Android</a>
p137
sVretweeted
p138
I00
sVcoordinates
p139
NsVtimestamp_ms
p140
V1436906023890
p141
sVentities
p142
(dp143
Vuser_mentions
p144
(lp145
sVsymbols
p146
(lp147
sVtrends
p148
(lp149
sVhashtags
p150
(lp151
(dp152
Vindices
p153
(lp154
I0
aI15
asg132
VZAYNHASNOCHILL
p155
sa(dp156
g153
(lp157
I17
aI31
asg132
VZAUGHTYISDEAD
p158
sa(dp159
g153
(lp160
I33
aI38
asg132
VLMAO
p161
sasVurls
p162
(lp163
ssVin_reply_to_screen_name
p164
Nsg42
V621054994083659776
p165
sVretweet_count
p166
I0
sVin_reply_to_user_id
p167
NsVfavorited
p168
I00
sVuser
p169
g29
sVgeo
p170
NsVin_reply_to_user_id_str
p171
NsVpossibly_sensitive
p172
I00
sg68
g126
sg77
VTue Jul 14 20:33:43 +0000 2015
p173
sVfilter_level
p174
g121
sVin_reply_to_status_id_str
p175
NsVplace
p176
(dp177
Vfull_name
p178
VZurich, Switzerland
p179
sg75
Vhttps://api.twitter.com/1.1/geo/id/3acb748d0f1e9265.json
p180
sVcountry
p181
VSchweiz
p182
sVplace_type
p183
Vcity
p184
sVbounding_box
p185
(dp186
Vtype
p187
VPolygon
p188
sg139
(lp189
(lp190
(lp191
F8.448081
aF47.320183
aa(lp192
F8.448081
aF47.434721
aa(lp193
F8.625442
aF47.434721
aa(lp194
F8.625442
aF47.320183
aaassVcountry_code
p195
VCH
p196
sVattributes
p197
(dp198
sg33
V3acb748d0f1e9265
p199
sg66
VZurich
p200
sssS'coordinates'
p201
NsS'timestamp_ms'
p202
g141
sS'entities'
p203
g143
sS'in_reply_to_status_id_str'
p204
NsS'in_reply_to_screen_name'
p205
Nsg90
g165
sS'retweeted'
p206
I00
sS'place'
p207
g0
(ctweepy.models
Place
p208
g2
Ntp209
Rp210
(dp211
S'full_name'
p212
g179
sg108
g180
sS'country'
p213
g182
sS'place_type'
p214
g184
sS'bounding_box'
p215
g0
(ctweepy.models
BoundingBox
p216
g2
Ntp217
Rp218
(dp219
S'type'
p220
g188
sg201
g189
sbsS'country_code'
p221
g196
sS'attributes'
p222
g198
sg24
g199
sg102
g200
sbsS'retweet_count'
p223
I0
sg109
g110
(S'\x07\xdf\x07\x0e\x14!+\x00\x00\x00'
p224
tp225
Rp226
sS'in_reply_to_user_id'
p227
Nsb.