ccopy_reg
_reconstructor
p0
(ctweepy.models
Status
p1
c__builtin__
object
p2
Ntp3
Rp4
(dp5
S'contributors'
p6
NsS'truncated'
p7
I00
sS'text'
p8
VHoly moly https://t.co/6BmZvIoY3C
p9
sS'in_reply_to_status_id'
p10
NsS'id'
p11
I618758373094387712
sS'favorite_count'
p12
I0
sS'entities'
p13
(dp14
Vuser_mentions
p15
(lp16
sVsymbols
p17
(lp18
sVtrends
p19
(lp20
sVhashtags
p21
(lp22
sVurls
p23
(lp24
(dp25
Vurl
p26
Vhttps://t.co/6BmZvIoY3C
p27
sVindices
p28
(lp29
I10
aI33
asVexpanded_url
p30
Vhttps://twitter.com/newsbytesnow/status/618732989229314048
p31
sVdisplay_url
p32
Vtwitter.com/newsbytesnow/s\u2026
p33
sassS'quoted_status_id'
p34
I618732989229314048
sS'_json'
p35
(dp36
Vcontributors
p37
NsVtruncated
p38
I00
sVtext
p39
g9
sVin_reply_to_status_id
p40
NsVid
p41
I618758373094387712
sVfavorite_count
p42
I0
sVsource
p43
V<a href="http://twitter.com/download/iphone" rel="nofollow">Twitter for iPhone</a>
p44
sVquoted_status_id
p45
I618732989229314048
sVretweeted
p46
I00
sVcoordinates
p47
NsVtimestamp_ms
p48
V1436358466777
p49
sVquoted_status
p50
(dp51
g37
Nsg38
I00
sg39
VPhoto! MONEY LAUNDERING: NDLEA INTERCEPTS $2,198,900 DOLLARS @Gidi_Traffic #CriminalFromBirth @Ayourb @ogundamisi http://t.co/BzWfuBh4rU
p52
sg40
Nsg41
I618732989229314048
sg42
I0
sg43
V<a href="http://twitter.com/download/android" rel="nofollow">Twitter for Android</a>
p53
sg46
I00
sg47
NsVentities
p54
(dp55
g17
(lp56
sVmedia
p57
(lp58
(dp59
g30
Vhttp://twitter.com/NewsBytesNow/status/618732989229314048/photo/1
p60
sg32
Vpic.twitter.com/BzWfuBh4rU
p61
sg26
Vhttp://t.co/BzWfuBh4rU
p62
sVmedia_url_https
p63
Vhttps://pbs.twimg.com/media/CJYuWAXWUAA91X2.jpg
p64
sVid_str
p65
V618732954399952896
p66
sVsizes
p67
(dp68
Vsmall
p69
(dp70
Vh
p71
I383
sVresize
p72
Vfit
p73
sVw
p74
I340
ssVlarge
p75
(dp76
g71
I914
sg72
Vfit
p77
sg74
I810
ssVmedium
p78
(dp79
g71
I676
sg72
Vfit
p80
sg74
I600
ssVthumb
p81
(dp82
g71
I150
sg72
Vcrop
p83
sg74
I150
sssg28
(lp84
I114
aI136
asVtype
p85
Vphoto
p86
sg41
I618732954399952896
sVmedia_url
p87
Vhttp://pbs.twimg.com/media/CJYuWAXWUAA91X2.jpg
p88
sasg21
(lp89
(dp90
g28
(lp91
I75
aI93
asg39
VCriminalFromBirth
p92
sasg15
(lp93
(dp94
g41
I378809160
sg28
(lp95
I61
aI74
asg65
V378809160
p96
sVscreen_name
p97
VGidi_Traffic
p98
sVname
p99
VGIDITRAFFIC
p100
sa(dp101
g41
I60348900
sg28
(lp102
I94
aI101
asg65
V60348900
p103
sg97
VAyourb
p104
sg99
VThe Godfather
p105
sa(dp106
g41
I23377569
sg28
(lp107
I102
aI113
asg65
V23377569
p108
sg97
Vogundamisi
p109
sg99
VKayode Ogundamisi
p110
sasg19
(lp111
sg23
(lp112
ssVin_reply_to_screen_name
p113
Nsg65
V618732989229314048
p114
sVretweet_count
p115
I0
sVin_reply_to_user_id
p116
NsVfavorited
p117
I00
sVuser
p118
(dp119
Vfollow_request_sent
p120
NsVprofile_use_background_image
p121
I01
sVdefault_profile_image
p122
I00
sg41
I458131154
sVverified
p123
I00
sVprofile_image_url_https
p124
Vhttps://pbs.twimg.com/profile_images/418168607852339200/8adkVQH5_normal.png
p125
sVprofile_sidebar_fill_color
p126
VC0DFEC
p127
sVprofile_text_color
p128
V333333
p129
sVfollowers_count
p130
I11633
sVprofile_sidebar_border_color
p131
VFFFFFF
p132
sg65
V458131154
p133
sVprofile_background_color
p134
V022330
p135
sVlisted_count
p136
I72
sVprofile_background_image_url_https
p137
Vhttps://pbs.twimg.com/profile_background_images/378800000160429918/Pdy6oEZ3.png
p138
sVutc_offset
p139
I7200
sVstatuses_count
p140
I119932
sVdescription
p141
VFresh, Authentic, Robust Breaking News...here! Best Political Blog 2012, Best News Blog 2013...PIN 26DC6F2F; 288E8105; 29651E47 @newsbytesalert Skype: newsbytes
p142
sVfriends_count
p143
I1086
sVlocation
p144
VNews Where You Are!
p145
sVprofile_link_color
p146
VB30009
p147
sVprofile_image_url
p148
Vhttp://pbs.twimg.com/profile_images/418168607852339200/8adkVQH5_normal.png
p149
sVfollowing
p150
NsVgeo_enabled
p151
I00
sVprofile_banner_url
p152
Vhttps://pbs.twimg.com/profile_banners/458131154/1399967382
p153
sVprofile_background_image_url
p154
Vhttp://pbs.twimg.com/profile_background_images/378800000160429918/Pdy6oEZ3.png
p155
sg99
VNews Bytes
p156
sVlang
p157
Ven
p158
sVprofile_background_tile
p159
I00
sVfavourites_count
p160
I345
sg97
VNewsBytesNow
p161
sVnotifications
p162
Nsg26
Vhttp://newsbytesnow.com/
p163
sVcreated_at
p164
VSun Jan 08 06:31:32 +0000 2012
p165
sVcontributors_enabled
p166
I00
sVtime_zone
p167
VAmsterdam
p168
sVprotected
p169
I00
sVdefault_profile
p170
I00
sVis_translator
p171
I00
ssVgeo
p172
NsVin_reply_to_user_id_str
p173
NsVpossibly_sensitive
p174
I00
sg157
Ven
p175
sg164
VWed Jul 08 10:46:54 +0000 2015
p176
sVfilter_level
p177
Vlow
p178
sVin_reply_to_status_id_str
p179
NsVplace
p180
NsVextended_entities
p181
(dp182
g57
(lp183
(dp184
g30
Vhttp://twitter.com/NewsBytesNow/status/618732989229314048/photo/1
p185
sg32
Vpic.twitter.com/BzWfuBh4rU
p186
sg26
Vhttp://t.co/BzWfuBh4rU
p187
sg63
Vhttps://pbs.twimg.com/media/CJYuWAXWUAA91X2.jpg
p188
sg65
V618732954399952896
p189
sg67
(dp190
g69
(dp191
g71
I383
sg72
Vfit
p192
sg74
I340
ssg75
(dp193
g71
I914
sg72
Vfit
p194
sg74
I810
ssg78
(dp195
g71
I676
sg72
Vfit
p196
sg74
I600
ssg81
(dp197
g71
I150
sg72
Vcrop
p198
sg74
I150
sssg28
(lp199
I114
aI136
asg85
Vphoto
p200
sg41
I618732954399952896
sg87
Vhttp://pbs.twimg.com/media/CJYuWAXWUAA91X2.jpg
p201
sa(dp202
g30
Vhttp://twitter.com/NewsBytesNow/status/618732989229314048/photo/1
p203
sg32
Vpic.twitter.com/BzWfuBh4rU
p204
sg26
Vhttp://t.co/BzWfuBh4rU
p205
sg63
Vhttps://pbs.twimg.com/media/CJYuW9QWwAAhGIS.jpg
p206
sg65
V618732970745184256
p207
sg67
(dp208
g69
(dp209
g71
I581
sg72
Vfit
p210
sg74
I340
ssg75
(dp211
g71
I641
sg72
Vfit
p212
sg74
I375
ssg78
(dp213
g71
I641
sg72
Vfit
p214
sg74
I375
ssg81
(dp215
g71
I150
sg72
Vcrop
p216
sg74
I150
sssg28
(lp217
I114
aI136
asg85
Vphoto
p218
sg41
I618732970745184256
sg87
Vhttp://pbs.twimg.com/media/CJYuW9QWwAAhGIS.jpg
p219
sa(dp220
g30
Vhttp://twitter.com/NewsBytesNow/status/618732989229314048/photo/1
p221
sg32
Vpic.twitter.com/BzWfuBh4rU
p222
sg26
Vhttp://t.co/BzWfuBh4rU
p223
sg63
Vhttps://pbs.twimg.com/media/CJYuXKDWUAQhSJc.jpg
p224
sg65
V618732974180290564
p225
sg67
(dp226
g69
(dp227
g71
I257
sg72
Vfit
p228
sg74
I340
ssg75
(dp229
g71
I774
sg72
Vfit
p230
sg74
I1024
ssg78
(dp231
g71
I454
sg72
Vfit
p232
sg74
I600
ssg81
(dp233
g71
I150
sg72
Vcrop
p234
sg74
I150
sssg28
(lp235
I114
aI136
asg85
Vphoto
p236
sg41
I618732974180290564
sg87
Vhttp://pbs.twimg.com/media/CJYuXKDWUAQhSJc.jpg
p237
sasssg54
g14
sg113
Nsg65
V618758373094387712
p238
sg115
I0
sg116
Nsg117
I00
sg118
(dp239
g120
Nsg121
I01
sg122
I00
sg41
I271361465
sg123
I00
sg124
Vhttps://pbs.twimg.com/profile_images/605507470363099136/ML2klFEV_normal.jpg
p240
sg126
VDDEEF6
p241
sg128
V333333
p242
sg130
I432
sg131
VC0DEED
p243
sg65
V271361465
p244
sg134
VC0DEED
p245
sg136
I25
sg137
Vhttps://abs.twimg.com/images/themes/theme1/bg.png
p246
sg139
Nsg140
I19195
sg141
VConsummate PR and Corporate Communication buff. Proudly flying Djembe communications flag across the West Africa region
p247
sg143
I596
sg144
V
p248
sg146
V0084B4
p249
sg148
Vhttp://pbs.twimg.com/profile_images/605507470363099136/ML2klFEV_normal.jpg
p250
sg150
Nsg151
I01
sg152
Vhttps://pbs.twimg.com/profile_banners/271361465/1424263426
p251
sg154
Vhttp://abs.twimg.com/images/themes/theme1/bg.png
p252
sg99
VOnome Okwah
p253
sg157
Ven
p254
sg159
I00
sg160
I44
sg97
Vomookwah
p255
sg162
Nsg26
Nsg164
VThu Mar 24 10:38:08 +0000 2011
p256
sg166
I00
sg167
Nsg169
I00
sg170
I01
sg171
I00
ssg172
Nsg173
Nsg174
I00
sg157
Ven
p257
sg164
VWed Jul 08 12:27:46 +0000 2015
p258
sVquoted_status_id_str
p259
V618732989229314048
p260
sg177
Vlow
p261
sg179
Nsg180
(dp262
Vfull_name
p263
VZurich, Switzerland
p264
sg26
Vhttps://api.twitter.com/1.1/geo/id/3acb748d0f1e9265.json
p265
sVcountry
p266
VSchweiz
p267
sVplace_type
p268
Vcity
p269
sVbounding_box
p270
(dp271
g85
VPolygon
p272
sg47
(lp273
(lp274
(lp275
F8.448081
aF47.320183
aa(lp276
F8.448081
aF47.434721
aa(lp277
F8.625442
aF47.434721
aa(lp278
F8.625442
aF47.320183
aaassVcountry_code
p279
VCH
p280
sVattributes
p281
(dp282
sg41
V3acb748d0f1e9265
p283
sg99
VZurich
p284
sssS'coordinates'
p285
NsS'timestamp_ms'
p286
g49
sS'quoted_status'
p287
g51
sS'source'
p288
VTwitter for iPhone
p289
sS'in_reply_to_screen_name'
p290
NsS'id_str'
p291
g238
sS'retweet_count'
p292
I0
sS'in_reply_to_user_id'
p293
NsS'favorited'
p294
I00
sS'source_url'
p295
Vhttp://twitter.com/download/iphone
p296
sS'user'
p297
g0
(ctweepy.models
User
p298
g2
Ntp299
Rp300
(dp301
S'follow_request_sent'
p302
NsS'profile_use_background_image'
p303
I01
sS'profile_sidebar_fill_color'
p304
g241
sg11
I271361465
sS'verified'
p305
I00
sS'profile_image_url_https'
p306
g240
sg35
g239
sS'contributors_enabled'
p307
I00
sS'profile_text_color'
p308
g242
sS'followers_count'
p309
I432
sS'profile_sidebar_border_color'
p310
g243
sS'location'
p311
g248
sS'default_profile_image'
p312
I00
sg291
g244
sS'utc_offset'
p313
NsS'statuses_count'
p314
I19195
sS'description'
p315
g247
sS'friends_count'
p316
I596
sS'profile_link_color'
p317
g249
sS'profile_image_url'
p318
g250
sS'notifications'
p319
NsS'geo_enabled'
p320
I01
sS'profile_background_color'
p321
g245
sS'profile_banner_url'
p322
g251
sS'profile_background_image_url'
p323
g252
sS'name'
p324
g253
sS'lang'
p325
g254
sS'following'
p326
I00
sS'profile_background_tile'
p327
I00
sS'favourites_count'
p328
I44
sS'screen_name'
p329
g255
sS'url'
p330
NsS'created_at'
p331
cdatetime
datetime
p332
(S'\x07\xdb\x03\x18\n&\x08\x00\x00\x00'
p333
tp334
Rp335
sS'profile_background_image_url_https'
p336
g246
sS'time_zone'
p337
NsS'protected'
p338
I00
sS'default_profile'
p339
I01
sS'is_translator'
p340
I00
sS'listed_count'
p341
I25
sbsS'geo'
p342
NsS'in_reply_to_user_id_str'
p343
NsS'possibly_sensitive'
p344
I00
sg325
g257
sg331
g332
(S'\x07\xdf\x07\x08\x0c\x1b.\x00\x00\x00'
p345
tp346
Rp347
sS'author'
p348
g300
sS'quoted_status_id_str'
p349
g260
sS'filter_level'
p350
g261
sS'in_reply_to_status_id_str'
p351
NsS'place'
p352
g0
(ctweepy.models
Place
p353
g2
Ntp354
Rp355
(dp356
S'full_name'
p357
g264
sg330
g265
sS'country'
p358
g267
sS'place_type'
p359
g269
sS'bounding_box'
p360
g0
(ctweepy.models
BoundingBox
p361
g2
Ntp362
Rp363
(dp364
S'type'
p365
g272
sg285
g273
sbsS'country_code'
p366
g280
sS'attributes'
p367
g282
sg11
g283
sg324
g284
sbsS'retweeted'
p368
I00
sb.