ccopy_reg
_reconstructor
p0
(ctweepy.models
Status
p1
c__builtin__
object
p2
Ntp3
Rp4
(dp5
S'favorited'
p6
I00
sS'contributors'
p7
NsS'truncated'
p8
I00
sS'text'
p9
VFirst look at our newest project https://t.co/wLG9PCPpGo - #fashion Q&amp;A site for men. Think Quora meets Instagram. http://t.co/jzF6tTGgcS
p10
sS'source_url'
p11
Vhttp://twitter.com/download/iphone
p12
sS'possibly_sensitive'
p13
I00
sS'in_reply_to_status_id'
p14
NsS'user'
p15
g0
(ctweepy.models
User
p16
g2
Ntp17
Rp18
(dp19
S'follow_request_sent'
p20
NsS'profile_use_background_image'
p21
I01
sS'profile_sidebar_fill_color'
p22
VDDEEF6
p23
sS'id'
p24
I365511894
sS'verified'
p25
I00
sS'profile_image_url_https'
p26
Vhttps://pbs.twimg.com/profile_images/2866047292/59bd508089568d64ab14ba269295c53b_normal.png
p27
sS'_json'
p28
(dp29
Vfollow_request_sent
p30
NsVprofile_use_background_image
p31
I01
sVdefault_profile_image
p32
I00
sVid
p33
I365511894
sVverified
p34
I00
sVprofile_image_url_https
p35
g27
sVprofile_sidebar_fill_color
p36
g23
sVprofile_text_color
p37
V333333
p38
sVfollowers_count
p39
I399
sVprofile_sidebar_border_color
p40
VFFFFFF
p41
sVid_str
p42
V365511894
p43
sVprofile_background_color
p44
VFFFFFF
p45
sVlisted_count
p46
I12
sVprofile_background_image_url_https
p47
Vhttps://pbs.twimg.com/profile_background_images/715217982/519c23be53ada7f25d79dce627e12cf0.png
p48
sVutc_offset
p49
I10800
sVstatuses_count
p50
I230
sVdescription
p51
VAt Clever Biscuit, we make simple, innovative and useful webapps. Follow us for updates on our latest products.
p52
sVfriends_count
p53
I284
sVlocation
p54
V
p55
sVprofile_link_color
p56
V76797A
p57
sVprofile_image_url
p58
Vhttp://pbs.twimg.com/profile_images/2866047292/59bd508089568d64ab14ba269295c53b_normal.png
p59
sVfollowing
p60
NsVgeo_enabled
p61
I01
sVprofile_background_image_url
p62
Vhttp://pbs.twimg.com/profile_background_images/715217982/519c23be53ada7f25d79dce627e12cf0.png
p63
sVname
p64
VClever Biscuit
p65
sVlang
p66
Ven
p67
sVprofile_background_tile
p68
I00
sVfavourites_count
p69
I127
sVscreen_name
p70
VCleverBiscuit
p71
sVnotifications
p72
NsVurl
p73
Vhttp://www.cleverbiscuit.com/
p74
sVcreated_at
p75
VWed Aug 31 15:24:28 +0000 2011
p76
sVcontributors_enabled
p77
I00
sVtime_zone
p78
VAthens
p79
sVprotected
p80
I00
sVdefault_profile
p81
I00
sVis_translator
p82
I00
ssS'contributors_enabled'
p83
I00
sS'profile_text_color'
p84
g38
sS'followers_count'
p85
I399
sS'profile_sidebar_border_color'
p86
g41
sS'location'
p87
g55
sS'default_profile_image'
p88
I00
sS'id_str'
p89
g43
sS'utc_offset'
p90
I10800
sS'statuses_count'
p91
I230
sS'description'
p92
g52
sS'friends_count'
p93
I284
sS'profile_link_color'
p94
g57
sS'profile_image_url'
p95
g59
sS'notifications'
p96
NsS'geo_enabled'
p97
I01
sS'profile_background_color'
p98
g45
sS'profile_background_image_url'
p99
g63
sS'name'
p100
g65
sS'lang'
p101
g67
sS'following'
p102
I00
sS'profile_background_tile'
p103
I00
sS'favourites_count'
p104
I127
sS'screen_name'
p105
g71
sS'url'
p106
g74
sS'created_at'
p107
cdatetime
datetime
p108
(S'\x07\xdb\x08\x1f\x0f\x18\x1c\x00\x00\x00'
p109
tp110
Rp111
sS'profile_background_image_url_https'
p112
g48
sS'time_zone'
p113
g79
sS'protected'
p114
I00
sS'default_profile'
p115
I00
sS'is_translator'
p116
I00
sS'listed_count'
p117
I12
sbsS'filter_level'
p118
Vlow
p119
sS'geo'
p120
Nsg24
I619157148090679296
sS'favorite_count'
p121
I0
sS'source'
p122
VTwitter for iPhone
p123
sg101
Ven
p124
sS'author'
p125
g18
sS'in_reply_to_user_id_str'
p126
Nsg28
(dp127
Vcontributors
p128
NsVtruncated
p129
I00
sVtext
p130
g10
sVin_reply_to_status_id
p131
Nsg33
I619157148090679296
sVfavorite_count
p132
I0
sVsource
p133
V<a href="http://twitter.com/download/iphone" rel="nofollow">Twitter for iPhone</a>
p134
sVretweeted
p135
I00
sVcoordinates
p136
NsVtimestamp_ms
p137
V1436453542145
p138
sVentities
p139
(dp140
Vsymbols
p141
(lp142
sVmedia
p143
(lp144
(dp145
Vexpanded_url
p146
Vhttp://twitter.com/CleverBiscuit/status/619157148090679296/photo/1
p147
sVdisplay_url
p148
Vpic.twitter.com/jzF6tTGgcS
p149
sg73
Vhttp://t.co/jzF6tTGgcS
p150
sVmedia_url_https
p151
Vhttps://pbs.twimg.com/media/CJewJOwUYAES6vx.jpg
p152
sg42
V619157146412802049
p153
sVsizes
p154
(dp155
Vsmall
p156
(dp157
Vh
p158
I340
sVresize
p159
Vfit
p160
sVw
p161
I340
ssVlarge
p162
(dp163
g158
I640
sg159
Vfit
p164
sg161
I640
ssVmedium
p165
(dp166
g158
I600
sg159
Vfit
p167
sg161
I600
ssVthumb
p168
(dp169
g158
I150
sg159
Vcrop
p170
sg161
I150
sssVindices
p171
(lp172
I119
aI141
asVtype
p173
Vphoto
p174
sg33
I619157146412802049
sVmedia_url
p175
Vhttp://pbs.twimg.com/media/CJewJOwUYAES6vx.jpg
p176
sasVhashtags
p177
(lp178
(dp179
g171
(lp180
I59
aI67
asg130
Vfashion
p181
sasVuser_mentions
p182
(lp183
sVtrends
p184
(lp185
sVurls
p186
(lp187
(dp188
g73
Vhttps://t.co/wLG9PCPpGo
p189
sg171
(lp190
I33
aI56
asg146
Vhttps://MustardThreads.com
p191
sg148
VMustardThreads.com
p192
sassVin_reply_to_screen_name
p193
Nsg42
V619157148090679296
p194
sVretweet_count
p195
I0
sVin_reply_to_user_id
p196
NsVfavorited
p197
I00
sVuser
p198
g29
sVgeo
p199
NsVin_reply_to_user_id_str
p200
NsVpossibly_sensitive
p201
I00
sg66
g124
sg75
VThu Jul 09 14:52:22 +0000 2015
p202
sVfilter_level
p203
g119
sVin_reply_to_status_id_str
p204
NsVplace
p205
(dp206
Vfull_name
p207
VZurich, Switzerland
p208
sg73
Vhttps://api.twitter.com/1.1/geo/id/3acb748d0f1e9265.json
p209
sVcountry
p210
VSchweiz
p211
sVplace_type
p212
Vcity
p213
sVbounding_box
p214
(dp215
g173
VPolygon
p216
sg136
(lp217
(lp218
(lp219
F8.448081
aF47.320183
aa(lp220
F8.448081
aF47.434721
aa(lp221
F8.625442
aF47.434721
aa(lp222
F8.625442
aF47.320183
aaassVcountry_code
p223
VCH
p224
sVattributes
p225
(dp226
sg33
V3acb748d0f1e9265
p227
sg64
VZurich
p228
ssVextended_entities
p229
(dp230
g143
(lp231
(dp232
g146
Vhttp://twitter.com/CleverBiscuit/status/619157148090679296/photo/1
p233
sg148
Vpic.twitter.com/jzF6tTGgcS
p234
sg73
Vhttp://t.co/jzF6tTGgcS
p235
sg151
Vhttps://pbs.twimg.com/media/CJewJOwUYAES6vx.jpg
p236
sg42
V619157146412802049
p237
sg154
(dp238
g156
(dp239
g158
I340
sg159
Vfit
p240
sg161
I340
ssg162
(dp241
g158
I640
sg159
Vfit
p242
sg161
I640
ssg165
(dp243
g158
I600
sg159
Vfit
p244
sg161
I600
ssg168
(dp245
g158
I150
sg159
Vcrop
p246
sg161
I150
sssg171
(lp247
I119
aI141
asg173
Vphoto
p248
sg33
I619157146412802049
sg175
Vhttp://pbs.twimg.com/media/CJewJOwUYAES6vx.jpg
p249
sasssS'coordinates'
p250
NsS'timestamp_ms'
p251
g138
sS'entities'
p252
g140
sS'in_reply_to_status_id_str'
p253
NsS'in_reply_to_screen_name'
p254
Nsg89
g194
sS'extended_entities'
p255
g230
sS'retweeted'
p256
I00
sS'place'
p257
g0
(ctweepy.models
Place
p258
g2
Ntp259
Rp260
(dp261
S'full_name'
p262
g208
sg106
g209
sS'country'
p263
g211
sS'place_type'
p264
g213
sS'bounding_box'
p265
g0
(ctweepy.models
BoundingBox
p266
g2
Ntp267
Rp268
(dp269
S'type'
p270
g216
sg250
g217
sbsS'country_code'
p271
g224
sS'attributes'
p272
g226
sg24
g227
sg100
g228
sbsS'retweet_count'
p273
I0
sg107
g108
(S'\x07\xdf\x07\t\x0e4\x16\x00\x00\x00'
p274
tp275
Rp276
sS'in_reply_to_user_id'
p277
Nsb.