ccopy_reg
_reconstructor
p0
(ctweepy.models
Status
p1
c__builtin__
object
p2
Ntp3
Rp4
(dp5
S'favorited'
p6
I00
sS'contributors'
p7
NsS'truncated'
p8
I00
sS'text'
p9
VHAPPY FRIDAYYYYY\u000aI NEED YOU GUYS TO HELP ME GET THIS VIDEO TO THE 10K MARK \u000a@VaronaCollectiv https://t.co/6gZIUNunu3 http://t.co/KBYHf9lVu8
p10
sS'source_url'
p11
Vhttp://twitter.com
p12
sS'possibly_sensitive'
p13
I00
sS'in_reply_to_status_id'
p14
NsS'user'
p15
g0
(ctweepy.models
User
p16
g2
Ntp17
Rp18
(dp19
S'follow_request_sent'
p20
NsS'profile_use_background_image'
p21
I01
sS'profile_sidebar_fill_color'
p22
V080808
p23
sS'id'
p24
I85995928
sS'verified'
p25
I00
sS'profile_image_url_https'
p26
Vhttps://pbs.twimg.com/profile_images/1603376259/D_LYFE_PHOTO_NO_LOGO_.10_new_normal.png
p27
sS'_json'
p28
(dp29
Vfollow_request_sent
p30
NsVprofile_use_background_image
p31
I01
sVdefault_profile_image
p32
I00
sVid
p33
I85995928
sVverified
p34
I00
sVprofile_image_url_https
p35
g27
sVprofile_sidebar_fill_color
p36
g23
sVprofile_text_color
p37
VE36B1C
p38
sVfollowers_count
p39
I30657
sVprofile_sidebar_border_color
p40
VFFFFFF
p41
sVid_str
p42
V85995928
p43
sVprofile_background_color
p44
V0A0A0A
p45
sVlisted_count
p46
I47
sVprofile_background_image_url_https
p47
Vhttps://pbs.twimg.com/profile_background_images/446520507819495424/jgm-A73X.png
p48
sVutc_offset
p49
I-18000
sVstatuses_count
p50
I18221
sVdescription
p51
VCelebrity DJ of the Stars and Co-CEO of Grindin Entertainment //  Monster Products International\u000aAmbassador
p52
sVfriends_count
p53
I12881
sVlocation
p54
Vhttp://www.grindinent.com
p55
sVprofile_link_color
p56
VB31B00
p57
sVprofile_image_url
p58
Vhttp://pbs.twimg.com/profile_images/1603376259/D_LYFE_PHOTO_NO_LOGO_.10_new_normal.png
p59
sVfollowing
p60
NsVgeo_enabled
p61
I01
sVprofile_banner_url
p62
Vhttps://pbs.twimg.com/profile_banners/85995928/1400741017
p63
sVprofile_background_image_url
p64
Vhttp://pbs.twimg.com/profile_background_images/446520507819495424/jgm-A73X.png
p65
sVname
p66
VD-LYFE
p67
sVlang
p68
Ven
p69
sVprofile_background_tile
p70
I01
sVfavourites_count
p71
I15
sVscreen_name
p72
VtheDLYFEshow
p73
sVnotifications
p74
NsVurl
p75
Vhttp://www.monsterproducts.com/artistroster/artist.asp?artistid=209
p76
sVcreated_at
p77
VThu Oct 29 04:48:00 +0000 2009
p78
sVcontributors_enabled
p79
I00
sVtime_zone
p80
VQuito
p81
sVprotected
p82
I00
sVdefault_profile
p83
I00
sVis_translator
p84
I00
ssS'contributors_enabled'
p85
I00
sS'profile_text_color'
p86
g38
sS'followers_count'
p87
I30657
sS'profile_sidebar_border_color'
p88
g41
sS'location'
p89
g55
sS'default_profile_image'
p90
I00
sS'id_str'
p91
g43
sS'utc_offset'
p92
I-18000
sS'statuses_count'
p93
I18221
sS'description'
p94
VCelebrity DJ of the Stars and Co-CEO of Grindin Entertainment //  Monster Products International\u000aAmbassador
p95
sS'friends_count'
p96
I12881
sS'profile_link_color'
p97
g57
sS'profile_image_url'
p98
g59
sS'notifications'
p99
NsS'geo_enabled'
p100
I01
sS'profile_background_color'
p101
g45
sS'profile_banner_url'
p102
g63
sS'profile_background_image_url'
p103
g65
sS'name'
p104
g67
sS'lang'
p105
g69
sS'following'
p106
I00
sS'profile_background_tile'
p107
I01
sS'favourites_count'
p108
I15
sS'screen_name'
p109
g73
sS'url'
p110
g76
sS'created_at'
p111
cdatetime
datetime
p112
(S'\x07\xd9\n\x1d\x040\x00\x00\x00\x00'
p113
tp114
Rp115
sS'profile_background_image_url_https'
p116
g48
sS'time_zone'
p117
g81
sS'protected'
p118
I00
sS'default_profile'
p119
I00
sS'is_translator'
p120
I00
sS'listed_count'
p121
I47
sbsS'filter_level'
p122
Vlow
p123
sS'geo'
p124
Nsg24
I619580244882812928
sS'favorite_count'
p125
I0
sS'source'
p126
VTwitter Web Client
p127
sg105
Ven
p128
sS'author'
p129
g18
sS'in_reply_to_user_id_str'
p130
Nsg28
(dp131
Vcontributors
p132
NsVtruncated
p133
I00
sVtext
p134
VHAPPY FRIDAYYYYY\u000aI NEED YOU GUYS TO HELP ME GET THIS VIDEO TO THE 10K MARK \u000a@VaronaCollectiv https://t.co/6gZIUNunu3 http://t.co/KBYHf9lVu8
p135
sVin_reply_to_status_id
p136
Nsg33
I619580244882812928
sVfavorite_count
p137
I0
sVsource
p138
V<a href="http://twitter.com" rel="nofollow">Twitter Web Client</a>
p139
sVretweeted
p140
I00
sVcoordinates
p141
NsVtimestamp_ms
p142
V1436554416281
p143
sVentities
p144
(dp145
Vsymbols
p146
(lp147
sVmedia
p148
(lp149
(dp150
Vexpanded_url
p151
Vhttp://twitter.com/theDLYFEshow/status/619580244882812928/photo/1
p152
sVdisplay_url
p153
Vpic.twitter.com/KBYHf9lVu8
p154
sg75
Vhttp://t.co/KBYHf9lVu8
p155
sVmedia_url_https
p156
Vhttps://pbs.twimg.com/media/CJkw8vmUcAEoiH0.jpg
p157
sg42
V619580243867627521
p158
sVsizes
p159
(dp160
Vlarge
p161
(dp162
Vh
p163
I590
sVresize
p164
Vfit
p165
sVw
p166
I1024
ssVsmall
p167
(dp168
g163
I195
sg164
Vfit
p169
sg166
I340
ssVmedium
p170
(dp171
g163
I345
sg164
Vfit
p172
sg166
I600
ssVthumb
p173
(dp174
g163
I150
sg164
Vcrop
p175
sg166
I150
sssVindices
p176
(lp177
I117
aI139
asVtype
p178
Vphoto
p179
sg33
I619580243867627521
sVmedia_url
p180
Vhttp://pbs.twimg.com/media/CJkw8vmUcAEoiH0.jpg
p181
sasVhashtags
p182
(lp183
sVuser_mentions
p184
(lp185
(dp186
g33
I2238794191
sg176
(lp187
I76
aI92
asg42
V2238794191
p188
sg72
VVaronaCollectiv
p189
sg66
VTVC
p190
sasVtrends
p191
(lp192
sVurls
p193
(lp194
(dp195
g75
Vhttps://t.co/6gZIUNunu3
p196
sg176
(lp197
I93
aI116
asg151
Vhttps://www.youtube.com/watch?v=H9CGc2INp88
p198
sg153
Vyoutube.com/watch?v=H9CGc2\u2026
p199
sassVin_reply_to_screen_name
p200
Nsg42
V619580244882812928
p201
sVretweet_count
p202
I0
sVin_reply_to_user_id
p203
NsVfavorited
p204
I00
sVuser
p205
g29
sVgeo
p206
NsVin_reply_to_user_id_str
p207
NsVpossibly_sensitive
p208
I00
sg68
g128
sg77
VFri Jul 10 18:53:36 +0000 2015
p209
sVfilter_level
p210
g123
sVin_reply_to_status_id_str
p211
NsVplace
p212
(dp213
Vfull_name
p214
VZurich, Switzerland
p215
sg75
Vhttps://api.twitter.com/1.1/geo/id/3acb748d0f1e9265.json
p216
sVcountry
p217
VSchweiz
p218
sVplace_type
p219
Vcity
p220
sVbounding_box
p221
(dp222
g178
VPolygon
p223
sg141
(lp224
(lp225
(lp226
F8.448081
aF47.320183
aa(lp227
F8.448081
aF47.434721
aa(lp228
F8.625442
aF47.434721
aa(lp229
F8.625442
aF47.320183
aaassVcountry_code
p230
VCH
p231
sVattributes
p232
(dp233
sg33
V3acb748d0f1e9265
p234
sg66
VZurich
p235
ssVextended_entities
p236
(dp237
g148
(lp238
(dp239
g151
Vhttp://twitter.com/theDLYFEshow/status/619580244882812928/photo/1
p240
sg153
Vpic.twitter.com/KBYHf9lVu8
p241
sg75
Vhttp://t.co/KBYHf9lVu8
p242
sg156
Vhttps://pbs.twimg.com/media/CJkw8vmUcAEoiH0.jpg
p243
sg42
V619580243867627521
p244
sg159
(dp245
g161
(dp246
g163
I590
sg164
Vfit
p247
sg166
I1024
ssg167
(dp248
g163
I195
sg164
Vfit
p249
sg166
I340
ssg170
(dp250
g163
I345
sg164
Vfit
p251
sg166
I600
ssg173
(dp252
g163
I150
sg164
Vcrop
p253
sg166
I150
sssg176
(lp254
I117
aI139
asg178
Vphoto
p255
sg33
I619580243867627521
sg180
Vhttp://pbs.twimg.com/media/CJkw8vmUcAEoiH0.jpg
p256
sasssS'coordinates'
p257
NsS'timestamp_ms'
p258
g143
sS'entities'
p259
g145
sS'in_reply_to_status_id_str'
p260
NsS'in_reply_to_screen_name'
p261
Nsg91
g201
sS'extended_entities'
p262
g237
sS'retweeted'
p263
I00
sS'place'
p264
g0
(ctweepy.models
Place
p265
g2
Ntp266
Rp267
(dp268
S'full_name'
p269
g215
sg110
g216
sS'country'
p270
g218
sS'place_type'
p271
g220
sS'bounding_box'
p272
g0
(ctweepy.models
BoundingBox
p273
g2
Ntp274
Rp275
(dp276
S'type'
p277
g223
sg257
g224
sbsS'country_code'
p278
g231
sS'attributes'
p279
g233
sg24
g234
sg104
g235
sbsS'retweet_count'
p280
I0
sg111
g112
(S'\x07\xdf\x07\n\x125$\x00\x00\x00'
p281
tp282
Rp283
sS'in_reply_to_user_id'
p284
Nsb.