ccopy_reg
_reconstructor
p0
(ctweepy.models
Status
p1
c__builtin__
object
p2
Ntp3
Rp4
(dp5
S'favorited'
p6
I00
sS'contributors'
p7
NsS'truncated'
p8
I00
sS'text'
p9
Vhttp://t.co/nZoSMZi5lG
p10
sS'source_url'
p11
Vhttp://twitter.com
p12
sS'possibly_sensitive'
p13
I00
sS'in_reply_to_status_id'
p14
NsS'user'
p15
g0
(ctweepy.models
User
p16
g2
Ntp17
Rp18
(dp19
S'follow_request_sent'
p20
NsS'profile_use_background_image'
p21
I00
sS'profile_sidebar_fill_color'
p22
V000000
p23
sS'id'
p24
I133828602
sS'verified'
p25
I00
sS'profile_image_url_https'
p26
Vhttps://pbs.twimg.com/profile_images/423867971379802112/3xV0G1lN_normal.jpeg
p27
sS'_json'
p28
(dp29
Vfollow_request_sent
p30
NsVprofile_use_background_image
p31
I00
sVdefault_profile_image
p32
I00
sVid
p33
I133828602
sVverified
p34
I00
sVprofile_image_url_https
p35
g27
sVprofile_sidebar_fill_color
p36
g23
sVprofile_text_color
p37
V000000
p38
sVfollowers_count
p39
I429
sVprofile_sidebar_border_color
p40
V000000
p41
sVid_str
p42
V133828602
p43
sVprofile_background_color
p44
V000000
p45
sVlisted_count
p46
I13
sVprofile_background_image_url_https
p47
Vhttps://abs.twimg.com/images/themes/theme14/bg.gif
p48
sVutc_offset
p49
I7200
sVstatuses_count
p50
I1964
sVdescription
p51
VThinking Like A Mountain
p52
sVfriends_count
p53
I191
sVlocation
p54
V
p55
sVprofile_link_color
p56
V3B94D9
p57
sVprofile_image_url
p58
Vhttp://pbs.twimg.com/profile_images/423867971379802112/3xV0G1lN_normal.jpeg
p59
sVfollowing
p60
NsVgeo_enabled
p61
I01
sVprofile_banner_url
p62
Vhttps://pbs.twimg.com/profile_banners/133828602/1432684786
p63
sVprofile_background_image_url
p64
Vhttp://abs.twimg.com/images/themes/theme14/bg.gif
p65
sVname
p66
VMerz
p67
sVlang
p68
Ven
p69
sVprofile_background_tile
p70
I00
sVfavourites_count
p71
I465
sVscreen_name
p72
VMERZmusic
p73
sVnotifications
p74
NsVurl
p75
Vhttp://www.merz.co.uk/shows
p76
sVcreated_at
p77
VFri Apr 16 18:52:21 +0000 2010
p78
sVcontributors_enabled
p79
I00
sVtime_zone
p80
VBern
p81
sVprotected
p82
I00
sVdefault_profile
p83
I00
sVis_translator
p84
I00
ssS'contributors_enabled'
p85
I00
sS'profile_text_color'
p86
g38
sS'followers_count'
p87
I429
sS'profile_sidebar_border_color'
p88
g41
sS'location'
p89
g55
sS'default_profile_image'
p90
I00
sS'id_str'
p91
g43
sS'utc_offset'
p92
I7200
sS'statuses_count'
p93
I1964
sS'description'
p94
g52
sS'friends_count'
p95
I191
sS'profile_link_color'
p96
g57
sS'profile_image_url'
p97
g59
sS'notifications'
p98
NsS'geo_enabled'
p99
I01
sS'profile_background_color'
p100
g45
sS'profile_banner_url'
p101
g63
sS'profile_background_image_url'
p102
g65
sS'name'
p103
g67
sS'lang'
p104
g69
sS'following'
p105
I00
sS'profile_background_tile'
p106
I00
sS'favourites_count'
p107
I465
sS'screen_name'
p108
g73
sS'url'
p109
g76
sS'created_at'
p110
cdatetime
datetime
p111
(S'\x07\xda\x04\x10\x124\x15\x00\x00\x00'
p112
tp113
Rp114
sS'profile_background_image_url_https'
p115
g48
sS'time_zone'
p116
g81
sS'protected'
p117
I00
sS'default_profile'
p118
I00
sS'is_translator'
p119
I00
sS'listed_count'
p120
I13
sbsS'filter_level'
p121
Vlow
p122
sS'geo'
p123
Nsg24
I620922113717891072
sS'favorite_count'
p124
I0
sS'source'
p125
VTwitter Web Client
p126
sg104
Vund
p127
sS'author'
p128
g18
sS'in_reply_to_user_id_str'
p129
Nsg28
(dp130
Vcontributors
p131
NsVtruncated
p132
I00
sVtext
p133
g10
sVin_reply_to_status_id
p134
Nsg33
I620922113717891072
sVfavorite_count
p135
I0
sVsource
p136
V<a href="http://twitter.com" rel="nofollow">Twitter Web Client</a>
p137
sVretweeted
p138
I00
sVcoordinates
p139
NsVtimestamp_ms
p140
V1436874342742
p141
sVentities
p142
(dp143
Vuser_mentions
p144
(lp145
sVsymbols
p146
(lp147
sVtrends
p148
(lp149
sVhashtags
p150
(lp151
sVurls
p152
(lp153
(dp154
g75
Vhttp://t.co/nZoSMZi5lG
p155
sVindices
p156
(lp157
I0
aI22
asVexpanded_url
p158
Vhttp://russcoleman.com/.../2015/07/Illigraphy-copy.pdf
p159
sVdisplay_url
p160
Vrusscoleman.com/.../2015/07/Il\u2026
p161
sassVin_reply_to_screen_name
p162
Nsg42
V620922113717891072
p163
sVretweet_count
p164
I0
sVin_reply_to_user_id
p165
NsVfavorited
p166
I00
sVuser
p167
g29
sVgeo
p168
NsVin_reply_to_user_id_str
p169
NsVpossibly_sensitive
p170
I00
sg68
g127
sg77
VTue Jul 14 11:45:42 +0000 2015
p171
sVfilter_level
p172
g122
sVin_reply_to_status_id_str
p173
NsVplace
p174
(dp175
Vfull_name
p176
VBerne, Switzerland
p177
sg75
Vhttps://api.twitter.com/1.1/geo/id/5868d0e0749c9c47.json
p178
sVcountry
p179
VSchweiz
p180
sVplace_type
p181
Vadmin
p182
sVbounding_box
p183
(dp184
Vtype
p185
VPolygon
p186
sg139
(lp187
(lp188
(lp189
F6.861601
aF46.326441
aa(lp190
F6.861601
aF47.34528
aa(lp191
F8.455051
aF47.34528
aa(lp192
F8.455051
aF46.326441
aaassVcountry_code
p193
VCH
p194
sVattributes
p195
(dp196
sg33
V5868d0e0749c9c47
p197
sg66
VBern
p198
sssS'coordinates'
p199
NsS'timestamp_ms'
p200
g141
sS'entities'
p201
g143
sS'in_reply_to_status_id_str'
p202
NsS'in_reply_to_screen_name'
p203
Nsg91
g163
sS'retweeted'
p204
I00
sS'place'
p205
g0
(ctweepy.models
Place
p206
g2
Ntp207
Rp208
(dp209
S'full_name'
p210
g177
sg109
g178
sS'country'
p211
g180
sS'place_type'
p212
g182
sS'bounding_box'
p213
g0
(ctweepy.models
BoundingBox
p214
g2
Ntp215
Rp216
(dp217
S'type'
p218
g186
sg199
g187
sbsS'country_code'
p219
g194
sS'attributes'
p220
g196
sg24
g197
sg103
g198
sbsS'retweet_count'
p221
I0
sg110
g111
(S'\x07\xdf\x07\x0e\x0b-*\x00\x00\x00'
p222
tp223
Rp224
sS'in_reply_to_user_id'
p225
Nsb.