ccopy_reg
_reconstructor
p0
(ctweepy.models
Status
p1
c__builtin__
object
p2
Ntp3
Rp4
(dp5
S'contributors'
p6
NsS'truncated'
p7
I00
sS'text'
p8
VGreat \U0001f603 https://t.co/dynqLt4EWz
p9
sS'in_reply_to_status_id'
p10
NsS'id'
p11
I620992645163294720
sS'favorite_count'
p12
I0
sS'entities'
p13
(dp14
Vuser_mentions
p15
(lp16
sVsymbols
p17
(lp18
sVtrends
p19
(lp20
sVhashtags
p21
(lp22
sVurls
p23
(lp24
(dp25
Vurl
p26
Vhttps://t.co/dynqLt4EWz
p27
sVindices
p28
(lp29
I8
aI31
asVexpanded_url
p30
Vhttps://twitter.com/quotesnsmiles/status/620992414262632448
p31
sVdisplay_url
p32
Vtwitter.com/quotesnsmiles/\u2026
p33
sassS'quoted_status_id'
p34
I620992414262632448
sS'_json'
p35
(dp36
Vcontributors
p37
NsVtruncated
p38
I00
sVtext
p39
g9
sVin_reply_to_status_id
p40
NsVid
p41
I620992645163294720
sVfavorite_count
p42
I0
sVsource
p43
V<a href="http://twitter.com/download/iphone" rel="nofollow">Twitter for iPhone</a>
p44
sVquoted_status_id
p45
I620992414262632448
sVretweeted
p46
I00
sVcoordinates
p47
NsVtimestamp_ms
p48
V1436891158749
p49
sVquoted_status
p50
(dp51
g37
Nsg38
I00
sg39
V7 Essential Steps for Setting Powerful Intentions - http://t.co/oeKdVZHPOy http://t.co/pyHRthZdI5
p52
sg40
Nsg41
I620992414262632448
sg42
I0
sg43
V<a href="http://bufferapp.com" rel="nofollow">Buffer</a>
p53
sg46
I00
sg47
NsVentities
p54
(dp55
g17
(lp56
sVmedia
p57
(lp58
(dp59
g30
Vhttp://twitter.com/QuotesNSmiles/status/620992414262632448/photo/1
p60
sg32
Vpic.twitter.com/pyHRthZdI5
p61
sg26
Vhttp://t.co/pyHRthZdI5
p62
sVmedia_url_https
p63
Vhttps://pbs.twimg.com/media/CJ41T4FWIAAF4gc.jpg
p64
sVid_str
p65
V620992414212300800
p66
sVsizes
p67
(dp68
Vlarge
p69
(dp70
Vh
p71
I383
sVresize
p72
Vfit
p73
sVw
p74
I640
ssVsmall
p75
(dp76
g71
I203
sg72
Vfit
p77
sg74
I340
ssVmedium
p78
(dp79
g71
I359
sg72
Vfit
p80
sg74
I600
ssVthumb
p81
(dp82
g71
I150
sg72
Vcrop
p83
sg74
I150
sssg28
(lp84
I75
aI97
asVtype
p85
Vphoto
p86
sg41
I620992414212300800
sVmedia_url
p87
Vhttp://pbs.twimg.com/media/CJ41T4FWIAAF4gc.jpg
p88
sasg21
(lp89
sg15
(lp90
sg19
(lp91
sg23
(lp92
(dp93
g26
Vhttp://t.co/oeKdVZHPOy
p94
sg28
(lp95
I52
aI74
asg30
Vhttp://bit.ly/1HU37jX
p96
sg32
Vbit.ly/1HU37jX
p97
sassVin_reply_to_screen_name
p98
Nsg65
V620992414262632448
p99
sVretweet_count
p100
I0
sVin_reply_to_user_id
p101
NsVfavorited
p102
I00
sVuser
p103
(dp104
Vfollow_request_sent
p105
NsVprofile_use_background_image
p106
I01
sVdefault_profile_image
p107
I00
sg41
I212066025
sVverified
p108
I00
sVprofile_image_url_https
p109
Vhttps://pbs.twimg.com/profile_images/1469305668/QNSLOGO_normal.jpg
p110
sVprofile_sidebar_fill_color
p111
VF5F5F5
p112
sVprofile_text_color
p113
V343853
p114
sVfollowers_count
p115
I323551
sVprofile_sidebar_border_color
p116
VBFEBF4
p117
sg65
V212066025
p118
sVprofile_background_color
p119
V252A30
p120
sVlisted_count
p121
I2315
sVprofile_background_image_url_https
p122
Vhttps://pbs.twimg.com/profile_background_images/367683151/Welcome_to_heaven_-1280_x_1024222222.jpg
p123
sVutc_offset
p124
I28800
sVstatuses_count
p125
I9037
sVdescription
p126
VSending You Love & Motivation for a Daily Smile - Connect with me now. - http://quotesnsmiles.com
p127
sVfriends_count
p128
I354119
sVlocation
p129
VWorld Wide
p130
sVprofile_link_color
p131
V0A7291
p132
sVprofile_image_url
p133
Vhttp://pbs.twimg.com/profile_images/1469305668/QNSLOGO_normal.jpg
p134
sVfollowing
p135
NsVgeo_enabled
p136
I00
sVprofile_banner_url
p137
Vhttps://pbs.twimg.com/profile_banners/212066025/1355479053
p138
sVprofile_background_image_url
p139
Vhttp://pbs.twimg.com/profile_background_images/367683151/Welcome_to_heaven_-1280_x_1024222222.jpg
p140
sVname
p141
VQuotesNSmiles\u2122
p142
sVlang
p143
Ven
p144
sVprofile_background_tile
p145
I00
sVfavourites_count
p146
I403
sVscreen_name
p147
VQuotesNSmiles
p148
sVnotifications
p149
Nsg26
Vhttp://www.QuotesNSmiles.com
p150
sVcreated_at
p151
VFri Nov 05 01:27:24 +0000 2010
p152
sVcontributors_enabled
p153
I00
sVtime_zone
p154
VPerth
p155
sVprotected
p156
I00
sVdefault_profile
p157
I00
sVis_translator
p158
I00
ssVgeo
p159
NsVin_reply_to_user_id_str
p160
NsVpossibly_sensitive
p161
I00
sg143
Ven
p162
sg151
VTue Jul 14 16:25:03 +0000 2015
p163
sVfilter_level
p164
Vlow
p165
sVin_reply_to_status_id_str
p166
NsVplace
p167
NsVextended_entities
p168
(dp169
g57
(lp170
(dp171
g30
Vhttp://twitter.com/QuotesNSmiles/status/620992414262632448/photo/1
p172
sg32
Vpic.twitter.com/pyHRthZdI5
p173
sg26
Vhttp://t.co/pyHRthZdI5
p174
sg63
Vhttps://pbs.twimg.com/media/CJ41T4FWIAAF4gc.jpg
p175
sg65
V620992414212300800
p176
sg67
(dp177
g69
(dp178
g71
I383
sg72
Vfit
p179
sg74
I640
ssg75
(dp180
g71
I203
sg72
Vfit
p181
sg74
I340
ssg78
(dp182
g71
I359
sg72
Vfit
p183
sg74
I600
ssg81
(dp184
g71
I150
sg72
Vcrop
p185
sg74
I150
sssg28
(lp186
I75
aI97
asg85
Vphoto
p187
sg41
I620992414212300800
sg87
Vhttp://pbs.twimg.com/media/CJ41T4FWIAAF4gc.jpg
p188
sasssg54
g14
sg98
Nsg65
V620992645163294720
p189
sg100
I0
sg101
Nsg102
I00
sg103
(dp190
g105
Nsg106
I00
sg107
I00
sg41
I93762339
sg108
I00
sg109
Vhttps://pbs.twimg.com/profile_images/615072536619974656/LNETfB1Y_normal.jpg
p191
sg111
V252429
p192
sg113
V666666
p193
sg115
I1153
sg116
VFFFFFF
p194
sg65
V93762339
p195
sg119
VF5F7FA
p196
sg121
I66
sg122
Vhttps://pbs.twimg.com/profile_background_images/595570234192306176/zdw1IE1s.jpg
p197
sg124
I7200
sg125
I20959
sg126
VA daily review of travel ideas, trends and lifestyle goodies. A lifestyle blog that wants to me you smile ..
p198
sg128
I1679
sg129
VZurich -Switzerland 
p199
sg131
V69E7F0
p200
sg133
Vhttp://pbs.twimg.com/profile_images/615072536619974656/LNETfB1Y_normal.jpg
p201
sg135
Nsg136
I01
sg137
Vhttps://pbs.twimg.com/profile_banners/93762339/1435395069
p202
sg139
Vhttp://pbs.twimg.com/profile_background_images/595570234192306176/zdw1IE1s.jpg
p203
sg141
VHDL Lifestyle Blog
p204
sg143
Ven
p205
sg145
I00
sg146
I862
sg147
Vhuellasdluzblog
p206
sg149
Nsg26
Vhttp://www.huellasdeluzblog.com
p207
sg151
VTue Dec 01 01:46:57 +0000 2009
p208
sg153
I00
sg154
VBern
p209
sg156
I00
sg157
I00
sg158
I00
ssg159
Nsg160
Nsg161
I00
sg143
Ven
p210
sg151
VTue Jul 14 16:25:58 +0000 2015
p211
sVquoted_status_id_str
p212
V620992414262632448
p213
sg164
Vlow
p214
sg166
Nsg167
(dp215
Vfull_name
p216
VZurich, Switzerland
p217
sg26
Vhttps://api.twitter.com/1.1/geo/id/db94c1cccc67c4f4.json
p218
sVcountry
p219
VSchweiz
p220
sVplace_type
p221
Vadmin
p222
sVbounding_box
p223
(dp224
g85
VPolygon
p225
sg47
(lp226
(lp227
(lp228
F8.357749
aF47.159384
aa(lp229
F8.357749
aF47.694503
aa(lp230
F8.984445
aF47.694503
aa(lp231
F8.984445
aF47.159384
aaassVcountry_code
p232
VCH
p233
sVattributes
p234
(dp235
sg41
Vdb94c1cccc67c4f4
p236
sg141
VZurich
p237
sssS'coordinates'
p238
NsS'timestamp_ms'
p239
g49
sS'quoted_status'
p240
g51
sS'source'
p241
VTwitter for iPhone
p242
sS'in_reply_to_screen_name'
p243
NsS'id_str'
p244
g189
sS'retweet_count'
p245
I0
sS'in_reply_to_user_id'
p246
NsS'favorited'
p247
I00
sS'source_url'
p248
Vhttp://twitter.com/download/iphone
p249
sS'user'
p250
g0
(ctweepy.models
User
p251
g2
Ntp252
Rp253
(dp254
S'follow_request_sent'
p255
NsS'profile_use_background_image'
p256
I00
sS'profile_sidebar_fill_color'
p257
g192
sg11
I93762339
sS'verified'
p258
I00
sS'profile_image_url_https'
p259
g191
sg35
g190
sS'contributors_enabled'
p260
I00
sS'profile_text_color'
p261
g193
sS'followers_count'
p262
I1153
sS'profile_sidebar_border_color'
p263
g194
sS'location'
p264
g199
sS'default_profile_image'
p265
I00
sg244
g195
sS'utc_offset'
p266
I7200
sS'statuses_count'
p267
I20959
sS'description'
p268
g198
sS'friends_count'
p269
I1679
sS'profile_link_color'
p270
g200
sS'profile_image_url'
p271
g201
sS'notifications'
p272
NsS'geo_enabled'
p273
I01
sS'profile_background_color'
p274
g196
sS'profile_banner_url'
p275
g202
sS'profile_background_image_url'
p276
g203
sS'name'
p277
g204
sS'lang'
p278
g205
sS'following'
p279
I00
sS'profile_background_tile'
p280
I00
sS'favourites_count'
p281
I862
sS'screen_name'
p282
g206
sS'url'
p283
g207
sS'created_at'
p284
cdatetime
datetime
p285
(S'\x07\xd9\x0c\x01\x01.9\x00\x00\x00'
p286
tp287
Rp288
sS'profile_background_image_url_https'
p289
g197
sS'time_zone'
p290
g209
sS'protected'
p291
I00
sS'default_profile'
p292
I00
sS'is_translator'
p293
I00
sS'listed_count'
p294
I66
sbsS'geo'
p295
NsS'in_reply_to_user_id_str'
p296
NsS'possibly_sensitive'
p297
I00
sg278
g210
sg284
g285
(S'\x07\xdf\x07\x0e\x10\x19:\x00\x00\x00'
p298
tp299
Rp300
sS'author'
p301
g253
sS'quoted_status_id_str'
p302
g213
sS'filter_level'
p303
g214
sS'in_reply_to_status_id_str'
p304
NsS'place'
p305
g0
(ctweepy.models
Place
p306
g2
Ntp307
Rp308
(dp309
S'full_name'
p310
g217
sg283
g218
sS'country'
p311
g220
sS'place_type'
p312
g222
sS'bounding_box'
p313
g0
(ctweepy.models
BoundingBox
p314
g2
Ntp315
Rp316
(dp317
S'type'
p318
g225
sg238
g226
sbsS'country_code'
p319
g233
sS'attributes'
p320
g235
sg11
g236
sg277
g237
sbsS'retweeted'
p321
I00
sb.