ccopy_reg
_reconstructor
p0
(ctweepy.models
Status
p1
c__builtin__
object
p2
Ntp3
Rp4
(dp5
S'favorited'
p6
I00
sS'contributors'
p7
NsS'truncated'
p8
I00
sS'text'
p9
VWhat if Curiosity and Hard Work takes Leaders further than Indulgent Intelligence? @leadershipfreak on Leadership https://t.co/t5b0YCdF1t
p10
sS'source_url'
p11
Vhttp://twitter.com/#!/download/ipad
p12
sS'possibly_sensitive'
p13
I00
sS'in_reply_to_status_id'
p14
NsS'user'
p15
g0
(ctweepy.models
User
p16
g2
Ntp17
Rp18
(dp19
S'follow_request_sent'
p20
NsS'profile_use_background_image'
p21
I01
sS'profile_sidebar_fill_color'
p22
VEFEFEF
p23
sS'id'
p24
I552083999
sS'verified'
p25
I00
sS'profile_image_url_https'
p26
Vhttps://pbs.twimg.com/profile_images/560401068236877825/cXwHZFWZ_normal.png
p27
sS'_json'
p28
(dp29
Vfollow_request_sent
p30
NsVprofile_use_background_image
p31
I01
sVdefault_profile_image
p32
I00
sVid
p33
I552083999
sVverified
p34
I00
sVprofile_image_url_https
p35
g27
sVprofile_sidebar_fill_color
p36
g23
sVprofile_text_color
p37
V333333
p38
sVfollowers_count
p39
I14746
sVprofile_sidebar_border_color
p40
VEEEEEE
p41
sVid_str
p42
V552083999
p43
sVprofile_background_color
p44
V131516
p45
sVlisted_count
p46
I451
sVprofile_background_image_url_https
p47
Vhttps://abs.twimg.com/images/themes/theme14/bg.gif
p48
sVutc_offset
p49
I7200
sVstatuses_count
p50
I2369
sVdescription
p51
VEurope S&S Sales Leader at IBM Cloud Software in Switzerland \u000aOpen Networker,  Blogger own views of Travels, Social Media, News, Twitter, Technology, Leadership
p52
sVfriends_count
p53
I13190
sVlocation
p54
VSwitzerland, Europe or my blog
p55
sVprofile_link_color
p56
V0074BC
p57
sVprofile_image_url
p58
Vhttp://pbs.twimg.com/profile_images/560401068236877825/cXwHZFWZ_normal.png
p59
sVfollowing
p60
NsVgeo_enabled
p61
I01
sVprofile_banner_url
p62
Vhttps://pbs.twimg.com/profile_banners/552083999/1398414493
p63
sVprofile_background_image_url
p64
Vhttp://abs.twimg.com/images/themes/theme14/bg.gif
p65
sVname
p66
VDaniel Bachmann
p67
sVlang
p68
Ven
p69
sVprofile_background_tile
p70
I01
sVfavourites_count
p71
I15570
sVscreen_name
p72
VDaniBachmannCH
p73
sVnotifications
p74
NsVurl
p75
Vhttp://www.daniel-bachmann.com
p76
sVcreated_at
p77
VThu Apr 12 18:54:30 +0000 2012
p78
sVcontributors_enabled
p79
I00
sVtime_zone
p80
VBern
p81
sVprotected
p82
I00
sVdefault_profile
p83
I00
sVis_translator
p84
I00
ssS'contributors_enabled'
p85
I00
sS'profile_text_color'
p86
g38
sS'followers_count'
p87
I14746
sS'profile_sidebar_border_color'
p88
g41
sS'location'
p89
g55
sS'default_profile_image'
p90
I00
sS'id_str'
p91
g43
sS'utc_offset'
p92
I7200
sS'statuses_count'
p93
I2369
sS'description'
p94
VEurope S&S Sales Leader at IBM Cloud Software in Switzerland \u000aOpen Networker,  Blogger own views of Travels, Social Media, News, Twitter, Technology, Leadership
p95
sS'friends_count'
p96
I13190
sS'profile_link_color'
p97
g57
sS'profile_image_url'
p98
g59
sS'notifications'
p99
NsS'geo_enabled'
p100
I01
sS'profile_background_color'
p101
g45
sS'profile_banner_url'
p102
g63
sS'profile_background_image_url'
p103
g65
sS'name'
p104
g67
sS'lang'
p105
g69
sS'following'
p106
I00
sS'profile_background_tile'
p107
I01
sS'favourites_count'
p108
I15570
sS'screen_name'
p109
g73
sS'url'
p110
g76
sS'created_at'
p111
cdatetime
datetime
p112
(S'\x07\xdc\x04\x0c\x126\x1e\x00\x00\x00'
p113
tp114
Rp115
sS'profile_background_image_url_https'
p116
g48
sS'time_zone'
p117
g81
sS'protected'
p118
I00
sS'default_profile'
p119
I00
sS'is_translator'
p120
I00
sS'listed_count'
p121
I451
sbsS'filter_level'
p122
Vlow
p123
sS'geo'
p124
Nsg24
I619550570811117569
sS'favorite_count'
p125
I0
sS'source'
p126
VTwitter for iPad
p127
sg105
Ven
p128
sS'author'
p129
g18
sS'in_reply_to_user_id_str'
p130
Nsg28
(dp131
Vcontributors
p132
NsVtruncated
p133
I00
sVtext
p134
g10
sVin_reply_to_status_id
p135
Nsg33
I619550570811117569
sVfavorite_count
p136
I0
sVsource
p137
V<a href="http://twitter.com/#!/download/ipad" rel="nofollow">Twitter for iPad</a>
p138
sVretweeted
p139
I00
sVcoordinates
p140
NsVtimestamp_ms
p141
V1436547341431
p142
sVentities
p143
(dp144
Vuser_mentions
p145
(lp146
(dp147
g33
I105305259
sVindices
p148
(lp149
I83
aI99
asg42
V105305259
p150
sg72
VLeadershipfreak
p151
sg66
VDan Rockwell
p152
sasVsymbols
p153
(lp154
sVtrends
p155
(lp156
sVhashtags
p157
(lp158
sVurls
p159
(lp160
(dp161
g75
Vhttps://t.co/t5b0YCdF1t
p162
sg148
(lp163
I114
aI137
asVexpanded_url
p164
Vhttps://leadershipfreak.wordpress.com/2015/07/02/what-if-youre-not-that-smart/
p165
sVdisplay_url
p166
Vleadershipfreak.wordpress.com/2015/07/02/wha\u2026
p167
sassVin_reply_to_screen_name
p168
Nsg42
V619550570811117569
p169
sVretweet_count
p170
I0
sVin_reply_to_user_id
p171
NsVfavorited
p172
I00
sVuser
p173
g29
sVgeo
p174
NsVin_reply_to_user_id_str
p175
NsVpossibly_sensitive
p176
I00
sg68
g128
sg77
VFri Jul 10 16:55:41 +0000 2015
p177
sVfilter_level
p178
g123
sVin_reply_to_status_id_str
p179
NsVplace
p180
(dp181
Vfull_name
p182
VZurich, Switzerland
p183
sg75
Vhttps://api.twitter.com/1.1/geo/id/3acb748d0f1e9265.json
p184
sVcountry
p185
VSchweiz
p186
sVplace_type
p187
Vcity
p188
sVbounding_box
p189
(dp190
Vtype
p191
VPolygon
p192
sg140
(lp193
(lp194
(lp195
F8.448081
aF47.320183
aa(lp196
F8.448081
aF47.434721
aa(lp197
F8.625442
aF47.434721
aa(lp198
F8.625442
aF47.320183
aaassVcountry_code
p199
VCH
p200
sVattributes
p201
(dp202
sg33
V3acb748d0f1e9265
p203
sg66
VZurich
p204
sssS'coordinates'
p205
NsS'timestamp_ms'
p206
g142
sS'entities'
p207
g144
sS'in_reply_to_status_id_str'
p208
NsS'in_reply_to_screen_name'
p209
Nsg91
g169
sS'retweeted'
p210
I00
sS'place'
p211
g0
(ctweepy.models
Place
p212
g2
Ntp213
Rp214
(dp215
S'full_name'
p216
g183
sg110
g184
sS'country'
p217
g186
sS'place_type'
p218
g188
sS'bounding_box'
p219
g0
(ctweepy.models
BoundingBox
p220
g2
Ntp221
Rp222
(dp223
S'type'
p224
g192
sg205
g193
sbsS'country_code'
p225
g200
sS'attributes'
p226
g202
sg24
g203
sg104
g204
sbsS'retweet_count'
p227
I0
sg111
g112
(S'\x07\xdf\x07\n\x107)\x00\x00\x00'
p228
tp229
Rp230
sS'in_reply_to_user_id'
p231
Nsb.