ccopy_reg
_reconstructor
p0
(ctweepy.models
Status
p1
c__builtin__
object
p2
Ntp3
Rp4
(dp5
S'contributors'
p6
NsS'truncated'
p7
I00
sS'text'
p8
VMore like "swimmingly to the rocks." https://t.co/wbYBPgiQn6
p9
sS'in_reply_to_status_id'
p10
NsS'id'
p11
I618844679619149824
sS'favorite_count'
p12
I0
sS'entities'
p13
(dp14
Vuser_mentions
p15
(lp16
sVsymbols
p17
(lp18
sVtrends
p19
(lp20
sVhashtags
p21
(lp22
sVurls
p23
(lp24
(dp25
Vurl
p26
Vhttps://t.co/wbYBPgiQn6
p27
sVindices
p28
(lp29
I37
aI60
asVexpanded_url
p30
Vhttps://twitter.com/imadmesdoua/status/618843584863830017
p31
sVdisplay_url
p32
Vtwitter.com/imadmesdoua/st\u2026
p33
sassS'quoted_status_id'
p34
I618843584863830017
sS'_json'
p35
(dp36
Vcontributors
p37
NsVtruncated
p38
I00
sVtext
p39
g9
sVin_reply_to_status_id
p40
NsVid
p41
I618844679619149824
sVfavorite_count
p42
I0
sVsource
p43
V<a href="http://twitter.com/download/iphone" rel="nofollow">Twitter for iPhone</a>
p44
sVquoted_status_id
p45
I618843584863830017
sVretweeted
p46
I00
sVcoordinates
p47
NsVtimestamp_ms
p48
V1436379043856
p49
sVquoted_status
p50
(dp51
g37
Nsg38
I00
sg39
VI see the #Iran talks are going swimmingly... https://t.co/YRPbLeg29m
p52
sg40
Nsg41
I618843584863830017
sg42
I0
sg43
V<a href="http://twitter.com" rel="nofollow">Twitter Web Client</a>
p53
sg45
I618840714575745024
sg46
I00
sg47
NsVentities
p54
(dp55
g15
(lp56
sg17
(lp57
sg19
(lp58
sg21
(lp59
(dp60
g28
(lp61
I10
aI15
asg39
VIran
p62
sasg23
(lp63
(dp64
g26
Vhttps://t.co/YRPbLeg29m
p65
sg28
(lp66
I46
aI69
asg30
Vhttps://twitter.com/mehdirhasan/status/618840714575745024
p67
sg32
Vtwitter.com/mehdirhasan/st\u2026
p68
sassVin_reply_to_screen_name
p69
NsVid_str
p70
V618843584863830017
p71
sVretweet_count
p72
I0
sVin_reply_to_user_id
p73
NsVfavorited
p74
I00
sVuser
p75
(dp76
Vfollow_request_sent
p77
NsVprofile_use_background_image
p78
I01
sVdefault_profile_image
p79
I00
sg41
I36104673
sVverified
p80
I00
sVprofile_image_url_https
p81
Vhttps://pbs.twimg.com/profile_images/612224908047843328/dRfu9kQJ_normal.jpg
p82
sVprofile_sidebar_fill_color
p83
VEFEFEF
p84
sVprofile_text_color
p85
V333333
p86
sVfollowers_count
p87
I14537
sVprofile_sidebar_border_color
p88
VEEEEEE
p89
sg70
V36104673
p90
sVprofile_background_color
p91
V131516
p92
sVlisted_count
p93
I387
sVprofile_background_image_url_https
p94
Vhttps://abs.twimg.com/images/themes/theme14/bg.gif
p95
sVutc_offset
p96
I7200
sVstatuses_count
p97
I30025
sVdescription
p98
VPolitical Analyst at Africa Matters Ltd. From #Algeria/#Algerie. #Naija guy. #PanAfrican-ist. Focus on the #Maghreb, #Sahel & West #Africa. Views are mine.
p99
sVfriends_count
p100
I669
sVlocation
p101
VLondon/Algiers-Oran/Lagos
p102
sVprofile_link_color
p103
V4A913C
p104
sVprofile_image_url
p105
Vhttp://pbs.twimg.com/profile_images/612224908047843328/dRfu9kQJ_normal.jpg
p106
sVfollowing
p107
NsVgeo_enabled
p108
I00
sVprofile_banner_url
p109
Vhttps://pbs.twimg.com/profile_banners/36104673/1436178593
p110
sVprofile_background_image_url
p111
Vhttp://abs.twimg.com/images/themes/theme14/bg.gif
p112
sVname
p113
VImad Mesdoua
p114
sVlang
p115
Ven
p116
sVprofile_background_tile
p117
I01
sVfavourites_count
p118
I10181
sVscreen_name
p119
VImadMesdoua
p120
sVnotifications
p121
Nsg26
Vhttp://www.africamatters.com/
p122
sVcreated_at
p123
VTue Apr 28 16:10:18 +0000 2009
p124
sVcontributors_enabled
p125
I00
sVtime_zone
p126
VAmsterdam
p127
sVprotected
p128
I00
sVdefault_profile
p129
I00
sVis_translator
p130
I00
ssVgeo
p131
NsVin_reply_to_user_id_str
p132
NsVpossibly_sensitive
p133
I00
sg115
Ven
p134
sg123
VWed Jul 08 18:06:22 +0000 2015
p135
sVquoted_status_id_str
p136
V618840714575745024
p137
sVfilter_level
p138
Vlow
p139
sVin_reply_to_status_id_str
p140
NsVplace
p141
Nssg54
g14
sg69
Nsg70
V618844679619149824
p142
sg72
I0
sg73
Nsg74
I00
sg75
(dp143
g77
Nsg78
I01
sg79
I00
sg41
I271361465
sg80
I00
sg81
Vhttps://pbs.twimg.com/profile_images/605507470363099136/ML2klFEV_normal.jpg
p144
sg83
VDDEEF6
p145
sg85
V333333
p146
sg87
I434
sg88
VC0DEED
p147
sg70
V271361465
p148
sg91
VC0DEED
p149
sg93
I25
sg94
Vhttps://abs.twimg.com/images/themes/theme1/bg.png
p150
sg96
Nsg97
I19210
sg98
VConsummate PR and Corporate Communication buff. Proudly flying Djembe communications flag across the West Africa region
p151
sg100
I596
sg101
V
p152
sg103
V0084B4
p153
sg105
Vhttp://pbs.twimg.com/profile_images/605507470363099136/ML2klFEV_normal.jpg
p154
sg107
Nsg108
I01
sg109
Vhttps://pbs.twimg.com/profile_banners/271361465/1424263426
p155
sg111
Vhttp://abs.twimg.com/images/themes/theme1/bg.png
p156
sg113
VOnome Okwah
p157
sg115
Ven
p158
sg117
I00
sg118
I44
sg119
Vomookwah
p159
sg121
Nsg26
Nsg123
VThu Mar 24 10:38:08 +0000 2011
p160
sg125
I00
sg126
Nsg128
I00
sg129
I01
sg130
I00
ssg131
Nsg132
Nsg133
I00
sg115
Ven
p161
sg123
VWed Jul 08 18:10:43 +0000 2015
p162
sg136
V618843584863830017
p163
sg138
Vlow
p164
sg140
Nsg141
(dp165
Vfull_name
p166
VZurich, Switzerland
p167
sg26
Vhttps://api.twitter.com/1.1/geo/id/3acb748d0f1e9265.json
p168
sVcountry
p169
VSchweiz
p170
sVplace_type
p171
Vcity
p172
sVbounding_box
p173
(dp174
Vtype
p175
VPolygon
p176
sg47
(lp177
(lp178
(lp179
F8.448081
aF47.320183
aa(lp180
F8.448081
aF47.434721
aa(lp181
F8.625442
aF47.434721
aa(lp182
F8.625442
aF47.320183
aaassVcountry_code
p183
VCH
p184
sVattributes
p185
(dp186
sg41
V3acb748d0f1e9265
p187
sg113
VZurich
p188
sssS'coordinates'
p189
NsS'timestamp_ms'
p190
g49
sS'quoted_status'
p191
g51
sS'source'
p192
VTwitter for iPhone
p193
sS'in_reply_to_screen_name'
p194
NsS'id_str'
p195
g142
sS'retweet_count'
p196
I0
sS'in_reply_to_user_id'
p197
NsS'favorited'
p198
I00
sS'source_url'
p199
Vhttp://twitter.com/download/iphone
p200
sS'user'
p201
g0
(ctweepy.models
User
p202
g2
Ntp203
Rp204
(dp205
S'follow_request_sent'
p206
NsS'profile_use_background_image'
p207
I01
sS'profile_sidebar_fill_color'
p208
g145
sg11
I271361465
sS'verified'
p209
I00
sS'profile_image_url_https'
p210
g144
sg35
g143
sS'contributors_enabled'
p211
I00
sS'profile_text_color'
p212
g146
sS'followers_count'
p213
I434
sS'profile_sidebar_border_color'
p214
g147
sS'location'
p215
g152
sS'default_profile_image'
p216
I00
sg195
g148
sS'utc_offset'
p217
NsS'statuses_count'
p218
I19210
sS'description'
p219
g151
sS'friends_count'
p220
I596
sS'profile_link_color'
p221
g153
sS'profile_image_url'
p222
g154
sS'notifications'
p223
NsS'geo_enabled'
p224
I01
sS'profile_background_color'
p225
g149
sS'profile_banner_url'
p226
g155
sS'profile_background_image_url'
p227
g156
sS'name'
p228
g157
sS'lang'
p229
g158
sS'following'
p230
I00
sS'profile_background_tile'
p231
I00
sS'favourites_count'
p232
I44
sS'screen_name'
p233
g159
sS'url'
p234
NsS'created_at'
p235
cdatetime
datetime
p236
(S'\x07\xdb\x03\x18\n&\x08\x00\x00\x00'
p237
tp238
Rp239
sS'profile_background_image_url_https'
p240
g150
sS'time_zone'
p241
NsS'protected'
p242
I00
sS'default_profile'
p243
I01
sS'is_translator'
p244
I00
sS'listed_count'
p245
I25
sbsS'geo'
p246
NsS'in_reply_to_user_id_str'
p247
NsS'possibly_sensitive'
p248
I00
sg229
g161
sg235
g236
(S'\x07\xdf\x07\x08\x12\n+\x00\x00\x00'
p249
tp250
Rp251
sS'author'
p252
g204
sS'quoted_status_id_str'
p253
g163
sS'filter_level'
p254
g164
sS'in_reply_to_status_id_str'
p255
NsS'place'
p256
g0
(ctweepy.models
Place
p257
g2
Ntp258
Rp259
(dp260
S'full_name'
p261
g167
sg234
g168
sS'country'
p262
g170
sS'place_type'
p263
g172
sS'bounding_box'
p264
g0
(ctweepy.models
BoundingBox
p265
g2
Ntp266
Rp267
(dp268
S'type'
p269
g176
sg189
g177
sbsS'country_code'
p270
g184
sS'attributes'
p271
g186
sg11
g187
sg228
g188
sbsS'retweeted'
p272
I00
sb.