ccopy_reg
_reconstructor
p0
(ctweepy.models
Status
p1
c__builtin__
object
p2
Ntp3
Rp4
(dp5
S'favorited'
p6
I00
sS'contributors'
p7
NsS'truncated'
p8
I00
sS'text'
p9
Vlamat sa followback ari @WangSugaming
p10
sS'source_url'
p11
Vhttp://twitter.com
p12
sS'possibly_sensitive'
p13
I01
sS'in_reply_to_status_id'
p14
NsS'user'
p15
g0
(ctweepy.models
User
p16
g2
Ntp17
Rp18
(dp19
S'follow_request_sent'
p20
NsS'profile_use_background_image'
p21
I01
sS'profile_sidebar_fill_color'
p22
V000000
p23
sS'id'
p24
I1626918325
sS'verified'
p25
I00
sS'profile_image_url_https'
p26
Vhttps://pbs.twimg.com/profile_images/613610043116814336/INXlfMS2_normal.jpg
p27
sS'_json'
p28
(dp29
Vfollow_request_sent
p30
NsVprofile_use_background_image
p31
I01
sVdefault_profile_image
p32
I00
sVid
p33
I1626918325
sVverified
p34
I00
sVprofile_image_url_https
p35
g27
sVprofile_sidebar_fill_color
p36
g23
sVprofile_text_color
p37
V000000
p38
sVfollowers_count
p39
I523
sVprofile_sidebar_border_color
p40
V000000
p41
sVid_str
p42
V1626918325
p43
sVprofile_background_color
p44
V1A1B1F
p45
sVlisted_count
p46
I1
sVprofile_background_image_url_https
p47
Vhttps://pbs.twimg.com/profile_background_images/590128056750112769/-ckoUD3K.jpg
p48
sVutc_offset
p49
I7200
sVstatuses_count
p50
I9857
sVdescription
p51
NsVfriends_count
p52
I202
sVlocation
p53
V
p54
sVprofile_link_color
p55
V2FC2EF
p56
sVprofile_image_url
p57
Vhttp://pbs.twimg.com/profile_images/613610043116814336/INXlfMS2_normal.jpg
p58
sVfollowing
p59
NsVgeo_enabled
p60
I01
sVprofile_banner_url
p61
Vhttps://pbs.twimg.com/profile_banners/1626918325/1435131026
p62
sVprofile_background_image_url
p63
Vhttp://pbs.twimg.com/profile_background_images/590128056750112769/-ckoUD3K.jpg
p64
sVname
p65
VSchweiz
p66
sVlang
p67
Ven
p68
sVprofile_background_tile
p69
I00
sVfavourites_count
p70
I11356
sVscreen_name
p71
Vmariellapola
p72
sVnotifications
p73
NsVurl
p74
NsVcreated_at
p75
VSun Jul 28 03:09:37 +0000 2013
p76
sVcontributors_enabled
p77
I00
sVtime_zone
p78
VBern
p79
sVprotected
p80
I00
sVdefault_profile
p81
I00
sVis_translator
p82
I00
ssS'contributors_enabled'
p83
I00
sS'profile_text_color'
p84
g38
sS'followers_count'
p85
I523
sS'profile_sidebar_border_color'
p86
g41
sS'location'
p87
g54
sS'default_profile_image'
p88
I00
sS'id_str'
p89
g43
sS'utc_offset'
p90
I7200
sS'statuses_count'
p91
I9857
sS'description'
p92
NsS'friends_count'
p93
I202
sS'profile_link_color'
p94
g56
sS'profile_image_url'
p95
g58
sS'notifications'
p96
NsS'geo_enabled'
p97
I01
sS'profile_background_color'
p98
g45
sS'profile_banner_url'
p99
g62
sS'profile_background_image_url'
p100
g64
sS'name'
p101
g66
sS'lang'
p102
g68
sS'following'
p103
I00
sS'profile_background_tile'
p104
I00
sS'favourites_count'
p105
I11356
sS'screen_name'
p106
g72
sS'url'
p107
NsS'created_at'
p108
cdatetime
datetime
p109
(S'\x07\xdd\x07\x1c\x03\t%\x00\x00\x00'
p110
tp111
Rp112
sS'profile_background_image_url_https'
p113
g48
sS'time_zone'
p114
g79
sS'protected'
p115
I00
sS'default_profile'
p116
I00
sS'is_translator'
p117
I00
sS'listed_count'
p118
I1
sbsS'filter_level'
p119
Vlow
p120
sS'geo'
p121
Nsg24
I620568401237438464
sS'favorite_count'
p122
I0
sS'source'
p123
VTwitter Web Client
p124
sg102
Vin
p125
sS'author'
p126
g18
sS'in_reply_to_user_id_str'
p127
Nsg28
(dp128
Vcontributors
p129
NsVtruncated
p130
I00
sVtext
p131
g10
sVin_reply_to_status_id
p132
Nsg33
I620568401237438464
sVfavorite_count
p133
I0
sVsource
p134
V<a href="http://twitter.com" rel="nofollow">Twitter Web Client</a>
p135
sVretweeted
p136
I00
sVcoordinates
p137
NsVtimestamp_ms
p138
V1436790011115
p139
sVentities
p140
(dp141
Vuser_mentions
p142
(lp143
(dp144
g33
I2902592100
sVindices
p145
(lp146
I24
aI37
asg42
V2902592100
p147
sg71
VWangSugaming
p148
sg65
VVonEspina
p149
sasVsymbols
p150
(lp151
sVtrends
p152
(lp153
sVhashtags
p154
(lp155
sVurls
p156
(lp157
ssVin_reply_to_screen_name
p158
Nsg42
V620568401237438464
p159
sVretweet_count
p160
I0
sVin_reply_to_user_id
p161
NsVfavorited
p162
I00
sVuser
p163
g29
sVgeo
p164
NsVin_reply_to_user_id_str
p165
NsVpossibly_sensitive
p166
I01
sg67
g125
sg75
VMon Jul 13 12:20:11 +0000 2015
p167
sVfilter_level
p168
g120
sVin_reply_to_status_id_str
p169
NsVplace
p170
(dp171
Vfull_name
p172
VZurich, Switzerland
p173
sg74
Vhttps://api.twitter.com/1.1/geo/id/3acb748d0f1e9265.json
p174
sVcountry
p175
VSchweiz
p176
sVplace_type
p177
Vcity
p178
sVbounding_box
p179
(dp180
Vtype
p181
VPolygon
p182
sg137
(lp183
(lp184
(lp185
F8.448081
aF47.320183
aa(lp186
F8.448081
aF47.434721
aa(lp187
F8.625442
aF47.434721
aa(lp188
F8.625442
aF47.320183
aaassVcountry_code
p189
VCH
p190
sVattributes
p191
(dp192
sg33
V3acb748d0f1e9265
p193
sg65
VZurich
p194
sssS'coordinates'
p195
NsS'timestamp_ms'
p196
g139
sS'entities'
p197
g141
sS'in_reply_to_status_id_str'
p198
NsS'in_reply_to_screen_name'
p199
Nsg89
g159
sS'retweeted'
p200
I00
sS'place'
p201
g0
(ctweepy.models
Place
p202
g2
Ntp203
Rp204
(dp205
S'full_name'
p206
g173
sg107
g174
sS'country'
p207
g176
sS'place_type'
p208
g178
sS'bounding_box'
p209
g0
(ctweepy.models
BoundingBox
p210
g2
Ntp211
Rp212
(dp213
S'type'
p214
g182
sg195
g183
sbsS'country_code'
p215
g190
sS'attributes'
p216
g192
sg24
g193
sg101
g194
sbsS'retweet_count'
p217
I0
sg108
g109
(S'\x07\xdf\x07\r\x0c\x14\x0b\x00\x00\x00'
p218
tp219
Rp220
sS'in_reply_to_user_id'
p221
Nsb.