ccopy_reg
_reconstructor
p0
(ctweepy.models
Status
p1
c__builtin__
object
p2
Ntp3
Rp4
(dp5
S'favorited'
p6
I00
sS'contributors'
p7
NsS'truncated'
p8
I00
sS'text'
p9
VI'm on a boat..... In Zurich Switzerland that is. http://t.co/VxE1GTHQvB
p10
sS'source_url'
p11
Vhttp://twitter.com/download/iphone
p12
sS'possibly_sensitive'
p13
I00
sS'in_reply_to_status_id'
p14
NsS'user'
p15
g0
(ctweepy.models
User
p16
g2
Ntp17
Rp18
(dp19
S'follow_request_sent'
p20
NsS'profile_use_background_image'
p21
I00
sS'profile_sidebar_fill_color'
p22
V000000
p23
sS'id'
p24
I464156089
sS'verified'
p25
I00
sS'profile_image_url_https'
p26
Vhttps://pbs.twimg.com/profile_images/499385372690751488/heDAjXOM_normal.jpeg
p27
sS'_json'
p28
(dp29
Vfollow_request_sent
p30
NsVprofile_use_background_image
p31
I00
sVdefault_profile_image
p32
I00
sVid
p33
I464156089
sVverified
p34
I00
sVprofile_image_url_https
p35
g27
sVprofile_sidebar_fill_color
p36
g23
sVprofile_text_color
p37
V000000
p38
sVfollowers_count
p39
I157
sVprofile_sidebar_border_color
p40
V000000
p41
sVid_str
p42
V464156089
p43
sVprofile_background_color
p44
V000000
p45
sVlisted_count
p46
I0
sVprofile_background_image_url_https
p47
Vhttps://abs.twimg.com/images/themes/theme14/bg.gif
p48
sVutc_offset
p49
I-25200
sVstatuses_count
p50
I2835
sVdescription
p51
Von a plane
p52
sVfriends_count
p53
I360
sVlocation
p54
V CA to NY
p55
sVprofile_link_color
p56
V008099
p57
sVprofile_image_url
p58
Vhttp://pbs.twimg.com/profile_images/499385372690751488/heDAjXOM_normal.jpeg
p59
sVfollowing
p60
NsVgeo_enabled
p61
I01
sVprofile_background_image_url
p62
Vhttp://abs.twimg.com/images/themes/theme14/bg.gif
p63
sVname
p64
VRuben Gatica
p65
sVlang
p66
Ven
p67
sVprofile_background_tile
p68
I00
sVfavourites_count
p69
I9812
sVscreen_name
p70
Vrubezzzzz
p71
sVnotifications
p72
NsVurl
p73
NsVcreated_at
p74
VSat Jan 14 22:31:27 +0000 2012
p75
sVcontributors_enabled
p76
I00
sVtime_zone
p77
VArizona
p78
sVprotected
p79
I00
sVdefault_profile
p80
I00
sVis_translator
p81
I00
ssS'contributors_enabled'
p82
I00
sS'profile_text_color'
p83
g38
sS'followers_count'
p84
I157
sS'profile_sidebar_border_color'
p85
g41
sS'location'
p86
g55
sS'default_profile_image'
p87
I00
sS'id_str'
p88
g43
sS'utc_offset'
p89
I-25200
sS'statuses_count'
p90
I2835
sS'description'
p91
g52
sS'friends_count'
p92
I360
sS'profile_link_color'
p93
g57
sS'profile_image_url'
p94
g59
sS'notifications'
p95
NsS'geo_enabled'
p96
I01
sS'profile_background_color'
p97
g45
sS'profile_background_image_url'
p98
g63
sS'name'
p99
g65
sS'lang'
p100
g67
sS'following'
p101
I00
sS'profile_background_tile'
p102
I00
sS'favourites_count'
p103
I9812
sS'screen_name'
p104
g71
sS'url'
p105
NsS'created_at'
p106
cdatetime
datetime
p107
(S'\x07\xdc\x01\x0e\x16\x1f\x1b\x00\x00\x00'
p108
tp109
Rp110
sS'profile_background_image_url_https'
p111
g48
sS'time_zone'
p112
g78
sS'protected'
p113
I00
sS'default_profile'
p114
I00
sS'is_translator'
p115
I00
sS'listed_count'
p116
I0
sbsS'filter_level'
p117
Vlow
p118
sS'geo'
p119
Nsg24
I620732783019823104
sS'favorite_count'
p120
I0
sS'source'
p121
VTwitter for iPhone
p122
sg100
Ven
p123
sS'author'
p124
g18
sS'in_reply_to_user_id_str'
p125
Nsg28
(dp126
Vcontributors
p127
NsVtruncated
p128
I00
sVtext
p129
g10
sVin_reply_to_status_id
p130
Nsg33
I620732783019823104
sVfavorite_count
p131
I0
sVsource
p132
V<a href="http://twitter.com/download/iphone" rel="nofollow">Twitter for iPhone</a>
p133
sVretweeted
p134
I00
sVcoordinates
p135
NsVtimestamp_ms
p136
V1436829202786
p137
sVentities
p138
(dp139
Vsymbols
p140
(lp141
sVmedia
p142
(lp143
(dp144
Vexpanded_url
p145
Vhttp://twitter.com/rubezzzzz/status/620732783019823104/photo/1
p146
sVdisplay_url
p147
Vpic.twitter.com/VxE1GTHQvB
p148
sg73
Vhttp://t.co/VxE1GTHQvB
p149
sVmedia_url_https
p150
Vhttps://pbs.twimg.com/media/CJ1JJ3JWUAA-gMJ.jpg
p151
sg42
V620732757417807872
p152
sVsizes
p153
(dp154
Vsmall
p155
(dp156
Vh
p157
I453
sVresize
p158
Vfit
p159
sVw
p160
I340
ssVlarge
p161
(dp162
g157
I1024
sg158
Vfit
p163
sg160
I768
ssVmedium
p164
(dp165
g157
I800
sg158
Vfit
p166
sg160
I600
ssVthumb
p167
(dp168
g157
I150
sg158
Vcrop
p169
sg160
I150
sssVindices
p170
(lp171
I50
aI72
asVtype
p172
Vphoto
p173
sg33
I620732757417807872
sVmedia_url
p174
Vhttp://pbs.twimg.com/media/CJ1JJ3JWUAA-gMJ.jpg
p175
sasVhashtags
p176
(lp177
sVuser_mentions
p178
(lp179
sVtrends
p180
(lp181
sVurls
p182
(lp183
ssVin_reply_to_screen_name
p184
Nsg42
V620732783019823104
p185
sVretweet_count
p186
I0
sVin_reply_to_user_id
p187
NsVfavorited
p188
I00
sVuser
p189
g29
sVgeo
p190
NsVin_reply_to_user_id_str
p191
NsVpossibly_sensitive
p192
I00
sg66
g123
sg74
VMon Jul 13 23:13:22 +0000 2015
p193
sVfilter_level
p194
g118
sVin_reply_to_status_id_str
p195
NsVplace
p196
(dp197
Vfull_name
p198
VZurich, Switzerland
p199
sg73
Vhttps://api.twitter.com/1.1/geo/id/3acb748d0f1e9265.json
p200
sVcountry
p201
VSchweiz
p202
sVplace_type
p203
Vcity
p204
sVbounding_box
p205
(dp206
g172
VPolygon
p207
sg135
(lp208
(lp209
(lp210
F8.448081
aF47.320183
aa(lp211
F8.448081
aF47.434721
aa(lp212
F8.625442
aF47.434721
aa(lp213
F8.625442
aF47.320183
aaassVcountry_code
p214
VCH
p215
sVattributes
p216
(dp217
sg33
V3acb748d0f1e9265
p218
sg64
VZurich
p219
ssVextended_entities
p220
(dp221
g142
(lp222
(dp223
g145
Vhttp://twitter.com/rubezzzzz/status/620732783019823104/photo/1
p224
sg147
Vpic.twitter.com/VxE1GTHQvB
p225
sg73
Vhttp://t.co/VxE1GTHQvB
p226
sg150
Vhttps://pbs.twimg.com/media/CJ1JJ3JWUAA-gMJ.jpg
p227
sg42
V620732757417807872
p228
sg153
(dp229
g155
(dp230
g157
I453
sg158
Vfit
p231
sg160
I340
ssg161
(dp232
g157
I1024
sg158
Vfit
p233
sg160
I768
ssg164
(dp234
g157
I800
sg158
Vfit
p235
sg160
I600
ssg167
(dp236
g157
I150
sg158
Vcrop
p237
sg160
I150
sssg170
(lp238
I50
aI72
asg172
Vphoto
p239
sg33
I620732757417807872
sg174
Vhttp://pbs.twimg.com/media/CJ1JJ3JWUAA-gMJ.jpg
p240
sasssS'coordinates'
p241
NsS'timestamp_ms'
p242
g137
sS'entities'
p243
g139
sS'in_reply_to_status_id_str'
p244
NsS'in_reply_to_screen_name'
p245
Nsg88
g185
sS'extended_entities'
p246
g221
sS'retweeted'
p247
I00
sS'place'
p248
g0
(ctweepy.models
Place
p249
g2
Ntp250
Rp251
(dp252
S'full_name'
p253
g199
sg105
g200
sS'country'
p254
g202
sS'place_type'
p255
g204
sS'bounding_box'
p256
g0
(ctweepy.models
BoundingBox
p257
g2
Ntp258
Rp259
(dp260
S'type'
p261
g207
sg241
g208
sbsS'country_code'
p262
g215
sS'attributes'
p263
g217
sg24
g218
sg99
g219
sbsS'retweet_count'
p264
I0
sg106
g107
(S'\x07\xdf\x07\r\x17\r\x16\x00\x00\x00'
p265
tp266
Rp267
sS'in_reply_to_user_id'
p268
Nsb.