ccopy_reg
_reconstructor
p0
(ctweepy.models
Status
p1
c__builtin__
object
p2
Ntp3
Rp4
(dp5
S'favorited'
p6
I00
sS'contributors'
p7
NsS'truncated'
p8
I00
sS'text'
p9
V#AndyWarhol has joined us! \U0001f64c\U0001f3fd absolutvodka #vodka andywarholart #cosmopolitan #drink #cocktails\u000a\u000aw/\u2026 https://t.co/VIN6VdRmMH
p10
sS'source_url'
p11
Vhttp://instagram.com
p12
sS'possibly_sensitive'
p13
I00
sS'in_reply_to_status_id'
p14
NsS'user'
p15
g0
(ctweepy.models
User
p16
g2
Ntp17
Rp18
(dp19
S'follow_request_sent'
p20
NsS'profile_use_background_image'
p21
I00
sS'profile_sidebar_fill_color'
p22
VF3F3F3
p23
sS'id'
p24
I240869307
sS'verified'
p25
I00
sS'profile_image_url_https'
p26
Vhttps://pbs.twimg.com/profile_images/577599971286859776/quDox3m4_normal.png
p27
sS'_json'
p28
(dp29
Vfollow_request_sent
p30
NsVprofile_use_background_image
p31
I00
sVdefault_profile_image
p32
I00
sVid
p33
I240869307
sVverified
p34
I00
sVprofile_image_url_https
p35
g27
sVprofile_sidebar_fill_color
p36
g23
sVprofile_text_color
p37
V333333
p38
sVfollowers_count
p39
I111
sVprofile_sidebar_border_color
p40
VFFFFFF
p41
sVid_str
p42
V240869307
p43
sVprofile_background_color
p44
VEB70AA
p45
sVlisted_count
p46
I11
sVprofile_background_image_url_https
p47
Vhttps://pbs.twimg.com/profile_background_images/378800000138102836/a9cthDVN.png
p48
sVutc_offset
p49
I7200
sVstatuses_count
p50
I2220
sVdescription
p51
VA #Starbucks coffee obsessed #blogger and #fashionista with a great and expensive taste | Instagram: @ThomyStrass | Blog: http://thomystrass.com
p52
sVfriends_count
p53
I216
sVlocation
p54
VLos Angeles, CA
p55
sVprofile_link_color
p56
VEB70AA
p57
sVprofile_image_url
p58
Vhttp://pbs.twimg.com/profile_images/577599971286859776/quDox3m4_normal.png
p59
sVfollowing
p60
NsVgeo_enabled
p61
I01
sVprofile_banner_url
p62
Vhttps://pbs.twimg.com/profile_banners/240869307/1425083419
p63
sVprofile_background_image_url
p64
Vhttp://pbs.twimg.com/profile_background_images/378800000138102836/a9cthDVN.png
p65
sVname
p66
VThomyStrass.com
p67
sVlang
p68
Ven
p69
sVprofile_background_tile
p70
I00
sVfavourites_count
p71
I26
sVscreen_name
p72
Vthomystrass
p73
sVnotifications
p74
NsVurl
p75
Vhttp://thomystrass.com
p76
sVcreated_at
p77
VThu Jan 20 23:02:21 +0000 2011
p78
sVcontributors_enabled
p79
I00
sVtime_zone
p80
VBern
p81
sVprotected
p82
I00
sVdefault_profile
p83
I00
sVis_translator
p84
I00
ssS'contributors_enabled'
p85
I00
sS'profile_text_color'
p86
g38
sS'followers_count'
p87
I111
sS'profile_sidebar_border_color'
p88
g41
sS'location'
p89
g55
sS'default_profile_image'
p90
I00
sS'id_str'
p91
g43
sS'utc_offset'
p92
I7200
sS'statuses_count'
p93
I2220
sS'description'
p94
g52
sS'friends_count'
p95
I216
sS'profile_link_color'
p96
g57
sS'profile_image_url'
p97
g59
sS'notifications'
p98
NsS'geo_enabled'
p99
I01
sS'profile_background_color'
p100
g45
sS'profile_banner_url'
p101
g63
sS'profile_background_image_url'
p102
g65
sS'name'
p103
g67
sS'lang'
p104
g69
sS'following'
p105
I00
sS'profile_background_tile'
p106
I00
sS'favourites_count'
p107
I26
sS'screen_name'
p108
g73
sS'url'
p109
g76
sS'created_at'
p110
cdatetime
datetime
p111
(S'\x07\xdb\x01\x14\x17\x02\x15\x00\x00\x00'
p112
tp113
Rp114
sS'profile_background_image_url_https'
p115
g48
sS'time_zone'
p116
g81
sS'protected'
p117
I00
sS'default_profile'
p118
I00
sS'is_translator'
p119
I00
sS'listed_count'
p120
I11
sbsS'filter_level'
p121
Vlow
p122
sS'geo'
p123
(dp124
Vtype
p125
VPoint
p126
sVcoordinates
p127
(lp128
F47.400285
aF8.491532
assg24
I619886289840668673
sS'favorite_count'
p129
I0
sS'source'
p130
VInstagram
p131
sg104
Ven
p132
sS'author'
p133
g18
sS'in_reply_to_user_id_str'
p134
Nsg28
(dp135
Vcontributors
p136
NsVtruncated
p137
I00
sVtext
p138
V#AndyWarhol has joined us! \U0001f64c\U0001f3fd absolutvodka #vodka andywarholart #cosmopolitan #drink #cocktails\u000a\u000aw/\u2026 https://t.co/VIN6VdRmMH
p139
sVin_reply_to_status_id
p140
Nsg33
I619886289840668673
sVfavorite_count
p141
I0
sVsource
p142
V<a href="http://instagram.com" rel="nofollow">Instagram</a>
p143
sVretweeted
p144
I00
sg127
(dp145
g125
VPoint
p146
sg127
(lp147
F8.491532
aF47.400285
assVtimestamp_ms
p148
V1436627383085
p149
sVentities
p150
(dp151
Vuser_mentions
p152
(lp153
sVsymbols
p154
(lp155
sVtrends
p156
(lp157
sVhashtags
p158
(lp159
(dp160
Vindices
p161
(lp162
I0
aI11
asg138
VAndyWarhol
p163
sa(dp164
g161
(lp165
I43
aI49
asg138
Vvodka
p166
sa(dp167
g161
(lp168
I64
aI77
asg138
Vcosmopolitan
p169
sa(dp170
g161
(lp171
I78
aI84
asg138
Vdrink
p172
sa(dp173
g161
(lp174
I85
aI95
asg138
Vcocktails
p175
sasVurls
p176
(lp177
(dp178
g75
Vhttps://t.co/VIN6VdRmMH
p179
sg161
(lp180
I101
aI124
asVexpanded_url
p181
Vhttps://instagram.com/p/5ABgwHtd5a/
p182
sVdisplay_url
p183
Vinstagram.com/p/5ABgwHtd5a/
p184
sassVin_reply_to_screen_name
p185
Nsg42
V619886289840668673
p186
sVretweet_count
p187
I0
sVin_reply_to_user_id
p188
NsVfavorited
p189
I00
sVuser
p190
g29
sVgeo
p191
g124
sVin_reply_to_user_id_str
p192
NsVpossibly_sensitive
p193
I00
sg68
g132
sg77
VSat Jul 11 15:09:43 +0000 2015
p194
sVfilter_level
p195
g122
sVin_reply_to_status_id_str
p196
NsVplace
p197
(dp198
Vfull_name
p199
VZurich, Switzerland
p200
sg75
Vhttps://api.twitter.com/1.1/geo/id/3acb748d0f1e9265.json
p201
sVcountry
p202
VSchweiz
p203
sVplace_type
p204
Vcity
p205
sVbounding_box
p206
(dp207
g125
VPolygon
p208
sg127
(lp209
(lp210
(lp211
F8.448081
aF47.320183
aa(lp212
F8.448081
aF47.434721
aa(lp213
F8.625442
aF47.434721
aa(lp214
F8.625442
aF47.320183
aaassVcountry_code
p215
VCH
p216
sVattributes
p217
(dp218
sg33
V3acb748d0f1e9265
p219
sg66
VZurich
p220
sssS'coordinates'
p221
g145
sS'timestamp_ms'
p222
g149
sS'entities'
p223
g151
sS'in_reply_to_status_id_str'
p224
NsS'in_reply_to_screen_name'
p225
Nsg91
g186
sS'retweeted'
p226
I00
sS'place'
p227
g0
(ctweepy.models
Place
p228
g2
Ntp229
Rp230
(dp231
S'full_name'
p232
g200
sg109
g201
sS'country'
p233
g203
sS'place_type'
p234
g205
sS'bounding_box'
p235
g0
(ctweepy.models
BoundingBox
p236
g2
Ntp237
Rp238
(dp239
S'type'
p240
g208
sg221
g209
sbsS'country_code'
p241
g216
sS'attributes'
p242
g218
sg24
g219
sg103
g220
sbsS'retweet_count'
p243
I0
sg110
g111
(S'\x07\xdf\x07\x0b\x0f\t+\x00\x00\x00'
p244
tp245
Rp246
sS'in_reply_to_user_id'
p247
Nsb.