ccopy_reg
_reconstructor
p0
(ctweepy.models
Status
p1
c__builtin__
object
p2
Ntp3
Rp4
(dp5
S'contributors'
p6
NsS'truncated'
p7
I00
sS'text'
p8
VWhich Keshi again? https://t.co/Y8r8Nki32z
p9
sS'in_reply_to_status_id'
p10
NsS'id'
p11
I618845839746842624
sS'favorite_count'
p12
I0
sS'entities'
p13
(dp14
Vuser_mentions
p15
(lp16
sVsymbols
p17
(lp18
sVtrends
p19
(lp20
sVhashtags
p21
(lp22
sVurls
p23
(lp24
(dp25
Vurl
p26
Vhttps://t.co/Y8r8Nki32z
p27
sVindices
p28
(lp29
I19
aI42
asVexpanded_url
p30
Vhttps://twitter.com/colinudoh/status/618845028564238336
p31
sVdisplay_url
p32
Vtwitter.com/colinudoh/stat\u2026
p33
sassS'quoted_status_id'
p34
I618845028564238336
sS'_json'
p35
(dp36
Vcontributors
p37
NsVtruncated
p38
I00
sVtext
p39
g9
sVin_reply_to_status_id
p40
NsVid
p41
I618845839746842624
sVfavorite_count
p42
I0
sVsource
p43
V<a href="http://twitter.com/download/iphone" rel="nofollow">Twitter for iPhone</a>
p44
sVquoted_status_id
p45
I618845028564238336
sVretweeted
p46
I00
sVcoordinates
p47
NsVtimestamp_ms
p48
V1436379320452
p49
sVquoted_status
p50
(dp51
g37
Nsg38
I00
sg39
VKeshi? Serious something RT @pmnewsnigeria: NFF set to name Keshi as Super Eagles coach | P.M. NEWS Nigeria http://t.co/yWPqsyYzcm
p52
sg40
I618840605335138304
sg41
I618845028564238336
sg42
I0
sg43
V<a href="http://twitter.com/#!/download/ipad" rel="nofollow">Twitter for iPad</a>
p53
sg46
I00
sg47
NsVentities
p54
(dp55
g15
(lp56
(dp57
g41
I126733638
sg28
(lp58
I28
aI42
asVid_str
p59
V126733638
p60
sVscreen_name
p61
Vpmnewsnigeria
p62
sVname
p63
VP.M.News
p64
sasg17
(lp65
sg19
(lp66
sg21
(lp67
sg23
(lp68
(dp69
g26
Vhttp://t.co/yWPqsyYzcm
p70
sg28
(lp71
I108
aI130
asg30
Vhttp://fb.me/4lgChM6WD
p72
sg32
Vfb.me/4lgChM6WD
p73
sassVin_reply_to_screen_name
p74
Vpmnewsnigeria
p75
sg59
V618845028564238336
p76
sVretweet_count
p77
I0
sVin_reply_to_user_id
p78
I126733638
sVfavorited
p79
I00
sVuser
p80
(dp81
Vfollow_request_sent
p82
NsVprofile_use_background_image
p83
I01
sVdefault_profile_image
p84
I00
sg41
I91551958
sVverified
p85
I01
sVprofile_image_url_https
p86
Vhttps://pbs.twimg.com/profile_images/506896474215436288/fT-7ci_9_normal.jpeg
p87
sVprofile_sidebar_fill_color
p88
VDDEEF6
p89
sVprofile_text_color
p90
V333333
p91
sVfollowers_count
p92
I71137
sVprofile_sidebar_border_color
p93
VC0DEED
p94
sg59
V91551958
p95
sVprofile_background_color
p96
VC0DEED
p97
sVlisted_count
p98
I806
sVprofile_background_image_url_https
p99
Vhttps://pbs.twimg.com/profile_background_images/102394200/wc2010logo.png
p100
sVutc_offset
p101
NsVstatuses_count
p102
I75314
sVdescription
p103
VNFF Marketing Committee | SuperSport | ESPN | Blzzrd | Telegraph | Glass Explorer | Football. More | Proudly Uniport | Google Plus: +ColinUdoh *Views all mine*
p104
sVfriends_count
p105
I1963
sVlocation
p106
VLagos NGA | Virginia Beach VA
p107
sVprofile_link_color
p108
V0084B4
p109
sVprofile_image_url
p110
Vhttp://pbs.twimg.com/profile_images/506896474215436288/fT-7ci_9_normal.jpeg
p111
sVfollowing
p112
NsVgeo_enabled
p113
I00
sVprofile_banner_url
p114
Vhttps://pbs.twimg.com/profile_banners/91551958/1409688500
p115
sVprofile_background_image_url
p116
Vhttp://pbs.twimg.com/profile_background_images/102394200/wc2010logo.png
p117
sg63
VColin NOT Collins
p118
sVlang
p119
Ven
p120
sVprofile_background_tile
p121
I00
sVfavourites_count
p122
I685
sg61
VColinUdoh
p123
sVnotifications
p124
Nsg26
Vhttp://www.ColinUdoh.com
p125
sVcreated_at
p126
VSat Nov 21 11:12:33 +0000 2009
p127
sVcontributors_enabled
p128
I00
sVtime_zone
p129
NsVprotected
p130
I00
sVdefault_profile
p131
I00
sVis_translator
p132
I00
ssVgeo
p133
NsVin_reply_to_user_id_str
p134
V126733638
p135
sVpossibly_sensitive
p136
I00
sg119
Ven
p137
sg126
VWed Jul 08 18:12:07 +0000 2015
p138
sVfilter_level
p139
Vlow
p140
sVin_reply_to_status_id_str
p141
V618840605335138304
p142
sVplace
p143
Nssg54
g14
sg74
Nsg59
V618845839746842624
p144
sg77
I0
sg78
Nsg79
I00
sg80
(dp145
g82
Nsg83
I01
sg84
I00
sg41
I271361465
sg85
I00
sg86
Vhttps://pbs.twimg.com/profile_images/605507470363099136/ML2klFEV_normal.jpg
p146
sg88
VDDEEF6
p147
sg90
V333333
p148
sg92
I434
sg93
VC0DEED
p149
sg59
V271361465
p150
sg96
VC0DEED
p151
sg98
I25
sg99
Vhttps://abs.twimg.com/images/themes/theme1/bg.png
p152
sg101
Nsg102
I19213
sg103
VConsummate PR and Corporate Communication buff. Proudly flying Djembe communications flag across the West Africa region
p153
sg105
I596
sg106
V
p154
sg108
V0084B4
p155
sg110
Vhttp://pbs.twimg.com/profile_images/605507470363099136/ML2klFEV_normal.jpg
p156
sg112
Nsg113
I01
sg114
Vhttps://pbs.twimg.com/profile_banners/271361465/1424263426
p157
sg116
Vhttp://abs.twimg.com/images/themes/theme1/bg.png
p158
sg63
VOnome Okwah
p159
sg119
Ven
p160
sg121
I00
sg122
I44
sg61
Vomookwah
p161
sg124
Nsg26
Nsg126
VThu Mar 24 10:38:08 +0000 2011
p162
sg128
I00
sg129
Nsg130
I00
sg131
I01
sg132
I00
ssg133
Nsg134
Nsg136
I00
sg119
Ven
p163
sg126
VWed Jul 08 18:15:20 +0000 2015
p164
sVquoted_status_id_str
p165
V618845028564238336
p166
sg139
Vlow
p167
sg141
Nsg143
(dp168
Vfull_name
p169
VZurich, Switzerland
p170
sg26
Vhttps://api.twitter.com/1.1/geo/id/3acb748d0f1e9265.json
p171
sVcountry
p172
VSchweiz
p173
sVplace_type
p174
Vcity
p175
sVbounding_box
p176
(dp177
Vtype
p178
VPolygon
p179
sg47
(lp180
(lp181
(lp182
F8.448081
aF47.320183
aa(lp183
F8.448081
aF47.434721
aa(lp184
F8.625442
aF47.434721
aa(lp185
F8.625442
aF47.320183
aaassVcountry_code
p186
VCH
p187
sVattributes
p188
(dp189
sg41
V3acb748d0f1e9265
p190
sg63
VZurich
p191
sssS'coordinates'
p192
NsS'timestamp_ms'
p193
g49
sS'quoted_status'
p194
g51
sS'source'
p195
VTwitter for iPhone
p196
sS'in_reply_to_screen_name'
p197
NsS'id_str'
p198
g144
sS'retweet_count'
p199
I0
sS'in_reply_to_user_id'
p200
NsS'favorited'
p201
I00
sS'source_url'
p202
Vhttp://twitter.com/download/iphone
p203
sS'user'
p204
g0
(ctweepy.models
User
p205
g2
Ntp206
Rp207
(dp208
S'follow_request_sent'
p209
NsS'profile_use_background_image'
p210
I01
sS'profile_sidebar_fill_color'
p211
g147
sg11
I271361465
sS'verified'
p212
I00
sS'profile_image_url_https'
p213
g146
sg35
g145
sS'contributors_enabled'
p214
I00
sS'profile_text_color'
p215
g148
sS'followers_count'
p216
I434
sS'profile_sidebar_border_color'
p217
g149
sS'location'
p218
g154
sS'default_profile_image'
p219
I00
sg198
g150
sS'utc_offset'
p220
NsS'statuses_count'
p221
I19213
sS'description'
p222
g153
sS'friends_count'
p223
I596
sS'profile_link_color'
p224
g155
sS'profile_image_url'
p225
g156
sS'notifications'
p226
NsS'geo_enabled'
p227
I01
sS'profile_background_color'
p228
g151
sS'profile_banner_url'
p229
g157
sS'profile_background_image_url'
p230
g158
sS'name'
p231
g159
sS'lang'
p232
g160
sS'following'
p233
I00
sS'profile_background_tile'
p234
I00
sS'favourites_count'
p235
I44
sS'screen_name'
p236
g161
sS'url'
p237
NsS'created_at'
p238
cdatetime
datetime
p239
(S'\x07\xdb\x03\x18\n&\x08\x00\x00\x00'
p240
tp241
Rp242
sS'profile_background_image_url_https'
p243
g152
sS'time_zone'
p244
NsS'protected'
p245
I00
sS'default_profile'
p246
I01
sS'is_translator'
p247
I00
sS'listed_count'
p248
I25
sbsS'geo'
p249
NsS'in_reply_to_user_id_str'
p250
NsS'possibly_sensitive'
p251
I00
sg232
g163
sg238
g239
(S'\x07\xdf\x07\x08\x12\x0f\x14\x00\x00\x00'
p252
tp253
Rp254
sS'author'
p255
g207
sS'quoted_status_id_str'
p256
g166
sS'filter_level'
p257
g167
sS'in_reply_to_status_id_str'
p258
NsS'place'
p259
g0
(ctweepy.models
Place
p260
g2
Ntp261
Rp262
(dp263
S'full_name'
p264
g170
sg237
g171
sS'country'
p265
g173
sS'place_type'
p266
g175
sS'bounding_box'
p267
g0
(ctweepy.models
BoundingBox
p268
g2
Ntp269
Rp270
(dp271
S'type'
p272
g179
sg192
g180
sbsS'country_code'
p273
g187
sS'attributes'
p274
g189
sg11
g190
sg231
g191
sbsS'retweeted'
p275
I00
sb.