ccopy_reg
_reconstructor
p0
(ctweepy.models
Status
p1
c__builtin__
object
p2
Ntp3
Rp4
(dp5
S'favorited'
p6
I00
sS'contributors'
p7
NsS'truncated'
p8
I00
sS'text'
p9
V@bmxtopher @phamphuongnguy2 @ZiLeOHai @fame New game BLOCKING MILEYS BOTS.\u000aI'M UP TO 200 counting all her GAMER BOTS.
p10
sS'source_url'
p11
Vhttp://twitter.com
p12
sS'possibly_sensitive'
p13
I00
sS'in_reply_to_status_id'
p14
I620737028653752321
sS'user'
p15
g0
(ctweepy.models
User
p16
g2
Ntp17
Rp18
(dp19
S'follow_request_sent'
p20
NsS'profile_use_background_image'
p21
I00
sS'profile_sidebar_fill_color'
p22
V000000
p23
sS'id'
p24
I2879569993
sS'verified'
p25
I00
sS'profile_image_url_https'
p26
Vhttps://pbs.twimg.com/profile_images/610874208827146241/voSDsKk8_normal.png
p27
sS'_json'
p28
(dp29
Vfollow_request_sent
p30
NsVprofile_use_background_image
p31
I00
sVdefault_profile_image
p32
I00
sVid
p33
I2879569993
sVverified
p34
I00
sVprofile_image_url_https
p35
g27
sVprofile_sidebar_fill_color
p36
g23
sVprofile_text_color
p37
V000000
p38
sVfollowers_count
p39
I247
sVprofile_sidebar_border_color
p40
V000000
p41
sVid_str
p42
V2879569993
p43
sVprofile_background_color
p44
V000000
p45
sVlisted_count
p46
I3
sVprofile_background_image_url_https
p47
Vhttps://abs.twimg.com/images/themes/theme14/bg.gif
p48
sVutc_offset
p49
I-25200
sVstatuses_count
p50
I1361
sVdescription
p51
VNEVER COULD HIDE WHO I AM.  .http://ish.re/JJRT -not me.\u000aDAMNALEX@PROTONMAIL.COM
p52
sVfriends_count
p53
I285
sVlocation
p54
VRepublic of Mozambique
p55
sVprofile_link_color
p56
VDD2E44
p57
sVprofile_image_url
p58
Vhttp://pbs.twimg.com/profile_images/610874208827146241/voSDsKk8_normal.png
p59
sVfollowing
p60
NsVgeo_enabled
p61
I01
sVprofile_banner_url
p62
Vhttps://pbs.twimg.com/profile_banners/2879569993/1434478513
p63
sVprofile_background_image_url
p64
Vhttp://abs.twimg.com/images/themes/theme14/bg.gif
p65
sVname
p66
VD\u2200MN\u2200L\u308bX 
p67
sVlang
p68
Ven
p69
sVprofile_background_tile
p70
I00
sVfavourites_count
p71
I30
sVscreen_name
p72
VDd0xblack1
p73
sVnotifications
p74
NsVurl
p75
NsVcreated_at
p76
VMon Oct 27 13:04:37 +0000 2014
p77
sVcontributors_enabled
p78
I00
sVtime_zone
p79
VPacific Time (US & Canada)
p80
sVprotected
p81
I00
sVdefault_profile
p82
I00
sVis_translator
p83
I00
ssS'contributors_enabled'
p84
I00
sS'profile_text_color'
p85
g38
sS'followers_count'
p86
I247
sS'profile_sidebar_border_color'
p87
g41
sS'location'
p88
g55
sS'default_profile_image'
p89
I00
sS'id_str'
p90
g43
sS'utc_offset'
p91
I-25200
sS'statuses_count'
p92
I1361
sS'description'
p93
VNEVER COULD HIDE WHO I AM.  .http://ish.re/JJRT -not me.\u000aDAMNALEX@PROTONMAIL.COM
p94
sS'friends_count'
p95
I285
sS'profile_link_color'
p96
g57
sS'profile_image_url'
p97
g59
sS'notifications'
p98
NsS'geo_enabled'
p99
I01
sS'profile_background_color'
p100
g45
sS'profile_banner_url'
p101
g63
sS'profile_background_image_url'
p102
g65
sS'name'
p103
g67
sS'lang'
p104
g69
sS'following'
p105
I00
sS'profile_background_tile'
p106
I00
sS'favourites_count'
p107
I30
sS'screen_name'
p108
g73
sS'url'
p109
NsS'created_at'
p110
cdatetime
datetime
p111
(S'\x07\xde\n\x1b\r\x04%\x00\x00\x00'
p112
tp113
Rp114
sS'profile_background_image_url_https'
p115
g48
sS'time_zone'
p116
g80
sS'protected'
p117
I00
sS'default_profile'
p118
I00
sS'is_translator'
p119
I00
sS'listed_count'
p120
I3
sbsS'filter_level'
p121
Vlow
p122
sS'geo'
p123
Nsg24
I620737722085416961
sS'favorite_count'
p124
I0
sS'source'
p125
VTwitter Web Client
p126
sg104
Ven
p127
sS'author'
p128
g18
sS'in_reply_to_user_id_str'
p129
V3318509770
p130
sg28
(dp131
Vcontributors
p132
NsVtruncated
p133
I00
sVtext
p134
V@bmxtopher @phamphuongnguy2 @ZiLeOHai @fame New game BLOCKING MILEYS BOTS.\u000aI'M UP TO 200 counting all her GAMER BOTS.
p135
sVin_reply_to_status_id
p136
I620737028653752321
sg33
I620737722085416961
sVfavorite_count
p137
I0
sVsource
p138
V<a href="http://twitter.com" rel="nofollow">Twitter Web Client</a>
p139
sVretweeted
p140
I00
sVcoordinates
p141
NsVtimestamp_ms
p142
V1436830380351
p143
sVentities
p144
(dp145
Vuser_mentions
p146
(lp147
(dp148
g33
I3318509770
sVindices
p149
(lp150
I0
aI10
asg42
V3318509770
p151
sg72
Vbmxtopher
p152
sg66
Vbmxchris
p153
sa(dp154
g33
I2950603275
sg149
(lp155
I11
aI27
asg42
V2950603275
p156
sg72
Vphamphuongnguy2
p157
sg66
Vphamphuong
p158
sa(dp159
g33
I2342506544
sg149
(lp160
I28
aI37
asg42
V2342506544
p161
sg72
VZiLeOHai
p162
sg66
VDon't Potato
p163
sa(dp164
g33
I2426199542
sg149
(lp165
I38
aI43
asg42
V2426199542
p166
sg72
Vfame
p167
sg66
VFame
p168
sasVsymbols
p169
(lp170
sVtrends
p171
(lp172
sVhashtags
p173
(lp174
sVurls
p175
(lp176
ssVin_reply_to_screen_name
p177
Vbmxtopher
p178
sg42
V620737722085416961
p179
sVretweet_count
p180
I0
sVin_reply_to_user_id
p181
I3318509770
sVfavorited
p182
I00
sVuser
p183
g29
sVgeo
p184
NsVin_reply_to_user_id_str
p185
g130
sVpossibly_sensitive
p186
I00
sg68
g127
sg76
VMon Jul 13 23:33:00 +0000 2015
p187
sVfilter_level
p188
g122
sVin_reply_to_status_id_str
p189
V620737028653752321
p190
sVplace
p191
(dp192
Vfull_name
p193
VBerne, Switzerland
p194
sg75
Vhttps://api.twitter.com/1.1/geo/id/5868d0e0749c9c47.json
p195
sVcountry
p196
VSchweiz
p197
sVplace_type
p198
Vadmin
p199
sVbounding_box
p200
(dp201
Vtype
p202
VPolygon
p203
sg141
(lp204
(lp205
(lp206
F6.861601
aF46.326441
aa(lp207
F6.861601
aF47.34528
aa(lp208
F8.455051
aF47.34528
aa(lp209
F8.455051
aF46.326441
aaassVcountry_code
p210
VCH
p211
sVattributes
p212
(dp213
sg33
V5868d0e0749c9c47
p214
sg66
VBern
p215
sssS'coordinates'
p216
NsS'timestamp_ms'
p217
g143
sS'entities'
p218
g145
sS'in_reply_to_status_id_str'
p219
g190
sS'in_reply_to_screen_name'
p220
g178
sg90
g179
sS'retweeted'
p221
I00
sS'place'
p222
g0
(ctweepy.models
Place
p223
g2
Ntp224
Rp225
(dp226
S'full_name'
p227
g194
sg109
g195
sS'country'
p228
g197
sS'place_type'
p229
g199
sS'bounding_box'
p230
g0
(ctweepy.models
BoundingBox
p231
g2
Ntp232
Rp233
(dp234
S'type'
p235
g203
sg216
g204
sbsS'country_code'
p236
g211
sS'attributes'
p237
g213
sg24
g214
sg103
g215
sbsS'retweet_count'
p238
I0
sg110
g111
(S'\x07\xdf\x07\r\x17!\x00\x00\x00\x00'
p239
tp240
Rp241
sS'in_reply_to_user_id'
p242
I3318509770
sb.