ccopy_reg
_reconstructor
p0
(ctweepy.models
Status
p1
c__builtin__
object
p2
Ntp3
Rp4
(dp5
S'contributors'
p6
NsS'truncated'
p7
I00
sS'text'
p8
VAGREEE .,,, https://t.co/dCGi38IViP
p9
sS'in_reply_to_status_id'
p10
NsS'id'
p11
I621130738335924224
sS'favorite_count'
p12
I0
sS'entities'
p13
(dp14
Vuser_mentions
p15
(lp16
sVsymbols
p17
(lp18
sVtrends
p19
(lp20
sVhashtags
p21
(lp22
sVurls
p23
(lp24
(dp25
Vurl
p26
Vhttps://t.co/dCGi38IViP
p27
sVindices
p28
(lp29
I12
aI35
asVexpanded_url
p30
Vhttps://twitter.com/dr_gie/status/480324162066448385
p31
sVdisplay_url
p32
Vtwitter.com/dr_gie/status/\u2026
p33
sassS'quoted_status_id'
p34
I480324162066448385
sS'_json'
p35
(dp36
Vcontributors
p37
NsVtruncated
p38
I00
sVtext
p39
g9
sVin_reply_to_status_id
p40
NsVid
p41
I621130738335924224
sVfavorite_count
p42
I0
sVsource
p43
V<a href="http://twitter.com/download/iphone" rel="nofollow">Twitter for iPhone</a>
p44
sVquoted_status_id
p45
I480324162066448385
sVretweeted
p46
I00
sVcoordinates
p47
NsVtimestamp_ms
p48
V1436924082727
p49
sVquoted_status
p50
(dp51
g37
Nsg38
I00
sg39
VBiar cantik &amp; sexy tapi jutek cuma bikin ilfil aja. Attitude is number one!
p52
sg40
Nsg41
I480324162066448385
sg42
I0
sg43
V<a href="http://twitter.com/download/android" rel="nofollow">Twitter for Android</a>
p53
sg46
I00
sg47
NsVentities
p54
(dp55
g15
(lp56
sg17
(lp57
sg19
(lp58
sg21
(lp59
sg23
(lp60
ssVin_reply_to_screen_name
p61
NsVid_str
p62
V480324162066448385
p63
sVretweet_count
p64
I0
sVin_reply_to_user_id
p65
NsVfavorited
p66
I00
sVuser
p67
(dp68
Vfollow_request_sent
p69
NsVprofile_use_background_image
p70
I01
sVdefault_profile_image
p71
I00
sg41
I1590307484
sVverified
p72
I00
sVprofile_image_url_https
p73
Vhttps://pbs.twimg.com/profile_images/499585187420725248/Tq64Bqg0_normal.jpeg
p74
sVprofile_sidebar_fill_color
p75
VFFF200
p76
sVprofile_text_color
p77
VFF385F
p78
sVfollowers_count
p79
I2527
sVprofile_sidebar_border_color
p80
VFF9800
p81
sg62
V1590307484
p82
sVprofile_background_color
p83
VE8F8FB
p84
sVlisted_count
p85
I4
sVprofile_background_image_url_https
p86
Vhttps://pbs.twimg.com/profile_background_images/378800000023397695/6e90aa919d4b9b08ed21147f31afe19b.jpeg
p87
sVutc_offset
p88
I25200
sVstatuses_count
p89
I321
sVdescription
p90
VI have someone big secret
p91
sVfriends_count
p92
I120
sVlocation
p93
VBronx, NY
p94
sVprofile_link_color
p95
V00BEA3
p96
sVprofile_image_url
p97
Vhttp://pbs.twimg.com/profile_images/499585187420725248/Tq64Bqg0_normal.jpeg
p98
sVfollowing
p99
NsVgeo_enabled
p100
I00
sVprofile_background_image_url
p101
Vhttp://pbs.twimg.com/profile_background_images/378800000023397695/6e90aa919d4b9b08ed21147f31afe19b.jpeg
p102
sVname
p103
Vg
p104
sVlang
p105
Ven
p106
sVprofile_background_tile
p107
I01
sVfavourites_count
p108
I7
sVscreen_name
p109
Vdr_Gie
p110
sVnotifications
p111
Nsg26
NsVcreated_at
p112
VSat Jul 13 06:18:09 +0000 2013
p113
sVcontributors_enabled
p114
I00
sVtime_zone
p115
VBangkok
p116
sVprotected
p117
I00
sVdefault_profile
p118
I00
sVis_translator
p119
I00
ssVgeo
p120
NsVin_reply_to_user_id_str
p121
NsVpossibly_sensitive
p122
I00
sg105
Vin
p123
sg112
VSat Jun 21 12:19:38 +0000 2014
p124
sVfilter_level
p125
Vlow
p126
sVin_reply_to_status_id_str
p127
NsVplace
p128
Nssg54
g14
sg61
Nsg62
V621130738335924224
p129
sg64
I0
sg65
Nsg66
I00
sg67
(dp130
g69
Nsg70
I01
sg71
I00
sg41
I2861615840
sg72
I00
sg73
Vhttps://pbs.twimg.com/profile_images/564852475593637888/r1x5RkNq_normal.jpeg
p131
sg75
VDDEEF6
p132
sg77
V333333
p133
sg79
I429
sg80
VC0DEED
p134
sg62
V2861615840
p135
sg83
VC0DEED
p136
sg85
I1
sg86
Vhttps://abs.twimg.com/images/themes/theme1/bg.png
p137
sg88
I25200
sg89
I6174
sg90
VLaki dewasa. Telat nakal. Calon #gadun. check my fav.
p138
sg92
I795
sg93
VJakarta. Borneo.
p139
sg95
V0084B4
p140
sg97
Vhttp://pbs.twimg.com/profile_images/564852475593637888/r1x5RkNq_normal.jpeg
p141
sg99
Nsg100
I01
sVprofile_banner_url
p142
Vhttps://pbs.twimg.com/profile_banners/2861615840/1436920404
p143
sg101
Vhttp://abs.twimg.com/images/themes/theme1/bg.png
p144
sg103
VA Lover
p145
sg105
Ven
p146
sg107
I00
sg108
I257
sg109
Vhemanperth
p147
sg111
Nsg26
Nsg112
VSat Oct 18 01:29:11 +0000 2014
p148
sg114
I00
sg115
VKrasnoyarsk
p149
sg117
I00
sg118
I01
sg119
I00
ssg120
Nsg121
Nsg122
I00
sg105
Ven
p150
sg112
VWed Jul 15 01:34:42 +0000 2015
p151
sVquoted_status_id_str
p152
V480324162066448385
p153
sg125
Vlow
p154
sg127
Nsg128
(dp155
Vfull_name
p156
VZurich, Switzerland
p157
sg26
Vhttps://api.twitter.com/1.1/geo/id/db94c1cccc67c4f4.json
p158
sVcountry
p159
VSchweiz
p160
sVplace_type
p161
Vadmin
p162
sVbounding_box
p163
(dp164
Vtype
p165
VPolygon
p166
sg47
(lp167
(lp168
(lp169
F8.357749
aF47.159384
aa(lp170
F8.357749
aF47.694503
aa(lp171
F8.984445
aF47.694503
aa(lp172
F8.984445
aF47.159384
aaassVcountry_code
p173
VCH
p174
sVattributes
p175
(dp176
sg41
Vdb94c1cccc67c4f4
p177
sg103
VZurich
p178
sssS'coordinates'
p179
NsS'timestamp_ms'
p180
g49
sS'quoted_status'
p181
g51
sS'source'
p182
VTwitter for iPhone
p183
sS'in_reply_to_screen_name'
p184
NsS'id_str'
p185
g129
sS'retweet_count'
p186
I0
sS'in_reply_to_user_id'
p187
NsS'favorited'
p188
I00
sS'source_url'
p189
Vhttp://twitter.com/download/iphone
p190
sS'user'
p191
g0
(ctweepy.models
User
p192
g2
Ntp193
Rp194
(dp195
S'follow_request_sent'
p196
NsS'profile_use_background_image'
p197
I01
sS'profile_sidebar_fill_color'
p198
g132
sg11
I2861615840
sS'verified'
p199
I00
sS'profile_image_url_https'
p200
g131
sg35
g130
sS'contributors_enabled'
p201
I00
sS'profile_text_color'
p202
g133
sS'followers_count'
p203
I429
sS'profile_sidebar_border_color'
p204
g134
sS'location'
p205
g139
sS'default_profile_image'
p206
I00
sg185
g135
sS'utc_offset'
p207
I25200
sS'statuses_count'
p208
I6174
sS'description'
p209
g138
sS'friends_count'
p210
I795
sS'profile_link_color'
p211
g140
sS'profile_image_url'
p212
g141
sS'notifications'
p213
NsS'geo_enabled'
p214
I01
sS'profile_background_color'
p215
g136
sS'profile_banner_url'
p216
g143
sS'profile_background_image_url'
p217
g144
sS'name'
p218
g145
sS'lang'
p219
g146
sS'following'
p220
I00
sS'profile_background_tile'
p221
I00
sS'favourites_count'
p222
I257
sS'screen_name'
p223
g147
sS'url'
p224
NsS'created_at'
p225
cdatetime
datetime
p226
(S'\x07\xde\n\x12\x01\x1d\x0b\x00\x00\x00'
p227
tp228
Rp229
sS'profile_background_image_url_https'
p230
g137
sS'time_zone'
p231
g149
sS'protected'
p232
I00
sS'default_profile'
p233
I01
sS'is_translator'
p234
I00
sS'listed_count'
p235
I1
sbsS'geo'
p236
NsS'in_reply_to_user_id_str'
p237
NsS'possibly_sensitive'
p238
I00
sg219
g150
sg225
g226
(S'\x07\xdf\x07\x0f\x01"*\x00\x00\x00'
p239
tp240
Rp241
sS'author'
p242
g194
sS'quoted_status_id_str'
p243
g153
sS'filter_level'
p244
g154
sS'in_reply_to_status_id_str'
p245
NsS'place'
p246
g0
(ctweepy.models
Place
p247
g2
Ntp248
Rp249
(dp250
S'full_name'
p251
g157
sg224
g158
sS'country'
p252
g160
sS'place_type'
p253
g162
sS'bounding_box'
p254
g0
(ctweepy.models
BoundingBox
p255
g2
Ntp256
Rp257
(dp258
S'type'
p259
g166
sg179
g167
sbsS'country_code'
p260
g174
sS'attributes'
p261
g176
sg11
g177
sg218
g178
sbsS'retweeted'
p262
I00
sb.