ccopy_reg
_reconstructor
p0
(ctweepy.models
Status
p1
c__builtin__
object
p2
Ntp3
Rp4
(dp5
S'contributors'
p6
NsS'truncated'
p7
I00
sS'text'
p8
V\U0001f602\U0001f602\U0001f602 https://t.co/PKWZMJCVYI
p9
sS'in_reply_to_status_id'
p10
NsS'id'
p11
I619650562863271937
sS'favorite_count'
p12
I0
sS'entities'
p13
(dp14
Vuser_mentions
p15
(lp16
sVsymbols
p17
(lp18
sVtrends
p19
(lp20
sVhashtags
p21
(lp22
sVurls
p23
(lp24
(dp25
Vurl
p26
Vhttps://t.co/PKWZMJCVYI
p27
sVindices
p28
(lp29
I4
aI27
asVexpanded_url
p30
Vhttps://twitter.com/mattround/status/619430296119812096
p31
sVdisplay_url
p32
Vtwitter.com/mattround/stat\u2026
p33
sassS'quoted_status_id'
p34
I619430296119812096
sS'_json'
p35
(dp36
Vcontributors
p37
NsVtruncated
p38
I00
sVtext
p39
g9
sVin_reply_to_status_id
p40
NsVid
p41
I619650562863271937
sVfavorite_count
p42
I0
sVsource
p43
V<a href="http://twitter.com/download/iphone" rel="nofollow">Twitter for iPhone</a>
p44
sVquoted_status_id
p45
I619430296119812096
sVretweeted
p46
I00
sVcoordinates
p47
NsVtimestamp_ms
p48
V1436571181394
p49
sVquoted_status
p50
(dp51
g37
Nsg38
I00
sg39
VAfter years of research &amp; millions of dollars, engineers can accurately replicate two drunk people carrying a sofa http://t.co/fwN4mPKGRc
p52
sg40
Nsg41
I619430296119812096
sg42
I0
sg43
V<a href="http://tapbots.com/software/tweetbot/mac" rel="nofollow">Tweetbot for Mac</a>
p53
sg46
I00
sg47
NsVentities
p54
(dp55
g17
(lp56
sVmedia
p57
(lp58
(dp59
g30
Vhttp://twitter.com/mattround/status/619430296119812096/photo/1
p60
sg32
Vpic.twitter.com/fwN4mPKGRc
p61
sg26
Vhttp://t.co/fwN4mPKGRc
p62
sVmedia_url_https
p63
Vhttps://pbs.twimg.com/tweet_video_thumb/CJiokkMWEAAoU_W.png
p64
sVid_str
p65
V619430294907654144
p66
sVsizes
p67
(dp68
Vsmall
p69
(dp70
Vh
p71
I242
sVresize
p72
Vfit
p73
sVw
p74
I336
ssVlarge
p75
(dp76
g71
I242
sg72
Vfit
p77
sg74
I336
ssVmedium
p78
(dp79
g71
I242
sg72
Vfit
p80
sg74
I336
ssVthumb
p81
(dp82
g71
I150
sg72
Vcrop
p83
sg74
I150
sssg28
(lp84
I119
aI141
asVtype
p85
Vphoto
p86
sg41
I619430294907654144
sVmedia_url
p87
Vhttp://pbs.twimg.com/tweet_video_thumb/CJiokkMWEAAoU_W.png
p88
sasg21
(lp89
sg15
(lp90
sg19
(lp91
sg23
(lp92
ssVin_reply_to_screen_name
p93
Nsg65
V619430296119812096
p94
sVretweet_count
p95
I0
sVin_reply_to_user_id
p96
NsVfavorited
p97
I00
sVuser
p98
(dp99
Vfollow_request_sent
p100
NsVprofile_use_background_image
p101
I00
sVdefault_profile_image
p102
I00
sg41
I11191652
sVverified
p103
I00
sVprofile_image_url_https
p104
Vhttps://pbs.twimg.com/profile_images/520934054318047232/s2_2TmXi_normal.jpeg
p105
sVprofile_sidebar_fill_color
p106
VA1E8FA
p107
sVprofile_text_color
p108
V000000
p109
sVfollowers_count
p110
I867
sVprofile_sidebar_border_color
p111
VFFFFFF
p112
sg65
V11191652
p113
sVprofile_background_color
p114
V7F7F7F
p115
sVlisted_count
p116
I35
sVprofile_background_image_url_https
p117
Vhttps://pbs.twimg.com/profile_background_images/153136913/twitter.jpg
p118
sVutc_offset
p119
I3600
sVstatuses_count
p120
I28957
sVdescription
p121
VMaker of interactive online gubbins and all-round creative nerd. Formerly of UsVsTh3m (RIP)
p122
sVfriends_count
p123
I187
sVlocation
p124
VLeamington Spa/London/Carcosa
p125
sVprofile_link_color
p126
VDD2E44
p127
sVprofile_image_url
p128
Vhttp://pbs.twimg.com/profile_images/520934054318047232/s2_2TmXi_normal.jpeg
p129
sVfollowing
p130
NsVgeo_enabled
p131
I00
sVprofile_banner_url
p132
Vhttps://pbs.twimg.com/profile_banners/11191652/1434467583
p133
sVprofile_background_image_url
p134
Vhttp://pbs.twimg.com/profile_background_images/153136913/twitter.jpg
p135
sVname
p136
VMatt Round
p137
sVlang
p138
Ven
p139
sVprofile_background_tile
p140
I00
sVfavourites_count
p141
I2063
sVscreen_name
p142
Vmattround
p143
sVnotifications
p144
Nsg26
Vhttp://mattround.com/
p145
sVcreated_at
p146
VSat Dec 15 09:06:37 +0000 2007
p147
sVcontributors_enabled
p148
I00
sVtime_zone
p149
VLondon
p150
sVprotected
p151
I00
sVdefault_profile
p152
I00
sVis_translator
p153
I00
ssVgeo
p154
NsVin_reply_to_user_id_str
p155
NsVpossibly_sensitive
p156
I00
sg138
Ven
p157
sg146
VFri Jul 10 08:57:45 +0000 2015
p158
sVfilter_level
p159
Vlow
p160
sVin_reply_to_status_id_str
p161
NsVplace
p162
NsVextended_entities
p163
(dp164
g57
(lp165
(dp166
g30
Vhttp://twitter.com/mattround/status/619430296119812096/photo/1
p167
sg32
Vpic.twitter.com/fwN4mPKGRc
p168
sg26
Vhttp://t.co/fwN4mPKGRc
p169
sg63
Vhttps://pbs.twimg.com/tweet_video_thumb/CJiokkMWEAAoU_W.png
p170
sVvideo_info
p171
(dp172
Vaspect_ratio
p173
(lp174
I168
aI121
asVvariants
p175
(lp176
(dp177
g26
Vhttps://pbs.twimg.com/tweet_video/CJiokkMWEAAoU_W.mp4
p178
sVbitrate
p179
I0
sVcontent_type
p180
Vvideo/mp4
p181
sassg65
V619430294907654144
p182
sg67
(dp183
g69
(dp184
g71
I242
sg72
Vfit
p185
sg74
I336
ssg75
(dp186
g71
I242
sg72
Vfit
p187
sg74
I336
ssg78
(dp188
g71
I242
sg72
Vfit
p189
sg74
I336
ssg81
(dp190
g71
I150
sg72
Vcrop
p191
sg74
I150
sssg28
(lp192
I119
aI141
asg85
Vanimated_gif
p193
sg41
I619430294907654144
sg87
Vhttp://pbs.twimg.com/tweet_video_thumb/CJiokkMWEAAoU_W.png
p194
sasssg54
g14
sg93
Nsg65
V619650562863271937
p195
sg95
I0
sg96
Nsg97
I00
sg98
(dp196
g100
Nsg101
I00
sg102
I00
sg41
I28296260
sg103
I00
sg104
Vhttps://pbs.twimg.com/profile_images/613571492547268609/CtSn14hY_normal.jpg
p197
sg106
VDAECF4
p198
sg108
V0F0802
p199
sg110
I534
sg111
VFFFFFF
p200
sg65
V28296260
p201
sg114
V85B7F5
p202
sg116
I17
sg117
Vhttps://pbs.twimg.com/profile_background_images/859620450/c9554d651533d28691c1681471817961.jpeg
p203
sg119
I7200
sg120
I16409
sg121
Vhave camera will travel
p204
sg123
I210
sg124
VZurich
p205
sg126
V429CF5
p206
sg128
Vhttp://pbs.twimg.com/profile_images/613571492547268609/CtSn14hY_normal.jpg
p207
sg130
Nsg131
I01
sg134
Vhttp://pbs.twimg.com/profile_background_images/859620450/c9554d651533d28691c1681471817961.jpeg
p208
sg136
VSteven Anggrek
p209
sg138
Ven
p210
sg140
I00
sg141
I236
sg142
Vstevenanggrek
p211
sg144
Nsg26
Vhttp://www.stevenanggrek.ch
p212
sg146
VThu Apr 02 06:46:57 +0000 2009
p213
sg148
I00
sg149
VParis
p214
sg151
I00
sg152
I00
sg153
I00
ssg154
Nsg155
Nsg156
I00
sg138
Vund
p215
sg146
VFri Jul 10 23:33:01 +0000 2015
p216
sVquoted_status_id_str
p217
V619430296119812096
p218
sg159
Vlow
p219
sg161
Nsg162
(dp220
Vfull_name
p221
VZurich, Switzerland
p222
sg26
Vhttps://api.twitter.com/1.1/geo/id/3acb748d0f1e9265.json
p223
sVcountry
p224
VSchweiz
p225
sVplace_type
p226
Vcity
p227
sVbounding_box
p228
(dp229
g85
VPolygon
p230
sg47
(lp231
(lp232
(lp233
F8.448081
aF47.320183
aa(lp234
F8.448081
aF47.434721
aa(lp235
F8.625442
aF47.434721
aa(lp236
F8.625442
aF47.320183
aaassVcountry_code
p237
VCH
p238
sVattributes
p239
(dp240
sg41
V3acb748d0f1e9265
p241
sg136
VZurich
p242
sssS'coordinates'
p243
NsS'timestamp_ms'
p244
g49
sS'quoted_status'
p245
g51
sS'source'
p246
VTwitter for iPhone
p247
sS'in_reply_to_screen_name'
p248
NsS'id_str'
p249
g195
sS'retweet_count'
p250
I0
sS'in_reply_to_user_id'
p251
NsS'favorited'
p252
I00
sS'source_url'
p253
Vhttp://twitter.com/download/iphone
p254
sS'user'
p255
g0
(ctweepy.models
User
p256
g2
Ntp257
Rp258
(dp259
S'follow_request_sent'
p260
NsS'profile_use_background_image'
p261
I00
sS'profile_sidebar_fill_color'
p262
g198
sg11
I28296260
sS'verified'
p263
I00
sS'profile_image_url_https'
p264
g197
sg35
g196
sS'contributors_enabled'
p265
I00
sS'profile_text_color'
p266
g199
sS'followers_count'
p267
I534
sS'profile_sidebar_border_color'
p268
g200
sS'location'
p269
g205
sS'default_profile_image'
p270
I00
sg249
g201
sS'utc_offset'
p271
I7200
sS'statuses_count'
p272
I16409
sS'description'
p273
g204
sS'friends_count'
p274
I210
sS'profile_link_color'
p275
g206
sS'profile_image_url'
p276
g207
sS'notifications'
p277
NsS'geo_enabled'
p278
I01
sS'profile_background_color'
p279
g202
sS'profile_background_image_url'
p280
g208
sS'name'
p281
g209
sS'lang'
p282
g210
sS'following'
p283
I00
sS'profile_background_tile'
p284
I00
sS'favourites_count'
p285
I236
sS'screen_name'
p286
g211
sS'url'
p287
g212
sS'created_at'
p288
cdatetime
datetime
p289
(S'\x07\xd9\x04\x02\x06.9\x00\x00\x00'
p290
tp291
Rp292
sS'profile_background_image_url_https'
p293
g203
sS'time_zone'
p294
g214
sS'protected'
p295
I00
sS'default_profile'
p296
I00
sS'is_translator'
p297
I00
sS'listed_count'
p298
I17
sbsS'geo'
p299
NsS'in_reply_to_user_id_str'
p300
NsS'possibly_sensitive'
p301
I00
sg282
g215
sg288
g289
(S'\x07\xdf\x07\n\x17!\x01\x00\x00\x00'
p302
tp303
Rp304
sS'author'
p305
g258
sS'quoted_status_id_str'
p306
g218
sS'filter_level'
p307
g219
sS'in_reply_to_status_id_str'
p308
NsS'place'
p309
g0
(ctweepy.models
Place
p310
g2
Ntp311
Rp312
(dp313
S'full_name'
p314
g222
sg287
g223
sS'country'
p315
g225
sS'place_type'
p316
g227
sS'bounding_box'
p317
g0
(ctweepy.models
BoundingBox
p318
g2
Ntp319
Rp320
(dp321
S'type'
p322
g230
sg243
g231
sbsS'country_code'
p323
g238
sS'attributes'
p324
g240
sg11
g241
sg281
g242
sbsS'retweeted'
p325
I00
sb.