ccopy_reg
_reconstructor
p0
(ctweepy.models
Status
p1
c__builtin__
object
p2
Ntp3
Rp4
(dp5
S'favorited'
p6
I00
sS'contributors'
p7
NsS'truncated'
p8
I00
sS'text'
p9
VThat guy @aeronoxio is truly inspiring! Tonight at the #Ethereum #Meetup at @Rackspace #Zurich. http://t.co/9frGlaYr9v
p10
sS'source_url'
p11
Vhttp://twitter.com/download/android
p12
sS'possibly_sensitive'
p13
I00
sS'in_reply_to_status_id'
p14
NsS'user'
p15
g0
(ctweepy.models
User
p16
g2
Ntp17
Rp18
(dp19
S'follow_request_sent'
p20
NsS'profile_use_background_image'
p21
I01
sS'profile_sidebar_fill_color'
p22
V252429
p23
sS'id'
p24
I875122621
sS'verified'
p25
I00
sS'profile_image_url_https'
p26
Vhttps://pbs.twimg.com/profile_images/592020846874632194/ElVidYhY_normal.jpg
p27
sS'_json'
p28
(dp29
Vfollow_request_sent
p30
NsVprofile_use_background_image
p31
I01
sVdefault_profile_image
p32
I00
sVid
p33
I875122621
sVverified
p34
I00
sVprofile_image_url_https
p35
g27
sVprofile_sidebar_fill_color
p36
g23
sVprofile_text_color
p37
V666666
p38
sVfollowers_count
p39
I1639
sVprofile_sidebar_border_color
p40
V181A1E
p41
sVid_str
p42
V875122621
p43
sVprofile_background_color
p44
V1A1B1F
p45
sVlisted_count
p46
I174
sVprofile_background_image_url_https
p47
Vhttps://abs.twimg.com/images/themes/theme9/bg.gif
p48
sVutc_offset
p49
I7200
sVstatuses_count
p50
I14314
sVdescription
p51
VSocial Transformation Catalyst - Ecomodernist - Banker. Energy & climate policies balancing economy & ecology. @EfH_CH
p52
sVfriends_count
p53
I1062
sVlocation
p54
VZurich - Switzerland
p55
sVprofile_link_color
p56
V2FC2EF
p57
sVprofile_image_url
p58
Vhttp://pbs.twimg.com/profile_images/592020846874632194/ElVidYhY_normal.jpg
p59
sVfollowing
p60
NsVgeo_enabled
p61
I01
sVprofile_banner_url
p62
Vhttps://pbs.twimg.com/profile_banners/875122621/1429388698
p63
sVprofile_background_image_url
p64
Vhttp://abs.twimg.com/images/themes/theme9/bg.gif
p65
sVname
p66
VUrs Bolt
p67
sVlang
p68
Ven
p69
sVprofile_background_tile
p70
I00
sVfavourites_count
p71
I35343
sVscreen_name
p72
VUrsBolt
p73
sVnotifications
p74
NsVurl
p75
Vhttp://linkedin.com/in/ursbolt/
p76
sVcreated_at
p77
VFri Oct 12 07:19:14 +0000 2012
p78
sVcontributors_enabled
p79
I00
sVtime_zone
p80
VBern
p81
sVprotected
p82
I00
sVdefault_profile
p83
I00
sVis_translator
p84
I00
ssS'contributors_enabled'
p85
I00
sS'profile_text_color'
p86
g38
sS'followers_count'
p87
I1639
sS'profile_sidebar_border_color'
p88
g41
sS'location'
p89
g55
sS'default_profile_image'
p90
I00
sS'id_str'
p91
g43
sS'utc_offset'
p92
I7200
sS'statuses_count'
p93
I14314
sS'description'
p94
g52
sS'friends_count'
p95
I1062
sS'profile_link_color'
p96
g57
sS'profile_image_url'
p97
g59
sS'notifications'
p98
NsS'geo_enabled'
p99
I01
sS'profile_background_color'
p100
g45
sS'profile_banner_url'
p101
g63
sS'profile_background_image_url'
p102
g65
sS'name'
p103
g67
sS'lang'
p104
g69
sS'following'
p105
I00
sS'profile_background_tile'
p106
I00
sS'favourites_count'
p107
I35343
sS'screen_name'
p108
g73
sS'url'
p109
g76
sS'created_at'
p110
cdatetime
datetime
p111
(S'\x07\xdc\n\x0c\x07\x13\x0e\x00\x00\x00'
p112
tp113
Rp114
sS'profile_background_image_url_https'
p115
g48
sS'time_zone'
p116
g81
sS'protected'
p117
I00
sS'default_profile'
p118
I00
sS'is_translator'
p119
I00
sS'listed_count'
p120
I174
sbsS'filter_level'
p121
Vlow
p122
sS'geo'
p123
Nsg24
I618873677405388800
sS'favorite_count'
p124
I0
sS'source'
p125
VTwitter for Android
p126
sg104
Ven
p127
sS'author'
p128
g18
sS'in_reply_to_user_id_str'
p129
Nsg28
(dp130
Vcontributors
p131
NsVtruncated
p132
I00
sVtext
p133
g10
sVin_reply_to_status_id
p134
Nsg33
I618873677405388800
sVfavorite_count
p135
I0
sVsource
p136
V<a href="http://twitter.com/download/android" rel="nofollow">Twitter for Android</a>
p137
sVretweeted
p138
I00
sVcoordinates
p139
NsVtimestamp_ms
p140
V1436385957467
p141
sVentities
p142
(dp143
Vsymbols
p144
(lp145
sVmedia
p146
(lp147
(dp148
Vexpanded_url
p149
Vhttp://twitter.com/UrsBolt/status/618873677405388800/photo/1
p150
sVdisplay_url
p151
Vpic.twitter.com/9frGlaYr9v
p152
sg75
Vhttp://t.co/9frGlaYr9v
p153
sVmedia_url_https
p154
Vhttps://pbs.twimg.com/media/CJauUpLWIAABYpS.jpg
p155
sg42
V618873668484079616
p156
sVsizes
p157
(dp158
Vsmall
p159
(dp160
Vh
p161
I520
sVresize
p162
Vfit
p163
sVw
p164
I340
ssVlarge
p165
(dp166
g161
I1024
sg162
Vfit
p167
sg164
I669
ssVmedium
p168
(dp169
g161
I918
sg162
Vfit
p170
sg164
I600
ssVthumb
p171
(dp172
g161
I150
sg162
Vcrop
p173
sg164
I150
sssVindices
p174
(lp175
I96
aI118
asVtype
p176
Vphoto
p177
sg33
I618873668484079616
sVmedia_url
p178
Vhttp://pbs.twimg.com/media/CJauUpLWIAABYpS.jpg
p179
sasVhashtags
p180
(lp181
(dp182
g174
(lp183
I55
aI64
asg133
VEthereum
p184
sa(dp185
g174
(lp186
I65
aI72
asg133
VMeetup
p187
sa(dp188
g174
(lp189
I87
aI94
asg133
VZurich
p190
sasVuser_mentions
p191
(lp192
(dp193
g33
I3184351119
sg174
(lp194
I9
aI19
asg42
V3184351119
p195
sg72
Vaeronoxio
p196
sg66
VAeron Buchanan
p197
sa(dp198
g33
I26191233
sg174
(lp199
I76
aI86
asg42
V26191233
p200
sg72
VRackspace
p201
sg66
VRackspace
p202
sasVtrends
p203
(lp204
sVurls
p205
(lp206
ssVin_reply_to_screen_name
p207
Nsg42
V618873677405388800
p208
sVretweet_count
p209
I0
sVin_reply_to_user_id
p210
NsVfavorited
p211
I00
sVuser
p212
g29
sVgeo
p213
NsVin_reply_to_user_id_str
p214
NsVpossibly_sensitive
p215
I00
sg68
g127
sg77
VWed Jul 08 20:05:57 +0000 2015
p216
sVfilter_level
p217
g122
sVin_reply_to_status_id_str
p218
NsVplace
p219
(dp220
Vfull_name
p221
VZurich, Switzerland
p222
sg75
Vhttps://api.twitter.com/1.1/geo/id/3acb748d0f1e9265.json
p223
sVcountry
p224
VSchweiz
p225
sVplace_type
p226
Vcity
p227
sVbounding_box
p228
(dp229
g176
VPolygon
p230
sg139
(lp231
(lp232
(lp233
F8.448081
aF47.320183
aa(lp234
F8.448081
aF47.434721
aa(lp235
F8.625442
aF47.434721
aa(lp236
F8.625442
aF47.320183
aaassVcountry_code
p237
VCH
p238
sVattributes
p239
(dp240
sg33
V3acb748d0f1e9265
p241
sg66
VZurich
p242
ssVextended_entities
p243
(dp244
g146
(lp245
(dp246
g149
Vhttp://twitter.com/UrsBolt/status/618873677405388800/photo/1
p247
sg151
Vpic.twitter.com/9frGlaYr9v
p248
sg75
Vhttp://t.co/9frGlaYr9v
p249
sg154
Vhttps://pbs.twimg.com/media/CJauUpLWIAABYpS.jpg
p250
sg42
V618873668484079616
p251
sg157
(dp252
g159
(dp253
g161
I520
sg162
Vfit
p254
sg164
I340
ssg165
(dp255
g161
I1024
sg162
Vfit
p256
sg164
I669
ssg168
(dp257
g161
I918
sg162
Vfit
p258
sg164
I600
ssg171
(dp259
g161
I150
sg162
Vcrop
p260
sg164
I150
sssg174
(lp261
I96
aI118
asg176
Vphoto
p262
sg33
I618873668484079616
sg178
Vhttp://pbs.twimg.com/media/CJauUpLWIAABYpS.jpg
p263
sasssS'coordinates'
p264
NsS'timestamp_ms'
p265
g141
sS'entities'
p266
g143
sS'in_reply_to_status_id_str'
p267
NsS'in_reply_to_screen_name'
p268
Nsg91
g208
sS'extended_entities'
p269
g244
sS'retweeted'
p270
I00
sS'place'
p271
g0
(ctweepy.models
Place
p272
g2
Ntp273
Rp274
(dp275
S'full_name'
p276
g222
sg109
g223
sS'country'
p277
g225
sS'place_type'
p278
g227
sS'bounding_box'
p279
g0
(ctweepy.models
BoundingBox
p280
g2
Ntp281
Rp282
(dp283
S'type'
p284
g230
sg264
g231
sbsS'country_code'
p285
g238
sS'attributes'
p286
g240
sg24
g241
sg103
g242
sbsS'retweet_count'
p287
I0
sg110
g111
(S'\x07\xdf\x07\x08\x14\x059\x00\x00\x00'
p288
tp289
Rp290
sS'in_reply_to_user_id'
p291
Nsb.