ccopy_reg
_reconstructor
p0
(ctweepy.models
Status
p1
c__builtin__
object
p2
Ntp3
Rp4
(dp5
S'contributors'
p6
NsS'truncated'
p7
I00
sS'text'
p8
VGreen healthy food \U0001f603 https://t.co/7VlMPK1Wo5
p9
sS'in_reply_to_status_id'
p10
NsS'id'
p11
I620996884430221312
sS'favorite_count'
p12
I0
sS'entities'
p13
(dp14
Vuser_mentions
p15
(lp16
sVsymbols
p17
(lp18
sVtrends
p19
(lp20
sVhashtags
p21
(lp22
sVurls
p23
(lp24
(dp25
Vurl
p26
Vhttps://t.co/7VlMPK1Wo5
p27
sVindices
p28
(lp29
I21
aI44
asVexpanded_url
p30
Vhttps://twitter.com/wellandgoodnyc/status/620996693153034240
p31
sVdisplay_url
p32
Vtwitter.com/wellandgoodnyc\u2026
p33
sassS'quoted_status_id'
p34
I620996693153034240
sS'_json'
p35
(dp36
Vcontributors
p37
NsVtruncated
p38
I00
sVtext
p39
g9
sVin_reply_to_status_id
p40
NsVid
p41
I620996884430221312
sVfavorite_count
p42
I0
sVsource
p43
V<a href="http://twitter.com/download/iphone" rel="nofollow">Twitter for iPhone</a>
p44
sVquoted_status_id
p45
I620996693153034240
sVretweeted
p46
I00
sVcoordinates
p47
NsVtimestamp_ms
p48
V1436892169469
p49
sVquoted_status
p50
(dp51
g37
Nsg38
I00
sg39
VThe Lean &amp; Green juice that helps @FitLifeTV\u2019s @drewcanole keep his health\u2014and gut\u2014in check: http://t.co/AbulPPJJRq http://t.co/pakBGgXHM5
p52
sg40
Nsg41
I620996693153034240
sg42
I0
sg43
V<a href="https://about.twitter.com/products/tweetdeck" rel="nofollow">TweetDeck</a>
p53
sg46
I00
sg47
NsVentities
p54
(dp55
g17
(lp56
sVmedia
p57
(lp58
(dp59
g30
Vhttp://twitter.com/WellandGoodNYC/status/620996693153034240/photo/1
p60
sg32
Vpic.twitter.com/pakBGgXHM5
p61
sg26
Vhttp://t.co/pakBGgXHM5
p62
sVmedia_url_https
p63
Vhttps://pbs.twimg.com/media/CJ4ZSmDUkAAM01U.jpg
p64
sVid_str
p65
V620961605866524672
p66
sVsizes
p67
(dp68
Vsmall
p69
(dp70
Vh
p71
I255
sVresize
p72
Vfit
p73
sVw
p74
I340
ssVlarge
p75
(dp76
g71
I525
sg72
Vfit
p77
sg74
I700
ssVmedium
p78
(dp79
g71
I450
sg72
Vfit
p80
sg74
I600
ssVthumb
p81
(dp82
g71
I150
sg72
Vcrop
p83
sg74
I150
sssg28
(lp84
I120
aI142
asVtype
p85
Vphoto
p86
sg41
I620961605866524672
sVmedia_url
p87
Vhttp://pbs.twimg.com/media/CJ4ZSmDUkAAM01U.jpg
p88
sasg21
(lp89
sg15
(lp90
(dp91
g41
I185379193
sg28
(lp92
I38
aI48
asg65
V185379193
p93
sVscreen_name
p94
VFitLifeTV
p95
sVname
p96
VFitLife.tv
p97
sa(dp98
g41
I22522526
sg28
(lp99
I51
aI62
asg65
V22522526
p100
sg94
Vdrewcanole
p101
sg96
VDrew Canole
p102
sasg19
(lp103
sg23
(lp104
(dp105
g26
Vhttp://t.co/AbulPPJJRq
p106
sg28
(lp107
I97
aI119
asg30
Vhttp://bit.ly/1fFoyLf
p108
sg32
Vbit.ly/1fFoyLf
p109
sassVin_reply_to_screen_name
p110
Nsg65
V620996693153034240
p111
sVretweet_count
p112
I0
sVin_reply_to_user_id
p113
NsVfavorited
p114
I00
sVuser
p115
(dp116
Vfollow_request_sent
p117
NsVprofile_use_background_image
p118
I01
sVdefault_profile_image
p119
I00
sg41
I50292966
sVverified
p120
I00
sVprofile_image_url_https
p121
Vhttps://pbs.twimg.com/profile_images/378800000596600151/904a1967bec8b8bb4c00cded7cc74eac_normal.jpeg
p122
sVprofile_sidebar_fill_color
p123
VDDEEF6
p124
sVprofile_text_color
p125
V333333
p126
sVfollowers_count
p127
I53862
sVprofile_sidebar_border_color
p128
VFFFFFF
p129
sg65
V50292966
p130
sVprofile_background_color
p131
VC0DEED
p132
sVlisted_count
p133
I1124
sVprofile_background_image_url_https
p134
Vhttps://pbs.twimg.com/profile_background_images/441977085335072769/9NLFop76.jpeg
p135
sVutc_offset
p136
I-14400
sVstatuses_count
p137
I22331
sVdescription
p138
VWell+Good is your healthiest relationship. We obsessively cover the wellness scene \u2014fitness, superfoods, natural beauty, and more\u2014from coast to coast.
p139
sVfriends_count
p140
I1685
sVlocation
p141
VNew York and Los Angeles
p142
sVprofile_link_color
p143
V0084B4
p144
sVprofile_image_url
p145
Vhttp://pbs.twimg.com/profile_images/378800000596600151/904a1967bec8b8bb4c00cded7cc74eac_normal.jpeg
p146
sVfollowing
p147
NsVgeo_enabled
p148
I01
sVprofile_banner_url
p149
Vhttps://pbs.twimg.com/profile_banners/50292966/1414011540
p150
sVprofile_background_image_url
p151
Vhttp://pbs.twimg.com/profile_background_images/441977085335072769/9NLFop76.jpeg
p152
sg96
VWell + Good
p153
sVlang
p154
Ven
p155
sVprofile_background_tile
p156
I01
sVfavourites_count
p157
I1659
sg94
VWellandGoodNYC
p158
sVnotifications
p159
Nsg26
Vhttp://www.WellandGood.com
p160
sVcreated_at
p161
VWed Jun 24 12:39:58 +0000 2009
p162
sVcontributors_enabled
p163
I00
sVtime_zone
p164
VEastern Time (US & Canada)
p165
sVprotected
p166
I00
sVdefault_profile
p167
I00
sVis_translator
p168
I00
ssVgeo
p169
NsVin_reply_to_user_id_str
p170
NsVpossibly_sensitive
p171
I00
sg154
Ven
p172
sg161
VTue Jul 14 16:42:03 +0000 2015
p173
sVfilter_level
p174
Vlow
p175
sVin_reply_to_status_id_str
p176
NsVplace
p177
NsVextended_entities
p178
(dp179
g57
(lp180
(dp181
g30
Vhttp://twitter.com/WellandGoodNYC/status/620996693153034240/photo/1
p182
sg32
Vpic.twitter.com/pakBGgXHM5
p183
sg26
Vhttp://t.co/pakBGgXHM5
p184
sg63
Vhttps://pbs.twimg.com/media/CJ4ZSmDUkAAM01U.jpg
p185
sg65
V620961605866524672
p186
sg67
(dp187
g69
(dp188
g71
I255
sg72
Vfit
p189
sg74
I340
ssg75
(dp190
g71
I525
sg72
Vfit
p191
sg74
I700
ssg78
(dp192
g71
I450
sg72
Vfit
p193
sg74
I600
ssg81
(dp194
g71
I150
sg72
Vcrop
p195
sg74
I150
sssg28
(lp196
I120
aI142
asg85
Vphoto
p197
sg41
I620961605866524672
sg87
Vhttp://pbs.twimg.com/media/CJ4ZSmDUkAAM01U.jpg
p198
sasssg54
g14
sg110
Nsg65
V620996884430221312
p199
sg112
I0
sg113
Nsg114
I00
sg115
(dp200
g117
Nsg118
I00
sg119
I00
sg41
I93762339
sg120
I00
sg121
Vhttps://pbs.twimg.com/profile_images/615072536619974656/LNETfB1Y_normal.jpg
p201
sg123
V252429
p202
sg125
V666666
p203
sg127
I1153
sg128
VFFFFFF
p204
sg65
V93762339
p205
sg131
VF5F7FA
p206
sg133
I66
sg134
Vhttps://pbs.twimg.com/profile_background_images/595570234192306176/zdw1IE1s.jpg
p207
sg136
I7200
sg137
I20961
sg138
VA daily review of travel ideas, trends and lifestyle goodies. A lifestyle blog that wants to me you smile ..
p208
sg140
I1679
sg141
VZurich -Switzerland 
p209
sg143
V69E7F0
p210
sg145
Vhttp://pbs.twimg.com/profile_images/615072536619974656/LNETfB1Y_normal.jpg
p211
sg147
Nsg148
I01
sg149
Vhttps://pbs.twimg.com/profile_banners/93762339/1435395069
p212
sg151
Vhttp://pbs.twimg.com/profile_background_images/595570234192306176/zdw1IE1s.jpg
p213
sg96
VHDL Lifestyle Blog
p214
sg154
Ven
p215
sg156
I00
sg157
I862
sg94
Vhuellasdluzblog
p216
sg159
Nsg26
Vhttp://www.huellasdeluzblog.com
p217
sg161
VTue Dec 01 01:46:57 +0000 2009
p218
sg163
I00
sg164
VBern
p219
sg166
I00
sg167
I00
sg168
I00
ssg169
Nsg170
Nsg171
I00
sg154
Ven
p220
sg161
VTue Jul 14 16:42:49 +0000 2015
p221
sVquoted_status_id_str
p222
V620996693153034240
p223
sg174
Vlow
p224
sg176
Nsg177
(dp225
Vfull_name
p226
VZurich, Switzerland
p227
sg26
Vhttps://api.twitter.com/1.1/geo/id/db94c1cccc67c4f4.json
p228
sVcountry
p229
VSchweiz
p230
sVplace_type
p231
Vadmin
p232
sVbounding_box
p233
(dp234
g85
VPolygon
p235
sg47
(lp236
(lp237
(lp238
F8.357749
aF47.159384
aa(lp239
F8.357749
aF47.694503
aa(lp240
F8.984445
aF47.694503
aa(lp241
F8.984445
aF47.159384
aaassVcountry_code
p242
VCH
p243
sVattributes
p244
(dp245
sg41
Vdb94c1cccc67c4f4
p246
sg96
VZurich
p247
sssS'coordinates'
p248
NsS'timestamp_ms'
p249
g49
sS'quoted_status'
p250
g51
sS'source'
p251
VTwitter for iPhone
p252
sS'in_reply_to_screen_name'
p253
NsS'id_str'
p254
g199
sS'retweet_count'
p255
I0
sS'in_reply_to_user_id'
p256
NsS'favorited'
p257
I00
sS'source_url'
p258
Vhttp://twitter.com/download/iphone
p259
sS'user'
p260
g0
(ctweepy.models
User
p261
g2
Ntp262
Rp263
(dp264
S'follow_request_sent'
p265
NsS'profile_use_background_image'
p266
I00
sS'profile_sidebar_fill_color'
p267
g202
sg11
I93762339
sS'verified'
p268
I00
sS'profile_image_url_https'
p269
g201
sg35
g200
sS'contributors_enabled'
p270
I00
sS'profile_text_color'
p271
g203
sS'followers_count'
p272
I1153
sS'profile_sidebar_border_color'
p273
g204
sS'location'
p274
g209
sS'default_profile_image'
p275
I00
sg254
g205
sS'utc_offset'
p276
I7200
sS'statuses_count'
p277
I20961
sS'description'
p278
g208
sS'friends_count'
p279
I1679
sS'profile_link_color'
p280
g210
sS'profile_image_url'
p281
g211
sS'notifications'
p282
NsS'geo_enabled'
p283
I01
sS'profile_background_color'
p284
g206
sS'profile_banner_url'
p285
g212
sS'profile_background_image_url'
p286
g213
sS'name'
p287
g214
sS'lang'
p288
g215
sS'following'
p289
I00
sS'profile_background_tile'
p290
I00
sS'favourites_count'
p291
I862
sS'screen_name'
p292
g216
sS'url'
p293
g217
sS'created_at'
p294
cdatetime
datetime
p295
(S'\x07\xd9\x0c\x01\x01.9\x00\x00\x00'
p296
tp297
Rp298
sS'profile_background_image_url_https'
p299
g207
sS'time_zone'
p300
g219
sS'protected'
p301
I00
sS'default_profile'
p302
I00
sS'is_translator'
p303
I00
sS'listed_count'
p304
I66
sbsS'geo'
p305
NsS'in_reply_to_user_id_str'
p306
NsS'possibly_sensitive'
p307
I00
sg288
g220
sg294
g295
(S'\x07\xdf\x07\x0e\x10*1\x00\x00\x00'
p308
tp309
Rp310
sS'author'
p311
g263
sS'quoted_status_id_str'
p312
g223
sS'filter_level'
p313
g224
sS'in_reply_to_status_id_str'
p314
NsS'place'
p315
g0
(ctweepy.models
Place
p316
g2
Ntp317
Rp318
(dp319
S'full_name'
p320
g227
sg293
g228
sS'country'
p321
g230
sS'place_type'
p322
g232
sS'bounding_box'
p323
g0
(ctweepy.models
BoundingBox
p324
g2
Ntp325
Rp326
(dp327
S'type'
p328
g235
sg248
g236
sbsS'country_code'
p329
g243
sS'attributes'
p330
g245
sg11
g246
sg287
g247
sbsS'retweeted'
p331
I00
sb.