ccopy_reg
_reconstructor
p0
(ctweepy.models
Status
p1
c__builtin__
object
p2
Ntp3
Rp4
(dp5
S'favorited'
p6
I00
sS'contributors'
p7
NsS'truncated'
p8
I00
sS'text'
p9
V@Okeating Viagra Should Sponsor Murray,,\u000aHe Don't Get No Further Than a Semi.? Sorry \U0001f633
p10
sS'source_url'
p11
Vhttp://twitter.com
p12
sS'possibly_sensitive'
p13
I00
sS'in_reply_to_status_id'
p14
I619560040018640896
sS'user'
p15
g0
(ctweepy.models
User
p16
g2
Ntp17
Rp18
(dp19
S'follow_request_sent'
p20
NsS'profile_use_background_image'
p21
I01
sS'profile_sidebar_fill_color'
p22
VDDEEF6
p23
sS'id'
p24
I74424395
sS'verified'
p25
I00
sS'profile_image_url_https'
p26
Vhttps://pbs.twimg.com/profile_images/378800000034592130/47927e1ba62076a19094366074e52aa5_normal.jpeg
p27
sS'_json'
p28
(dp29
Vfollow_request_sent
p30
NsVprofile_use_background_image
p31
I01
sVdefault_profile_image
p32
I00
sVid
p33
I74424395
sVverified
p34
I00
sVprofile_image_url_https
p35
g27
sVprofile_sidebar_fill_color
p36
g23
sVprofile_text_color
p37
V333333
p38
sVfollowers_count
p39
I1083
sVprofile_sidebar_border_color
p40
VC0DEED
p41
sVid_str
p42
V74424395
p43
sVprofile_background_color
p44
VC0DEED
p45
sVlisted_count
p46
I7
sVprofile_background_image_url_https
p47
Vhttps://abs.twimg.com/images/themes/theme1/bg.png
p48
sVutc_offset
p49
I7200
sVstatuses_count
p50
I12301
sVdescription
p51
VDonny lad dragged to Switzerland 14 years ago, still loving the owls from afar. Massive back where they belong soon rather than later wawaw
p52
sVfriends_count
p53
I1166
sVlocation
p54
VSwitzerland
p55
sVprofile_link_color
p56
V0084B4
p57
sVprofile_image_url
p58
Vhttp://pbs.twimg.com/profile_images/378800000034592130/47927e1ba62076a19094366074e52aa5_normal.jpeg
p59
sVfollowing
p60
NsVgeo_enabled
p61
I01
sVprofile_banner_url
p62
Vhttps://pbs.twimg.com/profile_banners/74424395/1397376932
p63
sVprofile_background_image_url
p64
Vhttp://abs.twimg.com/images/themes/theme1/bg.png
p65
sVname
p66
VSwissowls
p67
sVlang
p68
Ven
p69
sVprofile_background_tile
p70
I00
sVfavourites_count
p71
I11756
sVscreen_name
p72
Vbadendido
p73
sVnotifications
p74
NsVurl
p75
NsVcreated_at
p76
VTue Sep 15 11:30:41 +0000 2009
p77
sVcontributors_enabled
p78
I00
sVtime_zone
p79
VBern
p80
sVprotected
p81
I00
sVdefault_profile
p82
I01
sVis_translator
p83
I00
ssS'contributors_enabled'
p84
I00
sS'profile_text_color'
p85
g38
sS'followers_count'
p86
I1083
sS'profile_sidebar_border_color'
p87
g41
sS'location'
p88
g55
sS'default_profile_image'
p89
I00
sS'id_str'
p90
g43
sS'utc_offset'
p91
I7200
sS'statuses_count'
p92
I12301
sS'description'
p93
g52
sS'friends_count'
p94
I1166
sS'profile_link_color'
p95
g57
sS'profile_image_url'
p96
g59
sS'notifications'
p97
NsS'geo_enabled'
p98
I01
sS'profile_background_color'
p99
g45
sS'profile_banner_url'
p100
g63
sS'profile_background_image_url'
p101
g65
sS'name'
p102
g67
sS'lang'
p103
g69
sS'following'
p104
I00
sS'profile_background_tile'
p105
I00
sS'favourites_count'
p106
I11756
sS'screen_name'
p107
g73
sS'url'
p108
NsS'created_at'
p109
cdatetime
datetime
p110
(S'\x07\xd9\t\x0f\x0b\x1e)\x00\x00\x00'
p111
tp112
Rp113
sS'profile_background_image_url_https'
p114
g48
sS'time_zone'
p115
g80
sS'protected'
p116
I00
sS'default_profile'
p117
I01
sS'is_translator'
p118
I00
sS'listed_count'
p119
I7
sbsS'filter_level'
p120
Vlow
p121
sS'geo'
p122
Nsg24
I619560277277851648
sS'favorite_count'
p123
I0
sS'source'
p124
VTwitter Web Client
p125
sg103
Ven
p126
sS'author'
p127
g18
sS'in_reply_to_user_id_str'
p128
V83100594
p129
sg28
(dp130
Vcontributors
p131
NsVtruncated
p132
I00
sVtext
p133
V@Okeating Viagra Should Sponsor Murray,,\u000aHe Don't Get No Further Than a Semi.? Sorry \U0001f633
p134
sVin_reply_to_status_id
p135
I619560040018640896
sg33
I619560277277851648
sVfavorite_count
p136
I0
sVsource
p137
V<a href="http://twitter.com" rel="nofollow">Twitter Web Client</a>
p138
sVretweeted
p139
I00
sVcoordinates
p140
NsVtimestamp_ms
p141
V1436549655633
p142
sVentities
p143
(dp144
Vuser_mentions
p145
(lp146
(dp147
g33
I83100594
sVindices
p148
(lp149
I0
aI9
asg42
V83100594
p150
sg72
VOkeating
p151
sg66
VOonagh
p152
sasVsymbols
p153
(lp154
sVtrends
p155
(lp156
sVhashtags
p157
(lp158
sVurls
p159
(lp160
ssVin_reply_to_screen_name
p161
VOkeating
p162
sg42
V619560277277851648
p163
sVretweet_count
p164
I0
sVin_reply_to_user_id
p165
I83100594
sVfavorited
p166
I00
sVuser
p167
g29
sVgeo
p168
NsVin_reply_to_user_id_str
p169
g129
sVpossibly_sensitive
p170
I00
sg68
g126
sg76
VFri Jul 10 17:34:15 +0000 2015
p171
sVfilter_level
p172
g121
sVin_reply_to_status_id_str
p173
V619560040018640896
p174
sVplace
p175
(dp176
Vfull_name
p177
VZurich, Switzerland
p178
sg75
Vhttps://api.twitter.com/1.1/geo/id/3acb748d0f1e9265.json
p179
sVcountry
p180
VSchweiz
p181
sVplace_type
p182
Vcity
p183
sVbounding_box
p184
(dp185
Vtype
p186
VPolygon
p187
sg140
(lp188
(lp189
(lp190
F8.448081
aF47.320183
aa(lp191
F8.448081
aF47.434721
aa(lp192
F8.625442
aF47.434721
aa(lp193
F8.625442
aF47.320183
aaassVcountry_code
p194
VCH
p195
sVattributes
p196
(dp197
sg33
V3acb748d0f1e9265
p198
sg66
VZurich
p199
sssS'coordinates'
p200
NsS'timestamp_ms'
p201
g142
sS'entities'
p202
g144
sS'in_reply_to_status_id_str'
p203
g174
sS'in_reply_to_screen_name'
p204
g162
sg90
g163
sS'retweeted'
p205
I00
sS'place'
p206
g0
(ctweepy.models
Place
p207
g2
Ntp208
Rp209
(dp210
S'full_name'
p211
g178
sg108
g179
sS'country'
p212
g181
sS'place_type'
p213
g183
sS'bounding_box'
p214
g0
(ctweepy.models
BoundingBox
p215
g2
Ntp216
Rp217
(dp218
S'type'
p219
g187
sg200
g188
sbsS'country_code'
p220
g195
sS'attributes'
p221
g197
sg24
g198
sg102
g199
sbsS'retweet_count'
p222
I0
sg109
g110
(S'\x07\xdf\x07\n\x11"\x0f\x00\x00\x00'
p223
tp224
Rp225
sS'in_reply_to_user_id'
p226
I83100594
sb.