ccopy_reg
_reconstructor
p0
(ctweepy.models
Status
p1
c__builtin__
object
p2
Ntp3
Rp4
(dp5
S'favorited'
p6
I00
sS'contributors'
p7
NsS'truncated'
p8
I00
sS'text'
p9
VUrban cliff jumping!  #adventure #summer #Zurich #urbanadventure #roadtrip #wheresmyofficenow http://t.co/jaC4rcspE9
p10
sS'source_url'
p11
Vhttp://twitter.com
p12
sS'possibly_sensitive'
p13
I00
sS'in_reply_to_status_id'
p14
NsS'user'
p15
g0
(ctweepy.models
User
p16
g2
Ntp17
Rp18
(dp19
S'follow_request_sent'
p20
NsS'profile_use_background_image'
p21
I01
sS'profile_sidebar_fill_color'
p22
VE8E5E8
p23
sS'id'
p24
I191077712
sS'verified'
p25
I00
sS'profile_image_url_https'
p26
Vhttps://pbs.twimg.com/profile_images/378800000368333935/0b60a6cb62bd3c01b22356cbbcd1fcc4_normal.jpeg
p27
sS'_json'
p28
(dp29
Vfollow_request_sent
p30
NsVprofile_use_background_image
p31
I01
sVdefault_profile_image
p32
I00
sVid
p33
I191077712
sVverified
p34
I00
sVprofile_image_url_https
p35
g27
sVprofile_sidebar_fill_color
p36
g23
sVprofile_text_color
p37
V050505
p38
sVfollowers_count
p39
I287
sVprofile_sidebar_border_color
p40
V0A0A0A
p41
sVid_str
p42
V191077712
p43
sVprofile_background_color
p44
V1A1B1F
p45
sVlisted_count
p46
I21
sVprofile_background_image_url_https
p47
Vhttps://pbs.twimg.com/profile_background_images/200076182/pattern7.png
p48
sVutc_offset
p49
NsVstatuses_count
p50
I857
sVdescription
p51
VI'm a #realisticdreamer... a VW bus owner... and an interaction designer at @Youtube (@Google), previously Lead UX Designer on @WordsWFriends @Zynga.
p52
sVfriends_count
p53
I234
sVlocation
p54
VSan Francisco, CA
p55
sVprofile_link_color
p56
V0C9FE3
p57
sVprofile_image_url
p58
Vhttp://pbs.twimg.com/profile_images/378800000368333935/0b60a6cb62bd3c01b22356cbbcd1fcc4_normal.jpeg
p59
sVfollowing
p60
NsVgeo_enabled
p61
I01
sVprofile_banner_url
p62
Vhttps://pbs.twimg.com/profile_banners/191077712/1425969540
p63
sVprofile_background_image_url
p64
Vhttp://pbs.twimg.com/profile_background_images/200076182/pattern7.png
p65
sVname
p66
VWhitney Taylor
p67
sVlang
p68
Ven
p69
sVprofile_background_tile
p70
I01
sVfavourites_count
p71
I63
sVscreen_name
p72
Vwtaylordesign
p73
sVnotifications
p74
NsVurl
p75
Vhttp://xcentricdesign.com
p76
sVcreated_at
p77
VWed Sep 15 15:15:43 +0000 2010
p78
sVcontributors_enabled
p79
I00
sVtime_zone
p80
NsVprotected
p81
I00
sVdefault_profile
p82
I00
sVis_translator
p83
I00
ssS'contributors_enabled'
p84
I00
sS'profile_text_color'
p85
g38
sS'followers_count'
p86
I287
sS'profile_sidebar_border_color'
p87
g41
sS'location'
p88
g55
sS'default_profile_image'
p89
I00
sS'id_str'
p90
g43
sS'utc_offset'
p91
NsS'statuses_count'
p92
I857
sS'description'
p93
g52
sS'friends_count'
p94
I234
sS'profile_link_color'
p95
g57
sS'profile_image_url'
p96
g59
sS'notifications'
p97
NsS'geo_enabled'
p98
I01
sS'profile_background_color'
p99
g45
sS'profile_banner_url'
p100
g63
sS'profile_background_image_url'
p101
g65
sS'name'
p102
g67
sS'lang'
p103
g69
sS'following'
p104
I00
sS'profile_background_tile'
p105
I01
sS'favourites_count'
p106
I63
sS'screen_name'
p107
g73
sS'url'
p108
g76
sS'created_at'
p109
cdatetime
datetime
p110
(S'\x07\xda\t\x0f\x0f\x0f+\x00\x00\x00'
p111
tp112
Rp113
sS'profile_background_image_url_https'
p114
g48
sS'time_zone'
p115
NsS'protected'
p116
I00
sS'default_profile'
p117
I00
sS'is_translator'
p118
I00
sS'listed_count'
p119
I21
sbsS'filter_level'
p120
Vlow
p121
sS'geo'
p122
Nsg24
I618759860478443520
sS'favorite_count'
p123
I0
sS'source'
p124
VTwitter Web Client
p125
sg103
Ven
p126
sS'author'
p127
g18
sS'in_reply_to_user_id_str'
p128
Nsg28
(dp129
Vcontributors
p130
NsVtruncated
p131
I00
sVtext
p132
g10
sVin_reply_to_status_id
p133
Nsg33
I618759860478443520
sVfavorite_count
p134
I0
sVsource
p135
V<a href="http://twitter.com" rel="nofollow">Twitter Web Client</a>
p136
sVretweeted
p137
I00
sVcoordinates
p138
NsVtimestamp_ms
p139
V1436358821397
p140
sVentities
p141
(dp142
Vsymbols
p143
(lp144
sVmedia
p145
(lp146
(dp147
Vexpanded_url
p148
Vhttp://twitter.com/wtaylordesign/status/618759860478443520/photo/1
p149
sVdisplay_url
p150
Vpic.twitter.com/jaC4rcspE9
p151
sg75
Vhttp://t.co/jaC4rcspE9
p152
sVmedia_url_https
p153
Vhttps://pbs.twimg.com/media/CJZG0FaW8AAUMvG.jpg
p154
sg42
V618759859429896192
p155
sVsizes
p156
(dp157
Vsmall
p158
(dp159
Vh
p160
I453
sVresize
p161
Vfit
p162
sVw
p163
I340
ssVlarge
p164
(dp165
g160
I960
sg161
Vfit
p166
sg163
I720
ssVmedium
p167
(dp168
g160
I800
sg161
Vfit
p169
sg163
I600
ssVthumb
p170
(dp171
g160
I150
sg161
Vcrop
p172
sg163
I150
sssVindices
p173
(lp174
I94
aI116
asVtype
p175
Vphoto
p176
sg33
I618759859429896192
sVmedia_url
p177
Vhttp://pbs.twimg.com/media/CJZG0FaW8AAUMvG.jpg
p178
sasVhashtags
p179
(lp180
(dp181
g173
(lp182
I22
aI32
asg132
Vadventure
p183
sa(dp184
g173
(lp185
I33
aI40
asg132
Vsummer
p186
sa(dp187
g173
(lp188
I41
aI48
asg132
VZurich
p189
sa(dp190
g173
(lp191
I49
aI64
asg132
Vurbanadventure
p192
sa(dp193
g173
(lp194
I65
aI74
asg132
Vroadtrip
p195
sa(dp196
g173
(lp197
I75
aI93
asg132
Vwheresmyofficenow
p198
sasVuser_mentions
p199
(lp200
sVtrends
p201
(lp202
sVurls
p203
(lp204
ssVin_reply_to_screen_name
p205
Nsg42
V618759860478443520
p206
sVretweet_count
p207
I0
sVin_reply_to_user_id
p208
NsVfavorited
p209
I00
sVuser
p210
g29
sVgeo
p211
NsVin_reply_to_user_id_str
p212
NsVpossibly_sensitive
p213
I00
sg68
g126
sg77
VWed Jul 08 12:33:41 +0000 2015
p214
sVfilter_level
p215
g121
sVin_reply_to_status_id_str
p216
NsVplace
p217
(dp218
Vfull_name
p219
VZurich, Switzerland
p220
sg75
Vhttps://api.twitter.com/1.1/geo/id/3acb748d0f1e9265.json
p221
sVcountry
p222
VSchweiz
p223
sVplace_type
p224
Vcity
p225
sVbounding_box
p226
(dp227
g175
VPolygon
p228
sg138
(lp229
(lp230
(lp231
F8.448081
aF47.320183
aa(lp232
F8.448081
aF47.434721
aa(lp233
F8.625442
aF47.434721
aa(lp234
F8.625442
aF47.320183
aaassVcountry_code
p235
VCH
p236
sVattributes
p237
(dp238
sg33
V3acb748d0f1e9265
p239
sg66
VZurich
p240
ssVextended_entities
p241
(dp242
g145
(lp243
(dp244
g148
Vhttp://twitter.com/wtaylordesign/status/618759860478443520/photo/1
p245
sg150
Vpic.twitter.com/jaC4rcspE9
p246
sg75
Vhttp://t.co/jaC4rcspE9
p247
sg153
Vhttps://pbs.twimg.com/media/CJZG0FaW8AAUMvG.jpg
p248
sg42
V618759859429896192
p249
sg156
(dp250
g158
(dp251
g160
I453
sg161
Vfit
p252
sg163
I340
ssg164
(dp253
g160
I960
sg161
Vfit
p254
sg163
I720
ssg167
(dp255
g160
I800
sg161
Vfit
p256
sg163
I600
ssg170
(dp257
g160
I150
sg161
Vcrop
p258
sg163
I150
sssg173
(lp259
I94
aI116
asg175
Vphoto
p260
sg33
I618759859429896192
sg177
Vhttp://pbs.twimg.com/media/CJZG0FaW8AAUMvG.jpg
p261
sa(dp262
g148
Vhttp://twitter.com/wtaylordesign/status/618759860478443520/photo/1
p263
sg150
Vpic.twitter.com/jaC4rcspE9
p264
sg75
Vhttp://t.co/jaC4rcspE9
p265
sg153
Vhttps://pbs.twimg.com/media/CJZG0GJWIAAtIE2.jpg
p266
sg42
V618759859626975232
p267
sg156
(dp268
g158
(dp269
g160
I453
sg161
Vfit
p270
sg163
I340
ssg164
(dp271
g160
I960
sg161
Vfit
p272
sg163
I720
ssg167
(dp273
g160
I800
sg161
Vfit
p274
sg163
I600
ssg170
(dp275
g160
I150
sg161
Vcrop
p276
sg163
I150
sssg173
(lp277
I94
aI116
asg175
Vphoto
p278
sg33
I618759859626975232
sg177
Vhttp://pbs.twimg.com/media/CJZG0GJWIAAtIE2.jpg
p279
sasssS'coordinates'
p280
NsS'timestamp_ms'
p281
g140
sS'entities'
p282
g142
sS'in_reply_to_status_id_str'
p283
NsS'in_reply_to_screen_name'
p284
Nsg90
g206
sS'extended_entities'
p285
g242
sS'retweeted'
p286
I00
sS'place'
p287
g0
(ctweepy.models
Place
p288
g2
Ntp289
Rp290
(dp291
S'full_name'
p292
g220
sg108
g221
sS'country'
p293
g223
sS'place_type'
p294
g225
sS'bounding_box'
p295
g0
(ctweepy.models
BoundingBox
p296
g2
Ntp297
Rp298
(dp299
S'type'
p300
g228
sg280
g229
sbsS'country_code'
p301
g236
sS'attributes'
p302
g238
sg24
g239
sg102
g240
sbsS'retweet_count'
p303
I0
sg109
g110
(S'\x07\xdf\x07\x08\x0c!)\x00\x00\x00'
p304
tp305
Rp306
sS'in_reply_to_user_id'
p307
Nsb.