ccopy_reg
_reconstructor
p0
(ctweepy.models
Status
p1
c__builtin__
object
p2
Ntp3
Rp4
(dp5
S'favorited'
p6
I00
sS'contributors'
p7
NsS'truncated'
p8
I00
sS'text'
p9
V@arjunm example http://t.co/rcDhCWVVrh for Bitcoin space.
p10
sS'source_url'
p11
Vhttp://twitter.com
p12
sS'possibly_sensitive'
p13
I00
sS'in_reply_to_status_id'
p14
I620235951672049664
sS'user'
p15
g0
(ctweepy.models
User
p16
g2
Ntp17
Rp18
(dp19
S'follow_request_sent'
p20
NsS'profile_use_background_image'
p21
I01
sS'profile_sidebar_fill_color'
p22
VFFFFFF
p23
sS'id'
p24
I17085651
sS'verified'
p25
I00
sS'profile_image_url_https'
p26
Vhttps://pbs.twimg.com/profile_images/3684710142/b9dbd186ef040d0a2e6f23ee315653b2_normal.jpeg
p27
sS'_json'
p28
(dp29
Vfollow_request_sent
p30
NsVprofile_use_background_image
p31
I01
sVdefault_profile_image
p32
I00
sVid
p33
I17085651
sVverified
p34
I00
sVprofile_image_url_https
p35
g27
sVprofile_sidebar_fill_color
p36
g23
sVprofile_text_color
p37
V333333
p38
sVfollowers_count
p39
I847
sVprofile_sidebar_border_color
p40
VEEEEEE
p41
sVid_str
p42
V17085651
p43
sVprofile_background_color
p44
VB2DFDA
p45
sVlisted_count
p46
I55
sVprofile_background_image_url_https
p47
Vhttps://abs.twimg.com/images/themes/theme13/bg.gif
p48
sVutc_offset
p49
I7200
sVstatuses_count
p50
I8741
sVdescription
p51
Vfull stack developer.  passionate about crypto, e-sport and open source.
p52
sVfriends_count
p53
I229
sVlocation
p54
VZurich
p55
sVprofile_link_color
p56
V93A644
p57
sVprofile_image_url
p58
Vhttp://pbs.twimg.com/profile_images/3684710142/b9dbd186ef040d0a2e6f23ee315653b2_normal.jpeg
p59
sVfollowing
p60
NsVgeo_enabled
p61
I01
sVprofile_banner_url
p62
Vhttps://pbs.twimg.com/profile_banners/17085651/1416930582
p63
sVprofile_background_image_url
p64
Vhttp://abs.twimg.com/images/themes/theme13/bg.gif
p65
sVname
p66
VPatryk Zabicki
p67
sVlang
p68
Ven
p69
sVprofile_background_tile
p70
I00
sVfavourites_count
p71
I1125
sVscreen_name
p72
Vpaddyzab
p73
sVnotifications
p74
NsVurl
p75
Vhttp://about.me/paddyzab
p76
sVcreated_at
p77
VFri Oct 31 14:35:56 +0000 2008
p78
sVcontributors_enabled
p79
I00
sVtime_zone
p80
VBerlin
p81
sVprotected
p82
I00
sVdefault_profile
p83
I00
sVis_translator
p84
I00
ssS'contributors_enabled'
p85
I00
sS'profile_text_color'
p86
g38
sS'followers_count'
p87
I847
sS'profile_sidebar_border_color'
p88
g41
sS'location'
p89
g55
sS'default_profile_image'
p90
I00
sS'id_str'
p91
g43
sS'utc_offset'
p92
I7200
sS'statuses_count'
p93
I8741
sS'description'
p94
g52
sS'friends_count'
p95
I229
sS'profile_link_color'
p96
g57
sS'profile_image_url'
p97
g59
sS'notifications'
p98
NsS'geo_enabled'
p99
I01
sS'profile_background_color'
p100
g45
sS'profile_banner_url'
p101
g63
sS'profile_background_image_url'
p102
g65
sS'name'
p103
g67
sS'lang'
p104
g69
sS'following'
p105
I00
sS'profile_background_tile'
p106
I00
sS'favourites_count'
p107
I1125
sS'screen_name'
p108
g73
sS'url'
p109
g76
sS'created_at'
p110
cdatetime
datetime
p111
(S'\x07\xd8\n\x1f\x0e#8\x00\x00\x00'
p112
tp113
Rp114
sS'profile_background_image_url_https'
p115
g48
sS'time_zone'
p116
g81
sS'protected'
p117
I00
sS'default_profile'
p118
I00
sS'is_translator'
p119
I00
sS'listed_count'
p120
I55
sbsS'filter_level'
p121
Vlow
p122
sS'geo'
p123
Nsg24
I620236490434584576
sS'favorite_count'
p124
I0
sS'source'
p125
VTwitter Web Client
p126
sg104
Ven
p127
sS'author'
p128
g18
sS'in_reply_to_user_id_str'
p129
V1302271
p130
sg28
(dp131
Vcontributors
p132
NsVtruncated
p133
I00
sVtext
p134
g10
sVin_reply_to_status_id
p135
I620235951672049664
sg33
I620236490434584576
sVfavorite_count
p136
I0
sVsource
p137
V<a href="http://twitter.com" rel="nofollow">Twitter Web Client</a>
p138
sVretweeted
p139
I00
sVcoordinates
p140
NsVtimestamp_ms
p141
V1436710877413
p142
sVentities
p143
(dp144
Vuser_mentions
p145
(lp146
(dp147
g33
I1302271
sVindices
p148
(lp149
I0
aI7
asg42
V1302271
p150
sg72
Varjunm
p151
sg66
VArjun Muralidharan
p152
sasVsymbols
p153
(lp154
sVtrends
p155
(lp156
sVhashtags
p157
(lp158
sVurls
p159
(lp160
(dp161
g75
Vhttp://t.co/rcDhCWVVrh
p162
sg148
(lp163
I16
aI38
asVexpanded_url
p164
Vhttp://coloredcoins.org/
p165
sVdisplay_url
p166
Vcoloredcoins.org
p167
sassVin_reply_to_screen_name
p168
Varjunm
p169
sg42
V620236490434584576
p170
sVretweet_count
p171
I0
sVin_reply_to_user_id
p172
I1302271
sVfavorited
p173
I00
sVuser
p174
g29
sVgeo
p175
NsVin_reply_to_user_id_str
p176
g130
sVpossibly_sensitive
p177
I00
sg68
g127
sg77
VSun Jul 12 14:21:17 +0000 2015
p178
sVfilter_level
p179
g122
sVin_reply_to_status_id_str
p180
V620235951672049664
p181
sVplace
p182
(dp183
Vfull_name
p184
VZurich, Switzerland
p185
sg75
Vhttps://api.twitter.com/1.1/geo/id/3acb748d0f1e9265.json
p186
sVcountry
p187
VSchweiz
p188
sVplace_type
p189
Vcity
p190
sVbounding_box
p191
(dp192
Vtype
p193
VPolygon
p194
sg140
(lp195
(lp196
(lp197
F8.448081
aF47.320183
aa(lp198
F8.448081
aF47.434721
aa(lp199
F8.625442
aF47.434721
aa(lp200
F8.625442
aF47.320183
aaassVcountry_code
p201
VCH
p202
sVattributes
p203
(dp204
sg33
V3acb748d0f1e9265
p205
sg66
VZurich
p206
sssS'coordinates'
p207
NsS'timestamp_ms'
p208
g142
sS'entities'
p209
g144
sS'in_reply_to_status_id_str'
p210
g181
sS'in_reply_to_screen_name'
p211
g169
sg91
g170
sS'retweeted'
p212
I00
sS'place'
p213
g0
(ctweepy.models
Place
p214
g2
Ntp215
Rp216
(dp217
S'full_name'
p218
g185
sg109
g186
sS'country'
p219
g188
sS'place_type'
p220
g190
sS'bounding_box'
p221
g0
(ctweepy.models
BoundingBox
p222
g2
Ntp223
Rp224
(dp225
S'type'
p226
g194
sg207
g195
sbsS'country_code'
p227
g202
sS'attributes'
p228
g204
sg24
g205
sg103
g206
sbsS'retweet_count'
p229
I0
sg110
g111
(S'\x07\xdf\x07\x0c\x0e\x15\x11\x00\x00\x00'
p230
tp231
Rp232
sS'in_reply_to_user_id'
p233
I1302271
sb.