ccopy_reg
_reconstructor
p0
(ctweepy.models
Status
p1
c__builtin__
object
p2
Ntp3
Rp4
(dp5
S'favorited'
p6
I00
sS'contributors'
p7
NsS'truncated'
p8
I00
sS'text'
p9
VTowards institutional link betw. #SDG &amp; #WSIS processes: Harnessing ICT for Sustainable Development #HLPF http://t.co/eTTNlKix6q @ITU #ict4d
p10
sS'source_url'
p11
Vhttp://twitter.com
p12
sS'possibly_sensitive'
p13
I00
sS'in_reply_to_status_id'
p14
NsS'user'
p15
g0
(ctweepy.models
User
p16
g2
Ntp17
Rp18
(dp19
S'follow_request_sent'
p20
NsS'profile_use_background_image'
p21
I01
sS'profile_sidebar_fill_color'
p22
VF6FFD1
p23
sS'id'
p24
I53025802
sS'verified'
p25
I00
sS'profile_image_url_https'
p26
Vhttps://pbs.twimg.com/profile_images/1270356364/image_normal.jpg
p27
sS'_json'
p28
(dp29
Vfollow_request_sent
p30
NsVprofile_use_background_image
p31
I01
sVdefault_profile_image
p32
I00
sVid
p33
I53025802
sVverified
p34
I00
sVprofile_image_url_https
p35
g27
sVprofile_sidebar_fill_color
p36
g23
sVprofile_text_color
p37
V333333
p38
sVfollowers_count
p39
I406
sVprofile_sidebar_border_color
p40
VFFF8AD
p41
sVid_str
p42
V53025802
p43
sVprofile_background_color
p44
VFFF04D
p45
sVlisted_count
p46
I18
sVprofile_background_image_url_https
p47
Vhttps://pbs.twimg.com/profile_background_images/120674482/HandConnectCIS.gif
p48
sVutc_offset
p49
I7200
sVstatuses_count
p50
I595
sVdescription
p51
VStrategy and Policy Advisor at the International Telecommunication Union
p52
sVfriends_count
p53
I198
sVlocation
p54
VSwitzerland
p55
sVprofile_link_color
p56
V0099CC
p57
sVprofile_image_url
p58
Vhttp://pbs.twimg.com/profile_images/1270356364/image_normal.jpg
p59
sVfollowing
p60
NsVgeo_enabled
p61
I01
sVprofile_background_image_url
p62
Vhttp://pbs.twimg.com/profile_background_images/120674482/HandConnectCIS.gif
p63
sVname
p64
VJaroslaw K. PONDER
p65
sVlang
p66
Ven
p67
sVprofile_background_tile
p68
I01
sVfavourites_count
p69
I4
sVscreen_name
p70
VJaroslawPONDER
p71
sVnotifications
p72
NsVurl
p73
Vhttp://www.ponder.ch
p74
sVcreated_at
p75
VThu Jul 02 10:18:21 +0000 2009
p76
sVcontributors_enabled
p77
I00
sVtime_zone
p78
VBerlin
p79
sVprotected
p80
I00
sVdefault_profile
p81
I00
sVis_translator
p82
I00
ssS'contributors_enabled'
p83
I00
sS'profile_text_color'
p84
g38
sS'followers_count'
p85
I406
sS'profile_sidebar_border_color'
p86
g41
sS'location'
p87
g55
sS'default_profile_image'
p88
I00
sS'id_str'
p89
g43
sS'utc_offset'
p90
I7200
sS'statuses_count'
p91
I595
sS'description'
p92
g52
sS'friends_count'
p93
I198
sS'profile_link_color'
p94
g57
sS'profile_image_url'
p95
g59
sS'notifications'
p96
NsS'geo_enabled'
p97
I01
sS'profile_background_color'
p98
g45
sS'profile_background_image_url'
p99
g63
sS'name'
p100
g65
sS'lang'
p101
g67
sS'following'
p102
I00
sS'profile_background_tile'
p103
I01
sS'favourites_count'
p104
I4
sS'screen_name'
p105
g71
sS'url'
p106
g74
sS'created_at'
p107
cdatetime
datetime
p108
(S'\x07\xd9\x07\x02\n\x12\x15\x00\x00\x00'
p109
tp110
Rp111
sS'profile_background_image_url_https'
p112
g48
sS'time_zone'
p113
g79
sS'protected'
p114
I00
sS'default_profile'
p115
I00
sS'is_translator'
p116
I00
sS'listed_count'
p117
I18
sbsS'filter_level'
p118
Vlow
p119
sS'geo'
p120
Nsg24
I618825205830549504
sS'favorite_count'
p121
I0
sS'source'
p122
VTwitter Web Client
p123
sg101
Ven
p124
sS'author'
p125
g18
sS'in_reply_to_user_id_str'
p126
Nsg28
(dp127
Vcontributors
p128
NsVtruncated
p129
I00
sVtext
p130
g10
sVin_reply_to_status_id
p131
Nsg33
I618825205830549504
sVfavorite_count
p132
I0
sVsource
p133
V<a href="http://twitter.com" rel="nofollow">Twitter Web Client</a>
p134
sVretweeted
p135
I00
sVcoordinates
p136
NsVtimestamp_ms
p137
V1436374400943
p138
sVentities
p139
(dp140
Vuser_mentions
p141
(lp142
(dp143
g33
I40425262
sVindices
p144
(lp145
I133
aI137
asg42
V40425262
p146
sg70
VITU
p147
sg64
VITU
p148
sasVsymbols
p149
(lp150
sVtrends
p151
(lp152
sVhashtags
p153
(lp154
(dp155
g144
(lp156
I33
aI37
asg130
VSDG
p157
sa(dp158
g144
(lp159
I44
aI49
asg130
VWSIS
p160
sa(dp161
g144
(lp162
I104
aI109
asg130
VHLPF
p163
sa(dp164
g144
(lp165
I138
aI144
asg130
Vict4d
p166
sasVurls
p167
(lp168
(dp169
g73
Vhttp://t.co/eTTNlKix6q
p170
sg144
(lp171
I110
aI132
asVexpanded_url
p172
Vhttp://www.wsis.org/sdg
p173
sVdisplay_url
p174
Vwsis.org/sdg
p175
sassVin_reply_to_screen_name
p176
Nsg42
V618825205830549504
p177
sVretweet_count
p178
I0
sVin_reply_to_user_id
p179
NsVfavorited
p180
I00
sVuser
p181
g29
sVgeo
p182
NsVin_reply_to_user_id_str
p183
NsVpossibly_sensitive
p184
I00
sg66
g124
sg75
VWed Jul 08 16:53:20 +0000 2015
p185
sVfilter_level
p186
g119
sVin_reply_to_status_id_str
p187
NsVplace
p188
(dp189
Vfull_name
p190
VZurich, Switzerland
p191
sg73
Vhttps://api.twitter.com/1.1/geo/id/3acb748d0f1e9265.json
p192
sVcountry
p193
VSchweiz
p194
sVplace_type
p195
Vcity
p196
sVbounding_box
p197
(dp198
Vtype
p199
VPolygon
p200
sg136
(lp201
(lp202
(lp203
F8.448081
aF47.320183
aa(lp204
F8.448081
aF47.434721
aa(lp205
F8.625442
aF47.434721
aa(lp206
F8.625442
aF47.320183
aaassVcountry_code
p207
VCH
p208
sVattributes
p209
(dp210
sg33
V3acb748d0f1e9265
p211
sg64
VZurich
p212
sssS'coordinates'
p213
NsS'timestamp_ms'
p214
g138
sS'entities'
p215
g140
sS'in_reply_to_status_id_str'
p216
NsS'in_reply_to_screen_name'
p217
Nsg89
g177
sS'retweeted'
p218
I00
sS'place'
p219
g0
(ctweepy.models
Place
p220
g2
Ntp221
Rp222
(dp223
S'full_name'
p224
g191
sg106
g192
sS'country'
p225
g194
sS'place_type'
p226
g196
sS'bounding_box'
p227
g0
(ctweepy.models
BoundingBox
p228
g2
Ntp229
Rp230
(dp231
S'type'
p232
g200
sg213
g201
sbsS'country_code'
p233
g208
sS'attributes'
p234
g210
sg24
g211
sg100
g212
sbsS'retweet_count'
p235
I0
sg107
g108
(S'\x07\xdf\x07\x08\x105\x14\x00\x00\x00'
p236
tp237
Rp238
sS'in_reply_to_user_id'
p239
Nsb.