ccopy_reg
_reconstructor
p0
(ctweepy.models
Status
p1
c__builtin__
object
p2
Ntp3
Rp4
(dp5
S'favorited'
p6
I00
sS'contributors'
p7
NsS'truncated'
p8
I00
sS'text'
p9
VHere my favorite picture and angle from Mount Rigi on Lake Lucerne and Central Switzerland! http://t.co/vD8U3SS1Vx
p10
sS'source_url'
p11
Vhttp://twitter.com/#!/download/ipad
p12
sS'possibly_sensitive'
p13
I00
sS'in_reply_to_status_id'
p14
NsS'user'
p15
g0
(ctweepy.models
User
p16
g2
Ntp17
Rp18
(dp19
S'follow_request_sent'
p20
NsS'profile_use_background_image'
p21
I01
sS'profile_sidebar_fill_color'
p22
VEFEFEF
p23
sS'id'
p24
I552083999
sS'verified'
p25
I00
sS'profile_image_url_https'
p26
Vhttps://pbs.twimg.com/profile_images/560401068236877825/cXwHZFWZ_normal.png
p27
sS'_json'
p28
(dp29
Vfollow_request_sent
p30
NsVprofile_use_background_image
p31
I01
sVdefault_profile_image
p32
I00
sVid
p33
I552083999
sVverified
p34
I00
sVprofile_image_url_https
p35
g27
sVprofile_sidebar_fill_color
p36
g23
sVprofile_text_color
p37
V333333
p38
sVfollowers_count
p39
I14786
sVprofile_sidebar_border_color
p40
VEEEEEE
p41
sVid_str
p42
V552083999
p43
sVprofile_background_color
p44
V131516
p45
sVlisted_count
p46
I454
sVprofile_background_image_url_https
p47
Vhttps://abs.twimg.com/images/themes/theme14/bg.gif
p48
sVutc_offset
p49
I7200
sVstatuses_count
p50
I2379
sVdescription
p51
VEurope S&S Sales Leader at IBM Cloud Software in Switzerland \u000aOpen Networker,  Blogger own views of Travels, Social Media, News, Twitter, Technology, Leadership
p52
sVfriends_count
p53
I13229
sVlocation
p54
VSwitzerland, Europe or my blog
p55
sVprofile_link_color
p56
V0074BC
p57
sVprofile_image_url
p58
Vhttp://pbs.twimg.com/profile_images/560401068236877825/cXwHZFWZ_normal.png
p59
sVfollowing
p60
NsVgeo_enabled
p61
I01
sVprofile_banner_url
p62
Vhttps://pbs.twimg.com/profile_banners/552083999/1398414493
p63
sVprofile_background_image_url
p64
Vhttp://abs.twimg.com/images/themes/theme14/bg.gif
p65
sVname
p66
VDaniel Bachmann
p67
sVlang
p68
Ven
p69
sVprofile_background_tile
p70
I01
sVfavourites_count
p71
I15673
sVscreen_name
p72
VDaniBachmannCH
p73
sVnotifications
p74
NsVurl
p75
Vhttp://www.daniel-bachmann.com
p76
sVcreated_at
p77
VThu Apr 12 18:54:30 +0000 2012
p78
sVcontributors_enabled
p79
I00
sVtime_zone
p80
VBern
p81
sVprotected
p82
I00
sVdefault_profile
p83
I00
sVis_translator
p84
I00
ssS'contributors_enabled'
p85
I00
sS'profile_text_color'
p86
g38
sS'followers_count'
p87
I14786
sS'profile_sidebar_border_color'
p88
g41
sS'location'
p89
g55
sS'default_profile_image'
p90
I00
sS'id_str'
p91
g43
sS'utc_offset'
p92
I7200
sS'statuses_count'
p93
I2379
sS'description'
p94
VEurope S&S Sales Leader at IBM Cloud Software in Switzerland \u000aOpen Networker,  Blogger own views of Travels, Social Media, News, Twitter, Technology, Leadership
p95
sS'friends_count'
p96
I13229
sS'profile_link_color'
p97
g57
sS'profile_image_url'
p98
g59
sS'notifications'
p99
NsS'geo_enabled'
p100
I01
sS'profile_background_color'
p101
g45
sS'profile_banner_url'
p102
g63
sS'profile_background_image_url'
p103
g65
sS'name'
p104
g67
sS'lang'
p105
g69
sS'following'
p106
I00
sS'profile_background_tile'
p107
I01
sS'favourites_count'
p108
I15673
sS'screen_name'
p109
g73
sS'url'
p110
g76
sS'created_at'
p111
cdatetime
datetime
p112
(S'\x07\xdc\x04\x0c\x126\x1e\x00\x00\x00'
p113
tp114
Rp115
sS'profile_background_image_url_https'
p116
g48
sS'time_zone'
p117
g81
sS'protected'
p118
I00
sS'default_profile'
p119
I00
sS'is_translator'
p120
I00
sS'listed_count'
p121
I454
sbsS'filter_level'
p122
Vlow
p123
sS'geo'
p124
Nsg24
I621346140269752320
sS'favorite_count'
p125
I0
sS'source'
p126
VTwitter for iPad
p127
sg105
Ven
p128
sS'author'
p129
g18
sS'in_reply_to_user_id_str'
p130
Nsg28
(dp131
Vcontributors
p132
NsVtruncated
p133
I00
sVtext
p134
g10
sVin_reply_to_status_id
p135
Nsg33
I621346140269752320
sVfavorite_count
p136
I0
sVsource
p137
V<a href="http://twitter.com/#!/download/ipad" rel="nofollow">Twitter for iPad</a>
p138
sVretweeted
p139
I00
sVcoordinates
p140
NsVtimestamp_ms
p141
V1436975438550
p142
sVentities
p143
(dp144
Vsymbols
p145
(lp146
sVmedia
p147
(lp148
(dp149
Vexpanded_url
p150
Vhttp://twitter.com/DaniBachmannCH/status/621346140269752320/photo/1
p151
sVdisplay_url
p152
Vpic.twitter.com/vD8U3SS1Vx
p153
sg75
Vhttp://t.co/vD8U3SS1Vx
p154
sVmedia_url_https
p155
Vhttps://pbs.twimg.com/media/CJ92_g4W8AA8GZW.jpg
p156
sg42
V621346107130572800
p157
sVsizes
p158
(dp159
Vlarge
p160
(dp161
Vh
p162
I680
sVresize
p163
Vfit
p164
sVw
p165
I1024
ssVsmall
p166
(dp167
g162
I225
sg163
Vfit
p168
sg165
I340
ssVmedium
p169
(dp170
g162
I398
sg163
Vfit
p171
sg165
I600
ssVthumb
p172
(dp173
g162
I150
sg163
Vcrop
p174
sg165
I150
sssVindices
p175
(lp176
I92
aI114
asVtype
p177
Vphoto
p178
sg33
I621346107130572800
sVmedia_url
p179
Vhttp://pbs.twimg.com/media/CJ92_g4W8AA8GZW.jpg
p180
sasVhashtags
p181
(lp182
sVuser_mentions
p183
(lp184
sVtrends
p185
(lp186
sVurls
p187
(lp188
ssVin_reply_to_screen_name
p189
Nsg42
V621346140269752320
p190
sVretweet_count
p191
I0
sVin_reply_to_user_id
p192
NsVfavorited
p193
I00
sVuser
p194
g29
sVgeo
p195
NsVin_reply_to_user_id_str
p196
NsVpossibly_sensitive
p197
I00
sg68
g128
sg77
VWed Jul 15 15:50:38 +0000 2015
p198
sVfilter_level
p199
g123
sVin_reply_to_status_id_str
p200
NsVplace
p201
(dp202
Vfull_name
p203
VZurich, Switzerland
p204
sg75
Vhttps://api.twitter.com/1.1/geo/id/db94c1cccc67c4f4.json
p205
sVcountry
p206
VSchweiz
p207
sVplace_type
p208
Vadmin
p209
sVbounding_box
p210
(dp211
g177
VPolygon
p212
sg140
(lp213
(lp214
(lp215
F8.357749
aF47.159384
aa(lp216
F8.357749
aF47.694503
aa(lp217
F8.984445
aF47.694503
aa(lp218
F8.984445
aF47.159384
aaassVcountry_code
p219
VCH
p220
sVattributes
p221
(dp222
sg33
Vdb94c1cccc67c4f4
p223
sg66
VZurich
p224
ssVextended_entities
p225
(dp226
g147
(lp227
(dp228
g150
Vhttp://twitter.com/DaniBachmannCH/status/621346140269752320/photo/1
p229
sg152
Vpic.twitter.com/vD8U3SS1Vx
p230
sg75
Vhttp://t.co/vD8U3SS1Vx
p231
sg155
Vhttps://pbs.twimg.com/media/CJ92_g4W8AA8GZW.jpg
p232
sg42
V621346107130572800
p233
sg158
(dp234
g160
(dp235
g162
I680
sg163
Vfit
p236
sg165
I1024
ssg166
(dp237
g162
I225
sg163
Vfit
p238
sg165
I340
ssg169
(dp239
g162
I398
sg163
Vfit
p240
sg165
I600
ssg172
(dp241
g162
I150
sg163
Vcrop
p242
sg165
I150
sssg175
(lp243
I92
aI114
asg177
Vphoto
p244
sg33
I621346107130572800
sg179
Vhttp://pbs.twimg.com/media/CJ92_g4W8AA8GZW.jpg
p245
sasssS'coordinates'
p246
NsS'timestamp_ms'
p247
g142
sS'entities'
p248
g144
sS'in_reply_to_status_id_str'
p249
NsS'in_reply_to_screen_name'
p250
Nsg91
g190
sS'extended_entities'
p251
g226
sS'retweeted'
p252
I00
sS'place'
p253
g0
(ctweepy.models
Place
p254
g2
Ntp255
Rp256
(dp257
S'full_name'
p258
g204
sg110
g205
sS'country'
p259
g207
sS'place_type'
p260
g209
sS'bounding_box'
p261
g0
(ctweepy.models
BoundingBox
p262
g2
Ntp263
Rp264
(dp265
S'type'
p266
g212
sg246
g213
sbsS'country_code'
p267
g220
sS'attributes'
p268
g222
sg24
g223
sg104
g224
sbsS'retweet_count'
p269
I0
sg111
g112
(S'\x07\xdf\x07\x0f\x0f2&\x00\x00\x00'
p270
tp271
Rp272
sS'in_reply_to_user_id'
p273
Nsb.