ccopy_reg
_reconstructor
p0
(ctweepy.models
Status
p1
c__builtin__
object
p2
Ntp3
Rp4
(dp5
S'favorited'
p6
I00
sS'contributors'
p7
NsS'truncated'
p8
I00
sS'text'
p9
V@akari_oozora Source: "zurich" by Rajan Manickavasagam on Flickr\u000ahttps://t.co/JAAIcLATRo
p10
sS'source_url'
p11
Vhttp://twitter.com/akari_oozora
p12
sS'possibly_sensitive'
p13
I00
sS'in_reply_to_status_id'
p14
I619199503724347396
sS'user'
p15
g0
(ctweepy.models
User
p16
g2
Ntp17
Rp18
(dp19
S'follow_request_sent'
p20
NsS'profile_use_background_image'
p21
I01
sS'profile_sidebar_fill_color'
p22
VDDEEF6
p23
sS'id'
p24
I3146790737
sS'verified'
p25
I00
sS'profile_image_url_https'
p26
Vhttps://pbs.twimg.com/profile_images/585686109486768128/ZD9_FoaH_normal.png
p27
sS'_json'
p28
(dp29
Vfollow_request_sent
p30
NsVprofile_use_background_image
p31
I01
sVdefault_profile_image
p32
I00
sVid
p33
I3146790737
sVverified
p34
I00
sVprofile_image_url_https
p35
g27
sVprofile_sidebar_fill_color
p36
g23
sVprofile_text_color
p37
V333333
p38
sVfollowers_count
p39
I162
sVprofile_sidebar_border_color
p40
VC0DEED
p41
sVid_str
p42
V3146790737
p43
sVprofile_background_color
p44
VC0DEED
p45
sVlisted_count
p46
I42
sVprofile_background_image_url_https
p47
Vhttps://abs.twimg.com/images/themes/theme1/bg.png
p48
sVutc_offset
p49
I-14400
sVstatuses_count
p50
I6472
sVdescription
p51
VImage sources for @akari_oozora
p52
sVfriends_count
p53
I1
sVlocation
p54
V
p55
sVprofile_link_color
p56
V0084B4
p57
sVprofile_image_url
p58
Vhttp://pbs.twimg.com/profile_images/585686109486768128/ZD9_FoaH_normal.png
p59
sVfollowing
p60
NsVgeo_enabled
p61
I01
sVprofile_background_image_url
p62
Vhttp://abs.twimg.com/images/themes/theme1/bg.png
p63
sVname
p64
V\u5927\u7a7a\u304a\u5929\u6c17sources
p65
sVlang
p66
Ven
p67
sVprofile_background_tile
p68
I00
sVfavourites_count
p69
I0
sVscreen_name
p70
Voozorakko
p71
sVnotifications
p72
NsVurl
p73
Vhttp://creativecommons.org/licenses/by/4.0/
p74
sVcreated_at
p75
VWed Apr 08 06:08:28 +0000 2015
p76
sVcontributors_enabled
p77
I00
sVtime_zone
p78
VEastern Time (US & Canada)
p79
sVprotected
p80
I00
sVdefault_profile
p81
I01
sVis_translator
p82
I00
ssS'contributors_enabled'
p83
I00
sS'profile_text_color'
p84
g38
sS'followers_count'
p85
I162
sS'profile_sidebar_border_color'
p86
g41
sS'location'
p87
g55
sS'default_profile_image'
p88
I00
sS'id_str'
p89
g43
sS'utc_offset'
p90
I-14400
sS'statuses_count'
p91
I6472
sS'description'
p92
g52
sS'friends_count'
p93
I1
sS'profile_link_color'
p94
g57
sS'profile_image_url'
p95
g59
sS'notifications'
p96
NsS'geo_enabled'
p97
I01
sS'profile_background_color'
p98
g45
sS'profile_background_image_url'
p99
g63
sS'name'
p100
g65
sS'lang'
p101
g67
sS'following'
p102
I00
sS'profile_background_tile'
p103
I00
sS'favourites_count'
p104
I0
sS'screen_name'
p105
g71
sS'url'
p106
g74
sS'created_at'
p107
cdatetime
datetime
p108
(S'\x07\xdf\x04\x08\x06\x08\x1c\x00\x00\x00'
p109
tp110
Rp111
sS'profile_background_image_url_https'
p112
g48
sS'time_zone'
p113
g79
sS'protected'
p114
I00
sS'default_profile'
p115
I01
sS'is_translator'
p116
I00
sS'listed_count'
p117
I42
sbsS'filter_level'
p118
Vlow
p119
sS'geo'
p120
(dp121
Vtype
p122
VPoint
p123
sVcoordinates
p124
(lp125
F47.380001
aF8.57
assg24
I619199505624342529
sS'favorite_count'
p126
I0
sS'source'
p127
V\u5927\u7a7a\u304a\u5929\u6c17
p128
sg101
Ven
p129
sS'author'
p130
g18
sS'in_reply_to_user_id_str'
p131
V3132259671
p132
sg28
(dp133
Vcontributors
p134
NsVtruncated
p135
I00
sVtext
p136
V@akari_oozora Source: "zurich" by Rajan Manickavasagam on Flickr\u000ahttps://t.co/JAAIcLATRo
p137
sVin_reply_to_status_id
p138
I619199503724347396
sg33
I619199505624342529
sVfavorite_count
p139
I0
sVsource
p140
V<a href="http://twitter.com/akari_oozora" rel="nofollow">\u5927\u7a7a\u304a\u5929\u6c17</a>
p141
sVretweeted
p142
I00
sg124
(dp143
g122
VPoint
p144
sg124
(lp145
F8.57
aF47.380001
assVtimestamp_ms
p146
V1436463640968
p147
sVentities
p148
(dp149
Vuser_mentions
p150
(lp151
(dp152
g33
I3132259671
sVindices
p153
(lp154
I0
aI13
asg42
V3132259671
p155
sg70
Vakari_oozora
p156
sg64
V\u5927\u7a7a\u304a\u5929\u6c17bot
p157
sasVsymbols
p158
(lp159
sVtrends
p160
(lp161
sVhashtags
p162
(lp163
sVurls
p164
(lp165
(dp166
g73
Vhttps://t.co/JAAIcLATRo
p167
sg153
(lp168
I65
aI88
asVexpanded_url
p169
Vhttps://www.flickr.com/photos/52625726@N03/4857072403
p170
sVdisplay_url
p171
Vflickr.com/photos/5262572\u2026
p172
sassVin_reply_to_screen_name
p173
Vakari_oozora
p174
sg42
V619199505624342529
p175
sVretweet_count
p176
I0
sVin_reply_to_user_id
p177
I3132259671
sVfavorited
p178
I00
sVuser
p179
g29
sVgeo
p180
g121
sVin_reply_to_user_id_str
p181
g132
sVpossibly_sensitive
p182
I00
sg66
g129
sg75
VThu Jul 09 17:40:40 +0000 2015
p183
sVfilter_level
p184
g119
sVin_reply_to_status_id_str
p185
V619199503724347396
p186
sVplace
p187
(dp188
Vfull_name
p189
VZurich, Switzerland
p190
sg73
Vhttps://api.twitter.com/1.1/geo/id/3acb748d0f1e9265.json
p191
sVcountry
p192
VSchweiz
p193
sVplace_type
p194
Vcity
p195
sVbounding_box
p196
(dp197
g122
VPolygon
p198
sg124
(lp199
(lp200
(lp201
F8.448081
aF47.320183
aa(lp202
F8.448081
aF47.434721
aa(lp203
F8.625442
aF47.434721
aa(lp204
F8.625442
aF47.320183
aaassVcountry_code
p205
VCH
p206
sVattributes
p207
(dp208
sg33
V3acb748d0f1e9265
p209
sg64
VZurich
p210
sssS'coordinates'
p211
g143
sS'timestamp_ms'
p212
g147
sS'entities'
p213
g149
sS'in_reply_to_status_id_str'
p214
g186
sS'in_reply_to_screen_name'
p215
g174
sg89
g175
sS'retweeted'
p216
I00
sS'place'
p217
g0
(ctweepy.models
Place
p218
g2
Ntp219
Rp220
(dp221
S'full_name'
p222
g190
sg106
g191
sS'country'
p223
g193
sS'place_type'
p224
g195
sS'bounding_box'
p225
g0
(ctweepy.models
BoundingBox
p226
g2
Ntp227
Rp228
(dp229
S'type'
p230
g198
sg211
g199
sbsS'country_code'
p231
g206
sS'attributes'
p232
g208
sg24
g209
sg100
g210
sbsS'retweet_count'
p233
I0
sg107
g108
(S'\x07\xdf\x07\t\x11((\x00\x00\x00'
p234
tp235
Rp236
sS'in_reply_to_user_id'
p237
I3132259671
sb.