ccopy_reg
_reconstructor
p0
(ctweepy.models
Status
p1
c__builtin__
object
p2
Ntp3
Rp4
(dp5
S'favorited'
p6
I00
sS'contributors'
p7
NsS'truncated'
p8
I00
sS'text'
p9
V@wyssdaniel @hostpoint wenn das stimmt, ist das Kultur "typisch deutschsprachiger Raum". So in der Kategorie #Xing. Erschreckt mich.
p10
sS'source_url'
p11
Vhttp://twitter.com
p12
sS'possibly_sensitive'
p13
I00
sS'in_reply_to_status_id'
p14
I618794249975394304
sS'user'
p15
g0
(ctweepy.models
User
p16
g2
Ntp17
Rp18
(dp19
S'follow_request_sent'
p20
NsS'profile_use_background_image'
p21
I00
sS'profile_sidebar_fill_color'
p22
VC0DFEC
p23
sS'id'
p24
I179610168
sS'verified'
p25
I00
sS'profile_image_url_https'
p26
Vhttps://pbs.twimg.com/profile_images/2962745477/fdc427f5bcac885b88d9cf04e62e62be_normal.jpeg
p27
sS'_json'
p28
(dp29
Vfollow_request_sent
p30
NsVprofile_use_background_image
p31
I00
sVdefault_profile_image
p32
I00
sVid
p33
I179610168
sVverified
p34
I00
sVprofile_image_url_https
p35
g27
sVprofile_sidebar_fill_color
p36
g23
sVprofile_text_color
p37
V333333
p38
sVfollowers_count
p39
I4002
sVprofile_sidebar_border_color
p40
VFFFFFF
p41
sVid_str
p42
V179610168
p43
sVprofile_background_color
p44
V022330
p45
sVlisted_count
p46
I276
sVprofile_background_image_url_https
p47
Vhttps://pbs.twimg.com/profile_background_images/662602156/00llupzsafyedorin4m4.png
p48
sVutc_offset
p49
I7200
sVstatuses_count
p50
I22534
sVdescription
p51
VKMU-Web-Trainer. Familyteam mit @Jeduta + 2 Kids in 9er-WG. Bass. Whisky. CH/UK/SF. Founder Bassic (sold 2013), @visitrapperswil, @blechschilder
p52
sVfriends_count
p53
I761
sVlocation
p54
VRapperswil, Switzerland
p55
sVprofile_link_color
p56
V0084B4
p57
sVprofile_image_url
p58
Vhttp://pbs.twimg.com/profile_images/2962745477/fdc427f5bcac885b88d9cf04e62e62be_normal.jpeg
p59
sVfollowing
p60
NsVgeo_enabled
p61
I01
sVprofile_banner_url
p62
Vhttps://pbs.twimg.com/profile_banners/179610168/1410044888
p63
sVprofile_background_image_url
p64
Vhttp://pbs.twimg.com/profile_background_images/662602156/00llupzsafyedorin4m4.png
p65
sVname
p66
VSam Steiner
p67
sVlang
p68
Ven
p69
sVprofile_background_tile
p70
I00
sVfavourites_count
p71
I9180
sVscreen_name
p72
Vsamsteiner
p73
sVnotifications
p74
NsVurl
p75
Vhttp://alike.ch
p76
sVcreated_at
p77
VTue Aug 17 18:21:02 +0000 2010
p78
sVcontributors_enabled
p79
I00
sVtime_zone
p80
VBern
p81
sVprotected
p82
I00
sVdefault_profile
p83
I00
sVis_translator
p84
I00
ssS'contributors_enabled'
p85
I00
sS'profile_text_color'
p86
g38
sS'followers_count'
p87
I4002
sS'profile_sidebar_border_color'
p88
g41
sS'location'
p89
g55
sS'default_profile_image'
p90
I00
sS'id_str'
p91
g43
sS'utc_offset'
p92
I7200
sS'statuses_count'
p93
I22534
sS'description'
p94
g52
sS'friends_count'
p95
I761
sS'profile_link_color'
p96
g57
sS'profile_image_url'
p97
g59
sS'notifications'
p98
NsS'geo_enabled'
p99
I01
sS'profile_background_color'
p100
g45
sS'profile_banner_url'
p101
g63
sS'profile_background_image_url'
p102
g65
sS'name'
p103
g67
sS'lang'
p104
g69
sS'following'
p105
I00
sS'profile_background_tile'
p106
I00
sS'favourites_count'
p107
I9180
sS'screen_name'
p108
g73
sS'url'
p109
g76
sS'created_at'
p110
cdatetime
datetime
p111
(S'\x07\xda\x08\x11\x12\x15\x02\x00\x00\x00'
p112
tp113
Rp114
sS'profile_background_image_url_https'
p115
g48
sS'time_zone'
p116
g81
sS'protected'
p117
I00
sS'default_profile'
p118
I00
sS'is_translator'
p119
I00
sS'listed_count'
p120
I276
sbsS'filter_level'
p121
Vlow
p122
sS'geo'
p123
Nsg24
I618794892844777472
sS'favorite_count'
p124
I0
sS'source'
p125
VTwitter Web Client
p126
sg104
Vde
p127
sS'author'
p128
g18
sS'in_reply_to_user_id_str'
p129
V61505117
p130
sg28
(dp131
Vcontributors
p132
NsVtruncated
p133
I00
sVtext
p134
g10
sVin_reply_to_status_id
p135
I618794249975394304
sg33
I618794892844777472
sVfavorite_count
p136
I0
sVsource
p137
V<a href="http://twitter.com" rel="nofollow">Twitter Web Client</a>
p138
sVretweeted
p139
I00
sVcoordinates
p140
NsVtimestamp_ms
p141
V1436367173764
p142
sVentities
p143
(dp144
Vuser_mentions
p145
(lp146
(dp147
g33
I61505117
sVindices
p148
(lp149
I0
aI11
asg42
V61505117
p150
sg72
Vwyssdaniel
p151
sg66
VDaniel Wyss (\u767d\u4e39\u5c3c)
p152
sa(dp153
g33
I29451196
sg148
(lp154
I12
aI22
asg42
V29451196
p155
sg72
Vhostpoint
p156
sg66
VHostpoint AG
p157
sasVsymbols
p158
(lp159
sVtrends
p160
(lp161
sVhashtags
p162
(lp163
(dp164
g148
(lp165
I109
aI114
asg134
VXing
p166
sasVurls
p167
(lp168
ssVin_reply_to_screen_name
p169
Vwyssdaniel
p170
sg42
V618794892844777472
p171
sVretweet_count
p172
I0
sVin_reply_to_user_id
p173
I61505117
sVfavorited
p174
I00
sVuser
p175
g29
sVgeo
p176
NsVin_reply_to_user_id_str
p177
g130
sVpossibly_sensitive
p178
I00
sg68
g127
sg77
VWed Jul 08 14:52:53 +0000 2015
p179
sVfilter_level
p180
g122
sVin_reply_to_status_id_str
p181
V618794249975394304
p182
sVplace
p183
(dp184
Vfull_name
p185
VZurich, Switzerland
p186
sg75
Vhttps://api.twitter.com/1.1/geo/id/3acb748d0f1e9265.json
p187
sVcountry
p188
VSchweiz
p189
sVplace_type
p190
Vcity
p191
sVbounding_box
p192
(dp193
Vtype
p194
VPolygon
p195
sg140
(lp196
(lp197
(lp198
F8.448081
aF47.320183
aa(lp199
F8.448081
aF47.434721
aa(lp200
F8.625442
aF47.434721
aa(lp201
F8.625442
aF47.320183
aaassVcountry_code
p202
VCH
p203
sVattributes
p204
(dp205
sg33
V3acb748d0f1e9265
p206
sg66
VZurich
p207
sssS'coordinates'
p208
NsS'timestamp_ms'
p209
g142
sS'entities'
p210
g144
sS'in_reply_to_status_id_str'
p211
g182
sS'in_reply_to_screen_name'
p212
g170
sg91
g171
sS'retweeted'
p213
I00
sS'place'
p214
g0
(ctweepy.models
Place
p215
g2
Ntp216
Rp217
(dp218
S'full_name'
p219
g186
sg109
g187
sS'country'
p220
g189
sS'place_type'
p221
g191
sS'bounding_box'
p222
g0
(ctweepy.models
BoundingBox
p223
g2
Ntp224
Rp225
(dp226
S'type'
p227
g195
sg208
g196
sbsS'country_code'
p228
g203
sS'attributes'
p229
g205
sg24
g206
sg103
g207
sbsS'retweet_count'
p230
I0
sg110
g111
(S'\x07\xdf\x07\x08\x0e45\x00\x00\x00'
p231
tp232
Rp233
sS'in_reply_to_user_id'
p234
I61505117
sb.