ccopy_reg
_reconstructor
p0
(ctweepy.models
Status
p1
c__builtin__
object
p2
Ntp3
Rp4
(dp5
S'favorited'
p6
I00
sS'contributors'
p7
NsS'truncated'
p8
I00
sS'text'
p9
VI hope they don't melt - barnhoff enge is so pretty http://t.co/RES5XmpWho
p10
sS'source_url'
p11
Vhttp://twitter.com/download/iphone
p12
sS'possibly_sensitive'
p13
I00
sS'in_reply_to_status_id'
p14
NsS'user'
p15
g0
(ctweepy.models
User
p16
g2
Ntp17
Rp18
(dp19
S'follow_request_sent'
p20
NsS'profile_use_background_image'
p21
I01
sS'profile_sidebar_fill_color'
p22
VDDEEF6
p23
sS'id'
p24
I3065778605
sS'verified'
p25
I00
sS'profile_image_url_https'
p26
Vhttps://pbs.twimg.com/profile_images/572115144268734464/brXPY56K_normal.png
p27
sS'_json'
p28
(dp29
Vfollow_request_sent
p30
NsVprofile_use_background_image
p31
I01
sVdefault_profile_image
p32
I00
sVid
p33
I3065778605
sVverified
p34
I00
sVprofile_image_url_https
p35
g27
sVprofile_sidebar_fill_color
p36
g23
sVprofile_text_color
p37
V333333
p38
sVfollowers_count
p39
I71
sVprofile_sidebar_border_color
p40
VC0DEED
p41
sVid_str
p42
V3065778605
p43
sVprofile_background_color
p44
VC0DEED
p45
sVlisted_count
p46
I1
sVprofile_background_image_url_https
p47
Vhttps://abs.twimg.com/images/themes/theme1/bg.png
p48
sVutc_offset
p49
I-14400
sVstatuses_count
p50
I12012
sVdescription
p51
NsVfriends_count
p52
I53
sVlocation
p53
V
p54
sVprofile_link_color
p55
V0084B4
p56
sVprofile_image_url
p57
Vhttp://pbs.twimg.com/profile_images/572115144268734464/brXPY56K_normal.png
p58
sVfollowing
p59
NsVgeo_enabled
p60
I01
sVprofile_banner_url
p61
Vhttps://pbs.twimg.com/profile_banners/3065778605/1428939713
p62
sVprofile_background_image_url
p63
Vhttp://abs.twimg.com/images/themes/theme1/bg.png
p64
sVname
p65
V\u590f\u30d8\u30f3\u30ea\u30a8\u30c3\u30bf\u3061\u3083\u3093
p66
sVlang
p67
Ven
p68
sVprofile_background_tile
p69
I00
sVfavourites_count
p70
I2741
sVscreen_name
p71
Vshz_0904
p72
sVnotifications
p73
NsVurl
p74
NsVcreated_at
p75
VSun Mar 01 19:18:01 +0000 2015
p76
sVcontributors_enabled
p77
I00
sVtime_zone
p78
VEastern Time (US & Canada)
p79
sVprotected
p80
I00
sVdefault_profile
p81
I01
sVis_translator
p82
I00
ssS'contributors_enabled'
p83
I00
sS'profile_text_color'
p84
g38
sS'followers_count'
p85
I71
sS'profile_sidebar_border_color'
p86
g41
sS'location'
p87
g54
sS'default_profile_image'
p88
I00
sS'id_str'
p89
g43
sS'utc_offset'
p90
I-14400
sS'statuses_count'
p91
I12012
sS'description'
p92
NsS'friends_count'
p93
I53
sS'profile_link_color'
p94
g56
sS'profile_image_url'
p95
g58
sS'notifications'
p96
NsS'geo_enabled'
p97
I01
sS'profile_background_color'
p98
g45
sS'profile_banner_url'
p99
g62
sS'profile_background_image_url'
p100
g64
sS'name'
p101
g66
sS'lang'
p102
g68
sS'following'
p103
I00
sS'profile_background_tile'
p104
I00
sS'favourites_count'
p105
I2741
sS'screen_name'
p106
g72
sS'url'
p107
NsS'created_at'
p108
cdatetime
datetime
p109
(S'\x07\xdf\x03\x01\x13\x12\x01\x00\x00\x00'
p110
tp111
Rp112
sS'profile_background_image_url_https'
p113
g48
sS'time_zone'
p114
g79
sS'protected'
p115
I00
sS'default_profile'
p116
I01
sS'is_translator'
p117
I00
sS'listed_count'
p118
I1
sbsS'filter_level'
p119
Vlow
p120
sS'geo'
p121
Nsg24
I618445581158084608
sS'favorite_count'
p122
I0
sS'source'
p123
VTwitter for iPhone
p124
sg102
Ven
p125
sS'author'
p126
g18
sS'in_reply_to_user_id_str'
p127
Nsg28
(dp128
Vcontributors
p129
NsVtruncated
p130
I00
sVtext
p131
g10
sVin_reply_to_status_id
p132
Nsg33
I618445581158084608
sVfavorite_count
p133
I0
sVsource
p134
V<a href="http://twitter.com/download/iphone" rel="nofollow">Twitter for iPhone</a>
p135
sVretweeted
p136
I00
sVcoordinates
p137
NsVtimestamp_ms
p138
V1436283891368
p139
sVentities
p140
(dp141
Vsymbols
p142
(lp143
sVmedia
p144
(lp145
(dp146
Vexpanded_url
p147
Vhttp://twitter.com/shz_0904/status/618445581158084608/photo/1
p148
sVdisplay_url
p149
Vpic.twitter.com/RES5XmpWho
p150
sg74
Vhttp://t.co/RES5XmpWho
p151
sVmedia_url_https
p152
Vhttps://pbs.twimg.com/media/CJUo9C8W8AI5FGc.jpg
p153
sg42
V618445553060474882
p154
sVsizes
p155
(dp156
Vsmall
p157
(dp158
Vh
p159
I452
sVresize
p160
Vfit
p161
sVw
p162
I340
ssVlarge
p163
(dp164
g159
I852
sg160
Vfit
p165
sg162
I640
ssVmedium
p166
(dp167
g159
I798
sg160
Vfit
p168
sg162
I600
ssVthumb
p169
(dp170
g159
I150
sg160
Vcrop
p171
sg162
I150
sssVindices
p172
(lp173
I52
aI74
asVtype
p174
Vphoto
p175
sg33
I618445553060474882
sVmedia_url
p176
Vhttp://pbs.twimg.com/media/CJUo9C8W8AI5FGc.jpg
p177
sasVhashtags
p178
(lp179
sVuser_mentions
p180
(lp181
sVtrends
p182
(lp183
sVurls
p184
(lp185
ssVin_reply_to_screen_name
p186
Nsg42
V618445581158084608
p187
sVretweet_count
p188
I0
sVin_reply_to_user_id
p189
NsVfavorited
p190
I00
sVuser
p191
g29
sVgeo
p192
NsVin_reply_to_user_id_str
p193
NsVpossibly_sensitive
p194
I00
sg67
g125
sg75
VTue Jul 07 15:44:51 +0000 2015
p195
sVfilter_level
p196
g120
sVin_reply_to_status_id_str
p197
NsVplace
p198
(dp199
Vfull_name
p200
VZurich, Switzerland
p201
sg74
Vhttps://api.twitter.com/1.1/geo/id/3acb748d0f1e9265.json
p202
sVcountry
p203
VSchweiz
p204
sVplace_type
p205
Vcity
p206
sVbounding_box
p207
(dp208
g174
VPolygon
p209
sg137
(lp210
(lp211
(lp212
F8.448081
aF47.320183
aa(lp213
F8.448081
aF47.434721
aa(lp214
F8.625442
aF47.434721
aa(lp215
F8.625442
aF47.320183
aaassVcountry_code
p216
VCH
p217
sVattributes
p218
(dp219
sg33
V3acb748d0f1e9265
p220
sg65
VZurich
p221
ssVextended_entities
p222
(dp223
g144
(lp224
(dp225
g147
Vhttp://twitter.com/shz_0904/status/618445581158084608/photo/1
p226
sg149
Vpic.twitter.com/RES5XmpWho
p227
sg74
Vhttp://t.co/RES5XmpWho
p228
sg152
Vhttps://pbs.twimg.com/media/CJUo9C8W8AI5FGc.jpg
p229
sg42
V618445553060474882
p230
sg155
(dp231
g157
(dp232
g159
I452
sg160
Vfit
p233
sg162
I340
ssg163
(dp234
g159
I852
sg160
Vfit
p235
sg162
I640
ssg166
(dp236
g159
I798
sg160
Vfit
p237
sg162
I600
ssg169
(dp238
g159
I150
sg160
Vcrop
p239
sg162
I150
sssg172
(lp240
I52
aI74
asg174
Vphoto
p241
sg33
I618445553060474882
sg176
Vhttp://pbs.twimg.com/media/CJUo9C8W8AI5FGc.jpg
p242
sa(dp243
g147
Vhttp://twitter.com/shz_0904/status/618445581158084608/photo/1
p244
sg149
Vpic.twitter.com/RES5XmpWho
p245
sg74
Vhttp://t.co/RES5XmpWho
p246
sg152
Vhttps://pbs.twimg.com/media/CJUo9C_WwAAkm0x.jpg
p247
sg42
V618445553073045504
p248
sg155
(dp249
g157
(dp250
g159
I452
sg160
Vfit
p251
sg162
I340
ssg163
(dp252
g159
I852
sg160
Vfit
p253
sg162
I640
ssg166
(dp254
g159
I798
sg160
Vfit
p255
sg162
I600
ssg169
(dp256
g159
I150
sg160
Vcrop
p257
sg162
I150
sssg172
(lp258
I52
aI74
asg174
Vphoto
p259
sg33
I618445553073045504
sg176
Vhttp://pbs.twimg.com/media/CJUo9C_WwAAkm0x.jpg
p260
sa(dp261
g147
Vhttp://twitter.com/shz_0904/status/618445581158084608/photo/1
p262
sg149
Vpic.twitter.com/RES5XmpWho
p263
sg74
Vhttp://t.co/RES5XmpWho
p264
sg152
Vhttps://pbs.twimg.com/media/CJUo9E7W8AEBtS9.jpg
p265
sg42
V618445553593151489
p266
sg155
(dp267
g157
(dp268
g159
I452
sg160
Vfit
p269
sg162
I340
ssg163
(dp270
g159
I852
sg160
Vfit
p271
sg162
I640
ssg166
(dp272
g159
I798
sg160
Vfit
p273
sg162
I600
ssg169
(dp274
g159
I150
sg160
Vcrop
p275
sg162
I150
sssg172
(lp276
I52
aI74
asg174
Vphoto
p277
sg33
I618445553593151489
sg176
Vhttp://pbs.twimg.com/media/CJUo9E7W8AEBtS9.jpg
p278
sa(dp279
g147
Vhttp://twitter.com/shz_0904/status/618445581158084608/photo/1
p280
sg149
Vpic.twitter.com/RES5XmpWho
p281
sg74
Vhttp://t.co/RES5XmpWho
p282
sg152
Vhttps://pbs.twimg.com/media/CJUo9E8WIAAcnoA.jpg
p283
sg42
V618445553597292544
p284
sg155
(dp285
g157
(dp286
g159
I452
sg160
Vfit
p287
sg162
I340
ssg163
(dp288
g159
I852
sg160
Vfit
p289
sg162
I640
ssg166
(dp290
g159
I798
sg160
Vfit
p291
sg162
I600
ssg169
(dp292
g159
I150
sg160
Vcrop
p293
sg162
I150
sssg172
(lp294
I52
aI74
asg174
Vphoto
p295
sg33
I618445553597292544
sg176
Vhttp://pbs.twimg.com/media/CJUo9E8WIAAcnoA.jpg
p296
sasssS'coordinates'
p297
NsS'timestamp_ms'
p298
g139
sS'entities'
p299
g141
sS'in_reply_to_status_id_str'
p300
NsS'in_reply_to_screen_name'
p301
Nsg89
g187
sS'extended_entities'
p302
g223
sS'retweeted'
p303
I00
sS'place'
p304
g0
(ctweepy.models
Place
p305
g2
Ntp306
Rp307
(dp308
S'full_name'
p309
g201
sg107
g202
sS'country'
p310
g204
sS'place_type'
p311
g206
sS'bounding_box'
p312
g0
(ctweepy.models
BoundingBox
p313
g2
Ntp314
Rp315
(dp316
S'type'
p317
g209
sg297
g210
sbsS'country_code'
p318
g217
sS'attributes'
p319
g219
sg24
g220
sg101
g221
sbsS'retweet_count'
p320
I0
sg108
g109
(S'\x07\xdf\x07\x07\x0f,3\x00\x00\x00'
p321
tp322
Rp323
sS'in_reply_to_user_id'
p324
Nsb.