ccopy_reg
_reconstructor
p0
(ctweepy.models
Status
p1
c__builtin__
object
p2
Ntp3
Rp4
(dp5
S'favorited'
p6
I00
sS'contributors'
p7
NsS'truncated'
p8
I00
sS'text'
p9
VJLB live night in #Zurich @MadonnaClub #JLBSummerTour  #15July @jlbmusicgroup #JLB           \u000a\u000aCheck\u2026 https://t.co/PhCVVQxAEA
p10
sS'source_url'
p11
Vhttp://instagram.com
p12
sS'possibly_sensitive'
p13
I00
sS'in_reply_to_status_id'
p14
NsS'user'
p15
g0
(ctweepy.models
User
p16
g2
Ntp17
Rp18
(dp19
S'follow_request_sent'
p20
NsS'profile_use_background_image'
p21
I01
sS'profile_sidebar_fill_color'
p22
V252429
p23
sS'id'
p24
I86562451
sS'verified'
p25
I00
sS'profile_image_url_https'
p26
Vhttps://pbs.twimg.com/profile_images/602585572503363585/MMbCNq0m_normal.jpg
p27
sS'_json'
p28
(dp29
Vfollow_request_sent
p30
NsVprofile_use_background_image
p31
I01
sVdefault_profile_image
p32
I00
sVid
p33
I86562451
sVverified
p34
I00
sVprofile_image_url_https
p35
g27
sVprofile_sidebar_fill_color
p36
g23
sVprofile_text_color
p37
V666666
p38
sVfollowers_count
p39
I710
sVprofile_sidebar_border_color
p40
V181A1E
p41
sVid_str
p42
V86562451
p43
sVprofile_background_color
p44
V1A1B1F
p45
sVlisted_count
p46
I9
sVprofile_background_image_url_https
p47
Vhttps://abs.twimg.com/images/themes/theme9/bg.gif
p48
sVutc_offset
p49
NsVstatuses_count
p50
I2890
sVdescription
p51
VSinger / Songwriter / Actress / @JLBMusicGroup / IG: @justinaleebrown
p52
sVfriends_count
p53
I473
sVlocation
p54
Vswitzerland
p55
sVprofile_link_color
p56
V2FC2EF
p57
sVprofile_image_url
p58
Vhttp://pbs.twimg.com/profile_images/602585572503363585/MMbCNq0m_normal.jpg
p59
sVfollowing
p60
NsVgeo_enabled
p61
I01
sVprofile_banner_url
p62
Vhttps://pbs.twimg.com/profile_banners/86562451/1435226019
p63
sVprofile_background_image_url
p64
Vhttp://abs.twimg.com/images/themes/theme9/bg.gif
p65
sVname
p66
VJustina Lee Brown
p67
sVlang
p68
Ven
p69
sVprofile_background_tile
p70
I00
sVfavourites_count
p71
I2
sVscreen_name
p72
VJustinaomo2sexy
p73
sVnotifications
p74
NsVurl
p75
Vhttp://www.justinaleebrown.com
p76
sVcreated_at
p77
VSat Oct 31 16:55:28 +0000 2009
p78
sVcontributors_enabled
p79
I00
sVtime_zone
p80
NsVprotected
p81
I00
sVdefault_profile
p82
I00
sVis_translator
p83
I00
ssS'contributors_enabled'
p84
I00
sS'profile_text_color'
p85
g38
sS'followers_count'
p86
I710
sS'profile_sidebar_border_color'
p87
g41
sS'location'
p88
g55
sS'default_profile_image'
p89
I00
sS'id_str'
p90
g43
sS'utc_offset'
p91
NsS'statuses_count'
p92
I2890
sS'description'
p93
g52
sS'friends_count'
p94
I473
sS'profile_link_color'
p95
g57
sS'profile_image_url'
p96
g59
sS'notifications'
p97
NsS'geo_enabled'
p98
I01
sS'profile_background_color'
p99
g45
sS'profile_banner_url'
p100
g63
sS'profile_background_image_url'
p101
g65
sS'name'
p102
g67
sS'lang'
p103
g69
sS'following'
p104
I00
sS'profile_background_tile'
p105
I00
sS'favourites_count'
p106
I2
sS'screen_name'
p107
g73
sS'url'
p108
g76
sS'created_at'
p109
cdatetime
datetime
p110
(S'\x07\xd9\n\x1f\x107\x1c\x00\x00\x00'
p111
tp112
Rp113
sS'profile_background_image_url_https'
p114
g48
sS'time_zone'
p115
NsS'protected'
p116
I00
sS'default_profile'
p117
I00
sS'is_translator'
p118
I00
sS'listed_count'
p119
I9
sbsS'filter_level'
p120
Vlow
p121
sS'geo'
p122
(dp123
Vtype
p124
VPoint
p125
sVcoordinates
p126
(lp127
F47.380984
aF8.503636
assg24
I621314010097537024
sS'favorite_count'
p128
I0
sS'source'
p129
VInstagram
p130
sg103
Ven
p131
sS'author'
p132
g18
sS'in_reply_to_user_id_str'
p133
Nsg28
(dp134
Vcontributors
p135
NsVtruncated
p136
I00
sVtext
p137
VJLB live night in #Zurich @MadonnaClub #JLBSummerTour  #15July @jlbmusicgroup #JLB           \u000a\u000aCheck\u2026 https://t.co/PhCVVQxAEA
p138
sVin_reply_to_status_id
p139
Nsg33
I621314010097537024
sVfavorite_count
p140
I0
sVsource
p141
V<a href="http://instagram.com" rel="nofollow">Instagram</a>
p142
sVretweeted
p143
I00
sg126
(dp144
g124
VPoint
p145
sg126
(lp146
F8.503636
aF47.380984
assVtimestamp_ms
p147
V1436967778120
p148
sVentities
p149
(dp150
Vuser_mentions
p151
(lp152
(dp153
g33
I146054351
sVindices
p154
(lp155
I26
aI38
asg42
V146054351
p156
sg72
Vmadonnaclub
p157
sg66
Vmadonna-club
p158
sa(dp159
g33
I3007718980
sg154
(lp160
I63
aI77
asg42
V3007718980
p161
sg72
VJLBMusicGroup
p162
sg66
VJLB Music Group
p163
sasVsymbols
p164
(lp165
sVtrends
p166
(lp167
sVhashtags
p168
(lp169
(dp170
g154
(lp171
I18
aI25
asg137
VZurich
p172
sa(dp173
g154
(lp174
I39
aI53
asg137
VJLBSummerTour
p175
sa(dp176
g154
(lp177
I55
aI62
asg137
V15July
p178
sa(dp179
g154
(lp180
I78
aI82
asg137
VJLB
p181
sasVurls
p182
(lp183
(dp184
g75
Vhttps://t.co/PhCVVQxAEA
p185
sg154
(lp186
I102
aI125
asVexpanded_url
p187
Vhttps://instagram.com/p/5KKw4dopKj/
p188
sVdisplay_url
p189
Vinstagram.com/p/5KKw4dopKj/
p190
sassVin_reply_to_screen_name
p191
Nsg42
V621314010097537024
p192
sVretweet_count
p193
I0
sVin_reply_to_user_id
p194
NsVfavorited
p195
I00
sVuser
p196
g29
sVgeo
p197
g123
sVin_reply_to_user_id_str
p198
NsVpossibly_sensitive
p199
I00
sg68
g131
sg77
VWed Jul 15 13:42:58 +0000 2015
p200
sVfilter_level
p201
g121
sVin_reply_to_status_id_str
p202
NsVplace
p203
(dp204
Vfull_name
p205
VZurich, Switzerland
p206
sg75
Vhttps://api.twitter.com/1.1/geo/id/3acb748d0f1e9265.json
p207
sVcountry
p208
VSchweiz
p209
sVplace_type
p210
Vcity
p211
sVbounding_box
p212
(dp213
g124
VPolygon
p214
sg126
(lp215
(lp216
(lp217
F8.448081
aF47.320183
aa(lp218
F8.448081
aF47.434721
aa(lp219
F8.625442
aF47.434721
aa(lp220
F8.625442
aF47.320183
aaassVcountry_code
p221
VCH
p222
sVattributes
p223
(dp224
sg33
V3acb748d0f1e9265
p225
sg66
VZurich
p226
sssS'coordinates'
p227
g144
sS'timestamp_ms'
p228
g148
sS'entities'
p229
g150
sS'in_reply_to_status_id_str'
p230
NsS'in_reply_to_screen_name'
p231
Nsg90
g192
sS'retweeted'
p232
I00
sS'place'
p233
g0
(ctweepy.models
Place
p234
g2
Ntp235
Rp236
(dp237
S'full_name'
p238
g206
sg108
g207
sS'country'
p239
g209
sS'place_type'
p240
g211
sS'bounding_box'
p241
g0
(ctweepy.models
BoundingBox
p242
g2
Ntp243
Rp244
(dp245
S'type'
p246
g214
sg227
g215
sbsS'country_code'
p247
g222
sS'attributes'
p248
g224
sg24
g225
sg102
g226
sbsS'retweet_count'
p249
I0
sg109
g110
(S'\x07\xdf\x07\x0f\r*:\x00\x00\x00'
p250
tp251
Rp252
sS'in_reply_to_user_id'
p253
Nsb.