ccopy_reg
_reconstructor
p0
(ctweepy.models
Status
p1
c__builtin__
object
p2
Ntp3
Rp4
(dp5
S'favorited'
p6
I00
sS'contributors'
p7
NsS'truncated'
p8
I00
sS'text'
p9
V@JohnnyWayneEnt THANK YOU GUY FOR MAKING @VaronaCollectiv OVER THE 10K MARK https://t.co/6gZIUNunu3 http://t.co/iSpG4jPfSZ
p10
sS'source_url'
p11
Vhttp://twitter.com
p12
sS'possibly_sensitive'
p13
I00
sS'in_reply_to_status_id'
p14
NsS'user'
p15
g0
(ctweepy.models
User
p16
g2
Ntp17
Rp18
(dp19
S'follow_request_sent'
p20
NsS'profile_use_background_image'
p21
I01
sS'profile_sidebar_fill_color'
p22
V080808
p23
sS'id'
p24
I85995928
sS'verified'
p25
I00
sS'profile_image_url_https'
p26
Vhttps://pbs.twimg.com/profile_images/1603376259/D_LYFE_PHOTO_NO_LOGO_.10_new_normal.png
p27
sS'_json'
p28
(dp29
Vfollow_request_sent
p30
NsVprofile_use_background_image
p31
I01
sVdefault_profile_image
p32
I00
sVid
p33
I85995928
sVverified
p34
I00
sVprofile_image_url_https
p35
g27
sVprofile_sidebar_fill_color
p36
g23
sVprofile_text_color
p37
VE36B1C
p38
sVfollowers_count
p39
I30559
sVprofile_sidebar_border_color
p40
VFFFFFF
p41
sVid_str
p42
V85995928
p43
sVprofile_background_color
p44
V0A0A0A
p45
sVlisted_count
p46
I47
sVprofile_background_image_url_https
p47
Vhttps://pbs.twimg.com/profile_background_images/446520507819495424/jgm-A73X.png
p48
sVutc_offset
p49
I-18000
sVstatuses_count
p50
I18227
sVdescription
p51
VCelebrity DJ of the Stars and Co-CEO of Grindin Entertainment //  Monster Products International\u000aAmbassador
p52
sVfriends_count
p53
I12879
sVlocation
p54
Vhttp://www.grindinent.com
p55
sVprofile_link_color
p56
VB31B00
p57
sVprofile_image_url
p58
Vhttp://pbs.twimg.com/profile_images/1603376259/D_LYFE_PHOTO_NO_LOGO_.10_new_normal.png
p59
sVfollowing
p60
NsVgeo_enabled
p61
I01
sVprofile_banner_url
p62
Vhttps://pbs.twimg.com/profile_banners/85995928/1400741017
p63
sVprofile_background_image_url
p64
Vhttp://pbs.twimg.com/profile_background_images/446520507819495424/jgm-A73X.png
p65
sVname
p66
VD-LYFE
p67
sVlang
p68
Ven
p69
sVprofile_background_tile
p70
I01
sVfavourites_count
p71
I15
sVscreen_name
p72
VtheDLYFEshow
p73
sVnotifications
p74
NsVurl
p75
Vhttp://www.monsterproducts.com/artistroster/artist.asp?artistid=209
p76
sVcreated_at
p77
VThu Oct 29 04:48:00 +0000 2009
p78
sVcontributors_enabled
p79
I00
sVtime_zone
p80
VQuito
p81
sVprotected
p82
I00
sVdefault_profile
p83
I00
sVis_translator
p84
I00
ssS'contributors_enabled'
p85
I00
sS'profile_text_color'
p86
g38
sS'followers_count'
p87
I30559
sS'profile_sidebar_border_color'
p88
g41
sS'location'
p89
g55
sS'default_profile_image'
p90
I00
sS'id_str'
p91
g43
sS'utc_offset'
p92
I-18000
sS'statuses_count'
p93
I18227
sS'description'
p94
VCelebrity DJ of the Stars and Co-CEO of Grindin Entertainment //  Monster Products International\u000aAmbassador
p95
sS'friends_count'
p96
I12879
sS'profile_link_color'
p97
g57
sS'profile_image_url'
p98
g59
sS'notifications'
p99
NsS'geo_enabled'
p100
I01
sS'profile_background_color'
p101
g45
sS'profile_banner_url'
p102
g63
sS'profile_background_image_url'
p103
g65
sS'name'
p104
g67
sS'lang'
p105
g69
sS'following'
p106
I00
sS'profile_background_tile'
p107
I01
sS'favourites_count'
p108
I15
sS'screen_name'
p109
g73
sS'url'
p110
g76
sS'created_at'
p111
cdatetime
datetime
p112
(S'\x07\xd9\n\x1d\x040\x00\x00\x00\x00'
p113
tp114
Rp115
sS'profile_background_image_url_https'
p116
g48
sS'time_zone'
p117
g81
sS'protected'
p118
I00
sS'default_profile'
p119
I00
sS'is_translator'
p120
I00
sS'listed_count'
p121
I47
sbsS'filter_level'
p122
Vlow
p123
sS'geo'
p124
Nsg24
I620534471729762308
sS'favorite_count'
p125
I0
sS'source'
p126
VTwitter Web Client
p127
sg105
Ven
p128
sS'author'
p129
g18
sS'in_reply_to_user_id_str'
p130
V378866452
p131
sg28
(dp132
Vcontributors
p133
NsVtruncated
p134
I00
sVtext
p135
g10
sVin_reply_to_status_id
p136
Nsg33
I620534471729762308
sVfavorite_count
p137
I0
sVsource
p138
V<a href="http://twitter.com" rel="nofollow">Twitter Web Client</a>
p139
sVretweeted
p140
I00
sVcoordinates
p141
NsVtimestamp_ms
p142
V1436781921690
p143
sVentities
p144
(dp145
Vsymbols
p146
(lp147
sVmedia
p148
(lp149
(dp150
Vexpanded_url
p151
Vhttp://twitter.com/theDLYFEshow/status/620534471729762308/photo/1
p152
sVdisplay_url
p153
Vpic.twitter.com/iSpG4jPfSZ
p154
sg75
Vhttp://t.co/iSpG4jPfSZ
p155
sVmedia_url_https
p156
Vhttps://pbs.twimg.com/media/CJyU0DkVEAEVynL.jpg
p157
sg42
V620534470702075905
p158
sVsizes
p159
(dp160
Vlarge
p161
(dp162
Vh
p163
I590
sVresize
p164
Vfit
p165
sVw
p166
I1024
ssVsmall
p167
(dp168
g163
I195
sg164
Vfit
p169
sg166
I340
ssVmedium
p170
(dp171
g163
I345
sg164
Vfit
p172
sg166
I600
ssVthumb
p173
(dp174
g163
I150
sg164
Vcrop
p175
sg166
I150
sssVindices
p176
(lp177
I100
aI122
asVtype
p178
Vphoto
p179
sg33
I620534470702075905
sVmedia_url
p180
Vhttp://pbs.twimg.com/media/CJyU0DkVEAEVynL.jpg
p181
sasVhashtags
p182
(lp183
sVuser_mentions
p184
(lp185
(dp186
g33
I378866452
sg176
(lp187
I0
aI15
asg42
V378866452
p188
sg72
VJohnnyWayneEnt
p189
sg66
VJohnny Wayne
p190
sa(dp191
g33
I2238794191
sg176
(lp192
I41
aI57
asg42
V2238794191
p193
sg72
VVaronaCollectiv
p194
sg66
VTVC
p195
sasVtrends
p196
(lp197
sVurls
p198
(lp199
(dp200
g75
Vhttps://t.co/6gZIUNunu3
p201
sg176
(lp202
I76
aI99
asg151
Vhttps://www.youtube.com/watch?v=H9CGc2INp88
p203
sg153
Vyoutube.com/watch?v=H9CGc2\u2026
p204
sassVin_reply_to_screen_name
p205
VJohnnyWayneEnt
p206
sg42
V620534471729762308
p207
sVretweet_count
p208
I0
sVin_reply_to_user_id
p209
I378866452
sVfavorited
p210
I00
sVuser
p211
g29
sVgeo
p212
NsVin_reply_to_user_id_str
p213
g131
sVpossibly_sensitive
p214
I00
sg68
g128
sg77
VMon Jul 13 10:05:21 +0000 2015
p215
sVfilter_level
p216
g123
sVin_reply_to_status_id_str
p217
NsVplace
p218
(dp219
Vfull_name
p220
VZurich, Switzerland
p221
sg75
Vhttps://api.twitter.com/1.1/geo/id/3acb748d0f1e9265.json
p222
sVcountry
p223
VSchweiz
p224
sVplace_type
p225
Vcity
p226
sVbounding_box
p227
(dp228
g178
VPolygon
p229
sg141
(lp230
(lp231
(lp232
F8.448081
aF47.320183
aa(lp233
F8.448081
aF47.434721
aa(lp234
F8.625442
aF47.434721
aa(lp235
F8.625442
aF47.320183
aaassVcountry_code
p236
VCH
p237
sVattributes
p238
(dp239
sg33
V3acb748d0f1e9265
p240
sg66
VZurich
p241
ssVextended_entities
p242
(dp243
g148
(lp244
(dp245
g151
Vhttp://twitter.com/theDLYFEshow/status/620534471729762308/photo/1
p246
sg153
Vpic.twitter.com/iSpG4jPfSZ
p247
sg75
Vhttp://t.co/iSpG4jPfSZ
p248
sg156
Vhttps://pbs.twimg.com/media/CJyU0DkVEAEVynL.jpg
p249
sg42
V620534470702075905
p250
sg159
(dp251
g161
(dp252
g163
I590
sg164
Vfit
p253
sg166
I1024
ssg167
(dp254
g163
I195
sg164
Vfit
p255
sg166
I340
ssg170
(dp256
g163
I345
sg164
Vfit
p257
sg166
I600
ssg173
(dp258
g163
I150
sg164
Vcrop
p259
sg166
I150
sssg176
(lp260
I100
aI122
asg178
Vphoto
p261
sg33
I620534470702075905
sg180
Vhttp://pbs.twimg.com/media/CJyU0DkVEAEVynL.jpg
p262
sasssS'coordinates'
p263
NsS'timestamp_ms'
p264
g143
sS'entities'
p265
g145
sS'in_reply_to_status_id_str'
p266
NsS'in_reply_to_screen_name'
p267
g206
sg91
g207
sS'extended_entities'
p268
g243
sS'retweeted'
p269
I00
sS'place'
p270
g0
(ctweepy.models
Place
p271
g2
Ntp272
Rp273
(dp274
S'full_name'
p275
g221
sg110
g222
sS'country'
p276
g224
sS'place_type'
p277
g226
sS'bounding_box'
p278
g0
(ctweepy.models
BoundingBox
p279
g2
Ntp280
Rp281
(dp282
S'type'
p283
g229
sg263
g230
sbsS'country_code'
p284
g237
sS'attributes'
p285
g239
sg24
g240
sg104
g241
sbsS'retweet_count'
p286
I0
sg111
g112
(S'\x07\xdf\x07\r\n\x05\x15\x00\x00\x00'
p287
tp288
Rp289
sS'in_reply_to_user_id'
p290
I378866452
sb.