ccopy_reg
_reconstructor
p0
(ctweepy.models
Status
p1
c__builtin__
object
p2
Ntp3
Rp4
(dp5
S'favorited'
p6
I00
sS'contributors'
p7
NsS'truncated'
p8
I00
sS'text'
p9
V5 ways to avoid loneliness in retirement http://t.co/Jt5LVQI4JF @huffpost50 @sixtyandme #loneliness #retirement http://t.co/SruD7QkbsR
p10
sS'source_url'
p11
Vhttp://twitter.com
p12
sS'possibly_sensitive'
p13
I00
sS'in_reply_to_status_id'
p14
NsS'user'
p15
g0
(ctweepy.models
User
p16
g2
Ntp17
Rp18
(dp19
S'follow_request_sent'
p20
NsS'profile_use_background_image'
p21
I01
sS'profile_sidebar_fill_color'
p22
VF3F3F3
p23
sS'id'
p24
I955350608
sS'verified'
p25
I00
sS'profile_image_url_https'
p26
Vhttps://pbs.twimg.com/profile_images/564447504066818048/t1W1zL6G_normal.png
p27
sS'_json'
p28
(dp29
Vfollow_request_sent
p30
NsVprofile_use_background_image
p31
I01
sVdefault_profile_image
p32
I00
sVid
p33
I955350608
sVverified
p34
I00
sVprofile_image_url_https
p35
g27
sVprofile_sidebar_fill_color
p36
g23
sVprofile_text_color
p37
V333333
p38
sVfollowers_count
p39
I3597
sVprofile_sidebar_border_color
p40
VDFDFDF
p41
sVid_str
p42
V955350608
p43
sVprofile_background_color
p44
VEBEBEB
p45
sVlisted_count
p46
I111
sVprofile_background_image_url_https
p47
Vhttps://abs.twimg.com/images/themes/theme7/bg.gif
p48
sVutc_offset
p49
NsVstatuses_count
p50
I12112
sVdescription
p51
VSixty and Me is a global community of 100,000 women over 60. Helping boomer women to live healthy, independent and financially secure lives. By Margaret Manning
p52
sVfriends_count
p53
I1778
sVlocation
p54
VSwitzerland 
p55
sVprofile_link_color
p56
V990000
p57
sVprofile_image_url
p58
Vhttp://pbs.twimg.com/profile_images/564447504066818048/t1W1zL6G_normal.png
p59
sVfollowing
p60
NsVgeo_enabled
p61
I01
sVprofile_banner_url
p62
Vhttps://pbs.twimg.com/profile_banners/955350608/1423417866
p63
sVprofile_background_image_url
p64
Vhttp://abs.twimg.com/images/themes/theme7/bg.gif
p65
sVname
p66
VSixty and Me 
p67
sVlang
p68
Ven
p69
sVprofile_background_tile
p70
I00
sVfavourites_count
p71
I252
sVscreen_name
p72
Vsixtyandme
p73
sVnotifications
p74
NsVurl
p75
Vhttp://sixtyandme.com
p76
sVcreated_at
p77
VSun Nov 18 11:54:24 +0000 2012
p78
sVcontributors_enabled
p79
I00
sVtime_zone
p80
NsVprotected
p81
I00
sVdefault_profile
p82
I00
sVis_translator
p83
I00
ssS'contributors_enabled'
p84
I00
sS'profile_text_color'
p85
g38
sS'followers_count'
p86
I3597
sS'profile_sidebar_border_color'
p87
g41
sS'location'
p88
g55
sS'default_profile_image'
p89
I00
sS'id_str'
p90
g43
sS'utc_offset'
p91
NsS'statuses_count'
p92
I12112
sS'description'
p93
g52
sS'friends_count'
p94
I1778
sS'profile_link_color'
p95
g57
sS'profile_image_url'
p96
g59
sS'notifications'
p97
NsS'geo_enabled'
p98
I01
sS'profile_background_color'
p99
g45
sS'profile_banner_url'
p100
g63
sS'profile_background_image_url'
p101
g65
sS'name'
p102
g67
sS'lang'
p103
g69
sS'following'
p104
I00
sS'profile_background_tile'
p105
I00
sS'favourites_count'
p106
I252
sS'screen_name'
p107
g73
sS'url'
p108
g76
sS'created_at'
p109
cdatetime
datetime
p110
(S'\x07\xdc\x0b\x12\x0b6\x18\x00\x00\x00'
p111
tp112
Rp113
sS'profile_background_image_url_https'
p114
g48
sS'time_zone'
p115
NsS'protected'
p116
I00
sS'default_profile'
p117
I00
sS'is_translator'
p118
I00
sS'listed_count'
p119
I111
sbsS'filter_level'
p120
Vlow
p121
sS'geo'
p122
Nsg24
I619833342138183680
sS'favorite_count'
p123
I0
sS'source'
p124
VTwitter Web Client
p125
sg103
Ven
p126
sS'author'
p127
g18
sS'in_reply_to_user_id_str'
p128
Nsg28
(dp129
Vcontributors
p130
NsVtruncated
p131
I00
sVtext
p132
g10
sVin_reply_to_status_id
p133
Nsg33
I619833342138183680
sVfavorite_count
p134
I0
sVsource
p135
V<a href="http://twitter.com" rel="nofollow">Twitter Web Client</a>
p136
sVretweeted
p137
I00
sVcoordinates
p138
NsVtimestamp_ms
p139
V1436614759369
p140
sVentities
p141
(dp142
Vsymbols
p143
(lp144
sVmedia
p145
(lp146
(dp147
Vexpanded_url
p148
Vhttp://twitter.com/sixtyandme/status/619833342138183680/photo/1
p149
sVdisplay_url
p150
Vpic.twitter.com/SruD7QkbsR
p151
sg75
Vhttp://t.co/SruD7QkbsR
p152
sVmedia_url_https
p153
Vhttps://pbs.twimg.com/media/CJoXI7_VAAAzQB1.png
p154
sg42
V619833341026566144
p155
sVsizes
p156
(dp157
Vlarge
p158
(dp159
Vh
p160
I299
sVresize
p161
Vfit
p162
sVw
p163
I579
ssVsmall
p164
(dp165
g160
I175
sg161
Vfit
p166
sg163
I340
ssVmedium
p167
(dp168
g160
I299
sg161
Vfit
p169
sg163
I579
ssVthumb
p170
(dp171
g160
I150
sg161
Vcrop
p172
sg163
I150
sssVindices
p173
(lp174
I112
aI134
asVtype
p175
Vphoto
p176
sg33
I619833341026566144
sVmedia_url
p177
Vhttp://pbs.twimg.com/media/CJoXI7_VAAAzQB1.png
p178
sasVhashtags
p179
(lp180
(dp181
g173
(lp182
I88
aI99
asg132
Vloneliness
p183
sa(dp184
g173
(lp185
I100
aI111
asg132
Vretirement
p186
sasVuser_mentions
p187
(lp188
(dp189
g33
I366563215
sg173
(lp190
I64
aI75
asg42
V366563215
p191
sg72
Vhuffpost50
p192
sg66
VHuff/Post50
p193
sa(dp194
g33
I955350608
sg173
(lp195
I76
aI87
asg42
V955350608
p196
sg72
Vsixtyandme
p197
sg66
VSixty and Me 
p198
sasVtrends
p199
(lp200
sVurls
p201
(lp202
(dp203
g75
Vhttp://t.co/Jt5LVQI4JF
p204
sg173
(lp205
I41
aI63
asg148
Vhttp://www.huffingtonpost.com/margaret-manning/5-ways-to-avoid-loneliness-in-retirement_b_6968264.html
p206
sg150
Vhuffingtonpost.com/margaret-manni\u2026
p207
sassVin_reply_to_screen_name
p208
Nsg42
V619833342138183680
p209
sVretweet_count
p210
I0
sVin_reply_to_user_id
p211
NsVfavorited
p212
I00
sVuser
p213
g29
sVgeo
p214
NsVin_reply_to_user_id_str
p215
NsVpossibly_sensitive
p216
I00
sg68
g126
sg77
VSat Jul 11 11:39:19 +0000 2015
p217
sVfilter_level
p218
g121
sVin_reply_to_status_id_str
p219
NsVplace
p220
(dp221
Vfull_name
p222
VZurich, Switzerland
p223
sg75
Vhttps://api.twitter.com/1.1/geo/id/3acb748d0f1e9265.json
p224
sVcountry
p225
VSchweiz
p226
sVplace_type
p227
Vcity
p228
sVbounding_box
p229
(dp230
g175
VPolygon
p231
sg138
(lp232
(lp233
(lp234
F8.448081
aF47.320183
aa(lp235
F8.448081
aF47.434721
aa(lp236
F8.625442
aF47.434721
aa(lp237
F8.625442
aF47.320183
aaassVcountry_code
p238
VCH
p239
sVattributes
p240
(dp241
sg33
V3acb748d0f1e9265
p242
sg66
VZurich
p243
ssVextended_entities
p244
(dp245
g145
(lp246
(dp247
g148
Vhttp://twitter.com/sixtyandme/status/619833342138183680/photo/1
p248
sg150
Vpic.twitter.com/SruD7QkbsR
p249
sg75
Vhttp://t.co/SruD7QkbsR
p250
sg153
Vhttps://pbs.twimg.com/media/CJoXI7_VAAAzQB1.png
p251
sg42
V619833341026566144
p252
sg156
(dp253
g158
(dp254
g160
I299
sg161
Vfit
p255
sg163
I579
ssg164
(dp256
g160
I175
sg161
Vfit
p257
sg163
I340
ssg167
(dp258
g160
I299
sg161
Vfit
p259
sg163
I579
ssg170
(dp260
g160
I150
sg161
Vcrop
p261
sg163
I150
sssg173
(lp262
I112
aI134
asg175
Vphoto
p263
sg33
I619833341026566144
sg177
Vhttp://pbs.twimg.com/media/CJoXI7_VAAAzQB1.png
p264
sasssS'coordinates'
p265
NsS'timestamp_ms'
p266
g140
sS'entities'
p267
g142
sS'in_reply_to_status_id_str'
p268
NsS'in_reply_to_screen_name'
p269
Nsg90
g209
sS'extended_entities'
p270
g245
sS'retweeted'
p271
I00
sS'place'
p272
g0
(ctweepy.models
Place
p273
g2
Ntp274
Rp275
(dp276
S'full_name'
p277
g223
sg108
g224
sS'country'
p278
g226
sS'place_type'
p279
g228
sS'bounding_box'
p280
g0
(ctweepy.models
BoundingBox
p281
g2
Ntp282
Rp283
(dp284
S'type'
p285
g231
sg265
g232
sbsS'country_code'
p286
g239
sS'attributes'
p287
g241
sg24
g242
sg102
g243
sbsS'retweet_count'
p288
I0
sg109
g110
(S"\x07\xdf\x07\x0b\x0b'\x13\x00\x00\x00"
p289
tp290
Rp291
sS'in_reply_to_user_id'
p292
Nsb.