ccopy_reg
_reconstructor
p0
(ctweepy.models
Status
p1
c__builtin__
object
p2
Ntp3
Rp4
(dp5
S'favorited'
p6
I00
sS'contributors'
p7
NsS'truncated'
p8
I00
sS'text'
p9
VThe Nordic Network for Gender, Body &amp; Health @NordicNetwork1 have launched a new website: http://t.co/xZczBMuywG
p10
sS'source_url'
p11
Vhttp://twitter.com
p12
sS'possibly_sensitive'
p13
I00
sS'in_reply_to_status_id'
p14
NsS'user'
p15
g0
(ctweepy.models
User
p16
g2
Ntp17
Rp18
(dp19
S'follow_request_sent'
p20
NsS'profile_use_background_image'
p21
I01
sS'profile_sidebar_fill_color'
p22
VDDEEF6
p23
sS'id'
p24
I601786883
sS'verified'
p25
I00
sS'profile_image_url_https'
p26
Vhttps://pbs.twimg.com/profile_images/433280507581722624/M-5FmrmD_normal.jpeg
p27
sS'_json'
p28
(dp29
Vfollow_request_sent
p30
NsVprofile_use_background_image
p31
I01
sVdefault_profile_image
p32
I00
sVid
p33
I601786883
sVverified
p34
I00
sVprofile_image_url_https
p35
g27
sVprofile_sidebar_fill_color
p36
g23
sVprofile_text_color
p37
V333333
p38
sVfollowers_count
p39
I373
sVprofile_sidebar_border_color
p40
VC0DEED
p41
sVid_str
p42
V601786883
p43
sVprofile_background_color
p44
VC0DEED
p45
sVlisted_count
p46
I16
sVprofile_background_image_url_https
p47
Vhttps://abs.twimg.com/images/themes/theme1/bg.png
p48
sVutc_offset
p49
NsVstatuses_count
p50
I304
sVdescription
p51
VIRC ELEVATE/Marie Curie Postdoc Fellow, Dept of Philosophy, Durham University; Medical Humanities, Philosophy, Phenomenology. Yoga Teacher & Fraoch Retreats.
p52
sVfriends_count
p53
I571
sVlocation
p54
VDublin, Ireland
p55
sVprofile_link_color
p56
V0084B4
p57
sVprofile_image_url
p58
Vhttp://pbs.twimg.com/profile_images/433280507581722624/M-5FmrmD_normal.jpeg
p59
sVfollowing
p60
NsVgeo_enabled
p61
I01
sVprofile_banner_url
p62
Vhttps://pbs.twimg.com/profile_banners/601786883/1369144451
p63
sVprofile_background_image_url
p64
Vhttp://abs.twimg.com/images/themes/theme1/bg.png
p65
sVname
p66
VLuna Dolezal
p67
sVlang
p68
Ven
p69
sVprofile_background_tile
p70
I00
sVfavourites_count
p71
I164
sVscreen_name
p72
Vlunadolezal
p73
sVnotifications
p74
NsVurl
p75
NsVcreated_at
p76
VThu Jun 07 11:26:50 +0000 2012
p77
sVcontributors_enabled
p78
I00
sVtime_zone
p79
NsVprotected
p80
I00
sVdefault_profile
p81
I01
sVis_translator
p82
I00
ssS'contributors_enabled'
p83
I00
sS'profile_text_color'
p84
g38
sS'followers_count'
p85
I373
sS'profile_sidebar_border_color'
p86
g41
sS'location'
p87
g55
sS'default_profile_image'
p88
I00
sS'id_str'
p89
g43
sS'utc_offset'
p90
NsS'statuses_count'
p91
I304
sS'description'
p92
g52
sS'friends_count'
p93
I571
sS'profile_link_color'
p94
g57
sS'profile_image_url'
p95
g59
sS'notifications'
p96
NsS'geo_enabled'
p97
I01
sS'profile_background_color'
p98
g45
sS'profile_banner_url'
p99
g63
sS'profile_background_image_url'
p100
g65
sS'name'
p101
g67
sS'lang'
p102
g69
sS'following'
p103
I00
sS'profile_background_tile'
p104
I00
sS'favourites_count'
p105
I164
sS'screen_name'
p106
g73
sS'url'
p107
NsS'created_at'
p108
cdatetime
datetime
p109
(S'\x07\xdc\x06\x07\x0b\x1a2\x00\x00\x00'
p110
tp111
Rp112
sS'profile_background_image_url_https'
p113
g48
sS'time_zone'
p114
NsS'protected'
p115
I00
sS'default_profile'
p116
I01
sS'is_translator'
p117
I00
sS'listed_count'
p118
I16
sbsS'filter_level'
p119
Vlow
p120
sS'geo'
p121
Nsg24
I618432901315756032
sS'favorite_count'
p122
I0
sS'source'
p123
VTwitter Web Client
p124
sg102
Ven
p125
sS'author'
p126
g18
sS'in_reply_to_user_id_str'
p127
Nsg28
(dp128
Vcontributors
p129
NsVtruncated
p130
I00
sVtext
p131
g10
sVin_reply_to_status_id
p132
Nsg33
I618432901315756032
sVfavorite_count
p133
I0
sVsource
p134
V<a href="http://twitter.com" rel="nofollow">Twitter Web Client</a>
p135
sVretweeted
p136
I00
sVcoordinates
p137
NsVtimestamp_ms
p138
V1436280868258
p139
sVentities
p140
(dp141
Vuser_mentions
p142
(lp143
(dp144
g33
I3164578659
sVindices
p145
(lp146
I49
aI64
asg42
V3164578659
p147
sg72
VNordicNetwork1
p148
sg66
VGender Body Health
p149
sasVsymbols
p150
(lp151
sVtrends
p152
(lp153
sVhashtags
p154
(lp155
sVurls
p156
(lp157
(dp158
g75
Vhttp://t.co/xZczBMuywG
p159
sg145
(lp160
I94
aI116
asVexpanded_url
p161
Vhttp://www.uib.no/en/rg/genbod
p162
sVdisplay_url
p163
Vuib.no/en/rg/genbod
p164
sassVin_reply_to_screen_name
p165
Nsg42
V618432901315756032
p166
sVretweet_count
p167
I0
sVin_reply_to_user_id
p168
NsVfavorited
p169
I00
sVuser
p170
g29
sVgeo
p171
NsVin_reply_to_user_id_str
p172
NsVpossibly_sensitive
p173
I00
sg68
g125
sg76
VTue Jul 07 14:54:28 +0000 2015
p174
sVfilter_level
p175
g120
sVin_reply_to_status_id_str
p176
NsVplace
p177
(dp178
Vfull_name
p179
VZurich, Switzerland
p180
sg75
Vhttps://api.twitter.com/1.1/geo/id/3acb748d0f1e9265.json
p181
sVcountry
p182
VSchweiz
p183
sVplace_type
p184
Vcity
p185
sVbounding_box
p186
(dp187
Vtype
p188
VPolygon
p189
sg137
(lp190
(lp191
(lp192
F8.448081
aF47.320183
aa(lp193
F8.448081
aF47.434721
aa(lp194
F8.625442
aF47.434721
aa(lp195
F8.625442
aF47.320183
aaassVcountry_code
p196
VCH
p197
sVattributes
p198
(dp199
sg33
V3acb748d0f1e9265
p200
sg66
VZurich
p201
sssS'coordinates'
p202
NsS'timestamp_ms'
p203
g139
sS'entities'
p204
g141
sS'in_reply_to_status_id_str'
p205
NsS'in_reply_to_screen_name'
p206
Nsg89
g166
sS'retweeted'
p207
I00
sS'place'
p208
g0
(ctweepy.models
Place
p209
g2
Ntp210
Rp211
(dp212
S'full_name'
p213
g180
sg107
g181
sS'country'
p214
g183
sS'place_type'
p215
g185
sS'bounding_box'
p216
g0
(ctweepy.models
BoundingBox
p217
g2
Ntp218
Rp219
(dp220
S'type'
p221
g189
sg202
g190
sbsS'country_code'
p222
g197
sS'attributes'
p223
g199
sg24
g200
sg101
g201
sbsS'retweet_count'
p224
I0
sg108
g109
(S'\x07\xdf\x07\x07\x0e6\x1c\x00\x00\x00'
p225
tp226
Rp227
sS'in_reply_to_user_id'
p228
Nsb.