ccopy_reg
_reconstructor
p0
(ctweepy.models
Status
p1
c__builtin__
object
p2
Ntp3
Rp4
(dp5
S'favorited'
p6
I00
sS'contributors'
p7
NsS'truncated'
p8
I00
sS'text'
p9
VYou must be the change you wish to see in the world.\u000a\u2014 Mahatma Gandhi
p10
sS'source_url'
p11
Vhttp://twitter.com
p12
sS'possibly_sensitive'
p13
I00
sS'in_reply_to_status_id'
p14
NsS'user'
p15
g0
(ctweepy.models
User
p16
g2
Ntp17
Rp18
(dp19
S'follow_request_sent'
p20
NsS'profile_use_background_image'
p21
I01
sS'profile_sidebar_fill_color'
p22
VDDEEF6
p23
sS'id'
p24
I36475422
sS'verified'
p25
I00
sS'profile_image_url_https'
p26
Vhttps://pbs.twimg.com/profile_images/521018510323884032/1zB7j-Fw_normal.jpeg
p27
sS'_json'
p28
(dp29
Vfollow_request_sent
p30
NsVprofile_use_background_image
p31
I01
sVdefault_profile_image
p32
I00
sVid
p33
I36475422
sVverified
p34
I00
sVprofile_image_url_https
p35
g27
sVprofile_sidebar_fill_color
p36
g23
sVprofile_text_color
p37
V333333
p38
sVfollowers_count
p39
I1399
sVprofile_sidebar_border_color
p40
VC0DEED
p41
sVid_str
p42
V36475422
p43
sVprofile_background_color
p44
VC0DEED
p45
sVlisted_count
p46
I12
sVprofile_background_image_url_https
p47
Vhttps://abs.twimg.com/images/themes/theme1/bg.png
p48
sVutc_offset
p49
I-14400
sVstatuses_count
p50
I907
sVdescription
p51
VTour Manager......
p52
sVfriends_count
p53
I150
sVlocation
p54
VLos Angeles, CA
p55
sVprofile_link_color
p56
V0084B4
p57
sVprofile_image_url
p58
Vhttp://pbs.twimg.com/profile_images/521018510323884032/1zB7j-Fw_normal.jpeg
p59
sVfollowing
p60
NsVgeo_enabled
p61
I01
sVprofile_banner_url
p62
Vhttps://pbs.twimg.com/profile_banners/36475422/1413053568
p63
sVprofile_background_image_url
p64
Vhttp://abs.twimg.com/images/themes/theme1/bg.png
p65
sVname
p66
VCheryl Hall
p67
sVlang
p68
Ven
p69
sVprofile_background_tile
p70
I00
sVfavourites_count
p71
I48
sVscreen_name
p72
VCheryllhall
p73
sVnotifications
p74
NsVurl
p75
NsVcreated_at
p76
VWed Apr 29 20:45:52 +0000 2009
p77
sVcontributors_enabled
p78
I00
sVtime_zone
p79
VEastern Time (US & Canada)
p80
sVprotected
p81
I00
sVdefault_profile
p82
I01
sVis_translator
p83
I00
ssS'contributors_enabled'
p84
I00
sS'profile_text_color'
p85
g38
sS'followers_count'
p86
I1399
sS'profile_sidebar_border_color'
p87
g41
sS'location'
p88
g55
sS'default_profile_image'
p89
I00
sS'id_str'
p90
g43
sS'utc_offset'
p91
I-14400
sS'statuses_count'
p92
I907
sS'description'
p93
g52
sS'friends_count'
p94
I150
sS'profile_link_color'
p95
g57
sS'profile_image_url'
p96
g59
sS'notifications'
p97
NsS'geo_enabled'
p98
I01
sS'profile_background_color'
p99
g45
sS'profile_banner_url'
p100
g63
sS'profile_background_image_url'
p101
g65
sS'name'
p102
g67
sS'lang'
p103
g69
sS'following'
p104
I00
sS'profile_background_tile'
p105
I00
sS'favourites_count'
p106
I48
sS'screen_name'
p107
g73
sS'url'
p108
NsS'created_at'
p109
cdatetime
datetime
p110
(S'\x07\xd9\x04\x1d\x14-4\x00\x00\x00'
p111
tp112
Rp113
sS'profile_background_image_url_https'
p114
g48
sS'time_zone'
p115
g80
sS'protected'
p116
I00
sS'default_profile'
p117
I01
sS'is_translator'
p118
I00
sS'listed_count'
p119
I12
sbsS'filter_level'
p120
Vlow
p121
sS'geo'
p122
Nsg24
I619482555243470848
sS'favorite_count'
p123
I0
sS'source'
p124
VTwitter Web Client
p125
sg103
Ven
p126
sS'author'
p127
g18
sS'in_reply_to_user_id_str'
p128
Nsg28
(dp129
Vcontributors
p130
NsVtruncated
p131
I00
sVtext
p132
VYou must be the change you wish to see in the world.\u000a\u2014 Mahatma Gandhi
p133
sVin_reply_to_status_id
p134
Nsg33
I619482555243470848
sVfavorite_count
p135
I0
sVsource
p136
V<a href="http://twitter.com" rel="nofollow">Twitter Web Client</a>
p137
sVretweeted
p138
I00
sVcoordinates
p139
NsVtimestamp_ms
p140
V1436531125256
p141
sVentities
p142
(dp143
Vuser_mentions
p144
(lp145
sVsymbols
p146
(lp147
sVtrends
p148
(lp149
sVhashtags
p150
(lp151
sVurls
p152
(lp153
ssVin_reply_to_screen_name
p154
Nsg42
V619482555243470848
p155
sVretweet_count
p156
I0
sVin_reply_to_user_id
p157
NsVfavorited
p158
I00
sVuser
p159
g29
sVgeo
p160
NsVin_reply_to_user_id_str
p161
NsVpossibly_sensitive
p162
I00
sg68
g126
sg76
VFri Jul 10 12:25:25 +0000 2015
p163
sVfilter_level
p164
g121
sVin_reply_to_status_id_str
p165
NsVplace
p166
(dp167
Vfull_name
p168
VZurich, Switzerland
p169
sg75
Vhttps://api.twitter.com/1.1/geo/id/3acb748d0f1e9265.json
p170
sVcountry
p171
VSchweiz
p172
sVplace_type
p173
Vcity
p174
sVbounding_box
p175
(dp176
Vtype
p177
VPolygon
p178
sg139
(lp179
(lp180
(lp181
F8.448081
aF47.320183
aa(lp182
F8.448081
aF47.434721
aa(lp183
F8.625442
aF47.434721
aa(lp184
F8.625442
aF47.320183
aaassVcountry_code
p185
VCH
p186
sVattributes
p187
(dp188
sg33
V3acb748d0f1e9265
p189
sg66
VZurich
p190
sssS'coordinates'
p191
NsS'timestamp_ms'
p192
g141
sS'entities'
p193
g143
sS'in_reply_to_status_id_str'
p194
NsS'in_reply_to_screen_name'
p195
Nsg90
g155
sS'retweeted'
p196
I00
sS'place'
p197
g0
(ctweepy.models
Place
p198
g2
Ntp199
Rp200
(dp201
S'full_name'
p202
g169
sg108
g170
sS'country'
p203
g172
sS'place_type'
p204
g174
sS'bounding_box'
p205
g0
(ctweepy.models
BoundingBox
p206
g2
Ntp207
Rp208
(dp209
S'type'
p210
g178
sg191
g179
sbsS'country_code'
p211
g186
sS'attributes'
p212
g188
sg24
g189
sg102
g190
sbsS'retweet_count'
p213
I0
sg109
g110
(S'\x07\xdf\x07\n\x0c\x19\x19\x00\x00\x00'
p214
tp215
Rp216
sS'in_reply_to_user_id'
p217
Nsb.