ccopy_reg
_reconstructor
p0
(ctweepy.models
Status
p1
c__builtin__
object
p2
Ntp3
Rp4
(dp5
S'favorited'
p6
I00
sS'contributors'
p7
NsS'truncated'
p8
I00
sS'text'
p9
V@emmalene8 @81nog \u03b5 \u03bd\u03b1\u03b9 \u03b1\u03bb\u03bb\u03b1 \u03b1\u03c5\u03c4\u03cc \u03b8\u03b5\u03bb\u03b5\u03b9 \u03bb\u03b5\u03c6\u03c4\u03ac \u03ba \u03bf\u03c7\u03b9 \u0399\u039fU
p10
sS'source_url'
p11
Vhttp://twitter.com
p12
sS'possibly_sensitive'
p13
I00
sS'in_reply_to_status_id'
p14
I621283557923688449
sS'user'
p15
g0
(ctweepy.models
User
p16
g2
Ntp17
Rp18
(dp19
S'follow_request_sent'
p20
NsS'profile_use_background_image'
p21
I01
sS'profile_sidebar_fill_color'
p22
VDDEEF6
p23
sS'id'
p24
I183174192
sS'verified'
p25
I00
sS'profile_image_url_https'
p26
Vhttps://pbs.twimg.com/profile_images/587122028693561344/KQR5Td2I_normal.jpg
p27
sS'_json'
p28
(dp29
Vfollow_request_sent
p30
NsVprofile_use_background_image
p31
I01
sVdefault_profile_image
p32
I00
sVid
p33
I183174192
sVverified
p34
I00
sVprofile_image_url_https
p35
g27
sVprofile_sidebar_fill_color
p36
g23
sVprofile_text_color
p37
V333333
p38
sVfollowers_count
p39
I2741
sVprofile_sidebar_border_color
p40
VFFFFFF
p41
sVid_str
p42
V183174192
p43
sVprofile_background_color
p44
VC0DEED
p45
sVlisted_count
p46
I48
sVprofile_background_image_url_https
p47
Vhttps://pbs.twimg.com/profile_background_images/378800000179940940/xVkc86zq.jpeg
p48
sVutc_offset
p49
I7200
sVstatuses_count
p50
I34531
sVdescription
p51
VWhat do I know 'bout diamonds ? I'm a natural...  always in A State of Trance, playing basketball since ages http://note.io/VDvlEW
p52
sVfriends_count
p53
I2967
sVlocation
p54
V\u0396urich
p55
sVprofile_link_color
p56
V3B94D9
p57
sVprofile_image_url
p58
Vhttp://pbs.twimg.com/profile_images/587122028693561344/KQR5Td2I_normal.jpg
p59
sVfollowing
p60
NsVgeo_enabled
p61
I01
sVprofile_banner_url
p62
Vhttps://pbs.twimg.com/profile_banners/183174192/1406671192
p63
sVprofile_background_image_url
p64
Vhttp://pbs.twimg.com/profile_background_images/378800000179940940/xVkc86zq.jpeg
p65
sVname
p66
VTo\u039corrowl\u0391\u039dd_OS
p67
sVlang
p68
Ven
p69
sVprofile_background_tile
p70
I00
sVfavourites_count
p71
I34347
sVscreen_name
p72
VmanZpan
p73
sVnotifications
p74
NsVurl
p75
NsVcreated_at
p76
VThu Aug 26 09:51:15 +0000 2010
p77
sVcontributors_enabled
p78
I00
sVtime_zone
p79
VBern
p80
sVprotected
p81
I00
sVdefault_profile
p82
I00
sVis_translator
p83
I00
ssS'contributors_enabled'
p84
I00
sS'profile_text_color'
p85
g38
sS'followers_count'
p86
I2741
sS'profile_sidebar_border_color'
p87
g41
sS'location'
p88
g55
sS'default_profile_image'
p89
I00
sS'id_str'
p90
g43
sS'utc_offset'
p91
I7200
sS'statuses_count'
p92
I34531
sS'description'
p93
g52
sS'friends_count'
p94
I2967
sS'profile_link_color'
p95
g57
sS'profile_image_url'
p96
g59
sS'notifications'
p97
NsS'geo_enabled'
p98
I01
sS'profile_background_color'
p99
g45
sS'profile_banner_url'
p100
g63
sS'profile_background_image_url'
p101
g65
sS'name'
p102
g67
sS'lang'
p103
g69
sS'following'
p104
I00
sS'profile_background_tile'
p105
I00
sS'favourites_count'
p106
I34347
sS'screen_name'
p107
g73
sS'url'
p108
NsS'created_at'
p109
cdatetime
datetime
p110
(S'\x07\xda\x08\x1a\t3\x0f\x00\x00\x00'
p111
tp112
Rp113
sS'profile_background_image_url_https'
p114
g48
sS'time_zone'
p115
g80
sS'protected'
p116
I00
sS'default_profile'
p117
I00
sS'is_translator'
p118
I00
sS'listed_count'
p119
I48
sbsS'filter_level'
p120
Vlow
p121
sS'geo'
p122
Nsg24
I621283880377655296
sS'favorite_count'
p123
I0
sS'source'
p124
VTwitter Web Client
p125
sg103
Vel
p126
sS'author'
p127
g18
sS'in_reply_to_user_id_str'
p128
V31412490
p129
sg28
(dp130
Vcontributors
p131
NsVtruncated
p132
I00
sVtext
p133
g10
sVin_reply_to_status_id
p134
I621283557923688449
sg33
I621283880377655296
sVfavorite_count
p135
I0
sVsource
p136
V<a href="http://twitter.com" rel="nofollow">Twitter Web Client</a>
p137
sVretweeted
p138
I00
sVcoordinates
p139
NsVtimestamp_ms
p140
V1436960594635
p141
sVentities
p142
(dp143
Vuser_mentions
p144
(lp145
(dp146
g33
I31412490
sVindices
p147
(lp148
I0
aI10
asg42
V31412490
p149
sg72
Vemmalene8
p150
sg66
Vmaria brebou
p151
sa(dp152
g33
I2984717803
sg147
(lp153
I11
aI17
asg42
V2984717803
p154
sg72
V81nog
p155
sg66
Vnog nog
p156
sasVsymbols
p157
(lp158
sVtrends
p159
(lp160
sVhashtags
p161
(lp162
sVurls
p163
(lp164
ssVin_reply_to_screen_name
p165
Vemmalene8
p166
sg42
V621283880377655296
p167
sVretweet_count
p168
I0
sVin_reply_to_user_id
p169
I31412490
sVfavorited
p170
I00
sVuser
p171
g29
sVgeo
p172
NsVin_reply_to_user_id_str
p173
g129
sVpossibly_sensitive
p174
I00
sg68
g126
sg76
VWed Jul 15 11:43:14 +0000 2015
p175
sVfilter_level
p176
g121
sVin_reply_to_status_id_str
p177
V621283557923688449
p178
sVplace
p179
(dp180
Vfull_name
p181
VZurich, Switzerland
p182
sg75
Vhttps://api.twitter.com/1.1/geo/id/3acb748d0f1e9265.json
p183
sVcountry
p184
VSchweiz
p185
sVplace_type
p186
Vcity
p187
sVbounding_box
p188
(dp189
Vtype
p190
VPolygon
p191
sg139
(lp192
(lp193
(lp194
F8.448081
aF47.320183
aa(lp195
F8.448081
aF47.434721
aa(lp196
F8.625442
aF47.434721
aa(lp197
F8.625442
aF47.320183
aaassVcountry_code
p198
VCH
p199
sVattributes
p200
(dp201
sg33
V3acb748d0f1e9265
p202
sg66
VZurich
p203
sssS'coordinates'
p204
NsS'timestamp_ms'
p205
g141
sS'entities'
p206
g143
sS'in_reply_to_status_id_str'
p207
g178
sS'in_reply_to_screen_name'
p208
g166
sg90
g167
sS'retweeted'
p209
I00
sS'place'
p210
g0
(ctweepy.models
Place
p211
g2
Ntp212
Rp213
(dp214
S'full_name'
p215
g182
sg108
g183
sS'country'
p216
g185
sS'place_type'
p217
g187
sS'bounding_box'
p218
g0
(ctweepy.models
BoundingBox
p219
g2
Ntp220
Rp221
(dp222
S'type'
p223
g191
sg204
g192
sbsS'country_code'
p224
g199
sS'attributes'
p225
g201
sg24
g202
sg102
g203
sbsS'retweet_count'
p226
I0
sg109
g110
(S'\x07\xdf\x07\x0f\x0b+\x0e\x00\x00\x00'
p227
tp228
Rp229
sS'in_reply_to_user_id'
p230
I31412490
sb.