ccopy_reg
_reconstructor
p0
(ctweepy.models
Status
p1
c__builtin__
object
p2
Ntp3
Rp4
(dp5
S'favorited'
p6
I00
sS'contributors'
p7
NsS'truncated'
p8
I00
sS'text'
p9
V@motto @Imaginedragons at Hallenstadion (Nov 24, 2015) http://t.co/VKCm9ux5uV
p10
sS'source_url'
p11
Vhttp://kickalert.me
p12
sS'possibly_sensitive'
p13
I00
sS'in_reply_to_status_id'
p14
NsS'user'
p15
g0
(ctweepy.models
User
p16
g2
Ntp17
Rp18
(dp19
S'follow_request_sent'
p20
NsS'profile_use_background_image'
p21
I01
sS'profile_sidebar_fill_color'
p22
VDDEEF6
p23
sS'id'
p24
I343197788
sS'verified'
p25
I00
sS'profile_image_url_https'
p26
Vhttps://pbs.twimg.com/profile_images/577481133702537216/C-8X7w95_normal.jpeg
p27
sS'_json'
p28
(dp29
Vfollow_request_sent
p30
NsVprofile_use_background_image
p31
I01
sVdefault_profile_image
p32
I00
sVid
p33
I343197788
sVverified
p34
I00
sVprofile_image_url_https
p35
g27
sVprofile_sidebar_fill_color
p36
g23
sVprofile_text_color
p37
V333333
p38
sVfollowers_count
p39
I1535
sVprofile_sidebar_border_color
p40
VFFFFFF
p41
sVid_str
p42
V343197788
p43
sVprofile_background_color
p44
V000000
p45
sVlisted_count
p46
I112
sVprofile_background_image_url_https
p47
Vhttps://pbs.twimg.com/profile_background_images/378800000065856557/9e5535f20fd8b7f48ce0d8fca10106ea.jpeg
p48
sVutc_offset
p49
NsVstatuses_count
p50
I138926
sVdescription
p51
VGet automatic @ mentions for your tracked artists & locations on @songkick. A project by @mario. To start, register at http://kickalert.me
p52
sVfriends_count
p53
I1
sVlocation
p54
VAt a gig
p55
sVprofile_link_color
p56
V0084B4
p57
sVprofile_image_url
p58
Vhttp://pbs.twimg.com/profile_images/577481133702537216/C-8X7w95_normal.jpeg
p59
sVfollowing
p60
NsVgeo_enabled
p61
I01
sVprofile_banner_url
p62
Vhttps://pbs.twimg.com/profile_banners/343197788/1378201274
p63
sVprofile_background_image_url
p64
Vhttp://pbs.twimg.com/profile_background_images/378800000065856557/9e5535f20fd8b7f48ce0d8fca10106ea.jpeg
p65
sVname
p66
VSongkick alerts
p67
sVlang
p68
Ven
p69
sVprofile_background_tile
p70
I00
sVfavourites_count
p71
I4
sVscreen_name
p72
Vkickalert
p73
sVnotifications
p74
NsVurl
p75
Vhttp://kickalert.me
p76
sVcreated_at
p77
VWed Jul 27 06:09:38 +0000 2011
p78
sVcontributors_enabled
p79
I00
sVtime_zone
p80
NsVprotected
p81
I00
sVdefault_profile
p82
I00
sVis_translator
p83
I00
ssS'contributors_enabled'
p84
I00
sS'profile_text_color'
p85
g38
sS'followers_count'
p86
I1535
sS'profile_sidebar_border_color'
p87
g41
sS'location'
p88
g55
sS'default_profile_image'
p89
I00
sS'id_str'
p90
g43
sS'utc_offset'
p91
NsS'statuses_count'
p92
I138926
sS'description'
p93
g52
sS'friends_count'
p94
I1
sS'profile_link_color'
p95
g57
sS'profile_image_url'
p96
g59
sS'notifications'
p97
NsS'geo_enabled'
p98
I01
sS'profile_background_color'
p99
g45
sS'profile_banner_url'
p100
g63
sS'profile_background_image_url'
p101
g65
sS'name'
p102
g67
sS'lang'
p103
g69
sS'following'
p104
I00
sS'profile_background_tile'
p105
I00
sS'favourites_count'
p106
I4
sS'screen_name'
p107
g73
sS'url'
p108
g76
sS'created_at'
p109
cdatetime
datetime
p110
(S'\x07\xdb\x07\x1b\x06\t&\x00\x00\x00'
p111
tp112
Rp113
sS'profile_background_image_url_https'
p114
g48
sS'time_zone'
p115
NsS'protected'
p116
I00
sS'default_profile'
p117
I00
sS'is_translator'
p118
I00
sS'listed_count'
p119
I112
sbsS'filter_level'
p120
Vlow
p121
sS'geo'
p122
(dp123
Vtype
p124
VPoint
p125
sVcoordinates
p126
(lp127
F47.41161
aF8.551656
assg24
I620831664386768896
sS'favorite_count'
p128
I0
sS'source'
p129
Vkickalert
p130
sg103
Vda
p131
sS'author'
p132
g18
sS'in_reply_to_user_id_str'
p133
V10082112
p134
sg28
(dp135
Vcontributors
p136
NsVtruncated
p137
I00
sVtext
p138
g10
sVin_reply_to_status_id
p139
Nsg33
I620831664386768896
sVfavorite_count
p140
I0
sVsource
p141
V<a href="http://kickalert.me" rel="nofollow">kickalert</a>
p142
sVretweeted
p143
I00
sg126
(dp144
g124
VPoint
p145
sg126
(lp146
F8.551656
aF47.41161
assVtimestamp_ms
p147
V1436852777941
p148
sVentities
p149
(dp150
Vuser_mentions
p151
(lp152
(dp153
g33
I10082112
sVindices
p154
(lp155
I0
aI6
asg42
V10082112
p156
sg72
Vmotto
p157
sg66
VJose Collantes
p158
sa(dp159
g33
I75916180
sg154
(lp160
I7
aI22
asg42
V75916180
p161
sg72
VImaginedragons
p162
sg66
VImagine Dragons
p163
sasVsymbols
p164
(lp165
sVtrends
p166
(lp167
sVhashtags
p168
(lp169
sVurls
p170
(lp171
(dp172
g75
Vhttp://t.co/VKCm9ux5uV
p173
sg154
(lp174
I55
aI77
asVexpanded_url
p175
Vhttp://songkick.rocks/1CDnBNf
p176
sVdisplay_url
p177
Vsongkick.rocks/1CDnBNf
p178
sassVin_reply_to_screen_name
p179
Vmotto
p180
sg42
V620831664386768896
p181
sVretweet_count
p182
I0
sVin_reply_to_user_id
p183
I10082112
sVfavorited
p184
I00
sVuser
p185
g29
sVgeo
p186
g123
sVin_reply_to_user_id_str
p187
g134
sVpossibly_sensitive
p188
I00
sg68
g131
sg77
VTue Jul 14 05:46:17 +0000 2015
p189
sVfilter_level
p190
g121
sVin_reply_to_status_id_str
p191
NsVplace
p192
(dp193
Vfull_name
p194
VZurich, Switzerland
p195
sg75
Vhttps://api.twitter.com/1.1/geo/id/3acb748d0f1e9265.json
p196
sVcountry
p197
VSchweiz
p198
sVplace_type
p199
Vcity
p200
sVbounding_box
p201
(dp202
g124
VPolygon
p203
sg126
(lp204
(lp205
(lp206
F8.448081
aF47.320183
aa(lp207
F8.448081
aF47.434721
aa(lp208
F8.625442
aF47.434721
aa(lp209
F8.625442
aF47.320183
aaassVcountry_code
p210
VCH
p211
sVattributes
p212
(dp213
sg33
V3acb748d0f1e9265
p214
sg66
VZurich
p215
sssS'coordinates'
p216
g144
sS'timestamp_ms'
p217
g148
sS'entities'
p218
g150
sS'in_reply_to_status_id_str'
p219
NsS'in_reply_to_screen_name'
p220
g180
sg90
g181
sS'retweeted'
p221
I00
sS'place'
p222
g0
(ctweepy.models
Place
p223
g2
Ntp224
Rp225
(dp226
S'full_name'
p227
g195
sg108
g196
sS'country'
p228
g198
sS'place_type'
p229
g200
sS'bounding_box'
p230
g0
(ctweepy.models
BoundingBox
p231
g2
Ntp232
Rp233
(dp234
S'type'
p235
g203
sg216
g204
sbsS'country_code'
p236
g211
sS'attributes'
p237
g213
sg24
g214
sg102
g215
sbsS'retweet_count'
p238
I0
sg109
g110
(S'\x07\xdf\x07\x0e\x05.\x11\x00\x00\x00'
p239
tp240
Rp241
sS'in_reply_to_user_id'
p242
I10082112
sb.