ccopy_reg
_reconstructor
p0
(ctweepy.models
Status
p1
c__builtin__
object
p2
Ntp3
Rp4
(dp5
S'favorited'
p6
I00
sS'contributors'
p7
NsS'truncated'
p8
I00
sS'text'
p9
VThanks for all the girls who joined me on the first pop-up #lunch #workout in #Zurich. See you next Thursday! http://t.co/yqJ6jzD6dU
p10
sS'source_url'
p11
Vhttp://twitter.com/download/iphone
p12
sS'possibly_sensitive'
p13
I00
sS'in_reply_to_status_id'
p14
NsS'user'
p15
g0
(ctweepy.models
User
p16
g2
Ntp17
Rp18
(dp19
S'follow_request_sent'
p20
NsS'profile_use_background_image'
p21
I00
sS'profile_sidebar_fill_color'
p22
V000000
p23
sS'id'
p24
I3137546289
sS'verified'
p25
I00
sS'profile_image_url_https'
p26
Vhttps://pbs.twimg.com/profile_images/589503038965952513/my3mj34u_normal.jpg
p27
sS'_json'
p28
(dp29
Vfollow_request_sent
p30
NsVprofile_use_background_image
p31
I00
sVdefault_profile_image
p32
I00
sVid
p33
I3137546289
sVverified
p34
I00
sVprofile_image_url_https
p35
g27
sVprofile_sidebar_fill_color
p36
g23
sVprofile_text_color
p37
V000000
p38
sVfollowers_count
p39
I18
sVprofile_sidebar_border_color
p40
V000000
p41
sVid_str
p42
V3137546289
p43
sVprofile_background_color
p44
V000000
p45
sVlisted_count
p46
I2
sVprofile_background_image_url_https
p47
Vhttps://abs.twimg.com/images/themes/theme1/bg.png
p48
sVutc_offset
p49
NsVstatuses_count
p50
I114
sVdescription
p51
VGet yourself energised through my daily tweets in a healthier and happier body and soul.
p52
sVfriends_count
p53
I33
sVlocation
p54
VZurich
p55
sVprofile_link_color
p56
VFFCC4D
p57
sVprofile_image_url
p58
Vhttp://pbs.twimg.com/profile_images/589503038965952513/my3mj34u_normal.jpg
p59
sVfollowing
p60
NsVgeo_enabled
p61
I01
sVprofile_background_image_url
p62
Vhttp://abs.twimg.com/images/themes/theme1/bg.png
p63
sVname
p64
VThe DesiredMe
p65
sVlang
p66
Ven
p67
sVprofile_background_tile
p68
I00
sVfavourites_count
p69
I21
sVscreen_name
p70
Vthedesiredme
p71
sVnotifications
p72
NsVurl
p73
Vhttp://www.thedesiredme.com
p74
sVcreated_at
p75
VSun Apr 05 16:34:01 +0000 2015
p76
sVcontributors_enabled
p77
I00
sVtime_zone
p78
NsVprotected
p79
I00
sVdefault_profile
p80
I00
sVis_translator
p81
I00
ssS'contributors_enabled'
p82
I00
sS'profile_text_color'
p83
g38
sS'followers_count'
p84
I18
sS'profile_sidebar_border_color'
p85
g41
sS'location'
p86
g55
sS'default_profile_image'
p87
I00
sS'id_str'
p88
g43
sS'utc_offset'
p89
NsS'statuses_count'
p90
I114
sS'description'
p91
g52
sS'friends_count'
p92
I33
sS'profile_link_color'
p93
g57
sS'profile_image_url'
p94
g59
sS'notifications'
p95
NsS'geo_enabled'
p96
I01
sS'profile_background_color'
p97
g45
sS'profile_background_image_url'
p98
g63
sS'name'
p99
g65
sS'lang'
p100
g67
sS'following'
p101
I00
sS'profile_background_tile'
p102
I00
sS'favourites_count'
p103
I21
sS'screen_name'
p104
g71
sS'url'
p105
g74
sS'created_at'
p106
cdatetime
datetime
p107
(S'\x07\xdf\x04\x05\x10"\x01\x00\x00\x00'
p108
tp109
Rp110
sS'profile_background_image_url_https'
p111
g48
sS'time_zone'
p112
NsS'protected'
p113
I00
sS'default_profile'
p114
I00
sS'is_translator'
p115
I00
sS'listed_count'
p116
I2
sbsS'filter_level'
p117
Vlow
p118
sS'geo'
p119
Nsg24
I621054981588840449
sS'favorite_count'
p120
I0
sS'source'
p121
VTwitter for iPhone
p122
sg100
Ven
p123
sS'author'
p124
g18
sS'in_reply_to_user_id_str'
p125
Nsg28
(dp126
Vcontributors
p127
NsVtruncated
p128
I00
sVtext
p129
g10
sVin_reply_to_status_id
p130
Nsg33
I621054981588840449
sVfavorite_count
p131
I0
sVsource
p132
V<a href="http://twitter.com/download/iphone" rel="nofollow">Twitter for iPhone</a>
p133
sVretweeted
p134
I00
sVcoordinates
p135
NsVtimestamp_ms
p136
V1436906020911
p137
sVentities
p138
(dp139
Vsymbols
p140
(lp141
sVmedia
p142
(lp143
(dp144
Vexpanded_url
p145
Vhttp://twitter.com/thedesiredme/status/621054981588840449/photo/1
p146
sVdisplay_url
p147
Vpic.twitter.com/yqJ6jzD6dU
p148
sg73
Vhttp://t.co/yqJ6jzD6dU
p149
sVmedia_url_https
p150
Vhttps://pbs.twimg.com/media/CJ5uNTTWcAAyH4T.jpg
p151
sg42
V621054973422497792
p152
sVsizes
p153
(dp154
Vsmall
p155
(dp156
Vh
p157
I459
sVresize
p158
Vfit
p159
sVw
p160
I340
ssVlarge
p161
(dp162
g157
I1024
sg158
Vfit
p163
sg160
I758
ssVmedium
p164
(dp165
g157
I810
sg158
Vfit
p166
sg160
I600
ssVthumb
p167
(dp168
g157
I150
sg158
Vcrop
p169
sg160
I150
sssVindices
p170
(lp171
I110
aI132
asVtype
p172
Vphoto
p173
sg33
I621054973422497792
sVmedia_url
p174
Vhttp://pbs.twimg.com/media/CJ5uNTTWcAAyH4T.jpg
p175
sasVhashtags
p176
(lp177
(dp178
g170
(lp179
I59
aI65
asg129
Vlunch
p180
sa(dp181
g170
(lp182
I66
aI74
asg129
Vworkout
p183
sa(dp184
g170
(lp185
I78
aI85
asg129
VZurich
p186
sasVuser_mentions
p187
(lp188
sVtrends
p189
(lp190
sVurls
p191
(lp192
ssVin_reply_to_screen_name
p193
Nsg42
V621054981588840449
p194
sVretweet_count
p195
I0
sVin_reply_to_user_id
p196
NsVfavorited
p197
I00
sVuser
p198
g29
sVgeo
p199
NsVin_reply_to_user_id_str
p200
NsVpossibly_sensitive
p201
I00
sg66
g123
sg75
VTue Jul 14 20:33:40 +0000 2015
p202
sVfilter_level
p203
g118
sVin_reply_to_status_id_str
p204
NsVplace
p205
(dp206
Vfull_name
p207
VZurich, Switzerland
p208
sg73
Vhttps://api.twitter.com/1.1/geo/id/3acb748d0f1e9265.json
p209
sVcountry
p210
VSchweiz
p211
sVplace_type
p212
Vcity
p213
sVbounding_box
p214
(dp215
g172
VPolygon
p216
sg135
(lp217
(lp218
(lp219
F8.448081
aF47.320183
aa(lp220
F8.448081
aF47.434721
aa(lp221
F8.625442
aF47.434721
aa(lp222
F8.625442
aF47.320183
aaassVcountry_code
p223
VCH
p224
sVattributes
p225
(dp226
sg33
V3acb748d0f1e9265
p227
sg64
VZurich
p228
ssVextended_entities
p229
(dp230
g142
(lp231
(dp232
g145
Vhttp://twitter.com/thedesiredme/status/621054981588840449/photo/1
p233
sg147
Vpic.twitter.com/yqJ6jzD6dU
p234
sg73
Vhttp://t.co/yqJ6jzD6dU
p235
sg150
Vhttps://pbs.twimg.com/media/CJ5uNTTWcAAyH4T.jpg
p236
sg42
V621054973422497792
p237
sg153
(dp238
g155
(dp239
g157
I459
sg158
Vfit
p240
sg160
I340
ssg161
(dp241
g157
I1024
sg158
Vfit
p242
sg160
I758
ssg164
(dp243
g157
I810
sg158
Vfit
p244
sg160
I600
ssg167
(dp245
g157
I150
sg158
Vcrop
p246
sg160
I150
sssg170
(lp247
I110
aI132
asg172
Vphoto
p248
sg33
I621054973422497792
sg174
Vhttp://pbs.twimg.com/media/CJ5uNTTWcAAyH4T.jpg
p249
sasssS'coordinates'
p250
NsS'timestamp_ms'
p251
g137
sS'entities'
p252
g139
sS'in_reply_to_status_id_str'
p253
NsS'in_reply_to_screen_name'
p254
Nsg88
g194
sS'extended_entities'
p255
g230
sS'retweeted'
p256
I00
sS'place'
p257
g0
(ctweepy.models
Place
p258
g2
Ntp259
Rp260
(dp261
S'full_name'
p262
g208
sg105
g209
sS'country'
p263
g211
sS'place_type'
p264
g213
sS'bounding_box'
p265
g0
(ctweepy.models
BoundingBox
p266
g2
Ntp267
Rp268
(dp269
S'type'
p270
g216
sg250
g217
sbsS'country_code'
p271
g224
sS'attributes'
p272
g226
sg24
g227
sg99
g228
sbsS'retweet_count'
p273
I0
sg106
g107
(S'\x07\xdf\x07\x0e\x14!(\x00\x00\x00'
p274
tp275
Rp276
sS'in_reply_to_user_id'
p277
Nsb.