ccopy_reg
_reconstructor
p0
(ctweepy.models
Status
p1
c__builtin__
object
p2
Ntp3
Rp4
(dp5
S'favorited'
p6
I00
sS'contributors'
p7
NsS'truncated'
p8
I00
sS'text'
p9
VLooking forward to our Courageous Conversations workshop for the World Health Organization in Geneva tomorrow @WHO
p10
sS'source_url'
p11
Vhttp://twitter.com
p12
sS'possibly_sensitive'
p13
I00
sS'in_reply_to_status_id'
p14
NsS'user'
p15
g0
(ctweepy.models
User
p16
g2
Ntp17
Rp18
(dp19
S'follow_request_sent'
p20
NsS'profile_use_background_image'
p21
I00
sS'profile_sidebar_fill_color'
p22
VDDEEF6
p23
sS'id'
p24
I2976635116
sS'verified'
p25
I00
sS'profile_image_url_https'
p26
Vhttps://pbs.twimg.com/profile_images/563711775674073090/BQjECF6h_normal.png
p27
sS'_json'
p28
(dp29
Vfollow_request_sent
p30
NsVprofile_use_background_image
p31
I00
sVdefault_profile_image
p32
I00
sVid
p33
I2976635116
sVverified
p34
I00
sVprofile_image_url_https
p35
g27
sVprofile_sidebar_fill_color
p36
g23
sVprofile_text_color
p37
V333333
p38
sVfollowers_count
p39
I267
sVprofile_sidebar_border_color
p40
VC0DEED
p41
sVid_str
p42
V2976635116
p43
sVprofile_background_color
p44
VABB8C2
p45
sVlisted_count
p46
I9
sVprofile_background_image_url_https
p47
Vhttps://pbs.twimg.com/profile_background_images/555024456947478528/6gM3GH2P.jpeg
p48
sVutc_offset
p49
NsVstatuses_count
p50
I371
sVdescription
p51
VWe focus on safety culture and leadership, driving positive change through leading edge psychology to deliver a bespoke package for our clients around the globe
p52
sVfriends_count
p53
I1006
sVlocation
p54
VUK, Switzerland, North America
p55
sVprofile_link_color
p56
V4A913C
p57
sVprofile_image_url
p58
Vhttp://pbs.twimg.com/profile_images/563711775674073090/BQjECF6h_normal.png
p59
sVfollowing
p60
NsVgeo_enabled
p61
I01
sVprofile_background_image_url
p62
Vhttp://pbs.twimg.com/profile_background_images/555024456947478528/6gM3GH2P.jpeg
p63
sVname
p64
VRyderMarshSharman
p65
sVlang
p66
Ven
p67
sVprofile_background_tile
p68
I00
sVfavourites_count
p69
I18
sVscreen_name
p70
VRMarshSharman
p71
sVnotifications
p72
NsVurl
p73
Vhttp://www.rydermarshsharman.com
p74
sVcreated_at
p75
VTue Jan 13 15:25:14 +0000 2015
p76
sVcontributors_enabled
p77
I00
sVtime_zone
p78
NsVprotected
p79
I00
sVdefault_profile
p80
I00
sVis_translator
p81
I00
ssS'contributors_enabled'
p82
I00
sS'profile_text_color'
p83
g38
sS'followers_count'
p84
I267
sS'profile_sidebar_border_color'
p85
g41
sS'location'
p86
g55
sS'default_profile_image'
p87
I00
sS'id_str'
p88
g43
sS'utc_offset'
p89
NsS'statuses_count'
p90
I371
sS'description'
p91
g52
sS'friends_count'
p92
I1006
sS'profile_link_color'
p93
g57
sS'profile_image_url'
p94
g59
sS'notifications'
p95
NsS'geo_enabled'
p96
I01
sS'profile_background_color'
p97
g45
sS'profile_background_image_url'
p98
g63
sS'name'
p99
g65
sS'lang'
p100
g67
sS'following'
p101
I00
sS'profile_background_tile'
p102
I00
sS'favourites_count'
p103
I18
sS'screen_name'
p104
g71
sS'url'
p105
g74
sS'created_at'
p106
cdatetime
datetime
p107
(S'\x07\xdf\x01\r\x0f\x19\x0e\x00\x00\x00'
p108
tp109
Rp110
sS'profile_background_image_url_https'
p111
g48
sS'time_zone'
p112
NsS'protected'
p113
I00
sS'default_profile'
p114
I00
sS'is_translator'
p115
I00
sS'listed_count'
p116
I9
sbsS'filter_level'
p117
Vlow
p118
sS'geo'
p119
Nsg24
I620937205373140992
sS'favorite_count'
p120
I0
sS'source'
p121
VTwitter Web Client
p122
sg100
Ven
p123
sS'author'
p124
g18
sS'in_reply_to_user_id_str'
p125
Nsg28
(dp126
Vcontributors
p127
NsVtruncated
p128
I00
sVtext
p129
g10
sVin_reply_to_status_id
p130
Nsg33
I620937205373140992
sVfavorite_count
p131
I0
sVsource
p132
V<a href="http://twitter.com" rel="nofollow">Twitter Web Client</a>
p133
sVretweeted
p134
I00
sVcoordinates
p135
NsVtimestamp_ms
p136
V1436877940873
p137
sVentities
p138
(dp139
Vuser_mentions
p140
(lp141
(dp142
g33
I14499829
sVindices
p143
(lp144
I110
aI114
asg42
V14499829
p145
sg70
VWHO
p146
sg64
VWHO
p147
sasVsymbols
p148
(lp149
sVtrends
p150
(lp151
sVhashtags
p152
(lp153
sVurls
p154
(lp155
ssVin_reply_to_screen_name
p156
Nsg42
V620937205373140992
p157
sVretweet_count
p158
I0
sVin_reply_to_user_id
p159
NsVfavorited
p160
I00
sVuser
p161
g29
sVgeo
p162
NsVin_reply_to_user_id_str
p163
NsVpossibly_sensitive
p164
I00
sg66
g123
sg75
VTue Jul 14 12:45:40 +0000 2015
p165
sVfilter_level
p166
g118
sVin_reply_to_status_id_str
p167
NsVplace
p168
(dp169
Vfull_name
p170
VZurich, Switzerland
p171
sg73
Vhttps://api.twitter.com/1.1/geo/id/3acb748d0f1e9265.json
p172
sVcountry
p173
VSchweiz
p174
sVplace_type
p175
Vcity
p176
sVbounding_box
p177
(dp178
Vtype
p179
VPolygon
p180
sg135
(lp181
(lp182
(lp183
F8.448081
aF47.320183
aa(lp184
F8.448081
aF47.434721
aa(lp185
F8.625442
aF47.434721
aa(lp186
F8.625442
aF47.320183
aaassVcountry_code
p187
VCH
p188
sVattributes
p189
(dp190
sg33
V3acb748d0f1e9265
p191
sg64
VZurich
p192
sssS'coordinates'
p193
NsS'timestamp_ms'
p194
g137
sS'entities'
p195
g139
sS'in_reply_to_status_id_str'
p196
NsS'in_reply_to_screen_name'
p197
Nsg88
g157
sS'retweeted'
p198
I00
sS'place'
p199
g0
(ctweepy.models
Place
p200
g2
Ntp201
Rp202
(dp203
S'full_name'
p204
g171
sg105
g172
sS'country'
p205
g174
sS'place_type'
p206
g176
sS'bounding_box'
p207
g0
(ctweepy.models
BoundingBox
p208
g2
Ntp209
Rp210
(dp211
S'type'
p212
g180
sg193
g181
sbsS'country_code'
p213
g188
sS'attributes'
p214
g190
sg24
g191
sg99
g192
sbsS'retweet_count'
p215
I0
sg106
g107
(S'\x07\xdf\x07\x0e\x0c-(\x00\x00\x00'
p216
tp217
Rp218
sS'in_reply_to_user_id'
p219
Nsb.