ccopy_reg
_reconstructor
p0
(ctweepy.models
Status
p1
c__builtin__
object
p2
Ntp3
Rp4
(dp5
S'favorited'
p6
I00
sS'contributors'
p7
NsS'truncated'
p8
I00
sS'text'
p9
Vshe actually blocked more for that \u000a\u000aim out of words xD http://t.co/m3bzX8YsQc
p10
sS'source_url'
p11
Vhttp://twitter.com
p12
sS'possibly_sensitive'
p13
I00
sS'in_reply_to_status_id'
p14
NsS'user'
p15
g0
(ctweepy.models
User
p16
g2
Ntp17
Rp18
(dp19
S'follow_request_sent'
p20
NsS'profile_use_background_image'
p21
I01
sS'profile_sidebar_fill_color'
p22
VDDEEF6
p23
sS'id'
p24
I924059480
sS'verified'
p25
I00
sS'profile_image_url_https'
p26
Vhttps://pbs.twimg.com/profile_images/557864182692212737/4iKLt0cn_normal.jpeg
p27
sS'_json'
p28
(dp29
Vfollow_request_sent
p30
NsVprofile_use_background_image
p31
I01
sVdefault_profile_image
p32
I00
sVid
p33
I924059480
sVverified
p34
I00
sVprofile_image_url_https
p35
g27
sVprofile_sidebar_fill_color
p36
g23
sVprofile_text_color
p37
V333333
p38
sVfollowers_count
p39
I712
sVprofile_sidebar_border_color
p40
VC0DEED
p41
sVid_str
p42
V924059480
p43
sVprofile_background_color
p44
VC0DEED
p45
sVlisted_count
p46
I19
sVprofile_background_image_url_https
p47
Vhttps://abs.twimg.com/images/themes/theme1/bg.png
p48
sVutc_offset
p49
I-36000
sVstatuses_count
p50
I28742
sVdescription
p51
VGuy from switzerland who likes football, games (mostly LoL), mlp and other stuff. bi, 23 years old and single Private account:@Priv_Elondras Skype: Elondras
p52
sVfriends_count
p53
I512
sVlocation
p54
VSchweiz
p55
sVprofile_link_color
p56
V0084B4
p57
sVprofile_image_url
p58
Vhttp://pbs.twimg.com/profile_images/557864182692212737/4iKLt0cn_normal.jpeg
p59
sVfollowing
p60
NsVgeo_enabled
p61
I01
sVprofile_banner_url
p62
Vhttps://pbs.twimg.com/profile_banners/924059480/1421315927
p63
sVprofile_background_image_url
p64
Vhttp://abs.twimg.com/images/themes/theme1/bg.png
p65
sVname
p66
VElondras
p67
sVlang
p68
Ven
p69
sVprofile_background_tile
p70
I00
sVfavourites_count
p71
I6271
sVscreen_name
p72
VElondras
p73
sVnotifications
p74
NsVurl
p75
Vhttp://www.youtube.com/user/Elondras?feature=watch
p76
sVcreated_at
p77
VSat Nov 03 21:22:00 +0000 2012
p78
sVcontributors_enabled
p79
I00
sVtime_zone
p80
VHawaii
p81
sVprotected
p82
I00
sVdefault_profile
p83
I01
sVis_translator
p84
I00
ssS'contributors_enabled'
p85
I00
sS'profile_text_color'
p86
g38
sS'followers_count'
p87
I712
sS'profile_sidebar_border_color'
p88
g41
sS'location'
p89
g55
sS'default_profile_image'
p90
I00
sS'id_str'
p91
g43
sS'utc_offset'
p92
I-36000
sS'statuses_count'
p93
I28742
sS'description'
p94
g52
sS'friends_count'
p95
I512
sS'profile_link_color'
p96
g57
sS'profile_image_url'
p97
g59
sS'notifications'
p98
NsS'geo_enabled'
p99
I01
sS'profile_background_color'
p100
g45
sS'profile_banner_url'
p101
g63
sS'profile_background_image_url'
p102
g65
sS'name'
p103
g67
sS'lang'
p104
g69
sS'following'
p105
I00
sS'profile_background_tile'
p106
I00
sS'favourites_count'
p107
I6271
sS'screen_name'
p108
g73
sS'url'
p109
g76
sS'created_at'
p110
cdatetime
datetime
p111
(S'\x07\xdc\x0b\x03\x15\x16\x00\x00\x00\x00'
p112
tp113
Rp114
sS'profile_background_image_url_https'
p115
g48
sS'time_zone'
p116
g81
sS'protected'
p117
I00
sS'default_profile'
p118
I01
sS'is_translator'
p119
I00
sS'listed_count'
p120
I19
sbsS'filter_level'
p121
Vlow
p122
sS'geo'
p123
Nsg24
I621039578976157696
sS'favorite_count'
p124
I0
sS'source'
p125
VTwitter Web Client
p126
sg104
Ven
p127
sS'author'
p128
g18
sS'in_reply_to_user_id_str'
p129
Nsg28
(dp130
Vcontributors
p131
NsVtruncated
p132
I00
sVtext
p133
Vshe actually blocked more for that \u000a\u000aim out of words xD http://t.co/m3bzX8YsQc
p134
sVin_reply_to_status_id
p135
Nsg33
I621039578976157696
sVfavorite_count
p136
I0
sVsource
p137
V<a href="http://twitter.com" rel="nofollow">Twitter Web Client</a>
p138
sVretweeted
p139
I00
sVcoordinates
p140
NsVtimestamp_ms
p141
V1436902348642
p142
sVentities
p143
(dp144
Vsymbols
p145
(lp146
sVmedia
p147
(lp148
(dp149
Vexpanded_url
p150
Vhttp://twitter.com/Elondras/status/621039578976157696/photo/1
p151
sVdisplay_url
p152
Vpic.twitter.com/m3bzX8YsQc
p153
sg75
Vhttp://t.co/m3bzX8YsQc
p154
sVmedia_url_https
p155
Vhttps://pbs.twimg.com/media/CJ5gNKIUkAAayOD.png
p156
sg42
V621039577797529600
p157
sVsizes
p158
(dp159
Vsmall
p160
(dp161
Vh
p162
I251
sVresize
p163
Vfit
p164
sVw
p165
I340
ssVlarge
p166
(dp167
g162
I756
sg163
Vfit
p168
sg165
I1024
ssVmedium
p169
(dp170
g162
I443
sg163
Vfit
p171
sg165
I600
ssVthumb
p172
(dp173
g162
I150
sg163
Vcrop
p174
sg165
I150
sssVindices
p175
(lp176
I56
aI78
asVtype
p177
Vphoto
p178
sg33
I621039577797529600
sVmedia_url
p179
Vhttp://pbs.twimg.com/media/CJ5gNKIUkAAayOD.png
p180
sasVhashtags
p181
(lp182
sVuser_mentions
p183
(lp184
sVtrends
p185
(lp186
sVurls
p187
(lp188
ssVin_reply_to_screen_name
p189
Nsg42
V621039578976157696
p190
sVretweet_count
p191
I0
sVin_reply_to_user_id
p192
NsVfavorited
p193
I00
sVuser
p194
g29
sVgeo
p195
NsVin_reply_to_user_id_str
p196
NsVpossibly_sensitive
p197
I00
sg68
g127
sg77
VTue Jul 14 19:32:28 +0000 2015
p198
sVfilter_level
p199
g122
sVin_reply_to_status_id_str
p200
NsVplace
p201
(dp202
Vfull_name
p203
VZurich, Switzerland
p204
sg75
Vhttps://api.twitter.com/1.1/geo/id/3acb748d0f1e9265.json
p205
sVcountry
p206
VSchweiz
p207
sVplace_type
p208
Vcity
p209
sVbounding_box
p210
(dp211
g177
VPolygon
p212
sg140
(lp213
(lp214
(lp215
F8.448081
aF47.320183
aa(lp216
F8.448081
aF47.434721
aa(lp217
F8.625442
aF47.434721
aa(lp218
F8.625442
aF47.320183
aaassVcountry_code
p219
VCH
p220
sVattributes
p221
(dp222
sg33
V3acb748d0f1e9265
p223
sg66
VZurich
p224
ssVextended_entities
p225
(dp226
g147
(lp227
(dp228
g150
Vhttp://twitter.com/Elondras/status/621039578976157696/photo/1
p229
sg152
Vpic.twitter.com/m3bzX8YsQc
p230
sg75
Vhttp://t.co/m3bzX8YsQc
p231
sg155
Vhttps://pbs.twimg.com/media/CJ5gNKIUkAAayOD.png
p232
sg42
V621039577797529600
p233
sg158
(dp234
g160
(dp235
g162
I251
sg163
Vfit
p236
sg165
I340
ssg166
(dp237
g162
I756
sg163
Vfit
p238
sg165
I1024
ssg169
(dp239
g162
I443
sg163
Vfit
p240
sg165
I600
ssg172
(dp241
g162
I150
sg163
Vcrop
p242
sg165
I150
sssg175
(lp243
I56
aI78
asg177
Vphoto
p244
sg33
I621039577797529600
sg179
Vhttp://pbs.twimg.com/media/CJ5gNKIUkAAayOD.png
p245
sasssS'coordinates'
p246
NsS'timestamp_ms'
p247
g142
sS'entities'
p248
g144
sS'in_reply_to_status_id_str'
p249
NsS'in_reply_to_screen_name'
p250
Nsg91
g190
sS'extended_entities'
p251
g226
sS'retweeted'
p252
I00
sS'place'
p253
g0
(ctweepy.models
Place
p254
g2
Ntp255
Rp256
(dp257
S'full_name'
p258
g204
sg109
g205
sS'country'
p259
g207
sS'place_type'
p260
g209
sS'bounding_box'
p261
g0
(ctweepy.models
BoundingBox
p262
g2
Ntp263
Rp264
(dp265
S'type'
p266
g212
sg246
g213
sbsS'country_code'
p267
g220
sS'attributes'
p268
g222
sg24
g223
sg103
g224
sbsS'retweet_count'
p269
I0
sg110
g111
(S'\x07\xdf\x07\x0e\x13 \x1c\x00\x00\x00'
p270
tp271
Rp272
sS'in_reply_to_user_id'
p273
Nsb.