ccopy_reg
_reconstructor
p0
(ctweepy.models
Status
p1
c__builtin__
object
p2
Ntp3
Rp4
(dp5
S'favorited'
p6
I00
sS'contributors'
p7
NsS'truncated'
p8
I00
sS'text'
p9
V@xxxno1herexxx this is really cute http://t.co/vq5RHJbcyI
p10
sS'source_url'
p11
Vhttp://twitter.com
p12
sS'possibly_sensitive'
p13
I00
sS'in_reply_to_status_id'
p14
NsS'user'
p15
g0
(ctweepy.models
User
p16
g2
Ntp17
Rp18
(dp19
S'follow_request_sent'
p20
NsS'profile_use_background_image'
p21
I00
sS'profile_sidebar_fill_color'
p22
V000000
p23
sS'id'
p24
I2496951654
sS'verified'
p25
I00
sS'profile_image_url_https'
p26
Vhttps://pbs.twimg.com/profile_images/591438539105046528/CxG3zb0K_normal.jpg
p27
sS'_json'
p28
(dp29
Vfollow_request_sent
p30
NsVprofile_use_background_image
p31
I00
sVdefault_profile_image
p32
I00
sVid
p33
I2496951654
sVverified
p34
I00
sVprofile_image_url_https
p35
g27
sVprofile_sidebar_fill_color
p36
g23
sVprofile_text_color
p37
V000000
p38
sVfollowers_count
p39
I316
sVprofile_sidebar_border_color
p40
V000000
p41
sVid_str
p42
V2496951654
p43
sVprofile_background_color
p44
V000000
p45
sVlisted_count
p46
I1
sVprofile_background_image_url_https
p47
Vhttps://abs.twimg.com/images/themes/theme1/bg.png
p48
sVutc_offset
p49
I21600
sVstatuses_count
p50
I350
sVdescription
p51
V18 + NSFW http://johnnyjoe18.blogspot.com
p52
sVfriends_count
p53
I161
sVlocation
p54
Vjohnny.j.islas@gmail.com
p55
sVprofile_link_color
p56
V33B300
p57
sVprofile_image_url
p58
Vhttp://pbs.twimg.com/profile_images/591438539105046528/CxG3zb0K_normal.jpg
p59
sVfollowing
p60
NsVgeo_enabled
p61
I01
sVprofile_banner_url
p62
Vhttps://pbs.twimg.com/profile_banners/2496951654/1403603448
p63
sVprofile_background_image_url
p64
Vhttp://abs.twimg.com/images/themes/theme1/bg.png
p65
sVname
p66
Vjohnny joe
p67
sVlang
p68
Ven
p69
sVprofile_background_tile
p70
I00
sVfavourites_count
p71
I160
sVscreen_name
p72
Vjohnnyjoe_jj
p73
sVnotifications
p74
NsVurl
p75
Vhttp://johnnyjoe18.blogspot.com
p76
sVcreated_at
p77
VThu May 15 19:04:39 +0000 2014
p78
sVcontributors_enabled
p79
I00
sVtime_zone
p80
VUrumqi
p81
sVprotected
p82
I00
sVdefault_profile
p83
I00
sVis_translator
p84
I00
ssS'contributors_enabled'
p85
I00
sS'profile_text_color'
p86
g38
sS'followers_count'
p87
I316
sS'profile_sidebar_border_color'
p88
g41
sS'location'
p89
g55
sS'default_profile_image'
p90
I00
sS'id_str'
p91
g43
sS'utc_offset'
p92
I21600
sS'statuses_count'
p93
I350
sS'description'
p94
g52
sS'friends_count'
p95
I161
sS'profile_link_color'
p96
g57
sS'profile_image_url'
p97
g59
sS'notifications'
p98
NsS'geo_enabled'
p99
I01
sS'profile_background_color'
p100
g45
sS'profile_banner_url'
p101
g63
sS'profile_background_image_url'
p102
g65
sS'name'
p103
g67
sS'lang'
p104
g69
sS'following'
p105
I00
sS'profile_background_tile'
p106
I00
sS'favourites_count'
p107
I160
sS'screen_name'
p108
g73
sS'url'
p109
g76
sS'created_at'
p110
cdatetime
datetime
p111
(S"\x07\xde\x05\x0f\x13\x04'\x00\x00\x00"
p112
tp113
Rp114
sS'profile_background_image_url_https'
p115
g48
sS'time_zone'
p116
g81
sS'protected'
p117
I00
sS'default_profile'
p118
I00
sS'is_translator'
p119
I00
sS'listed_count'
p120
I1
sbsS'filter_level'
p121
Vlow
p122
sS'geo'
p123
Nsg24
I621118592818483200
sS'favorite_count'
p124
I0
sS'source'
p125
VTwitter Web Client
p126
sg104
Ven
p127
sS'author'
p128
g18
sS'in_reply_to_user_id_str'
p129
V2314281175
p130
sg28
(dp131
Vcontributors
p132
NsVtruncated
p133
I00
sVtext
p134
g10
sVin_reply_to_status_id
p135
Nsg33
I621118592818483200
sVfavorite_count
p136
I0
sVsource
p137
V<a href="http://twitter.com" rel="nofollow">Twitter Web Client</a>
p138
sVretweeted
p139
I00
sVcoordinates
p140
NsVtimestamp_ms
p141
V1436921187010
p142
sVentities
p143
(dp144
Vsymbols
p145
(lp146
sVmedia
p147
(lp148
(dp149
Vexpanded_url
p150
Vhttp://twitter.com/johnnyjoe_jj/status/621118592818483200/photo/1
p151
sVdisplay_url
p152
Vpic.twitter.com/vq5RHJbcyI
p153
sg75
Vhttp://t.co/vq5RHJbcyI
p154
sVmedia_url_https
p155
Vhttps://pbs.twimg.com/media/CJ6oEKjXAAAD1M-.jpg
p156
sg42
V621118588129312768
p157
sVsizes
p158
(dp159
Vsmall
p160
(dp161
Vh
p162
I278
sVresize
p163
Vfit
p164
sVw
p165
I283
ssVlarge
p166
(dp167
g162
I278
sg163
Vfit
p168
sg165
I283
ssVmedium
p169
(dp170
g162
I278
sg163
Vfit
p171
sg165
I283
ssVthumb
p172
(dp173
g162
I150
sg163
Vcrop
p174
sg165
I150
sssVindices
p175
(lp176
I35
aI57
asVtype
p177
Vphoto
p178
sg33
I621118588129312768
sVmedia_url
p179
Vhttp://pbs.twimg.com/media/CJ6oEKjXAAAD1M-.jpg
p180
sasVhashtags
p181
(lp182
sVuser_mentions
p183
(lp184
(dp185
g33
I2314281175
sg175
(lp186
I0
aI14
asg42
V2314281175
p187
sg72
Vxxxno1herexxx
p188
sg66
Vxxxno1herexxx
p189
sasVtrends
p190
(lp191
sVurls
p192
(lp193
ssVin_reply_to_screen_name
p194
Vxxxno1herexxx
p195
sg42
V621118592818483200
p196
sVretweet_count
p197
I0
sVin_reply_to_user_id
p198
I2314281175
sVfavorited
p199
I00
sVuser
p200
g29
sVgeo
p201
NsVin_reply_to_user_id_str
p202
g130
sVpossibly_sensitive
p203
I00
sg68
g127
sg77
VWed Jul 15 00:46:27 +0000 2015
p204
sVfilter_level
p205
g122
sVin_reply_to_status_id_str
p206
NsVplace
p207
(dp208
Vfull_name
p209
VZurich, Switzerland
p210
sg75
Vhttps://api.twitter.com/1.1/geo/id/3acb748d0f1e9265.json
p211
sVcountry
p212
VSchweiz
p213
sVplace_type
p214
Vcity
p215
sVbounding_box
p216
(dp217
g177
VPolygon
p218
sg140
(lp219
(lp220
(lp221
F8.448081
aF47.320183
aa(lp222
F8.448081
aF47.434721
aa(lp223
F8.625442
aF47.434721
aa(lp224
F8.625442
aF47.320183
aaassVcountry_code
p225
VCH
p226
sVattributes
p227
(dp228
sg33
V3acb748d0f1e9265
p229
sg66
VZurich
p230
ssVextended_entities
p231
(dp232
g147
(lp233
(dp234
g150
Vhttp://twitter.com/johnnyjoe_jj/status/621118592818483200/photo/1
p235
sg152
Vpic.twitter.com/vq5RHJbcyI
p236
sg75
Vhttp://t.co/vq5RHJbcyI
p237
sg155
Vhttps://pbs.twimg.com/media/CJ6oEKjXAAAD1M-.jpg
p238
sg42
V621118588129312768
p239
sg158
(dp240
g160
(dp241
g162
I278
sg163
Vfit
p242
sg165
I283
ssg166
(dp243
g162
I278
sg163
Vfit
p244
sg165
I283
ssg169
(dp245
g162
I278
sg163
Vfit
p246
sg165
I283
ssg172
(dp247
g162
I150
sg163
Vcrop
p248
sg165
I150
sssg175
(lp249
I35
aI57
asg177
Vphoto
p250
sg33
I621118588129312768
sg179
Vhttp://pbs.twimg.com/media/CJ6oEKjXAAAD1M-.jpg
p251
sasssS'coordinates'
p252
NsS'timestamp_ms'
p253
g142
sS'entities'
p254
g144
sS'in_reply_to_status_id_str'
p255
NsS'in_reply_to_screen_name'
p256
g195
sg91
g196
sS'extended_entities'
p257
g232
sS'retweeted'
p258
I00
sS'place'
p259
g0
(ctweepy.models
Place
p260
g2
Ntp261
Rp262
(dp263
S'full_name'
p264
g210
sg109
g211
sS'country'
p265
g213
sS'place_type'
p266
g215
sS'bounding_box'
p267
g0
(ctweepy.models
BoundingBox
p268
g2
Ntp269
Rp270
(dp271
S'type'
p272
g218
sg252
g219
sbsS'country_code'
p273
g226
sS'attributes'
p274
g228
sg24
g229
sg103
g230
sbsS'retweet_count'
p275
I0
sg110
g111
(S'\x07\xdf\x07\x0f\x00.\x1b\x00\x00\x00'
p276
tp277
Rp278
sS'in_reply_to_user_id'
p279
I2314281175
sb.