ccopy_reg
_reconstructor
p0
(ctweepy.models
Status
p1
c__builtin__
object
p2
Ntp3
Rp4
(dp5
S'favorited'
p6
I00
sS'contributors'
p7
NsS'truncated'
p8
I00
sS'text'
p9
VSunrise over the clouds on route to a double #destinationwedding in Switzerland #weddingphotography http://t.co/896WzALwh2
p10
sS'source_url'
p11
Vhttp://twitter.com/download/iphone
p12
sS'possibly_sensitive'
p13
I00
sS'in_reply_to_status_id'
p14
NsS'user'
p15
g0
(ctweepy.models
User
p16
g2
Ntp17
Rp18
(dp19
S'follow_request_sent'
p20
NsS'profile_use_background_image'
p21
I00
sS'profile_sidebar_fill_color'
p22
V000000
p23
sS'id'
p24
I369511855
sS'verified'
p25
I00
sS'profile_image_url_https'
p26
Vhttps://pbs.twimg.com/profile_images/559067609526988800/XL4lu6Xu_normal.jpeg
p27
sS'_json'
p28
(dp29
Vfollow_request_sent
p30
NsVprofile_use_background_image
p31
I00
sVdefault_profile_image
p32
I00
sVid
p33
I369511855
sVverified
p34
I00
sVprofile_image_url_https
p35
g27
sVprofile_sidebar_fill_color
p36
g23
sVprofile_text_color
p37
V000000
p38
sVfollowers_count
p39
I135
sVprofile_sidebar_border_color
p40
V000000
p41
sVid_str
p42
V369511855
p43
sVprofile_background_color
p44
V000000
p45
sVlisted_count
p46
I8
sVprofile_background_image_url_https
p47
Vhttps://abs.twimg.com/images/themes/theme2/bg.gif
p48
sVutc_offset
p49
I3600
sVstatuses_count
p50
I188
sVdescription
p51
VOwners @ Avenue White - We specialise in Documentary Weddings & love to chat anything photos! In a team of 3 with our little boy Flynn.
p52
sVfriends_count
p53
I102
sVlocation
p54
VHarrogate, UK
p55
sVprofile_link_color
p56
V54A29D
p57
sVprofile_image_url
p58
Vhttp://pbs.twimg.com/profile_images/559067609526988800/XL4lu6Xu_normal.jpeg
p59
sVfollowing
p60
NsVgeo_enabled
p61
I01
sVprofile_banner_url
p62
Vhttps://pbs.twimg.com/profile_banners/369511855/1424124090
p63
sVprofile_background_image_url
p64
Vhttp://abs.twimg.com/images/themes/theme2/bg.gif
p65
sVname
p66
VJonny & Brigitta 
p67
sVlang
p68
Ven
p69
sVprofile_background_tile
p70
I00
sVfavourites_count
p71
I75
sVscreen_name
p72
Vavenuewhite
p73
sVnotifications
p74
NsVurl
p75
Vhttp://avenuewhitephotography.com
p76
sVcreated_at
p77
VWed Sep 07 13:51:42 +0000 2011
p78
sVcontributors_enabled
p79
I00
sVtime_zone
p80
VLondon
p81
sVprotected
p82
I00
sVdefault_profile
p83
I00
sVis_translator
p84
I00
ssS'contributors_enabled'
p85
I00
sS'profile_text_color'
p86
g38
sS'followers_count'
p87
I135
sS'profile_sidebar_border_color'
p88
g41
sS'location'
p89
g55
sS'default_profile_image'
p90
I00
sS'id_str'
p91
g43
sS'utc_offset'
p92
I3600
sS'statuses_count'
p93
I188
sS'description'
p94
g52
sS'friends_count'
p95
I102
sS'profile_link_color'
p96
g57
sS'profile_image_url'
p97
g59
sS'notifications'
p98
NsS'geo_enabled'
p99
I01
sS'profile_background_color'
p100
g45
sS'profile_banner_url'
p101
g63
sS'profile_background_image_url'
p102
g65
sS'name'
p103
g67
sS'lang'
p104
g69
sS'following'
p105
I00
sS'profile_background_tile'
p106
I00
sS'favourites_count'
p107
I75
sS'screen_name'
p108
g73
sS'url'
p109
g76
sS'created_at'
p110
cdatetime
datetime
p111
(S'\x07\xdb\t\x07\r3*\x00\x00\x00'
p112
tp113
Rp114
sS'profile_background_image_url_https'
p115
g48
sS'time_zone'
p116
g81
sS'protected'
p117
I00
sS'default_profile'
p118
I00
sS'is_translator'
p119
I00
sS'listed_count'
p120
I8
sbsS'filter_level'
p121
Vlow
p122
sS'geo'
p123
Nsg24
I621207405775429632
sS'favorite_count'
p124
I0
sS'source'
p125
VTwitter for iPhone
p126
sg104
Ven
p127
sS'author'
p128
g18
sS'in_reply_to_user_id_str'
p129
Nsg28
(dp130
Vcontributors
p131
NsVtruncated
p132
I00
sVtext
p133
g10
sVin_reply_to_status_id
p134
Nsg33
I621207405775429632
sVfavorite_count
p135
I0
sVsource
p136
V<a href="http://twitter.com/download/iphone" rel="nofollow">Twitter for iPhone</a>
p137
sVretweeted
p138
I00
sVcoordinates
p139
NsVtimestamp_ms
p140
V1436942361669
p141
sVentities
p142
(dp143
Vsymbols
p144
(lp145
sVmedia
p146
(lp147
(dp148
Vexpanded_url
p149
Vhttp://twitter.com/avenuewhite/status/621207405775429632/photo/1
p150
sVdisplay_url
p151
Vpic.twitter.com/896WzALwh2
p152
sg75
Vhttp://t.co/896WzALwh2
p153
sVmedia_url_https
p154
Vhttps://pbs.twimg.com/media/CJ740c-UsAEATPb.jpg
p155
sg42
V621207378638188545
p156
sVsizes
p157
(dp158
Vsmall
p159
(dp160
Vh
p161
I340
sVresize
p162
Vfit
p163
sVw
p164
I340
ssVlarge
p165
(dp166
g161
I1024
sg162
Vfit
p167
sg164
I1024
ssVmedium
p168
(dp169
g161
I600
sg162
Vfit
p170
sg164
I600
ssVthumb
p171
(dp172
g161
I150
sg162
Vcrop
p173
sg164
I150
sssVindices
p174
(lp175
I100
aI122
asVtype
p176
Vphoto
p177
sg33
I621207378638188545
sVmedia_url
p178
Vhttp://pbs.twimg.com/media/CJ740c-UsAEATPb.jpg
p179
sasVhashtags
p180
(lp181
(dp182
g174
(lp183
I45
aI64
asg133
Vdestinationwedding
p184
sa(dp185
g174
(lp186
I80
aI99
asg133
Vweddingphotography
p187
sasVuser_mentions
p188
(lp189
sVtrends
p190
(lp191
sVurls
p192
(lp193
ssVin_reply_to_screen_name
p194
Nsg42
V621207405775429632
p195
sVretweet_count
p196
I0
sVin_reply_to_user_id
p197
NsVfavorited
p198
I00
sVuser
p199
g29
sVgeo
p200
NsVin_reply_to_user_id_str
p201
NsVpossibly_sensitive
p202
I00
sg68
g127
sg77
VWed Jul 15 06:39:21 +0000 2015
p203
sVfilter_level
p204
g122
sVin_reply_to_status_id_str
p205
NsVplace
p206
(dp207
Vfull_name
p208
VZurich, Switzerland
p209
sg75
Vhttps://api.twitter.com/1.1/geo/id/3acb748d0f1e9265.json
p210
sVcountry
p211
VSchweiz
p212
sVplace_type
p213
Vcity
p214
sVbounding_box
p215
(dp216
g176
VPolygon
p217
sg139
(lp218
(lp219
(lp220
F8.448081
aF47.320183
aa(lp221
F8.448081
aF47.434721
aa(lp222
F8.625442
aF47.434721
aa(lp223
F8.625442
aF47.320183
aaassVcountry_code
p224
VCH
p225
sVattributes
p226
(dp227
sg33
V3acb748d0f1e9265
p228
sg66
VZurich
p229
ssVextended_entities
p230
(dp231
g146
(lp232
(dp233
g149
Vhttp://twitter.com/avenuewhite/status/621207405775429632/photo/1
p234
sg151
Vpic.twitter.com/896WzALwh2
p235
sg75
Vhttp://t.co/896WzALwh2
p236
sg154
Vhttps://pbs.twimg.com/media/CJ740c-UsAEATPb.jpg
p237
sg42
V621207378638188545
p238
sg157
(dp239
g159
(dp240
g161
I340
sg162
Vfit
p241
sg164
I340
ssg165
(dp242
g161
I1024
sg162
Vfit
p243
sg164
I1024
ssg168
(dp244
g161
I600
sg162
Vfit
p245
sg164
I600
ssg171
(dp246
g161
I150
sg162
Vcrop
p247
sg164
I150
sssg174
(lp248
I100
aI122
asg176
Vphoto
p249
sg33
I621207378638188545
sg178
Vhttp://pbs.twimg.com/media/CJ740c-UsAEATPb.jpg
p250
sasssS'coordinates'
p251
NsS'timestamp_ms'
p252
g141
sS'entities'
p253
g143
sS'in_reply_to_status_id_str'
p254
NsS'in_reply_to_screen_name'
p255
Nsg91
g195
sS'extended_entities'
p256
g231
sS'retweeted'
p257
I00
sS'place'
p258
g0
(ctweepy.models
Place
p259
g2
Ntp260
Rp261
(dp262
S'full_name'
p263
g209
sg109
g210
sS'country'
p264
g212
sS'place_type'
p265
g214
sS'bounding_box'
p266
g0
(ctweepy.models
BoundingBox
p267
g2
Ntp268
Rp269
(dp270
S'type'
p271
g217
sg251
g218
sbsS'country_code'
p272
g225
sS'attributes'
p273
g227
sg24
g228
sg103
g229
sbsS'retweet_count'
p274
I0
sg110
g111
(S"\x07\xdf\x07\x0f\x06'\x15\x00\x00\x00"
p275
tp276
Rp277
sS'in_reply_to_user_id'
p278
Nsb.