ccopy_reg
_reconstructor
p0
(ctweepy.models
Status
p1
c__builtin__
object
p2
Ntp3
Rp4
(dp5
S'favorited'
p6
I00
sS'contributors'
p7
NsS'truncated'
p8
I00
sS'text'
p9
VWe are hiring an English-German Financial Translator in #London. Please share the job ad:  http://t.co/Qj39rCjF4E  /cc @CLS_UK
p10
sS'source_url'
p11
Vhttp://twitter.com
p12
sS'possibly_sensitive'
p13
I00
sS'in_reply_to_status_id'
p14
I618331479882473472
sS'user'
p15
g0
(ctweepy.models
User
p16
g2
Ntp17
Rp18
(dp19
S'follow_request_sent'
p20
NsS'profile_use_background_image'
p21
I00
sS'profile_sidebar_fill_color'
p22
VDDEEF6
p23
sS'id'
p24
I142696766
sS'verified'
p25
I00
sS'profile_image_url_https'
p26
Vhttps://pbs.twimg.com/profile_images/2961647105/53fc9c3eaaf820c7b87386b0660d4100_normal.jpeg
p27
sS'_json'
p28
(dp29
Vfollow_request_sent
p30
NsVprofile_use_background_image
p31
I00
sVdefault_profile_image
p32
I00
sVid
p33
I142696766
sVverified
p34
I00
sVprofile_image_url_https
p35
g27
sVprofile_sidebar_fill_color
p36
g23
sVprofile_text_color
p37
V333333
p38
sVfollowers_count
p39
I1813
sVprofile_sidebar_border_color
p40
VFFFFFF
p41
sVid_str
p42
V142696766
p43
sVprofile_background_color
p44
VC0DEED
p45
sVlisted_count
p46
I92
sVprofile_background_image_url_https
p47
Vhttps://pbs.twimg.com/profile_background_images/378800000161739943/DwtWV2IL.jpeg
p48
sVutc_offset
p49
NsVstatuses_count
p50
I5459
sVdescription
p51
VWe write,  we edit,  we translate.  Tweeting for CLS Communication: Sandra Wendland in Basel, Switzerland. Suggestions? Contact: web@cls-communication.com ..
p52
sVfriends_count
p53
I2000
sVlocation
p54
VBasel, Switzerland
p55
sVprofile_link_color
p56
V004078
p57
sVprofile_image_url
p58
Vhttp://pbs.twimg.com/profile_images/2961647105/53fc9c3eaaf820c7b87386b0660d4100_normal.jpeg
p59
sVfollowing
p60
NsVgeo_enabled
p61
I01
sVprofile_banner_url
p62
Vhttps://pbs.twimg.com/profile_banners/142696766/1435826015
p63
sVprofile_background_image_url
p64
Vhttp://pbs.twimg.com/profile_background_images/378800000161739943/DwtWV2IL.jpeg
p65
sVname
p66
VCLS Communication
p67
sVlang
p68
Ven
p69
sVprofile_background_tile
p70
I00
sVfavourites_count
p71
I3036
sVscreen_name
p72
VCLSnews
p73
sVnotifications
p74
NsVurl
p75
Vhttp://www.cls-communication.com/
p76
sVcreated_at
p77
VTue May 11 14:23:07 +0000 2010
p78
sVcontributors_enabled
p79
I00
sVtime_zone
p80
NsVprotected
p81
I00
sVdefault_profile
p82
I00
sVis_translator
p83
I00
ssS'contributors_enabled'
p84
I00
sS'profile_text_color'
p85
g38
sS'followers_count'
p86
I1813
sS'profile_sidebar_border_color'
p87
g41
sS'location'
p88
g55
sS'default_profile_image'
p89
I00
sS'id_str'
p90
g43
sS'utc_offset'
p91
NsS'statuses_count'
p92
I5459
sS'description'
p93
g52
sS'friends_count'
p94
I2000
sS'profile_link_color'
p95
g57
sS'profile_image_url'
p96
g59
sS'notifications'
p97
NsS'geo_enabled'
p98
I01
sS'profile_background_color'
p99
g45
sS'profile_banner_url'
p100
g63
sS'profile_background_image_url'
p101
g65
sS'name'
p102
g67
sS'lang'
p103
g69
sS'following'
p104
I00
sS'profile_background_tile'
p105
I00
sS'favourites_count'
p106
I3036
sS'screen_name'
p107
g73
sS'url'
p108
g76
sS'created_at'
p109
cdatetime
datetime
p110
(S'\x07\xda\x05\x0b\x0e\x17\x07\x00\x00\x00'
p111
tp112
Rp113
sS'profile_background_image_url_https'
p114
g48
sS'time_zone'
p115
NsS'protected'
p116
I00
sS'default_profile'
p117
I00
sS'is_translator'
p118
I00
sS'listed_count'
p119
I92
sbsS'filter_level'
p120
Vlow
p121
sS'geo'
p122
Nsg24
I618448760511840256
sS'favorite_count'
p123
I0
sS'source'
p124
VTwitter Web Client
p125
sg103
Ven
p126
sS'author'
p127
g18
sS'in_reply_to_user_id_str'
p128
V301375739
p129
sg28
(dp130
Vcontributors
p131
NsVtruncated
p132
I00
sVtext
p133
g10
sVin_reply_to_status_id
p134
I618331479882473472
sg33
I618448760511840256
sVfavorite_count
p135
I0
sVsource
p136
V<a href="http://twitter.com" rel="nofollow">Twitter Web Client</a>
p137
sVretweeted
p138
I00
sVcoordinates
p139
NsVtimestamp_ms
p140
V1436284649385
p141
sVentities
p142
(dp143
Vuser_mentions
p144
(lp145
(dp146
g33
I301375739
sVindices
p147
(lp148
I119
aI126
asg42
V301375739
p149
sg72
VCLS_UK
p150
sg66
VCLS Communication UK
p151
sasVsymbols
p152
(lp153
sVtrends
p154
(lp155
sVhashtags
p156
(lp157
(dp158
g147
(lp159
I56
aI63
asg133
VLondon
p160
sasVurls
p161
(lp162
(dp163
g75
Vhttp://t.co/Qj39rCjF4E
p164
sg147
(lp165
I91
aI113
asVexpanded_url
p166
Vhttp://www.cls-communication.com/en/jobs/english-german-financial-translator
p167
sVdisplay_url
p168
Vcls-communication.com/en/jobs/englis\u2026
p169
sassVin_reply_to_screen_name
p170
VCLS_UK
p171
sg42
V618448760511840256
p172
sVretweet_count
p173
I0
sVin_reply_to_user_id
p174
I301375739
sVfavorited
p175
I00
sVuser
p176
g29
sVgeo
p177
NsVin_reply_to_user_id_str
p178
g129
sVpossibly_sensitive
p179
I00
sg68
g126
sg77
VTue Jul 07 15:57:29 +0000 2015
p180
sVfilter_level
p181
g121
sVin_reply_to_status_id_str
p182
V618331479882473472
p183
sVplace
p184
(dp185
Vfull_name
p186
VZurich, Switzerland
p187
sg75
Vhttps://api.twitter.com/1.1/geo/id/3acb748d0f1e9265.json
p188
sVcountry
p189
VSchweiz
p190
sVplace_type
p191
Vcity
p192
sVbounding_box
p193
(dp194
Vtype
p195
VPolygon
p196
sg139
(lp197
(lp198
(lp199
F8.448081
aF47.320183
aa(lp200
F8.448081
aF47.434721
aa(lp201
F8.625442
aF47.434721
aa(lp202
F8.625442
aF47.320183
aaassVcountry_code
p203
VCH
p204
sVattributes
p205
(dp206
sg33
V3acb748d0f1e9265
p207
sg66
VZurich
p208
sssS'coordinates'
p209
NsS'timestamp_ms'
p210
g141
sS'entities'
p211
g143
sS'in_reply_to_status_id_str'
p212
g183
sS'in_reply_to_screen_name'
p213
g171
sg90
g172
sS'retweeted'
p214
I00
sS'place'
p215
g0
(ctweepy.models
Place
p216
g2
Ntp217
Rp218
(dp219
S'full_name'
p220
g187
sg108
g188
sS'country'
p221
g190
sS'place_type'
p222
g192
sS'bounding_box'
p223
g0
(ctweepy.models
BoundingBox
p224
g2
Ntp225
Rp226
(dp227
S'type'
p228
g196
sg209
g197
sbsS'country_code'
p229
g204
sS'attributes'
p230
g206
sg24
g207
sg102
g208
sbsS'retweet_count'
p231
I0
sg109
g110
(S'\x07\xdf\x07\x07\x0f9\x1d\x00\x00\x00'
p232
tp233
Rp234
sS'in_reply_to_user_id'
p235
I301375739
sb.