ccopy_reg
_reconstructor
p0
(ctweepy.models
Status
p1
c__builtin__
object
p2
Ntp3
Rp4
(dp5
S'favorited'
p6
I00
sS'contributors'
p7
NsS'truncated'
p8
I00
sS'text'
p9
VSure, will do @rcalo
p10
sS'source_url'
p11
Vhttp://twitter.com/download/iphone
p12
sS'possibly_sensitive'
p13
I01
sS'in_reply_to_status_id'
p14
I620685588341993472
sS'user'
p15
g0
(ctweepy.models
User
p16
g2
Ntp17
Rp18
(dp19
S'follow_request_sent'
p20
NsS'profile_use_background_image'
p21
I00
sS'profile_sidebar_fill_color'
p22
VDDEEF6
p23
sS'id'
p24
I64404895
sS'verified'
p25
I00
sS'profile_image_url_https'
p26
Vhttps://pbs.twimg.com/profile_images/532304119596601345/NCceuQWC_normal.jpeg
p27
sS'_json'
p28
(dp29
Vfollow_request_sent
p30
NsVprofile_use_background_image
p31
I00
sVdefault_profile_image
p32
I00
sVid
p33
I64404895
sVverified
p34
I00
sVprofile_image_url_https
p35
g27
sVprofile_sidebar_fill_color
p36
g23
sVprofile_text_color
p37
V333333
p38
sVfollowers_count
p39
I1178
sVprofile_sidebar_border_color
p40
VFFFFFF
p41
sVid_str
p42
V64404895
p43
sVprofile_background_color
p44
VF7F7F7
p45
sVlisted_count
p46
I59
sVprofile_background_image_url_https
p47
Vhttps://pbs.twimg.com/profile_background_images/455393916062162944/jmENSek7.jpeg
p48
sVutc_offset
p49
I3600
sVstatuses_count
p50
I2691
sVdescription
p51
VConnecting dots to advance Swiss Higher Education @switch_ch ; #Internet Service #Innovation Researcher; Innovator; Passionate about Tech ; dogfather; O|||||||O
p52
sVfriends_count
p53
I1997
sVlocation
p54
VZurich, Switzerland
p55
sVprofile_link_color
p56
V3B94D9
p57
sVprofile_image_url
p58
Vhttp://pbs.twimg.com/profile_images/532304119596601345/NCceuQWC_normal.jpeg
p59
sVfollowing
p60
NsVgeo_enabled
p61
I01
sVprofile_banner_url
p62
Vhttps://pbs.twimg.com/profile_banners/64404895/1431541449
p63
sVprofile_background_image_url
p64
Vhttp://pbs.twimg.com/profile_background_images/455393916062162944/jmENSek7.jpeg
p65
sVname
p66
VSebastian Sigloch
p67
sVlang
p68
Ven
p69
sVprofile_background_tile
p70
I00
sVfavourites_count
p71
I1629
sVscreen_name
p72
VSebSigloch
p73
sVnotifications
p74
NsVurl
p75
NsVcreated_at
p76
VMon Aug 10 13:38:45 +0000 2009
p77
sVcontributors_enabled
p78
I00
sVtime_zone
p79
VLondon
p80
sVprotected
p81
I00
sVdefault_profile
p82
I00
sVis_translator
p83
I00
ssS'contributors_enabled'
p84
I00
sS'profile_text_color'
p85
g38
sS'followers_count'
p86
I1178
sS'profile_sidebar_border_color'
p87
g41
sS'location'
p88
g55
sS'default_profile_image'
p89
I00
sS'id_str'
p90
g43
sS'utc_offset'
p91
I3600
sS'statuses_count'
p92
I2691
sS'description'
p93
g52
sS'friends_count'
p94
I1997
sS'profile_link_color'
p95
g57
sS'profile_image_url'
p96
g59
sS'notifications'
p97
NsS'geo_enabled'
p98
I01
sS'profile_background_color'
p99
g45
sS'profile_banner_url'
p100
g63
sS'profile_background_image_url'
p101
g65
sS'name'
p102
g67
sS'lang'
p103
g69
sS'following'
p104
I00
sS'profile_background_tile'
p105
I00
sS'favourites_count'
p106
I1629
sS'screen_name'
p107
g73
sS'url'
p108
NsS'created_at'
p109
cdatetime
datetime
p110
(S'\x07\xd9\x08\n\r&-\x00\x00\x00'
p111
tp112
Rp113
sS'profile_background_image_url_https'
p114
g48
sS'time_zone'
p115
g80
sS'protected'
p116
I00
sS'default_profile'
p117
I00
sS'is_translator'
p118
I00
sS'listed_count'
p119
I59
sbsS'filter_level'
p120
Vlow
p121
sS'geo'
p122
Nsg24
I620686263604133888
sS'favorite_count'
p123
I0
sS'source'
p124
VTwitter for iPhone
p125
sg103
Ven
p126
sS'author'
p127
g18
sS'in_reply_to_user_id_str'
p128
V23117374
p129
sg28
(dp130
Vcontributors
p131
NsVtruncated
p132
I00
sVtext
p133
g10
sVin_reply_to_status_id
p134
I620685588341993472
sg33
I620686263604133888
sVfavorite_count
p135
I0
sVsource
p136
V<a href="http://twitter.com/download/iphone" rel="nofollow">Twitter for iPhone</a>
p137
sVretweeted
p138
I00
sVcoordinates
p139
NsVtimestamp_ms
p140
V1436818111693
p141
sVentities
p142
(dp143
Vuser_mentions
p144
(lp145
(dp146
g33
I23117374
sVindices
p147
(lp148
I14
aI20
asg42
V23117374
p149
sg72
Vrcalo
p150
sg66
VRyan Calo
p151
sasVsymbols
p152
(lp153
sVtrends
p154
(lp155
sVhashtags
p156
(lp157
sVurls
p158
(lp159
ssVin_reply_to_screen_name
p160
Vrcalo
p161
sg42
V620686263604133888
p162
sVretweet_count
p163
I0
sVin_reply_to_user_id
p164
I23117374
sVfavorited
p165
I00
sVuser
p166
g29
sVgeo
p167
NsVin_reply_to_user_id_str
p168
g129
sVpossibly_sensitive
p169
I01
sg68
g126
sg76
VMon Jul 13 20:08:31 +0000 2015
p170
sVfilter_level
p171
g121
sVin_reply_to_status_id_str
p172
V620685588341993472
p173
sVplace
p174
(dp175
Vfull_name
p176
VZurich, Switzerland
p177
sg75
Vhttps://api.twitter.com/1.1/geo/id/db94c1cccc67c4f4.json
p178
sVcountry
p179
VSchweiz
p180
sVplace_type
p181
Vadmin
p182
sVbounding_box
p183
(dp184
Vtype
p185
VPolygon
p186
sg139
(lp187
(lp188
(lp189
F8.357749
aF47.159384
aa(lp190
F8.357749
aF47.694503
aa(lp191
F8.984445
aF47.694503
aa(lp192
F8.984445
aF47.159384
aaassVcountry_code
p193
VCH
p194
sVattributes
p195
(dp196
sg33
Vdb94c1cccc67c4f4
p197
sg66
VZurich
p198
sssS'coordinates'
p199
NsS'timestamp_ms'
p200
g141
sS'entities'
p201
g143
sS'in_reply_to_status_id_str'
p202
g173
sS'in_reply_to_screen_name'
p203
g161
sg90
g162
sS'retweeted'
p204
I00
sS'place'
p205
g0
(ctweepy.models
Place
p206
g2
Ntp207
Rp208
(dp209
S'full_name'
p210
g177
sg108
g178
sS'country'
p211
g180
sS'place_type'
p212
g182
sS'bounding_box'
p213
g0
(ctweepy.models
BoundingBox
p214
g2
Ntp215
Rp216
(dp217
S'type'
p218
g186
sg199
g187
sbsS'country_code'
p219
g194
sS'attributes'
p220
g196
sg24
g197
sg102
g198
sbsS'retweet_count'
p221
I0
sg109
g110
(S'\x07\xdf\x07\r\x14\x08\x1f\x00\x00\x00'
p222
tp223
Rp224
sS'in_reply_to_user_id'
p225
I23117374
sb.