ccopy_reg
_reconstructor
p0
(ctweepy.models
Status
p1
c__builtin__
object
p2
Ntp3
Rp4
(dp5
S'favorited'
p6
I00
sS'contributors'
p7
NsS'truncated'
p8
I00
sS'text'
p9
V#DalaiLama its time to stop the ban! #NYC #USA
p10
sS'source_url'
p11
Vhttp://twitter.com/download/android
p12
sS'possibly_sensitive'
p13
I00
sS'in_reply_to_status_id'
p14
NsS'user'
p15
g0
(ctweepy.models
User
p16
g2
Ntp17
Rp18
(dp19
S'follow_request_sent'
p20
NsS'profile_use_background_image'
p21
I01
sS'profile_sidebar_fill_color'
p22
VDDEEF6
p23
sS'id'
p24
I2910788733
sS'verified'
p25
I00
sS'profile_image_url_https'
p26
Vhttps://pbs.twimg.com/profile_images/542051609614618624/nEsH_VBc_normal.png
p27
sS'_json'
p28
(dp29
Vfollow_request_sent
p30
NsVprofile_use_background_image
p31
I01
sVdefault_profile_image
p32
I00
sVid
p33
I2910788733
sVverified
p34
I00
sVprofile_image_url_https
p35
g27
sVprofile_sidebar_fill_color
p36
g23
sVprofile_text_color
p37
V333333
p38
sVfollowers_count
p39
I63
sVprofile_sidebar_border_color
p40
VC0DEED
p41
sVid_str
p42
V2910788733
p43
sVprofile_background_color
p44
VC0DEED
p45
sVlisted_count
p46
I1
sVprofile_background_image_url_https
p47
Vhttps://abs.twimg.com/images/themes/theme1/bg.png
p48
sVutc_offset
p49
NsVstatuses_count
p50
I206
sVdescription
p51
NsVfriends_count
p52
I70
sVlocation
p53
V
p54
sVprofile_link_color
p55
V0084B4
p56
sVprofile_image_url
p57
Vhttp://pbs.twimg.com/profile_images/542051609614618624/nEsH_VBc_normal.png
p58
sVfollowing
p59
NsVgeo_enabled
p60
I01
sVprofile_background_image_url
p61
Vhttp://abs.twimg.com/images/themes/theme1/bg.png
p62
sVname
p63
Vkelsang oepel
p64
sVlang
p65
Ven
p66
sVprofile_background_tile
p67
I00
sVfavourites_count
p68
I5
sVscreen_name
p69
VOepelOepel99
p70
sVnotifications
p71
NsVurl
p72
NsVcreated_at
p73
VMon Dec 08 11:49:28 +0000 2014
p74
sVcontributors_enabled
p75
I00
sVtime_zone
p76
NsVprotected
p77
I00
sVdefault_profile
p78
I01
sVis_translator
p79
I00
ssS'contributors_enabled'
p80
I00
sS'profile_text_color'
p81
g38
sS'followers_count'
p82
I63
sS'profile_sidebar_border_color'
p83
g41
sS'location'
p84
g54
sS'default_profile_image'
p85
I00
sS'id_str'
p86
g43
sS'utc_offset'
p87
NsS'statuses_count'
p88
I206
sS'description'
p89
NsS'friends_count'
p90
I70
sS'profile_link_color'
p91
g56
sS'profile_image_url'
p92
g58
sS'notifications'
p93
NsS'geo_enabled'
p94
I01
sS'profile_background_color'
p95
g45
sS'profile_background_image_url'
p96
g62
sS'name'
p97
g64
sS'lang'
p98
g66
sS'following'
p99
I00
sS'profile_background_tile'
p100
I00
sS'favourites_count'
p101
I5
sS'screen_name'
p102
g70
sS'url'
p103
NsS'created_at'
p104
cdatetime
datetime
p105
(S'\x07\xde\x0c\x08\x0b1\x1c\x00\x00\x00'
p106
tp107
Rp108
sS'profile_background_image_url_https'
p109
g48
sS'time_zone'
p110
NsS'protected'
p111
I00
sS'default_profile'
p112
I01
sS'is_translator'
p113
I00
sS'listed_count'
p114
I1
sbsS'filter_level'
p115
Vlow
p116
sS'geo'
p117
Nsg24
I619188658571210752
sS'favorite_count'
p118
I0
sS'source'
p119
VTwitter for Android
p120
sg98
Ven
p121
sS'author'
p122
g18
sS'in_reply_to_user_id_str'
p123
Nsg28
(dp124
Vcontributors
p125
NsVtruncated
p126
I00
sVtext
p127
g10
sVin_reply_to_status_id
p128
Nsg33
I619188658571210752
sVfavorite_count
p129
I0
sVsource
p130
V<a href="http://twitter.com/download/android" rel="nofollow">Twitter for Android</a>
p131
sVretweeted
p132
I00
sVcoordinates
p133
NsVtimestamp_ms
p134
V1436461054829
p135
sVentities
p136
(dp137
Vuser_mentions
p138
(lp139
sVsymbols
p140
(lp141
sVtrends
p142
(lp143
sVhashtags
p144
(lp145
(dp146
Vindices
p147
(lp148
I0
aI10
asg127
VDalaiLama
p149
sa(dp150
g147
(lp151
I37
aI41
asg127
VNYC
p152
sa(dp153
g147
(lp154
I42
aI46
asg127
VUSA
p155
sasVurls
p156
(lp157
ssVin_reply_to_screen_name
p158
Nsg42
V619188658571210752
p159
sVretweet_count
p160
I0
sVin_reply_to_user_id
p161
NsVfavorited
p162
I00
sVuser
p163
g29
sVgeo
p164
NsVin_reply_to_user_id_str
p165
NsVpossibly_sensitive
p166
I00
sg65
g121
sg73
VThu Jul 09 16:57:34 +0000 2015
p167
sVfilter_level
p168
g116
sVin_reply_to_status_id_str
p169
NsVplace
p170
(dp171
Vfull_name
p172
VZurich, Switzerland
p173
sg72
Vhttps://api.twitter.com/1.1/geo/id/3acb748d0f1e9265.json
p174
sVcountry
p175
VSchweiz
p176
sVplace_type
p177
Vcity
p178
sVbounding_box
p179
(dp180
Vtype
p181
VPolygon
p182
sg133
(lp183
(lp184
(lp185
F8.448081
aF47.320183
aa(lp186
F8.448081
aF47.434721
aa(lp187
F8.625442
aF47.434721
aa(lp188
F8.625442
aF47.320183
aaassVcountry_code
p189
VCH
p190
sVattributes
p191
(dp192
sg33
V3acb748d0f1e9265
p193
sg63
VZurich
p194
sssS'coordinates'
p195
NsS'timestamp_ms'
p196
g135
sS'entities'
p197
g137
sS'in_reply_to_status_id_str'
p198
NsS'in_reply_to_screen_name'
p199
Nsg86
g159
sS'retweeted'
p200
I00
sS'place'
p201
g0
(ctweepy.models
Place
p202
g2
Ntp203
Rp204
(dp205
S'full_name'
p206
g173
sg103
g174
sS'country'
p207
g176
sS'place_type'
p208
g178
sS'bounding_box'
p209
g0
(ctweepy.models
BoundingBox
p210
g2
Ntp211
Rp212
(dp213
S'type'
p214
g182
sg195
g183
sbsS'country_code'
p215
g190
sS'attributes'
p216
g192
sg24
g193
sg97
g194
sbsS'retweet_count'
p217
I0
sg104
g105
(S'\x07\xdf\x07\t\x109"\x00\x00\x00'
p218
tp219
Rp220
sS'in_reply_to_user_id'
p221
Nsb.