ccopy_reg
_reconstructor
p0
(ctweepy.models
Status
p1
c__builtin__
object
p2
Ntp3
Rp4
(dp5
S'favorited'
p6
I00
sS'contributors'
p7
NsS'truncated'
p8
I00
sS'text'
p9
VFollow us   @CanSuisse
p10
sS'source_url'
p11
Vhttp://twitter.com
p12
sS'possibly_sensitive'
p13
I00
sS'in_reply_to_status_id'
p14
NsS'user'
p15
g0
(ctweepy.models
User
p16
g2
Ntp17
Rp18
(dp19
S'follow_request_sent'
p20
NsS'profile_use_background_image'
p21
I00
sS'profile_sidebar_fill_color'
p22
V000000
p23
sS'id'
p24
I2511420408
sS'verified'
p25
I00
sS'profile_image_url_https'
p26
Vhttps://pbs.twimg.com/profile_images/568910993703858176/d8qcz2EY_normal.jpeg
p27
sS'_json'
p28
(dp29
Vfollow_request_sent
p30
NsVprofile_use_background_image
p31
I00
sVdefault_profile_image
p32
I00
sVid
p33
I2511420408
sVverified
p34
I00
sVprofile_image_url_https
p35
g27
sVprofile_sidebar_fill_color
p36
g23
sVprofile_text_color
p37
V000000
p38
sVfollowers_count
p39
I55
sVprofile_sidebar_border_color
p40
V000000
p41
sVid_str
p42
V2511420408
p43
sVprofile_background_color
p44
V000000
p45
sVlisted_count
p46
I3
sVprofile_background_image_url_https
p47
Vhttps://abs.twimg.com/images/themes/theme1/bg.png
p48
sVutc_offset
p49
NsVstatuses_count
p50
I159
sVdescription
p51
VDancing through life passionately and facing challenges with creativity.\u000aViews expressed are my own.
p52
sVfriends_count
p53
I106
sVlocation
p54
VSwitzerland
p55
sVprofile_link_color
p56
V3B94D9
p57
sVprofile_image_url
p58
Vhttp://pbs.twimg.com/profile_images/568910993703858176/d8qcz2EY_normal.jpeg
p59
sVfollowing
p60
NsVgeo_enabled
p61
I01
sVprofile_background_image_url
p62
Vhttp://abs.twimg.com/images/themes/theme1/bg.png
p63
sVname
p64
VLakshmi Kern Devadas
p65
sVlang
p66
Ven
p67
sVprofile_background_tile
p68
I00
sVfavourites_count
p69
I28
sVscreen_name
p70
VLAKSHMIkdevadas
p71
sVnotifications
p72
NsVurl
p73
Vhttp://www.lakshmikdevadas.com
p74
sVcreated_at
p75
VTue May 20 21:59:46 +0000 2014
p76
sVcontributors_enabled
p77
I00
sVtime_zone
p78
NsVprotected
p79
I00
sVdefault_profile
p80
I00
sVis_translator
p81
I00
ssS'contributors_enabled'
p82
I00
sS'profile_text_color'
p83
g38
sS'followers_count'
p84
I55
sS'profile_sidebar_border_color'
p85
g41
sS'location'
p86
g55
sS'default_profile_image'
p87
I00
sS'id_str'
p88
g43
sS'utc_offset'
p89
NsS'statuses_count'
p90
I159
sS'description'
p91
VDancing through life passionately and facing challenges with creativity.\u000aViews expressed are my own.
p92
sS'friends_count'
p93
I106
sS'profile_link_color'
p94
g57
sS'profile_image_url'
p95
g59
sS'notifications'
p96
NsS'geo_enabled'
p97
I01
sS'profile_background_color'
p98
g45
sS'profile_background_image_url'
p99
g63
sS'name'
p100
g65
sS'lang'
p101
g67
sS'following'
p102
I00
sS'profile_background_tile'
p103
I00
sS'favourites_count'
p104
I28
sS'screen_name'
p105
g71
sS'url'
p106
g74
sS'created_at'
p107
cdatetime
datetime
p108
(S'\x07\xde\x05\x14\x15;.\x00\x00\x00'
p109
tp110
Rp111
sS'profile_background_image_url_https'
p112
g48
sS'time_zone'
p113
NsS'protected'
p114
I00
sS'default_profile'
p115
I00
sS'is_translator'
p116
I00
sS'listed_count'
p117
I3
sbsS'filter_level'
p118
Vlow
p119
sS'geo'
p120
Nsg24
I619144426938585089
sS'favorite_count'
p121
I0
sS'source'
p122
VTwitter Web Client
p123
sg101
Ven
p124
sS'author'
p125
g18
sS'in_reply_to_user_id_str'
p126
Nsg28
(dp127
Vcontributors
p128
NsVtruncated
p129
I00
sVtext
p130
g10
sVin_reply_to_status_id
p131
Nsg33
I619144426938585089
sVfavorite_count
p132
I0
sVsource
p133
V<a href="http://twitter.com" rel="nofollow">Twitter Web Client</a>
p134
sVretweeted
p135
I00
sVcoordinates
p136
NsVtimestamp_ms
p137
V1436450509186
p138
sVentities
p139
(dp140
Vuser_mentions
p141
(lp142
(dp143
g33
I2447726491
sVindices
p144
(lp145
I12
aI22
asg42
V2447726491
p146
sg70
VCanSuisse
p147
sg64
VCanada en Suisse
p148
sasVsymbols
p149
(lp150
sVtrends
p151
(lp152
sVhashtags
p153
(lp154
sVurls
p155
(lp156
ssVin_reply_to_screen_name
p157
Nsg42
V619144426938585089
p158
sVretweet_count
p159
I0
sVin_reply_to_user_id
p160
NsVfavorited
p161
I00
sVuser
p162
g29
sVgeo
p163
NsVin_reply_to_user_id_str
p164
NsVpossibly_sensitive
p165
I00
sg66
g124
sg75
VThu Jul 09 14:01:49 +0000 2015
p166
sVfilter_level
p167
g119
sVin_reply_to_status_id_str
p168
NsVplace
p169
(dp170
Vfull_name
p171
VBerne, Switzerland
p172
sg73
Vhttps://api.twitter.com/1.1/geo/id/5868d0e0749c9c47.json
p173
sVcountry
p174
VSchweiz
p175
sVplace_type
p176
Vadmin
p177
sVbounding_box
p178
(dp179
Vtype
p180
VPolygon
p181
sg136
(lp182
(lp183
(lp184
F6.861601
aF46.326441
aa(lp185
F6.861601
aF47.34528
aa(lp186
F8.455051
aF47.34528
aa(lp187
F8.455051
aF46.326441
aaassVcountry_code
p188
VCH
p189
sVattributes
p190
(dp191
sg33
V5868d0e0749c9c47
p192
sg64
VBern
p193
sssS'coordinates'
p194
NsS'timestamp_ms'
p195
g138
sS'entities'
p196
g140
sS'in_reply_to_status_id_str'
p197
NsS'in_reply_to_screen_name'
p198
Nsg88
g158
sS'retweeted'
p199
I00
sS'place'
p200
g0
(ctweepy.models
Place
p201
g2
Ntp202
Rp203
(dp204
S'full_name'
p205
g172
sg106
g173
sS'country'
p206
g175
sS'place_type'
p207
g177
sS'bounding_box'
p208
g0
(ctweepy.models
BoundingBox
p209
g2
Ntp210
Rp211
(dp212
S'type'
p213
g181
sg194
g182
sbsS'country_code'
p214
g189
sS'attributes'
p215
g191
sg24
g192
sg100
g193
sbsS'retweet_count'
p216
I0
sg107
g108
(S'\x07\xdf\x07\t\x0e\x011\x00\x00\x00'
p217
tp218
Rp219
sS'in_reply_to_user_id'
p220
Nsb.