ccopy_reg
_reconstructor
p0
(ctweepy.models
Status
p1
c__builtin__
object
p2
Ntp3
Rp4
(dp5
S'favorited'
p6
I00
sS'contributors'
p7
NsS'truncated'
p8
I00
sS'text'
p9
V\u2708\ufe0fZRH http://t.co/iDyQHPoY6v
p10
sS'source_url'
p11
Vhttp://twitter.com/download/iphone
p12
sS'possibly_sensitive'
p13
I00
sS'in_reply_to_status_id'
p14
NsS'user'
p15
g0
(ctweepy.models
User
p16
g2
Ntp17
Rp18
(dp19
S'follow_request_sent'
p20
NsS'profile_use_background_image'
p21
I01
sS'profile_sidebar_fill_color'
p22
VFFFFFF
p23
sS'id'
p24
I280033819
sS'verified'
p25
I00
sS'profile_image_url_https'
p26
Vhttps://pbs.twimg.com/profile_images/618795169945677824/BaCYQQfa_normal.jpg
p27
sS'_json'
p28
(dp29
Vfollow_request_sent
p30
NsVprofile_use_background_image
p31
I01
sVdefault_profile_image
p32
I00
sVid
p33
I280033819
sVverified
p34
I00
sVprofile_image_url_https
p35
g27
sVprofile_sidebar_fill_color
p36
g23
sVprofile_text_color
p37
V000000
p38
sVfollowers_count
p39
I39225
sVprofile_sidebar_border_color
p40
VFFFFFF
p41
sVid_str
p42
V280033819
p43
sVprofile_background_color
p44
VFFFFFF
p45
sVlisted_count
p46
I122
sVprofile_background_image_url_https
p47
Vhttps://pbs.twimg.com/profile_background_images/866046988/557acda1118749bf42dd74ceaeb07a51.png
p48
sVutc_offset
p49
I-7200
sVstatuses_count
p50
I110003
sVdescription
p51
V19 & giving life a meaning | \u265b | albanian | my love for justin is eternal
p52
sVfriends_count
p53
I476
sVlocation
p54
Vstruga | bern
p55
sVprofile_link_color
p56
V1BAADE
p57
sVprofile_image_url
p58
Vhttp://pbs.twimg.com/profile_images/618795169945677824/BaCYQQfa_normal.jpg
p59
sVfollowing
p60
NsVgeo_enabled
p61
I01
sVprofile_banner_url
p62
Vhttps://pbs.twimg.com/profile_banners/280033819/1434398460
p63
sVprofile_background_image_url
p64
Vhttp://pbs.twimg.com/profile_background_images/866046988/557acda1118749bf42dd74ceaeb07a51.png
p65
sVname
p66
Vfationa
p67
sVlang
p68
Ven
p69
sVprofile_background_tile
p70
I00
sVfavourites_count
p71
I7068
sVscreen_name
p72
ViJDBsmile
p73
sVnotifications
p74
NsVurl
p75
Vhttp://iconicpsycho.tumblr.com
p76
sVcreated_at
p77
VSun Apr 10 14:03:14 +0000 2011
p78
sVcontributors_enabled
p79
I00
sVtime_zone
p80
VGreenland
p81
sVprotected
p82
I00
sVdefault_profile
p83
I00
sVis_translator
p84
I00
ssS'contributors_enabled'
p85
I00
sS'profile_text_color'
p86
g38
sS'followers_count'
p87
I39225
sS'profile_sidebar_border_color'
p88
g41
sS'location'
p89
g55
sS'default_profile_image'
p90
I00
sS'id_str'
p91
g43
sS'utc_offset'
p92
I-7200
sS'statuses_count'
p93
I110003
sS'description'
p94
g52
sS'friends_count'
p95
I476
sS'profile_link_color'
p96
g57
sS'profile_image_url'
p97
g59
sS'notifications'
p98
NsS'geo_enabled'
p99
I01
sS'profile_background_color'
p100
g45
sS'profile_banner_url'
p101
g63
sS'profile_background_image_url'
p102
g65
sS'name'
p103
g67
sS'lang'
p104
g69
sS'following'
p105
I00
sS'profile_background_tile'
p106
I00
sS'favourites_count'
p107
I7068
sS'screen_name'
p108
g73
sS'url'
p109
g76
sS'created_at'
p110
cdatetime
datetime
p111
(S'\x07\xdb\x04\n\x0e\x03\x0e\x00\x00\x00'
p112
tp113
Rp114
sS'profile_background_image_url_https'
p115
g48
sS'time_zone'
p116
g81
sS'protected'
p117
I00
sS'default_profile'
p118
I00
sS'is_translator'
p119
I00
sS'listed_count'
p120
I122
sbsS'filter_level'
p121
Vlow
p122
sS'geo'
p123
Nsg24
I619687332174819328
sS'favorite_count'
p124
I0
sS'source'
p125
VTwitter for iPhone
p126
sg104
Vund
p127
sS'author'
p128
g18
sS'in_reply_to_user_id_str'
p129
Nsg28
(dp130
Vcontributors
p131
NsVtruncated
p132
I00
sVtext
p133
g10
sVin_reply_to_status_id
p134
Nsg33
I619687332174819328
sVfavorite_count
p135
I0
sVsource
p136
V<a href="http://twitter.com/download/iphone" rel="nofollow">Twitter for iPhone</a>
p137
sVretweeted
p138
I00
sVcoordinates
p139
NsVtimestamp_ms
p140
V1436579947881
p141
sVentities
p142
(dp143
Vsymbols
p144
(lp145
sVmedia
p146
(lp147
(dp148
Vexpanded_url
p149
Vhttp://twitter.com/iJDBsmile/status/619687332174819328/photo/1
p150
sVdisplay_url
p151
Vpic.twitter.com/iDyQHPoY6v
p152
sg75
Vhttp://t.co/iDyQHPoY6v
p153
sVmedia_url_https
p154
Vhttps://pbs.twimg.com/media/CJmSVkTUwAA8a6k.jpg
p155
sg42
V619687322959790080
p156
sVsizes
p157
(dp158
Vsmall
p159
(dp160
Vh
p161
I255
sVresize
p162
Vfit
p163
sVw
p164
I340
ssVlarge
p165
(dp166
g161
I768
sg162
Vfit
p167
sg164
I1024
ssVmedium
p168
(dp169
g161
I450
sg162
Vfit
p170
sg164
I600
ssVthumb
p171
(dp172
g161
I150
sg162
Vcrop
p173
sg164
I150
sssVindices
p174
(lp175
I6
aI28
asVtype
p176
Vphoto
p177
sg33
I619687322959790080
sVmedia_url
p178
Vhttp://pbs.twimg.com/media/CJmSVkTUwAA8a6k.jpg
p179
sasVhashtags
p180
(lp181
sVuser_mentions
p182
(lp183
sVtrends
p184
(lp185
sVurls
p186
(lp187
ssVin_reply_to_screen_name
p188
Nsg42
V619687332174819328
p189
sVretweet_count
p190
I0
sVin_reply_to_user_id
p191
NsVfavorited
p192
I00
sVuser
p193
g29
sVgeo
p194
NsVin_reply_to_user_id_str
p195
NsVpossibly_sensitive
p196
I00
sg68
g127
sg77
VSat Jul 11 01:59:07 +0000 2015
p197
sVfilter_level
p198
g122
sVin_reply_to_status_id_str
p199
NsVplace
p200
(dp201
Vfull_name
p202
VZurich, Switzerland
p203
sg75
Vhttps://api.twitter.com/1.1/geo/id/db94c1cccc67c4f4.json
p204
sVcountry
p205
VSchweiz
p206
sVplace_type
p207
Vadmin
p208
sVbounding_box
p209
(dp210
g176
VPolygon
p211
sg139
(lp212
(lp213
(lp214
F8.357749
aF47.159384
aa(lp215
F8.357749
aF47.694503
aa(lp216
F8.984445
aF47.694503
aa(lp217
F8.984445
aF47.159384
aaassVcountry_code
p218
VCH
p219
sVattributes
p220
(dp221
sg33
Vdb94c1cccc67c4f4
p222
sg66
VZurich
p223
ssVextended_entities
p224
(dp225
g146
(lp226
(dp227
g149
Vhttp://twitter.com/iJDBsmile/status/619687332174819328/photo/1
p228
sg151
Vpic.twitter.com/iDyQHPoY6v
p229
sg75
Vhttp://t.co/iDyQHPoY6v
p230
sg154
Vhttps://pbs.twimg.com/media/CJmSVkTUwAA8a6k.jpg
p231
sg42
V619687322959790080
p232
sg157
(dp233
g159
(dp234
g161
I255
sg162
Vfit
p235
sg164
I340
ssg165
(dp236
g161
I768
sg162
Vfit
p237
sg164
I1024
ssg168
(dp238
g161
I450
sg162
Vfit
p239
sg164
I600
ssg171
(dp240
g161
I150
sg162
Vcrop
p241
sg164
I150
sssg174
(lp242
I6
aI28
asg176
Vphoto
p243
sg33
I619687322959790080
sg178
Vhttp://pbs.twimg.com/media/CJmSVkTUwAA8a6k.jpg
p244
sasssS'coordinates'
p245
NsS'timestamp_ms'
p246
g141
sS'entities'
p247
g143
sS'in_reply_to_status_id_str'
p248
NsS'in_reply_to_screen_name'
p249
Nsg91
g189
sS'extended_entities'
p250
g225
sS'retweeted'
p251
I00
sS'place'
p252
g0
(ctweepy.models
Place
p253
g2
Ntp254
Rp255
(dp256
S'full_name'
p257
g203
sg109
g204
sS'country'
p258
g206
sS'place_type'
p259
g208
sS'bounding_box'
p260
g0
(ctweepy.models
BoundingBox
p261
g2
Ntp262
Rp263
(dp264
S'type'
p265
g211
sg245
g212
sbsS'country_code'
p266
g219
sS'attributes'
p267
g221
sg24
g222
sg103
g223
sbsS'retweet_count'
p268
I0
sg110
g111
(S'\x07\xdf\x07\x0b\x01;\x07\x00\x00\x00'
p269
tp270
Rp271
sS'in_reply_to_user_id'
p272
Nsb.