ccopy_reg
_reconstructor
p0
(ctweepy.models
Status
p1
c__builtin__
object
p2
Ntp3
Rp4
(dp5
S'favorited'
p6
I00
sS'contributors'
p7
NsS'truncated'
p8
I00
sS'text'
p9
VDo you ever feel lonely in a crowd? http://t.co/S5B01RBIOV  @sixtyandme #loneliness #introvert http://t.co/W5nUTNouF1
p10
sS'source_url'
p11
Vhttp://twitter.com
p12
sS'possibly_sensitive'
p13
I00
sS'in_reply_to_status_id'
p14
NsS'user'
p15
g0
(ctweepy.models
User
p16
g2
Ntp17
Rp18
(dp19
S'follow_request_sent'
p20
NsS'profile_use_background_image'
p21
I01
sS'profile_sidebar_fill_color'
p22
VF3F3F3
p23
sS'id'
p24
I955350608
sS'verified'
p25
I00
sS'profile_image_url_https'
p26
Vhttps://pbs.twimg.com/profile_images/564447504066818048/t1W1zL6G_normal.png
p27
sS'_json'
p28
(dp29
Vfollow_request_sent
p30
NsVprofile_use_background_image
p31
I01
sVdefault_profile_image
p32
I00
sVid
p33
I955350608
sVverified
p34
I00
sVprofile_image_url_https
p35
g27
sVprofile_sidebar_fill_color
p36
g23
sVprofile_text_color
p37
V333333
p38
sVfollowers_count
p39
I3605
sVprofile_sidebar_border_color
p40
VDFDFDF
p41
sVid_str
p42
V955350608
p43
sVprofile_background_color
p44
VEBEBEB
p45
sVlisted_count
p46
I111
sVprofile_background_image_url_https
p47
Vhttps://abs.twimg.com/images/themes/theme7/bg.gif
p48
sVutc_offset
p49
NsVstatuses_count
p50
I12114
sVdescription
p51
VSixty and Me is a global community of 100,000 women over 60. Helping boomer women to live healthy, independent and financially secure lives. By Margaret Manning
p52
sVfriends_count
p53
I1778
sVlocation
p54
VSwitzerland 
p55
sVprofile_link_color
p56
V990000
p57
sVprofile_image_url
p58
Vhttp://pbs.twimg.com/profile_images/564447504066818048/t1W1zL6G_normal.png
p59
sVfollowing
p60
NsVgeo_enabled
p61
I01
sVprofile_banner_url
p62
Vhttps://pbs.twimg.com/profile_banners/955350608/1423417866
p63
sVprofile_background_image_url
p64
Vhttp://abs.twimg.com/images/themes/theme7/bg.gif
p65
sVname
p66
VSixty and Me 
p67
sVlang
p68
Ven
p69
sVprofile_background_tile
p70
I00
sVfavourites_count
p71
I253
sVscreen_name
p72
Vsixtyandme
p73
sVnotifications
p74
NsVurl
p75
Vhttp://sixtyandme.com
p76
sVcreated_at
p77
VSun Nov 18 11:54:24 +0000 2012
p78
sVcontributors_enabled
p79
I00
sVtime_zone
p80
NsVprotected
p81
I00
sVdefault_profile
p82
I00
sVis_translator
p83
I00
ssS'contributors_enabled'
p84
I00
sS'profile_text_color'
p85
g38
sS'followers_count'
p86
I3605
sS'profile_sidebar_border_color'
p87
g41
sS'location'
p88
g55
sS'default_profile_image'
p89
I00
sS'id_str'
p90
g43
sS'utc_offset'
p91
NsS'statuses_count'
p92
I12114
sS'description'
p93
g52
sS'friends_count'
p94
I1778
sS'profile_link_color'
p95
g57
sS'profile_image_url'
p96
g59
sS'notifications'
p97
NsS'geo_enabled'
p98
I01
sS'profile_background_color'
p99
g45
sS'profile_banner_url'
p100
g63
sS'profile_background_image_url'
p101
g65
sS'name'
p102
g67
sS'lang'
p103
g69
sS'following'
p104
I00
sS'profile_background_tile'
p105
I00
sS'favourites_count'
p106
I253
sS'screen_name'
p107
g73
sS'url'
p108
g76
sS'created_at'
p109
cdatetime
datetime
p110
(S'\x07\xdc\x0b\x12\x0b6\x18\x00\x00\x00'
p111
tp112
Rp113
sS'profile_background_image_url_https'
p114
g48
sS'time_zone'
p115
NsS'protected'
p116
I00
sS'default_profile'
p117
I00
sS'is_translator'
p118
I00
sS'listed_count'
p119
I111
sbsS'filter_level'
p120
Vlow
p121
sS'geo'
p122
Nsg24
I619914583399116800
sS'favorite_count'
p123
I0
sS'source'
p124
VTwitter Web Client
p125
sg103
Ven
p126
sS'author'
p127
g18
sS'in_reply_to_user_id_str'
p128
Nsg28
(dp129
Vcontributors
p130
NsVtruncated
p131
I00
sVtext
p132
g10
sVin_reply_to_status_id
p133
Nsg33
I619914583399116800
sVfavorite_count
p134
I0
sVsource
p135
V<a href="http://twitter.com" rel="nofollow">Twitter Web Client</a>
p136
sVretweeted
p137
I00
sVcoordinates
p138
NsVtimestamp_ms
p139
V1436634128795
p140
sVentities
p141
(dp142
Vsymbols
p143
(lp144
sVmedia
p145
(lp146
(dp147
Vexpanded_url
p148
Vhttp://twitter.com/sixtyandme/status/619914583399116800/photo/1
p149
sVdisplay_url
p150
Vpic.twitter.com/W5nUTNouF1
p151
sg75
Vhttp://t.co/W5nUTNouF1
p152
sVmedia_url_https
p153
Vhttps://pbs.twimg.com/media/CJphBySVAAAdFR-.jpg
p154
sg42
V619914582023274496
p155
sVsizes
p156
(dp157
Vsmall
p158
(dp159
Vh
p160
I254
sVresize
p161
Vfit
p162
sVw
p163
I340
ssVlarge
p164
(dp165
g160
I767
sg161
Vfit
p166
sg163
I1024
ssVmedium
p167
(dp168
g160
I449
sg161
Vfit
p169
sg163
I600
ssVthumb
p170
(dp171
g160
I150
sg161
Vcrop
p172
sg163
I150
sssVindices
p173
(lp174
I95
aI117
asVtype
p175
Vphoto
p176
sg33
I619914582023274496
sVmedia_url
p177
Vhttp://pbs.twimg.com/media/CJphBySVAAAdFR-.jpg
p178
sasVhashtags
p179
(lp180
(dp181
g173
(lp182
I72
aI83
asg132
Vloneliness
p183
sa(dp184
g173
(lp185
I84
aI94
asg132
Vintrovert
p186
sasVuser_mentions
p187
(lp188
(dp189
g33
I955350608
sg173
(lp190
I60
aI71
asg42
V955350608
p191
sg72
Vsixtyandme
p192
sg66
VSixty and Me 
p193
sasVtrends
p194
(lp195
sVurls
p196
(lp197
(dp198
g75
Vhttp://t.co/S5B01RBIOV
p199
sg173
(lp200
I36
aI58
asg148
Vhttp://www.boomerly.com/why-do-we-feel-alone-when-we-are-surrounded-by-others/
p201
sg150
Vboomerly.com/why-do-we-feel\u2026
p202
sassVin_reply_to_screen_name
p203
Nsg42
V619914583399116800
p204
sVretweet_count
p205
I0
sVin_reply_to_user_id
p206
NsVfavorited
p207
I00
sVuser
p208
g29
sVgeo
p209
NsVin_reply_to_user_id_str
p210
NsVpossibly_sensitive
p211
I00
sg68
g126
sg77
VSat Jul 11 17:02:08 +0000 2015
p212
sVfilter_level
p213
g121
sVin_reply_to_status_id_str
p214
NsVplace
p215
(dp216
Vfull_name
p217
VZurich, Switzerland
p218
sg75
Vhttps://api.twitter.com/1.1/geo/id/3acb748d0f1e9265.json
p219
sVcountry
p220
VSchweiz
p221
sVplace_type
p222
Vcity
p223
sVbounding_box
p224
(dp225
g175
VPolygon
p226
sg138
(lp227
(lp228
(lp229
F8.448081
aF47.320183
aa(lp230
F8.448081
aF47.434721
aa(lp231
F8.625442
aF47.434721
aa(lp232
F8.625442
aF47.320183
aaassVcountry_code
p233
VCH
p234
sVattributes
p235
(dp236
sg33
V3acb748d0f1e9265
p237
sg66
VZurich
p238
ssVextended_entities
p239
(dp240
g145
(lp241
(dp242
g148
Vhttp://twitter.com/sixtyandme/status/619914583399116800/photo/1
p243
sg150
Vpic.twitter.com/W5nUTNouF1
p244
sg75
Vhttp://t.co/W5nUTNouF1
p245
sg153
Vhttps://pbs.twimg.com/media/CJphBySVAAAdFR-.jpg
p246
sg42
V619914582023274496
p247
sg156
(dp248
g158
(dp249
g160
I254
sg161
Vfit
p250
sg163
I340
ssg164
(dp251
g160
I767
sg161
Vfit
p252
sg163
I1024
ssg167
(dp253
g160
I449
sg161
Vfit
p254
sg163
I600
ssg170
(dp255
g160
I150
sg161
Vcrop
p256
sg163
I150
sssg173
(lp257
I95
aI117
asg175
Vphoto
p258
sg33
I619914582023274496
sg177
Vhttp://pbs.twimg.com/media/CJphBySVAAAdFR-.jpg
p259
sasssS'coordinates'
p260
NsS'timestamp_ms'
p261
g140
sS'entities'
p262
g142
sS'in_reply_to_status_id_str'
p263
NsS'in_reply_to_screen_name'
p264
Nsg90
g204
sS'extended_entities'
p265
g240
sS'retweeted'
p266
I00
sS'place'
p267
g0
(ctweepy.models
Place
p268
g2
Ntp269
Rp270
(dp271
S'full_name'
p272
g218
sg108
g219
sS'country'
p273
g221
sS'place_type'
p274
g223
sS'bounding_box'
p275
g0
(ctweepy.models
BoundingBox
p276
g2
Ntp277
Rp278
(dp279
S'type'
p280
g226
sg260
g227
sbsS'country_code'
p281
g234
sS'attributes'
p282
g236
sg24
g237
sg102
g238
sbsS'retweet_count'
p283
I0
sg109
g110
(S'\x07\xdf\x07\x0b\x11\x02\x08\x00\x00\x00'
p284
tp285
Rp286
sS'in_reply_to_user_id'
p287
Nsb.