ccopy_reg
_reconstructor
p0
(ctweepy.models
Status
p1
c__builtin__
object
p2
Ntp3
Rp4
(dp5
S'favorited'
p6
I00
sS'contributors'
p7
NsS'truncated'
p8
I00
sS'text'
p9
V#aranazph welcome to #marriott #renaissance #zurich @ Renaissance Zurich Tower Hotel https://t.co/pMqLjHKWQf
p10
sS'source_url'
p11
Vhttp://instagram.com
p12
sS'possibly_sensitive'
p13
I00
sS'in_reply_to_status_id'
p14
NsS'user'
p15
g0
(ctweepy.models
User
p16
g2
Ntp17
Rp18
(dp19
S'follow_request_sent'
p20
NsS'profile_use_background_image'
p21
I01
sS'profile_sidebar_fill_color'
p22
V7AC3EE
p23
sS'id'
p24
I16022981
sS'verified'
p25
I00
sS'profile_image_url_https'
p26
Vhttps://pbs.twimg.com/profile_images/541362542816542720/qvU_E4CU_normal.jpeg
p27
sS'_json'
p28
(dp29
Vfollow_request_sent
p30
NsVprofile_use_background_image
p31
I01
sVdefault_profile_image
p32
I00
sVid
p33
I16022981
sVverified
p34
I00
sVprofile_image_url_https
p35
g27
sVprofile_sidebar_fill_color
p36
g23
sVprofile_text_color
p37
V3D1957
p38
sVfollowers_count
p39
I35
sVprofile_sidebar_border_color
p40
V65B0DA
p41
sVid_str
p42
V16022981
p43
sVprofile_background_color
p44
V642D8B
p45
sVlisted_count
p46
I4
sVprofile_background_image_url_https
p47
Vhttps://abs.twimg.com/images/themes/theme10/bg.gif
p48
sVutc_offset
p49
I-14400
sVstatuses_count
p50
I915
sVdescription
p51
NsVfriends_count
p52
I83
sVlocation
p53
VNew York City
p54
sVprofile_link_color
p55
VFF0000
p56
sVprofile_image_url
p57
Vhttp://pbs.twimg.com/profile_images/541362542816542720/qvU_E4CU_normal.jpeg
p58
sVfollowing
p59
NsVgeo_enabled
p60
I01
sVprofile_banner_url
p61
Vhttps://pbs.twimg.com/profile_banners/16022981/1379660026
p62
sVprofile_background_image_url
p63
Vhttp://abs.twimg.com/images/themes/theme10/bg.gif
p64
sVname
p65
Vbobwen
p66
sVlang
p67
Ven
p68
sVprofile_background_tile
p69
I01
sVfavourites_count
p70
I12
sVscreen_name
p71
Vbobwen
p72
sVnotifications
p73
NsVurl
p74
NsVcreated_at
p75
VThu Aug 28 04:01:30 +0000 2008
p76
sVcontributors_enabled
p77
I00
sVtime_zone
p78
VEastern Time (US & Canada)
p79
sVprotected
p80
I00
sVdefault_profile
p81
I00
sVis_translator
p82
I00
ssS'contributors_enabled'
p83
I00
sS'profile_text_color'
p84
g38
sS'followers_count'
p85
I35
sS'profile_sidebar_border_color'
p86
g41
sS'location'
p87
g54
sS'default_profile_image'
p88
I00
sS'id_str'
p89
g43
sS'utc_offset'
p90
I-14400
sS'statuses_count'
p91
I915
sS'description'
p92
NsS'friends_count'
p93
I83
sS'profile_link_color'
p94
g56
sS'profile_image_url'
p95
g58
sS'notifications'
p96
NsS'geo_enabled'
p97
I01
sS'profile_background_color'
p98
g45
sS'profile_banner_url'
p99
g62
sS'profile_background_image_url'
p100
g64
sS'name'
p101
g66
sS'lang'
p102
g68
sS'following'
p103
I00
sS'profile_background_tile'
p104
I01
sS'favourites_count'
p105
I12
sS'screen_name'
p106
g72
sS'url'
p107
NsS'created_at'
p108
cdatetime
datetime
p109
(S'\x07\xd8\x08\x1c\x04\x01\x1e\x00\x00\x00'
p110
tp111
Rp112
sS'profile_background_image_url_https'
p113
g48
sS'time_zone'
p114
g79
sS'protected'
p115
I00
sS'default_profile'
p116
I00
sS'is_translator'
p117
I00
sS'listed_count'
p118
I4
sbsS'filter_level'
p119
Vlow
p120
sS'geo'
p121
(dp122
Vtype
p123
VPoint
p124
sVcoordinates
p125
(lp126
F47.388139
aF8.514603
assg24
I620972864393605120
sS'favorite_count'
p127
I0
sS'source'
p128
VInstagram
p129
sg102
Ven
p130
sS'author'
p131
g18
sS'in_reply_to_user_id_str'
p132
Nsg28
(dp133
Vcontributors
p134
NsVtruncated
p135
I00
sVtext
p136
g10
sVin_reply_to_status_id
p137
Nsg33
I620972864393605120
sVfavorite_count
p138
I0
sVsource
p139
V<a href="http://instagram.com" rel="nofollow">Instagram</a>
p140
sVretweeted
p141
I00
sg125
(dp142
g123
VPoint
p143
sg125
(lp144
F8.514603
aF47.388139
assVtimestamp_ms
p145
V1436886442646
p146
sVentities
p147
(dp148
Vuser_mentions
p149
(lp150
sVsymbols
p151
(lp152
sVtrends
p153
(lp154
sVhashtags
p155
(lp156
(dp157
Vindices
p158
(lp159
I0
aI9
asg136
Varanazph
p160
sa(dp161
g158
(lp162
I21
aI30
asg136
Vmarriott
p163
sa(dp164
g158
(lp165
I31
aI43
asg136
Vrenaissance
p166
sa(dp167
g158
(lp168
I44
aI51
asg136
Vzurich
p169
sasVurls
p170
(lp171
(dp172
g74
Vhttps://t.co/pMqLjHKWQf
p173
sg158
(lp174
I85
aI108
asVexpanded_url
p175
Vhttps://instagram.com/p/5HvoQIQIwY/
p176
sVdisplay_url
p177
Vinstagram.com/p/5HvoQIQIwY/
p178
sassVin_reply_to_screen_name
p179
Nsg42
V620972864393605120
p180
sVretweet_count
p181
I0
sVin_reply_to_user_id
p182
NsVfavorited
p183
I00
sVuser
p184
g29
sVgeo
p185
g122
sVin_reply_to_user_id_str
p186
NsVpossibly_sensitive
p187
I00
sg67
g130
sg75
VTue Jul 14 15:07:22 +0000 2015
p188
sVfilter_level
p189
g120
sVin_reply_to_status_id_str
p190
NsVplace
p191
(dp192
Vfull_name
p193
VZurich, Switzerland
p194
sg74
Vhttps://api.twitter.com/1.1/geo/id/3acb748d0f1e9265.json
p195
sVcountry
p196
VSchweiz
p197
sVplace_type
p198
Vcity
p199
sVbounding_box
p200
(dp201
g123
VPolygon
p202
sg125
(lp203
(lp204
(lp205
F8.448081
aF47.320183
aa(lp206
F8.448081
aF47.434721
aa(lp207
F8.625442
aF47.434721
aa(lp208
F8.625442
aF47.320183
aaassVcountry_code
p209
VCH
p210
sVattributes
p211
(dp212
sg33
V3acb748d0f1e9265
p213
sg65
VZurich
p214
sssS'coordinates'
p215
g142
sS'timestamp_ms'
p216
g146
sS'entities'
p217
g148
sS'in_reply_to_status_id_str'
p218
NsS'in_reply_to_screen_name'
p219
Nsg89
g180
sS'retweeted'
p220
I00
sS'place'
p221
g0
(ctweepy.models
Place
p222
g2
Ntp223
Rp224
(dp225
S'full_name'
p226
g194
sg107
g195
sS'country'
p227
g197
sS'place_type'
p228
g199
sS'bounding_box'
p229
g0
(ctweepy.models
BoundingBox
p230
g2
Ntp231
Rp232
(dp233
S'type'
p234
g202
sg215
g203
sbsS'country_code'
p235
g210
sS'attributes'
p236
g212
sg24
g213
sg101
g214
sbsS'retweet_count'
p237
I0
sg108
g109
(S'\x07\xdf\x07\x0e\x0f\x07\x16\x00\x00\x00'
p238
tp239
Rp240
sS'in_reply_to_user_id'
p241
Nsb.