ccopy_reg
_reconstructor
p0
(ctweepy.models
Status
p1
c__builtin__
object
p2
Ntp3
Rp4
(dp5
S'favorited'
p6
I00
sS'contributors'
p7
NsS'truncated'
p8
I00
sS'text'
p9
V@UKIP @Nigel_Farage Surely the Greek people will riot now, imagine being taken for a ride like that! #Tsipras #Greecebailout #Greece
p10
sS'source_url'
p11
Vhttp://twitter.com/download/iphone
p12
sS'possibly_sensitive'
p13
I00
sS'in_reply_to_status_id'
p14
I620513138706907136
sS'user'
p15
g0
(ctweepy.models
User
p16
g2
Ntp17
Rp18
(dp19
S'follow_request_sent'
p20
NsS'profile_use_background_image'
p21
I01
sS'profile_sidebar_fill_color'
p22
VDDEEF6
p23
sS'id'
p24
I200542288
sS'verified'
p25
I00
sS'profile_image_url_https'
p26
Vhttps://pbs.twimg.com/profile_images/510284214290632704/UMT5Bl-E_normal.jpeg
p27
sS'_json'
p28
(dp29
Vfollow_request_sent
p30
NsVprofile_use_background_image
p31
I01
sVdefault_profile_image
p32
I00
sVid
p33
I200542288
sVverified
p34
I00
sVprofile_image_url_https
p35
g27
sVprofile_sidebar_fill_color
p36
g23
sVprofile_text_color
p37
V333333
p38
sVfollowers_count
p39
I55
sVprofile_sidebar_border_color
p40
VC0DEED
p41
sVid_str
p42
V200542288
p43
sVprofile_background_color
p44
VC0DEED
p45
sVlisted_count
p46
I4
sVprofile_background_image_url_https
p47
Vhttps://abs.twimg.com/images/themes/theme1/bg.png
p48
sVutc_offset
p49
I7200
sVstatuses_count
p50
I1026
sVdescription
p51
VMisfit - No roots - Often arguing with the self-righteous.
p52
sVfriends_count
p53
I223
sVlocation
p54
VFormerly of the UK
p55
sVprofile_link_color
p56
V0084B4
p57
sVprofile_image_url
p58
Vhttp://pbs.twimg.com/profile_images/510284214290632704/UMT5Bl-E_normal.jpeg
p59
sVfollowing
p60
NsVgeo_enabled
p61
I01
sVprofile_banner_url
p62
Vhttps://pbs.twimg.com/profile_banners/200542288/1408717691
p63
sVprofile_background_image_url
p64
Vhttp://abs.twimg.com/images/themes/theme1/bg.png
p65
sVname
p66
VANCR
p67
sVlang
p68
Ven
p69
sVprofile_background_tile
p70
I00
sVfavourites_count
p71
I364
sVscreen_name
p72
Vandycrox
p73
sVnotifications
p74
NsVurl
p75
NsVcreated_at
p76
VSat Oct 09 15:36:13 +0000 2010
p77
sVcontributors_enabled
p78
I00
sVtime_zone
p79
VBern
p80
sVprotected
p81
I00
sVdefault_profile
p82
I01
sVis_translator
p83
I00
ssS'contributors_enabled'
p84
I00
sS'profile_text_color'
p85
g38
sS'followers_count'
p86
I55
sS'profile_sidebar_border_color'
p87
g41
sS'location'
p88
g55
sS'default_profile_image'
p89
I00
sS'id_str'
p90
g43
sS'utc_offset'
p91
I7200
sS'statuses_count'
p92
I1026
sS'description'
p93
g52
sS'friends_count'
p94
I223
sS'profile_link_color'
p95
g57
sS'profile_image_url'
p96
g59
sS'notifications'
p97
NsS'geo_enabled'
p98
I01
sS'profile_background_color'
p99
g45
sS'profile_banner_url'
p100
g63
sS'profile_background_image_url'
p101
g65
sS'name'
p102
g67
sS'lang'
p103
g69
sS'following'
p104
I00
sS'profile_background_tile'
p105
I00
sS'favourites_count'
p106
I364
sS'screen_name'
p107
g73
sS'url'
p108
NsS'created_at'
p109
cdatetime
datetime
p110
(S'\x07\xda\n\t\x0f$\r\x00\x00\x00'
p111
tp112
Rp113
sS'profile_background_image_url_https'
p114
g48
sS'time_zone'
p115
g80
sS'protected'
p116
I00
sS'default_profile'
p117
I01
sS'is_translator'
p118
I00
sS'listed_count'
p119
I4
sbsS'filter_level'
p120
Vlow
p121
sS'geo'
p122
Nsg24
I620517472966471681
sS'favorite_count'
p123
I0
sS'source'
p124
VTwitter for iPhone
p125
sg103
Ven
p126
sS'author'
p127
g18
sS'in_reply_to_user_id_str'
p128
V358204197
p129
sg28
(dp130
Vcontributors
p131
NsVtruncated
p132
I00
sVtext
p133
g10
sVin_reply_to_status_id
p134
I620513138706907136
sg33
I620517472966471681
sVfavorite_count
p135
I0
sVsource
p136
V<a href="http://twitter.com/download/iphone" rel="nofollow">Twitter for iPhone</a>
p137
sVretweeted
p138
I00
sVcoordinates
p139
NsVtimestamp_ms
p140
V1436777868869
p141
sVentities
p142
(dp143
Vuser_mentions
p144
(lp145
(dp146
g33
I358204197
sVindices
p147
(lp148
I0
aI5
asg42
V358204197
p149
sg72
VUKIP
p150
sg66
VUKIP
p151
sa(dp152
g33
I19017675
sg147
(lp153
I6
aI19
asg42
V19017675
p154
sg72
VNigel_Farage
p155
sg66
VNigel Farage
p156
sasVsymbols
p157
(lp158
sVtrends
p159
(lp160
sVhashtags
p161
(lp162
(dp163
g147
(lp164
I101
aI109
asg133
VTsipras
p165
sa(dp166
g147
(lp167
I110
aI124
asg133
VGreecebailout
p168
sa(dp169
g147
(lp170
I125
aI132
asg133
VGreece
p171
sasVurls
p172
(lp173
ssVin_reply_to_screen_name
p174
VUKIP
p175
sg42
V620517472966471681
p176
sVretweet_count
p177
I0
sVin_reply_to_user_id
p178
I358204197
sVfavorited
p179
I00
sVuser
p180
g29
sVgeo
p181
NsVin_reply_to_user_id_str
p182
g129
sVpossibly_sensitive
p183
I00
sg68
g126
sg76
VMon Jul 13 08:57:48 +0000 2015
p184
sVfilter_level
p185
g121
sVin_reply_to_status_id_str
p186
V620513138706907136
p187
sVplace
p188
(dp189
Vfull_name
p190
VZurich, Switzerland
p191
sg75
Vhttps://api.twitter.com/1.1/geo/id/3acb748d0f1e9265.json
p192
sVcountry
p193
VSchweiz
p194
sVplace_type
p195
Vcity
p196
sVbounding_box
p197
(dp198
Vtype
p199
VPolygon
p200
sg139
(lp201
(lp202
(lp203
F8.448081
aF47.320183
aa(lp204
F8.448081
aF47.434721
aa(lp205
F8.625442
aF47.434721
aa(lp206
F8.625442
aF47.320183
aaassVcountry_code
p207
VCH
p208
sVattributes
p209
(dp210
sg33
V3acb748d0f1e9265
p211
sg66
VZurich
p212
sssS'coordinates'
p213
NsS'timestamp_ms'
p214
g141
sS'entities'
p215
g143
sS'in_reply_to_status_id_str'
p216
g187
sS'in_reply_to_screen_name'
p217
g175
sg90
g176
sS'retweeted'
p218
I00
sS'place'
p219
g0
(ctweepy.models
Place
p220
g2
Ntp221
Rp222
(dp223
S'full_name'
p224
g191
sg108
g192
sS'country'
p225
g194
sS'place_type'
p226
g196
sS'bounding_box'
p227
g0
(ctweepy.models
BoundingBox
p228
g2
Ntp229
Rp230
(dp231
S'type'
p232
g200
sg213
g201
sbsS'country_code'
p233
g208
sS'attributes'
p234
g210
sg24
g211
sg102
g212
sbsS'retweet_count'
p235
I0
sg109
g110
(S'\x07\xdf\x07\r\x0890\x00\x00\x00'
p236
tp237
Rp238
sS'in_reply_to_user_id'
p239
I358204197
sb.