ccopy_reg
_reconstructor
p0
(ctweepy.models
Status
p1
c__builtin__
object
p2
Ntp3
Rp4
(dp5
S'favorited'
p6
I00
sS'contributors'
p7
NsS'truncated'
p8
I00
sS'text'
p9
V@rgenci57 @_HankRearden @RealMarkCole HEY HANK DID YA SEE THIS ONE.\u000a#QURAN SAYS MUHAMMAS IS A PEDO.\u000aLOOOOOOOOOLOLOLO http://t.co/vaG8VerBRP
p10
sS'source_url'
p11
Vhttp://twitter.com
p12
sS'possibly_sensitive'
p13
I00
sS'in_reply_to_status_id'
p14
I620451432873852928
sS'user'
p15
g0
(ctweepy.models
User
p16
g2
Ntp17
Rp18
(dp19
S'follow_request_sent'
p20
NsS'profile_use_background_image'
p21
I00
sS'profile_sidebar_fill_color'
p22
V000000
p23
sS'id'
p24
I2879569993
sS'verified'
p25
I00
sS'profile_image_url_https'
p26
Vhttps://pbs.twimg.com/profile_images/610874208827146241/voSDsKk8_normal.png
p27
sS'_json'
p28
(dp29
Vfollow_request_sent
p30
NsVprofile_use_background_image
p31
I00
sVdefault_profile_image
p32
I00
sVid
p33
I2879569993
sVverified
p34
I00
sVprofile_image_url_https
p35
g27
sVprofile_sidebar_fill_color
p36
g23
sVprofile_text_color
p37
V000000
p38
sVfollowers_count
p39
I255
sVprofile_sidebar_border_color
p40
V000000
p41
sVid_str
p42
V2879569993
p43
sVprofile_background_color
p44
V000000
p45
sVlisted_count
p46
I3
sVprofile_background_image_url_https
p47
Vhttps://abs.twimg.com/images/themes/theme14/bg.gif
p48
sVutc_offset
p49
NsVstatuses_count
p50
I1331
sVdescription
p51
VNEVER COULD HIDE WHO I AM. \u000a.http://ish.re/JJRT -not me.
p52
sVfriends_count
p53
I285
sVlocation
p54
VRepublic of Mozambique
p55
sVprofile_link_color
p56
VDD2E44
p57
sVprofile_image_url
p58
Vhttp://pbs.twimg.com/profile_images/610874208827146241/voSDsKk8_normal.png
p59
sVfollowing
p60
NsVgeo_enabled
p61
I01
sVprofile_banner_url
p62
Vhttps://pbs.twimg.com/profile_banners/2879569993/1434478513
p63
sVprofile_background_image_url
p64
Vhttp://abs.twimg.com/images/themes/theme14/bg.gif
p65
sVname
p66
VD\u2200MN\u2200L\u308bX 
p67
sVlang
p68
Ven
p69
sVprofile_background_tile
p70
I00
sVfavourites_count
p71
I29
sVscreen_name
p72
VDd0xblack1
p73
sVnotifications
p74
NsVurl
p75
NsVcreated_at
p76
VMon Oct 27 13:04:37 +0000 2014
p77
sVcontributors_enabled
p78
I00
sVtime_zone
p79
NsVprotected
p80
I00
sVdefault_profile
p81
I00
sVis_translator
p82
I00
ssS'contributors_enabled'
p83
I00
sS'profile_text_color'
p84
g38
sS'followers_count'
p85
I255
sS'profile_sidebar_border_color'
p86
g41
sS'location'
p87
g55
sS'default_profile_image'
p88
I00
sS'id_str'
p89
g43
sS'utc_offset'
p90
NsS'statuses_count'
p91
I1331
sS'description'
p92
VNEVER COULD HIDE WHO I AM. \u000a.http://ish.re/JJRT -not me.
p93
sS'friends_count'
p94
I285
sS'profile_link_color'
p95
g57
sS'profile_image_url'
p96
g59
sS'notifications'
p97
NsS'geo_enabled'
p98
I01
sS'profile_background_color'
p99
g45
sS'profile_banner_url'
p100
g63
sS'profile_background_image_url'
p101
g65
sS'name'
p102
g67
sS'lang'
p103
g69
sS'following'
p104
I00
sS'profile_background_tile'
p105
I00
sS'favourites_count'
p106
I29
sS'screen_name'
p107
g73
sS'url'
p108
NsS'created_at'
p109
cdatetime
datetime
p110
(S'\x07\xde\n\x1b\r\x04%\x00\x00\x00'
p111
tp112
Rp113
sS'profile_background_image_url_https'
p114
g48
sS'time_zone'
p115
NsS'protected'
p116
I00
sS'default_profile'
p117
I00
sS'is_translator'
p118
I00
sS'listed_count'
p119
I3
sbsS'filter_level'
p120
Vlow
p121
sS'geo'
p122
Nsg24
I620462450761199616
sS'favorite_count'
p123
I0
sS'source'
p124
VTwitter Web Client
p125
sg103
Ven
p126
sS'author'
p127
g18
sS'in_reply_to_user_id_str'
p128
V2824018164
p129
sg28
(dp130
Vcontributors
p131
NsVtruncated
p132
I00
sVtext
p133
V@rgenci57 @_HankRearden @RealMarkCole HEY HANK DID YA SEE THIS ONE.\u000a#QURAN SAYS MUHAMMAS IS A PEDO.\u000aLOOOOOOOOOLOLOLO http://t.co/vaG8VerBRP
p134
sVin_reply_to_status_id
p135
I620451432873852928
sg33
I620462450761199616
sVfavorite_count
p136
I0
sVsource
p137
V<a href="http://twitter.com" rel="nofollow">Twitter Web Client</a>
p138
sVretweeted
p139
I00
sVcoordinates
p140
NsVtimestamp_ms
p141
V1436764750553
p142
sVentities
p143
(dp144
Vsymbols
p145
(lp146
sVmedia
p147
(lp148
(dp149
Vexpanded_url
p150
Vhttp://twitter.com/Dd0xblack1/status/620462450761199616/photo/1
p151
sVdisplay_url
p152
Vpic.twitter.com/vaG8VerBRP
p153
sg75
Vhttp://t.co/vaG8VerBRP
p154
sVmedia_url_https
p155
Vhttps://pbs.twimg.com/media/CJxTT3DWIAAifha.png
p156
sg42
V620462449330888704
p157
sVsizes
p158
(dp159
Vlarge
p160
(dp161
Vh
p162
I576
sVresize
p163
Vfit
p164
sVw
p165
I1024
ssVsmall
p166
(dp167
g162
I191
sg163
Vfit
p168
sg165
I340
ssVmedium
p169
(dp170
g162
I337
sg163
Vfit
p171
sg165
I600
ssVthumb
p172
(dp173
g162
I150
sg163
Vcrop
p174
sg165
I150
sssVindices
p175
(lp176
I117
aI139
asVtype
p177
Vphoto
p178
sg33
I620462449330888704
sVmedia_url
p179
Vhttp://pbs.twimg.com/media/CJxTT3DWIAAifha.png
p180
sasVhashtags
p181
(lp182
(dp183
g175
(lp184
I68
aI74
asg133
VQURAN
p185
sasVuser_mentions
p186
(lp187
(dp188
g33
I2824018164
sg175
(lp189
I0
aI9
asg42
V2824018164
p190
sg72
Vrgenci57
p191
sg66
VR&G
p192
sa(dp193
g33
I2461452080
sg175
(lp194
I10
aI23
asg42
V2461452080
p195
sg72
V_HankRearden
p196
sg66
VAmerican Hank \u0646
p197
sa(dp198
g33
I808855729
sg175
(lp199
I24
aI37
asg42
V808855729
p200
sg72
VRealMarkCole
p201
sg66
VMark Cole
p202
sasVtrends
p203
(lp204
sVurls
p205
(lp206
ssVin_reply_to_screen_name
p207
Vrgenci57
p208
sg42
V620462450761199616
p209
sVretweet_count
p210
I0
sVin_reply_to_user_id
p211
I2824018164
sVfavorited
p212
I00
sVuser
p213
g29
sVgeo
p214
NsVin_reply_to_user_id_str
p215
g129
sVpossibly_sensitive
p216
I00
sg68
g126
sg76
VMon Jul 13 05:19:10 +0000 2015
p217
sVfilter_level
p218
g121
sVin_reply_to_status_id_str
p219
V620451432873852928
p220
sVplace
p221
(dp222
Vfull_name
p223
VBerne, Switzerland
p224
sg75
Vhttps://api.twitter.com/1.1/geo/id/5868d0e0749c9c47.json
p225
sVcountry
p226
VSchweiz
p227
sVplace_type
p228
Vadmin
p229
sVbounding_box
p230
(dp231
g177
VPolygon
p232
sg140
(lp233
(lp234
(lp235
F6.861601
aF46.326441
aa(lp236
F6.861601
aF47.34528
aa(lp237
F8.455051
aF47.34528
aa(lp238
F8.455051
aF46.326441
aaassVcountry_code
p239
VCH
p240
sVattributes
p241
(dp242
sg33
V5868d0e0749c9c47
p243
sg66
VBern
p244
ssVextended_entities
p245
(dp246
g147
(lp247
(dp248
g150
Vhttp://twitter.com/Dd0xblack1/status/620462450761199616/photo/1
p249
sg152
Vpic.twitter.com/vaG8VerBRP
p250
sg75
Vhttp://t.co/vaG8VerBRP
p251
sg155
Vhttps://pbs.twimg.com/media/CJxTT3DWIAAifha.png
p252
sg42
V620462449330888704
p253
sg158
(dp254
g160
(dp255
g162
I576
sg163
Vfit
p256
sg165
I1024
ssg166
(dp257
g162
I191
sg163
Vfit
p258
sg165
I340
ssg169
(dp259
g162
I337
sg163
Vfit
p260
sg165
I600
ssg172
(dp261
g162
I150
sg163
Vcrop
p262
sg165
I150
sssg175
(lp263
I117
aI139
asg177
Vphoto
p264
sg33
I620462449330888704
sg179
Vhttp://pbs.twimg.com/media/CJxTT3DWIAAifha.png
p265
sasssS'coordinates'
p266
NsS'timestamp_ms'
p267
g142
sS'entities'
p268
g144
sS'in_reply_to_status_id_str'
p269
g220
sS'in_reply_to_screen_name'
p270
g208
sg89
g209
sS'extended_entities'
p271
g246
sS'retweeted'
p272
I00
sS'place'
p273
g0
(ctweepy.models
Place
p274
g2
Ntp275
Rp276
(dp277
S'full_name'
p278
g224
sg108
g225
sS'country'
p279
g227
sS'place_type'
p280
g229
sS'bounding_box'
p281
g0
(ctweepy.models
BoundingBox
p282
g2
Ntp283
Rp284
(dp285
S'type'
p286
g232
sg266
g233
sbsS'country_code'
p287
g240
sS'attributes'
p288
g242
sg24
g243
sg102
g244
sbsS'retweet_count'
p289
I0
sg109
g110
(S'\x07\xdf\x07\r\x05\x13\n\x00\x00\x00'
p290
tp291
Rp292
sS'in_reply_to_user_id'
p293
I2824018164
sb.