ccopy_reg
_reconstructor
p0
(ctweepy.models
Status
p1
c__builtin__
object
p2
Ntp3
Rp4
(dp5
S'favorited'
p6
I00
sS'contributors'
p7
NsS'truncated'
p8
I00
sS'text'
p9
V"http://t.co/sBB0NX9KR5"\u000a@Bidenshairplugs \u000aLOLOLOLOLOLOLOLOL
p10
sS'source_url'
p11
Vhttp://twitter.com
p12
sS'possibly_sensitive'
p13
I00
sS'in_reply_to_status_id'
p14
NsS'user'
p15
g0
(ctweepy.models
User
p16
g2
Ntp17
Rp18
(dp19
S'follow_request_sent'
p20
NsS'profile_use_background_image'
p21
I00
sS'profile_sidebar_fill_color'
p22
V000000
p23
sS'id'
p24
I2879569993
sS'verified'
p25
I00
sS'profile_image_url_https'
p26
Vhttps://pbs.twimg.com/profile_images/610874208827146241/voSDsKk8_normal.png
p27
sS'_json'
p28
(dp29
Vfollow_request_sent
p30
NsVprofile_use_background_image
p31
I00
sVdefault_profile_image
p32
I00
sVid
p33
I2879569993
sVverified
p34
I00
sVprofile_image_url_https
p35
g27
sVprofile_sidebar_fill_color
p36
g23
sVprofile_text_color
p37
V000000
p38
sVfollowers_count
p39
I255
sVprofile_sidebar_border_color
p40
V000000
p41
sVid_str
p42
V2879569993
p43
sVprofile_background_color
p44
V000000
p45
sVlisted_count
p46
I3
sVprofile_background_image_url_https
p47
Vhttps://abs.twimg.com/images/themes/theme14/bg.gif
p48
sVutc_offset
p49
NsVstatuses_count
p50
I1327
sVdescription
p51
VNEVER COULD HIDE WHO I AM. \u000a.http://ish.re/JJRT -not me.
p52
sVfriends_count
p53
I285
sVlocation
p54
VRepublic of Mozambique
p55
sVprofile_link_color
p56
VDD2E44
p57
sVprofile_image_url
p58
Vhttp://pbs.twimg.com/profile_images/610874208827146241/voSDsKk8_normal.png
p59
sVfollowing
p60
NsVgeo_enabled
p61
I01
sVprofile_banner_url
p62
Vhttps://pbs.twimg.com/profile_banners/2879569993/1434478513
p63
sVprofile_background_image_url
p64
Vhttp://abs.twimg.com/images/themes/theme14/bg.gif
p65
sVname
p66
VD\u2200MN\u2200L\u308bX 
p67
sVlang
p68
Ven
p69
sVprofile_background_tile
p70
I00
sVfavourites_count
p71
I29
sVscreen_name
p72
VDd0xblack1
p73
sVnotifications
p74
NsVurl
p75
NsVcreated_at
p76
VMon Oct 27 13:04:37 +0000 2014
p77
sVcontributors_enabled
p78
I00
sVtime_zone
p79
NsVprotected
p80
I00
sVdefault_profile
p81
I00
sVis_translator
p82
I00
ssS'contributors_enabled'
p83
I00
sS'profile_text_color'
p84
g38
sS'followers_count'
p85
I255
sS'profile_sidebar_border_color'
p86
g41
sS'location'
p87
g55
sS'default_profile_image'
p88
I00
sS'id_str'
p89
g43
sS'utc_offset'
p90
NsS'statuses_count'
p91
I1327
sS'description'
p92
VNEVER COULD HIDE WHO I AM. \u000a.http://ish.re/JJRT -not me.
p93
sS'friends_count'
p94
I285
sS'profile_link_color'
p95
g57
sS'profile_image_url'
p96
g59
sS'notifications'
p97
NsS'geo_enabled'
p98
I01
sS'profile_background_color'
p99
g45
sS'profile_banner_url'
p100
g63
sS'profile_background_image_url'
p101
g65
sS'name'
p102
g67
sS'lang'
p103
g69
sS'following'
p104
I00
sS'profile_background_tile'
p105
I00
sS'favourites_count'
p106
I29
sS'screen_name'
p107
g73
sS'url'
p108
NsS'created_at'
p109
cdatetime
datetime
p110
(S'\x07\xde\n\x1b\r\x04%\x00\x00\x00'
p111
tp112
Rp113
sS'profile_background_image_url_https'
p114
g48
sS'time_zone'
p115
NsS'protected'
p116
I00
sS'default_profile'
p117
I00
sS'is_translator'
p118
I00
sS'listed_count'
p119
I3
sbsS'filter_level'
p120
Vlow
p121
sS'geo'
p122
Nsg24
I620458358034853888
sS'favorite_count'
p123
I0
sS'source'
p124
VTwitter Web Client
p125
sg103
Vht
p126
sS'author'
p127
g18
sS'in_reply_to_user_id_str'
p128
Nsg28
(dp129
Vcontributors
p130
NsVtruncated
p131
I00
sVtext
p132
V"http://t.co/sBB0NX9KR5"\u000a@Bidenshairplugs \u000aLOLOLOLOLOLOLOLOL
p133
sVin_reply_to_status_id
p134
Nsg33
I620458358034853888
sVfavorite_count
p135
I0
sVsource
p136
V<a href="http://twitter.com" rel="nofollow">Twitter Web Client</a>
p137
sVretweeted
p138
I00
sVcoordinates
p139
NsVtimestamp_ms
p140
V1436763774771
p141
sVentities
p142
(dp143
Vsymbols
p144
(lp145
sVmedia
p146
(lp147
(dp148
Vsource_status_id_str
p149
V619713634076348416
p150
sVexpanded_url
p151
Vhttp://twitter.com/darksidedeb/status/619713634076348416/photo/1
p152
sVdisplay_url
p153
Vpic.twitter.com/sBB0NX9KR5
p154
sg75
Vhttp://t.co/sBB0NX9KR5
p155
sVmedia_url_https
p156
Vhttps://pbs.twimg.com/tweet_video_thumb/CJmqRBxUwAARzFN.png
p157
sVsource_status_id
p158
I619713634076348416
sg42
V619713633249968128
p159
sVsizes
p160
(dp161
Vsmall
p162
(dp163
Vh
p164
I340
sVresize
p165
Vfit
p166
sVw
p167
I340
ssVlarge
p168
(dp169
g164
I360
sg165
Vfit
p170
sg167
I360
ssVmedium
p171
(dp172
g164
I360
sg165
Vfit
p173
sg167
I360
ssVthumb
p174
(dp175
g164
I150
sg165
Vcrop
p176
sg167
I150
sssVindices
p177
(lp178
I1
aI23
asVtype
p179
Vphoto
p180
sg33
I619713633249968128
sVmedia_url
p181
Vhttp://pbs.twimg.com/tweet_video_thumb/CJmqRBxUwAARzFN.png
p182
sasVhashtags
p183
(lp184
sVuser_mentions
p185
(lp186
(dp187
g33
I373783051
sg177
(lp188
I25
aI41
asg42
V373783051
p189
sg72
VBidenshairplugs
p190
sg66
VAdolfJoeBiden\u2122
p191
sasVtrends
p192
(lp193
sVurls
p194
(lp195
ssVin_reply_to_screen_name
p196
Nsg42
V620458358034853888
p197
sVretweet_count
p198
I0
sVin_reply_to_user_id
p199
NsVfavorited
p200
I00
sVuser
p201
g29
sVgeo
p202
NsVin_reply_to_user_id_str
p203
NsVpossibly_sensitive
p204
I00
sg68
g126
sg76
VMon Jul 13 05:02:54 +0000 2015
p205
sVfilter_level
p206
g121
sVin_reply_to_status_id_str
p207
NsVplace
p208
(dp209
Vfull_name
p210
VBerne, Switzerland
p211
sg75
Vhttps://api.twitter.com/1.1/geo/id/5868d0e0749c9c47.json
p212
sVcountry
p213
VSchweiz
p214
sVplace_type
p215
Vadmin
p216
sVbounding_box
p217
(dp218
g179
VPolygon
p219
sg139
(lp220
(lp221
(lp222
F6.861601
aF46.326441
aa(lp223
F6.861601
aF47.34528
aa(lp224
F8.455051
aF47.34528
aa(lp225
F8.455051
aF46.326441
aaassVcountry_code
p226
VCH
p227
sVattributes
p228
(dp229
sg33
V5868d0e0749c9c47
p230
sg66
VBern
p231
ssVextended_entities
p232
(dp233
g146
(lp234
(dp235
g149
V619713634076348416
p236
sg151
Vhttp://twitter.com/darksidedeb/status/619713634076348416/photo/1
p237
sg153
Vpic.twitter.com/sBB0NX9KR5
p238
sg75
Vhttp://t.co/sBB0NX9KR5
p239
sg156
Vhttps://pbs.twimg.com/tweet_video_thumb/CJmqRBxUwAARzFN.png
p240
sg158
I619713634076348416
sVvideo_info
p241
(dp242
Vaspect_ratio
p243
(lp244
I1
aI1
asVvariants
p245
(lp246
(dp247
g75
Vhttps://pbs.twimg.com/tweet_video/CJmqRBxUwAARzFN.mp4
p248
sVbitrate
p249
I0
sVcontent_type
p250
Vvideo/mp4
p251
sassg42
V619713633249968128
p252
sg160
(dp253
g162
(dp254
g164
I340
sg165
Vfit
p255
sg167
I340
ssg168
(dp256
g164
I360
sg165
Vfit
p257
sg167
I360
ssg171
(dp258
g164
I360
sg165
Vfit
p259
sg167
I360
ssg174
(dp260
g164
I150
sg165
Vcrop
p261
sg167
I150
sssg177
(lp262
I1
aI23
asg179
Vanimated_gif
p263
sg33
I619713633249968128
sg181
Vhttp://pbs.twimg.com/tweet_video_thumb/CJmqRBxUwAARzFN.png
p264
sasssS'coordinates'
p265
NsS'timestamp_ms'
p266
g141
sS'entities'
p267
g143
sS'in_reply_to_status_id_str'
p268
NsS'in_reply_to_screen_name'
p269
Nsg89
g197
sS'extended_entities'
p270
g233
sS'retweeted'
p271
I00
sS'place'
p272
g0
(ctweepy.models
Place
p273
g2
Ntp274
Rp275
(dp276
S'full_name'
p277
g211
sg108
g212
sS'country'
p278
g214
sS'place_type'
p279
g216
sS'bounding_box'
p280
g0
(ctweepy.models
BoundingBox
p281
g2
Ntp282
Rp283
(dp284
S'type'
p285
g219
sg265
g220
sbsS'country_code'
p286
g227
sS'attributes'
p287
g229
sg24
g230
sg102
g231
sbsS'retweet_count'
p288
I0
sg109
g110
(S'\x07\xdf\x07\r\x05\x026\x00\x00\x00'
p289
tp290
Rp291
sS'in_reply_to_user_id'
p292
Nsb.