ccopy_reg
_reconstructor
p0
(ctweepy.models
Status
p1
c__builtin__
object
p2
Ntp3
Rp4
(dp5
S'favorited'
p6
I00
sS'contributors'
p7
NsS'truncated'
p8
I00
sS'text'
p9
V@narendramodi @PMOIndia http://t.co/n8WIfhTdU1
p10
sS'source_url'
p11
Vhttp://twitter.com
p12
sS'possibly_sensitive'
p13
I00
sS'in_reply_to_status_id'
p14
I619868347086155776
sS'user'
p15
g0
(ctweepy.models
User
p16
g2
Ntp17
Rp18
(dp19
S'follow_request_sent'
p20
NsS'profile_use_background_image'
p21
I01
sS'profile_sidebar_fill_color'
p22
VDDEEF6
p23
sS'id'
p24
I1308012740
sS'verified'
p25
I00
sS'profile_image_url_https'
p26
Vhttps://pbs.twimg.com/profile_images/521638961199214592/jbdc5PSP_normal.jpeg
p27
sS'_json'
p28
(dp29
Vfollow_request_sent
p30
NsVprofile_use_background_image
p31
I01
sVdefault_profile_image
p32
I00
sVid
p33
I1308012740
sVverified
p34
I00
sVprofile_image_url_https
p35
g27
sVprofile_sidebar_fill_color
p36
g23
sVprofile_text_color
p37
V333333
p38
sVfollowers_count
p39
I87
sVprofile_sidebar_border_color
p40
VC0DEED
p41
sVid_str
p42
V1308012740
p43
sVprofile_background_color
p44
VC0DEED
p45
sVlisted_count
p46
I2
sVprofile_background_image_url_https
p47
Vhttps://pbs.twimg.com/profile_background_images/559046890394628096/3gUugHju.jpeg
p48
sVutc_offset
p49
I7200
sVstatuses_count
p50
I1698
sVdescription
p51
VInternational Trade.Investment.Project Promoter PATSCO SWITZERLAND
p52
sVfriends_count
p53
I321
sVlocation
p54
VCH 8840 Switzerland
p55
sVprofile_link_color
p56
V0084B4
p57
sVprofile_image_url
p58
Vhttp://pbs.twimg.com/profile_images/521638961199214592/jbdc5PSP_normal.jpeg
p59
sVfollowing
p60
NsVgeo_enabled
p61
I01
sVprofile_banner_url
p62
Vhttps://pbs.twimg.com/profile_banners/1308012740/1422122250
p63
sVprofile_background_image_url
p64
Vhttp://pbs.twimg.com/profile_background_images/559046890394628096/3gUugHju.jpeg
p65
sVname
p66
VPatrick PARAMAN
p67
sVlang
p68
Ven
p69
sVprofile_background_tile
p70
I00
sVfavourites_count
p71
I37
sVscreen_name
p72
VPatrickPARAMAN
p73
sVnotifications
p74
NsVurl
p75
Vhttp://www.patsco.ch
p76
sVcreated_at
p77
VWed Mar 27 16:55:41 +0000 2013
p78
sVcontributors_enabled
p79
I00
sVtime_zone
p80
VBern
p81
sVprotected
p82
I00
sVdefault_profile
p83
I00
sVis_translator
p84
I00
ssS'contributors_enabled'
p85
I00
sS'profile_text_color'
p86
g38
sS'followers_count'
p87
I87
sS'profile_sidebar_border_color'
p88
g41
sS'location'
p89
g55
sS'default_profile_image'
p90
I00
sS'id_str'
p91
g43
sS'utc_offset'
p92
I7200
sS'statuses_count'
p93
I1698
sS'description'
p94
g52
sS'friends_count'
p95
I321
sS'profile_link_color'
p96
g57
sS'profile_image_url'
p97
g59
sS'notifications'
p98
NsS'geo_enabled'
p99
I01
sS'profile_background_color'
p100
g45
sS'profile_banner_url'
p101
g63
sS'profile_background_image_url'
p102
g65
sS'name'
p103
g67
sS'lang'
p104
g69
sS'following'
p105
I00
sS'profile_background_tile'
p106
I00
sS'favourites_count'
p107
I37
sS'screen_name'
p108
g73
sS'url'
p109
g76
sS'created_at'
p110
cdatetime
datetime
p111
(S'\x07\xdd\x03\x1b\x107)\x00\x00\x00'
p112
tp113
Rp114
sS'profile_background_image_url_https'
p115
g48
sS'time_zone'
p116
g81
sS'protected'
p117
I00
sS'default_profile'
p118
I00
sS'is_translator'
p119
I00
sS'listed_count'
p120
I2
sbsS'filter_level'
p121
Vlow
p122
sS'geo'
p123
Nsg24
I619969711988674560
sS'favorite_count'
p124
I0
sS'source'
p125
VTwitter Web Client
p126
sg104
Vund
p127
sS'author'
p128
g18
sS'in_reply_to_user_id_str'
p129
V18839785
p130
sg28
(dp131
Vcontributors
p132
NsVtruncated
p133
I00
sVtext
p134
g10
sVin_reply_to_status_id
p135
I619868347086155776
sg33
I619969711988674560
sVfavorite_count
p136
I0
sVsource
p137
V<a href="http://twitter.com" rel="nofollow">Twitter Web Client</a>
p138
sVretweeted
p139
I00
sVcoordinates
p140
NsVtimestamp_ms
p141
V1436647272475
p142
sVentities
p143
(dp144
Vsymbols
p145
(lp146
sVmedia
p147
(lp148
(dp149
Vexpanded_url
p150
Vhttp://twitter.com/PatrickPARAMAN/status/619969711988674560/photo/1
p151
sVdisplay_url
p152
Vpic.twitter.com/n8WIfhTdU1
p153
sg75
Vhttp://t.co/n8WIfhTdU1
p154
sVmedia_url_https
p155
Vhttps://pbs.twimg.com/media/CJqTKtpWUAA_iqh.jpg
p156
sg42
V619969710977863680
p157
sVsizes
p158
(dp159
Vsmall
p160
(dp161
Vh
p162
I310
sVresize
p163
Vfit
p164
sVw
p165
I340
ssVlarge
p166
(dp167
g162
I871
sg163
Vfit
p168
sg165
I954
ssVmedium
p169
(dp170
g162
I547
sg163
Vfit
p171
sg165
I600
ssVthumb
p172
(dp173
g162
I150
sg163
Vcrop
p174
sg165
I150
sssVindices
p175
(lp176
I24
aI46
asVtype
p177
Vphoto
p178
sg33
I619969710977863680
sVmedia_url
p179
Vhttp://pbs.twimg.com/media/CJqTKtpWUAA_iqh.jpg
p180
sasVhashtags
p181
(lp182
sVuser_mentions
p183
(lp184
(dp185
g33
I18839785
sg175
(lp186
I0
aI13
asg42
V18839785
p187
sg72
Vnarendramodi
p188
sg66
VNarendra Modi
p189
sa(dp190
g33
I471741741
sg175
(lp191
I14
aI23
asg42
V471741741
p192
sg72
VPMOIndia
p193
sg66
VPMO India 
p194
sasVtrends
p195
(lp196
sVurls
p197
(lp198
ssVin_reply_to_screen_name
p199
Vnarendramodi
p200
sg42
V619969711988674560
p201
sVretweet_count
p202
I0
sVin_reply_to_user_id
p203
I18839785
sVfavorited
p204
I00
sVuser
p205
g29
sVgeo
p206
NsVin_reply_to_user_id_str
p207
g130
sVpossibly_sensitive
p208
I00
sg68
g127
sg77
VSat Jul 11 20:41:12 +0000 2015
p209
sVfilter_level
p210
g122
sVin_reply_to_status_id_str
p211
V619868347086155776
p212
sVplace
p213
(dp214
Vfull_name
p215
VZurich, Switzerland
p216
sg75
Vhttps://api.twitter.com/1.1/geo/id/3acb748d0f1e9265.json
p217
sVcountry
p218
VSchweiz
p219
sVplace_type
p220
Vcity
p221
sVbounding_box
p222
(dp223
g177
VPolygon
p224
sg140
(lp225
(lp226
(lp227
F8.448081
aF47.320183
aa(lp228
F8.448081
aF47.434721
aa(lp229
F8.625442
aF47.434721
aa(lp230
F8.625442
aF47.320183
aaassVcountry_code
p231
VCH
p232
sVattributes
p233
(dp234
sg33
V3acb748d0f1e9265
p235
sg66
VZurich
p236
ssVextended_entities
p237
(dp238
g147
(lp239
(dp240
g150
Vhttp://twitter.com/PatrickPARAMAN/status/619969711988674560/photo/1
p241
sg152
Vpic.twitter.com/n8WIfhTdU1
p242
sg75
Vhttp://t.co/n8WIfhTdU1
p243
sg155
Vhttps://pbs.twimg.com/media/CJqTKtpWUAA_iqh.jpg
p244
sg42
V619969710977863680
p245
sg158
(dp246
g160
(dp247
g162
I310
sg163
Vfit
p248
sg165
I340
ssg166
(dp249
g162
I871
sg163
Vfit
p250
sg165
I954
ssg169
(dp251
g162
I547
sg163
Vfit
p252
sg165
I600
ssg172
(dp253
g162
I150
sg163
Vcrop
p254
sg165
I150
sssg175
(lp255
I24
aI46
asg177
Vphoto
p256
sg33
I619969710977863680
sg179
Vhttp://pbs.twimg.com/media/CJqTKtpWUAA_iqh.jpg
p257
sa(dp258
g150
Vhttp://twitter.com/PatrickPARAMAN/status/619969711988674560/photo/1
p259
sg152
Vpic.twitter.com/n8WIfhTdU1
p260
sg75
Vhttp://t.co/n8WIfhTdU1
p261
sg155
Vhttps://pbs.twimg.com/media/CJqTKoOWsAALciN.jpg
p262
sg42
V619969709522464768
p263
sg158
(dp264
g160
(dp265
g162
I310
sg163
Vfit
p266
sg165
I340
ssg166
(dp267
g162
I457
sg163
Vfit
p268
sg165
I500
ssg169
(dp269
g162
I457
sg163
Vfit
p270
sg165
I500
ssg172
(dp271
g162
I150
sg163
Vcrop
p272
sg165
I150
sssg175
(lp273
I24
aI46
asg177
Vphoto
p274
sg33
I619969709522464768
sg179
Vhttp://pbs.twimg.com/media/CJqTKoOWsAALciN.jpg
p275
sasssS'coordinates'
p276
NsS'timestamp_ms'
p277
g142
sS'entities'
p278
g144
sS'in_reply_to_status_id_str'
p279
g212
sS'in_reply_to_screen_name'
p280
g200
sg91
g201
sS'extended_entities'
p281
g238
sS'retweeted'
p282
I00
sS'place'
p283
g0
(ctweepy.models
Place
p284
g2
Ntp285
Rp286
(dp287
S'full_name'
p288
g216
sg109
g217
sS'country'
p289
g219
sS'place_type'
p290
g221
sS'bounding_box'
p291
g0
(ctweepy.models
BoundingBox
p292
g2
Ntp293
Rp294
(dp295
S'type'
p296
g224
sg276
g225
sbsS'country_code'
p297
g232
sS'attributes'
p298
g234
sg24
g235
sg103
g236
sbsS'retweet_count'
p299
I0
sg110
g111
(S'\x07\xdf\x07\x0b\x14)\x0c\x00\x00\x00'
p300
tp301
Rp302
sS'in_reply_to_user_id'
p303
I18839785
sb.