ccopy_reg
_reconstructor
p0
(ctweepy.models
Status
p1
c__builtin__
object
p2
Ntp3
Rp4
(dp5
S'favorited'
p6
I00
sS'contributors'
p7
NsS'truncated'
p8
I00
sS'text'
p9
V@scotch_io @ken_wheeler very nice, doesn't work on my iphone though
p10
sS'source_url'
p11
Vhttp://tapbots.com/tweetbot
p12
sS'possibly_sensitive'
p13
I00
sS'in_reply_to_status_id'
p14
I619191540804657152
sS'user'
p15
g0
(ctweepy.models
User
p16
g2
Ntp17
Rp18
(dp19
S'follow_request_sent'
p20
NsS'profile_use_background_image'
p21
I01
sS'profile_sidebar_fill_color'
p22
VDDEEF6
p23
sS'id'
p24
I14418232
sS'verified'
p25
I00
sS'profile_image_url_https'
p26
Vhttps://pbs.twimg.com/profile_images/2578649021/ehg7a5y5h9s3wxhbtfn4_normal.jpeg
p27
sS'_json'
p28
(dp29
Vfollow_request_sent
p30
NsVprofile_use_background_image
p31
I01
sVdefault_profile_image
p32
I00
sVid
p33
I14418232
sVverified
p34
I00
sVprofile_image_url_https
p35
g27
sVprofile_sidebar_fill_color
p36
g23
sVprofile_text_color
p37
V333333
p38
sVfollowers_count
p39
I1492
sVprofile_sidebar_border_color
p40
VFFFFFF
p41
sVid_str
p42
V14418232
p43
sVprofile_background_color
p44
VC0DEED
p45
sVlisted_count
p46
I63
sVprofile_background_image_url_https
p47
Vhttps://abs.twimg.com/images/themes/theme1/bg.png
p48
sVutc_offset
p49
I7200
sVstatuses_count
p50
I6225
sVdescription
p51
VPartner and Software Engineer @gridonic. Colorful terminal and coffee addict. Loves sports. And great food.
p52
sVfriends_count
p53
I658
sVlocation
p54
VZurich, Switzerland
p55
sVprofile_link_color
p56
V0084B4
p57
sVprofile_image_url
p58
Vhttp://pbs.twimg.com/profile_images/2578649021/ehg7a5y5h9s3wxhbtfn4_normal.jpeg
p59
sVfollowing
p60
NsVgeo_enabled
p61
I01
sVprofile_banner_url
p62
Vhttps://pbs.twimg.com/profile_banners/14418232/1351462160
p63
sVprofile_background_image_url
p64
Vhttp://abs.twimg.com/images/themes/theme1/bg.png
p65
sVname
p66
VPeter Siska
p67
sVlang
p68
Ven
p69
sVprofile_background_tile
p70
I00
sVfavourites_count
p71
I1002
sVscreen_name
p72
Vpeschee
p73
sVnotifications
p74
NsVurl
p75
Vhttp://gridonic.ch
p76
sVcreated_at
p77
VThu Apr 17 08:53:54 +0000 2008
p78
sVcontributors_enabled
p79
I00
sVtime_zone
p80
VBern
p81
sVprotected
p82
I00
sVdefault_profile
p83
I00
sVis_translator
p84
I00
ssS'contributors_enabled'
p85
I00
sS'profile_text_color'
p86
g38
sS'followers_count'
p87
I1492
sS'profile_sidebar_border_color'
p88
g41
sS'location'
p89
g55
sS'default_profile_image'
p90
I00
sS'id_str'
p91
g43
sS'utc_offset'
p92
I7200
sS'statuses_count'
p93
I6225
sS'description'
p94
g52
sS'friends_count'
p95
I658
sS'profile_link_color'
p96
g57
sS'profile_image_url'
p97
g59
sS'notifications'
p98
NsS'geo_enabled'
p99
I01
sS'profile_background_color'
p100
g45
sS'profile_banner_url'
p101
g63
sS'profile_background_image_url'
p102
g65
sS'name'
p103
g67
sS'lang'
p104
g69
sS'following'
p105
I00
sS'profile_background_tile'
p106
I00
sS'favourites_count'
p107
I1002
sS'screen_name'
p108
g73
sS'url'
p109
g76
sS'created_at'
p110
cdatetime
datetime
p111
(S'\x07\xd8\x04\x11\x0856\x00\x00\x00'
p112
tp113
Rp114
sS'profile_background_image_url_https'
p115
g48
sS'time_zone'
p116
g81
sS'protected'
p117
I00
sS'default_profile'
p118
I00
sS'is_translator'
p119
I00
sS'listed_count'
p120
I63
sbsS'filter_level'
p121
Vlow
p122
sS'geo'
p123
(dp124
Vtype
p125
VPoint
p126
sVcoordinates
p127
(lp128
F47.394931
aF8.521952
assg24
I619261688513187840
sS'favorite_count'
p129
I0
sS'source'
p130
VTweetbot for i\u039fS
p131
sg104
Ven
p132
sS'author'
p133
g18
sS'in_reply_to_user_id_str'
p134
V1122906733
p135
sg28
(dp136
Vcontributors
p137
NsVtruncated
p138
I00
sVtext
p139
g10
sVin_reply_to_status_id
p140
I619191540804657152
sg33
I619261688513187840
sVfavorite_count
p141
I0
sVsource
p142
V<a href="http://tapbots.com/tweetbot" rel="nofollow">Tweetbot for i\u039fS</a>
p143
sVretweeted
p144
I00
sg127
(dp145
g125
VPoint
p146
sg127
(lp147
F8.521952
aF47.394931
assVtimestamp_ms
p148
V1436478466524
p149
sVentities
p150
(dp151
Vuser_mentions
p152
(lp153
(dp154
g33
I1122906733
sVindices
p155
(lp156
I0
aI10
asg42
V1122906733
p157
sg72
Vscotch_io
p158
sg66
VScotch Development
p159
sa(dp160
g33
I167193309
sg155
(lp161
I11
aI23
asg42
V167193309
p162
sg72
Vken_wheeler
p163
sg66
VKen Wheeler
p164
sasVsymbols
p165
(lp166
sVtrends
p167
(lp168
sVhashtags
p169
(lp170
sVurls
p171
(lp172
ssVin_reply_to_screen_name
p173
Vscotch_io
p174
sg42
V619261688513187840
p175
sVretweet_count
p176
I0
sVin_reply_to_user_id
p177
I1122906733
sVfavorited
p178
I00
sVuser
p179
g29
sVgeo
p180
g124
sVin_reply_to_user_id_str
p181
g135
sVpossibly_sensitive
p182
I00
sg68
g132
sg77
VThu Jul 09 21:47:46 +0000 2015
p183
sVfilter_level
p184
g122
sVin_reply_to_status_id_str
p185
V619191540804657152
p186
sVplace
p187
(dp188
Vfull_name
p189
VZurich, Switzerland
p190
sg75
Vhttps://api.twitter.com/1.1/geo/id/3acb748d0f1e9265.json
p191
sVcountry
p192
VSchweiz
p193
sVplace_type
p194
Vcity
p195
sVbounding_box
p196
(dp197
g125
VPolygon
p198
sg127
(lp199
(lp200
(lp201
F8.448081
aF47.320183
aa(lp202
F8.448081
aF47.434721
aa(lp203
F8.625442
aF47.434721
aa(lp204
F8.625442
aF47.320183
aaassVcountry_code
p205
VCH
p206
sVattributes
p207
(dp208
sg33
V3acb748d0f1e9265
p209
sg66
VZurich
p210
sssS'coordinates'
p211
g145
sS'timestamp_ms'
p212
g149
sS'entities'
p213
g151
sS'in_reply_to_status_id_str'
p214
g186
sS'in_reply_to_screen_name'
p215
g174
sg91
g175
sS'retweeted'
p216
I00
sS'place'
p217
g0
(ctweepy.models
Place
p218
g2
Ntp219
Rp220
(dp221
S'full_name'
p222
g190
sg109
g191
sS'country'
p223
g193
sS'place_type'
p224
g195
sS'bounding_box'
p225
g0
(ctweepy.models
BoundingBox
p226
g2
Ntp227
Rp228
(dp229
S'type'
p230
g198
sg211
g199
sbsS'country_code'
p231
g206
sS'attributes'
p232
g208
sg24
g209
sg103
g210
sbsS'retweet_count'
p233
I0
sg110
g111
(S'\x07\xdf\x07\t\x15/.\x00\x00\x00'
p234
tp235
Rp236
sS'in_reply_to_user_id'
p237
I1122906733
sb.