ccopy_reg
_reconstructor
p0
(ctweepy.models
Status
p1
c__builtin__
object
p2
Ntp3
Rp4
(dp5
S'favorited'
p6
I00
sS'contributors'
p7
NsS'truncated'
p8
I00
sS'text'
p9
VHealthcare trade group to validate open source solutions, including #Kolab   https://t.co/Q1AVD0b9MM (by @Joinup_eu) http://t.co/iZVuTRyQxk
p10
sS'source_url'
p11
Vhttp://twitter.com
p12
sS'possibly_sensitive'
p13
I00
sS'in_reply_to_status_id'
p14
NsS'user'
p15
g0
(ctweepy.models
User
p16
g2
Ntp17
Rp18
(dp19
S'follow_request_sent'
p20
NsS'profile_use_background_image'
p21
I00
sS'profile_sidebar_fill_color'
p22
V000000
p23
sS'id'
p24
I108556739
sS'verified'
p25
I00
sS'profile_image_url_https'
p26
Vhttps://pbs.twimg.com/profile_images/560226635325009920/Q2r9MpwB_normal.jpeg
p27
sS'_json'
p28
(dp29
Vfollow_request_sent
p30
NsVprofile_use_background_image
p31
I00
sVdefault_profile_image
p32
I00
sVid
p33
I108556739
sVverified
p34
I00
sVprofile_image_url_https
p35
g27
sVprofile_sidebar_fill_color
p36
g23
sVprofile_text_color
p37
V000000
p38
sVfollowers_count
p39
I439
sVprofile_sidebar_border_color
p40
V000000
p41
sVid_str
p42
V108556739
p43
sVprofile_background_color
p44
V000000
p45
sVlisted_count
p46
I12
sVprofile_background_image_url_https
p47
Vhttps://abs.twimg.com/images/themes/theme1/bg.png
p48
sVutc_offset
p49
I7200
sVstatuses_count
p50
I330
sVdescription
p51
VKolab Systems AG - home of the Kolab Groupware Solution and @kolabnow
p52
sVfriends_count
p53
I21
sVlocation
p54
VZurich, Switzerland
p55
sVprofile_link_color
p56
VFA743E
p57
sVprofile_image_url
p58
Vhttp://pbs.twimg.com/profile_images/560226635325009920/Q2r9MpwB_normal.jpeg
p59
sVfollowing
p60
NsVgeo_enabled
p61
I01
sVprofile_banner_url
p62
Vhttps://pbs.twimg.com/profile_banners/108556739/1422403425
p63
sVprofile_background_image_url
p64
Vhttp://abs.twimg.com/images/themes/theme1/bg.png
p65
sVname
p66
VKolab Systems AG
p67
sVlang
p68
Ven
p69
sVprofile_background_tile
p70
I00
sVfavourites_count
p71
I100
sVscreen_name
p72
Vkolabsys
p73
sVnotifications
p74
NsVurl
p75
Vhttps://kolabsystems.com
p76
sVcreated_at
p77
VTue Jan 26 09:09:27 +0000 2010
p78
sVcontributors_enabled
p79
I00
sVtime_zone
p80
VBerlin
p81
sVprotected
p82
I00
sVdefault_profile
p83
I00
sVis_translator
p84
I00
ssS'contributors_enabled'
p85
I00
sS'profile_text_color'
p86
g38
sS'followers_count'
p87
I439
sS'profile_sidebar_border_color'
p88
g41
sS'location'
p89
g55
sS'default_profile_image'
p90
I00
sS'id_str'
p91
g43
sS'utc_offset'
p92
I7200
sS'statuses_count'
p93
I330
sS'description'
p94
g52
sS'friends_count'
p95
I21
sS'profile_link_color'
p96
g57
sS'profile_image_url'
p97
g59
sS'notifications'
p98
NsS'geo_enabled'
p99
I01
sS'profile_background_color'
p100
g45
sS'profile_banner_url'
p101
g63
sS'profile_background_image_url'
p102
g65
sS'name'
p103
g67
sS'lang'
p104
g69
sS'following'
p105
I00
sS'profile_background_tile'
p106
I00
sS'favourites_count'
p107
I100
sS'screen_name'
p108
g73
sS'url'
p109
g76
sS'created_at'
p110
cdatetime
datetime
p111
(S'\x07\xda\x01\x1a\t\t\x1b\x00\x00\x00'
p112
tp113
Rp114
sS'profile_background_image_url_https'
p115
g48
sS'time_zone'
p116
g81
sS'protected'
p117
I00
sS'default_profile'
p118
I00
sS'is_translator'
p119
I00
sS'listed_count'
p120
I12
sbsS'filter_level'
p121
Vlow
p122
sS'geo'
p123
Nsg24
I619019271549677568
sS'favorite_count'
p124
I0
sS'source'
p125
VTwitter Web Client
p126
sg104
Ven
p127
sS'author'
p128
g18
sS'in_reply_to_user_id_str'
p129
Nsg28
(dp130
Vcontributors
p131
NsVtruncated
p132
I00
sVtext
p133
g10
sVin_reply_to_status_id
p134
Nsg33
I619019271549677568
sVfavorite_count
p135
I0
sVsource
p136
V<a href="http://twitter.com" rel="nofollow">Twitter Web Client</a>
p137
sVretweeted
p138
I00
sVcoordinates
p139
NsVtimestamp_ms
p140
V1436420669816
p141
sVentities
p142
(dp143
Vsymbols
p144
(lp145
sVmedia
p146
(lp147
(dp148
Vexpanded_url
p149
Vhttp://twitter.com/kolabsys/status/619019271549677568/photo/1
p150
sVdisplay_url
p151
Vpic.twitter.com/iZVuTRyQxk
p152
sg75
Vhttp://t.co/iZVuTRyQxk
p153
sVmedia_url_https
p154
Vhttps://pbs.twimg.com/media/CJcyvz8WUAANTyW.png
p155
sg42
V619019270765301760
p156
sVsizes
p157
(dp158
Vsmall
p159
(dp160
Vh
p161
I54
sVresize
p162
Vfit
p163
sVw
p164
I340
ssVlarge
p165
(dp166
g161
I128
sg162
Vfit
p167
sg164
I805
ssVmedium
p168
(dp169
g161
I95
sg162
Vfit
p170
sg164
I600
ssVthumb
p171
(dp172
g161
I128
sg162
Vcrop
p173
sg164
I150
sssVindices
p174
(lp175
I117
aI139
asVtype
p176
Vphoto
p177
sg33
I619019270765301760
sVmedia_url
p178
Vhttp://pbs.twimg.com/media/CJcyvz8WUAANTyW.png
p179
sasVhashtags
p180
(lp181
(dp182
g174
(lp183
I68
aI74
asg133
VKolab
p184
sasVuser_mentions
p185
(lp186
(dp187
g33
I936564992
sg174
(lp188
I105
aI115
asg42
V936564992
p189
sg72
VJoinup_eu
p190
sg66
VJoinup.eu
p191
sasVtrends
p192
(lp193
sVurls
p194
(lp195
(dp196
g75
Vhttps://t.co/Q1AVD0b9MM
p197
sg174
(lp198
I77
aI100
asg149
Vhttps://joinup.ec.europa.eu/node/143984
p199
sg151
Vjoinup.ec.europa.eu/node/143984
p200
sassVin_reply_to_screen_name
p201
Nsg42
V619019271549677568
p202
sVretweet_count
p203
I0
sVin_reply_to_user_id
p204
NsVfavorited
p205
I00
sVuser
p206
g29
sVgeo
p207
NsVin_reply_to_user_id_str
p208
NsVpossibly_sensitive
p209
I00
sg68
g127
sg77
VThu Jul 09 05:44:29 +0000 2015
p210
sVfilter_level
p211
g122
sVin_reply_to_status_id_str
p212
NsVplace
p213
(dp214
Vfull_name
p215
VZurich, Switzerland
p216
sg75
Vhttps://api.twitter.com/1.1/geo/id/3acb748d0f1e9265.json
p217
sVcountry
p218
VSchweiz
p219
sVplace_type
p220
Vcity
p221
sVbounding_box
p222
(dp223
g176
VPolygon
p224
sg139
(lp225
(lp226
(lp227
F8.448081
aF47.320183
aa(lp228
F8.448081
aF47.434721
aa(lp229
F8.625442
aF47.434721
aa(lp230
F8.625442
aF47.320183
aaassVcountry_code
p231
VCH
p232
sVattributes
p233
(dp234
sg33
V3acb748d0f1e9265
p235
sg66
VZurich
p236
ssVextended_entities
p237
(dp238
g146
(lp239
(dp240
g149
Vhttp://twitter.com/kolabsys/status/619019271549677568/photo/1
p241
sg151
Vpic.twitter.com/iZVuTRyQxk
p242
sg75
Vhttp://t.co/iZVuTRyQxk
p243
sg154
Vhttps://pbs.twimg.com/media/CJcyvz8WUAANTyW.png
p244
sg42
V619019270765301760
p245
sg157
(dp246
g159
(dp247
g161
I54
sg162
Vfit
p248
sg164
I340
ssg165
(dp249
g161
I128
sg162
Vfit
p250
sg164
I805
ssg168
(dp251
g161
I95
sg162
Vfit
p252
sg164
I600
ssg171
(dp253
g161
I128
sg162
Vcrop
p254
sg164
I150
sssg174
(lp255
I117
aI139
asg176
Vphoto
p256
sg33
I619019270765301760
sg178
Vhttp://pbs.twimg.com/media/CJcyvz8WUAANTyW.png
p257
sasssS'coordinates'
p258
NsS'timestamp_ms'
p259
g141
sS'entities'
p260
g143
sS'in_reply_to_status_id_str'
p261
NsS'in_reply_to_screen_name'
p262
Nsg91
g202
sS'extended_entities'
p263
g238
sS'retweeted'
p264
I00
sS'place'
p265
g0
(ctweepy.models
Place
p266
g2
Ntp267
Rp268
(dp269
S'full_name'
p270
g216
sg109
g217
sS'country'
p271
g219
sS'place_type'
p272
g221
sS'bounding_box'
p273
g0
(ctweepy.models
BoundingBox
p274
g2
Ntp275
Rp276
(dp277
S'type'
p278
g224
sg258
g225
sbsS'country_code'
p279
g232
sS'attributes'
p280
g234
sg24
g235
sg103
g236
sbsS'retweet_count'
p281
I0
sg110
g111
(S'\x07\xdf\x07\t\x05,\x1d\x00\x00\x00'
p282
tp283
Rp284
sS'in_reply_to_user_id'
p285
Nsb.