ccopy_reg
_reconstructor
p0
(ctweepy.models
Status
p1
c__builtin__
object
p2
Ntp3
Rp4
(dp5
S'favorited'
p6
I00
sS'contributors'
p7
NsS'truncated'
p8
I00
sS'text'
p9
V@mirahwood @h0ers @JulietteIsabell @6Ffriendo211 @DineshDSouza @CaidenCowger @AnthonyCumia \u000ahttp://t.co/kFmYV1850M THE QURAN SAYS SO.
p10
sS'source_url'
p11
Vhttp://twitter.com
p12
sS'possibly_sensitive'
p13
I00
sS'in_reply_to_status_id'
p14
I620052246395392001
sS'user'
p15
g0
(ctweepy.models
User
p16
g2
Ntp17
Rp18
(dp19
S'follow_request_sent'
p20
NsS'profile_use_background_image'
p21
I00
sS'profile_sidebar_fill_color'
p22
V000000
p23
sS'id'
p24
I2879569993
sS'verified'
p25
I00
sS'profile_image_url_https'
p26
Vhttps://pbs.twimg.com/profile_images/610874208827146241/voSDsKk8_normal.png
p27
sS'_json'
p28
(dp29
Vfollow_request_sent
p30
NsVprofile_use_background_image
p31
I00
sVdefault_profile_image
p32
I00
sVid
p33
I2879569993
sVverified
p34
I00
sVprofile_image_url_https
p35
g27
sVprofile_sidebar_fill_color
p36
g23
sVprofile_text_color
p37
V000000
p38
sVfollowers_count
p39
I251
sVprofile_sidebar_border_color
p40
V000000
p41
sVid_str
p42
V2879569993
p43
sVprofile_background_color
p44
V000000
p45
sVlisted_count
p46
I3
sVprofile_background_image_url_https
p47
Vhttps://abs.twimg.com/images/themes/theme14/bg.gif
p48
sVutc_offset
p49
NsVstatuses_count
p50
I1291
sVdescription
p51
VNEVER COULD HIDE WHO I AM. \u000a.http://ish.re/JJRT -not me.
p52
sVfriends_count
p53
I275
sVlocation
p54
VRepublic of Mozambique
p55
sVprofile_link_color
p56
VDD2E44
p57
sVprofile_image_url
p58
Vhttp://pbs.twimg.com/profile_images/610874208827146241/voSDsKk8_normal.png
p59
sVfollowing
p60
NsVgeo_enabled
p61
I01
sVprofile_banner_url
p62
Vhttps://pbs.twimg.com/profile_banners/2879569993/1434478513
p63
sVprofile_background_image_url
p64
Vhttp://abs.twimg.com/images/themes/theme14/bg.gif
p65
sVname
p66
VD\u2200MN\u2200L\u308bX 
p67
sVlang
p68
Ven
p69
sVprofile_background_tile
p70
I00
sVfavourites_count
p71
I29
sVscreen_name
p72
VDd0xblack1
p73
sVnotifications
p74
NsVurl
p75
NsVcreated_at
p76
VMon Oct 27 13:04:37 +0000 2014
p77
sVcontributors_enabled
p78
I00
sVtime_zone
p79
NsVprotected
p80
I00
sVdefault_profile
p81
I00
sVis_translator
p82
I00
ssS'contributors_enabled'
p83
I00
sS'profile_text_color'
p84
g38
sS'followers_count'
p85
I251
sS'profile_sidebar_border_color'
p86
g41
sS'location'
p87
g55
sS'default_profile_image'
p88
I00
sS'id_str'
p89
g43
sS'utc_offset'
p90
NsS'statuses_count'
p91
I1291
sS'description'
p92
VNEVER COULD HIDE WHO I AM. \u000a.http://ish.re/JJRT -not me.
p93
sS'friends_count'
p94
I275
sS'profile_link_color'
p95
g57
sS'profile_image_url'
p96
g59
sS'notifications'
p97
NsS'geo_enabled'
p98
I01
sS'profile_background_color'
p99
g45
sS'profile_banner_url'
p100
g63
sS'profile_background_image_url'
p101
g65
sS'name'
p102
g67
sS'lang'
p103
g69
sS'following'
p104
I00
sS'profile_background_tile'
p105
I00
sS'favourites_count'
p106
I29
sS'screen_name'
p107
g73
sS'url'
p108
NsS'created_at'
p109
cdatetime
datetime
p110
(S'\x07\xde\n\x1b\r\x04%\x00\x00\x00'
p111
tp112
Rp113
sS'profile_background_image_url_https'
p114
g48
sS'time_zone'
p115
NsS'protected'
p116
I00
sS'default_profile'
p117
I00
sS'is_translator'
p118
I00
sS'listed_count'
p119
I3
sbsS'filter_level'
p120
Vlow
p121
sS'geo'
p122
Nsg24
I620053732097703936
sS'favorite_count'
p123
I0
sS'source'
p124
VTwitter Web Client
p125
sg103
Ven
p126
sS'author'
p127
g18
sS'in_reply_to_user_id_str'
p128
V48278272
p129
sg28
(dp130
Vcontributors
p131
NsVtruncated
p132
I00
sVtext
p133
V@mirahwood @h0ers @JulietteIsabell @6Ffriendo211 @DineshDSouza @CaidenCowger @AnthonyCumia \u000ahttp://t.co/kFmYV1850M THE QURAN SAYS SO.
p134
sVin_reply_to_status_id
p135
I620052246395392001
sg33
I620053732097703936
sVfavorite_count
p136
I0
sVsource
p137
V<a href="http://twitter.com" rel="nofollow">Twitter Web Client</a>
p138
sVretweeted
p139
I00
sVcoordinates
p140
NsVtimestamp_ms
p141
V1436667304430
p142
sVentities
p143
(dp144
Vuser_mentions
p145
(lp146
(dp147
g33
I48278272
sVindices
p148
(lp149
I0
aI10
asg42
V48278272
p150
sg72
Vmirahwood
p151
sg66
VMirah Atabaki
p152
sa(dp153
g33
I3192567474
sg148
(lp154
I11
aI17
asg42
V3192567474
p155
sg72
Vh0ers
p156
sg66
Vendiapered hoers
p157
sa(dp158
g33
I457448375
sg148
(lp159
I18
aI34
asg42
V457448375
p160
sg72
VJulietteIsabell
p161
sg66
VJuliette Isabella
p162
sa(dp163
g33
I2982249556
sg148
(lp164
I35
aI48
asg42
V2982249556
p165
sg72
V6Ffriendo211
p166
sg66
VANTI ISISEVILno1 
p167
sa(dp168
g33
I91882544
sg148
(lp169
I49
aI62
asg42
V91882544
p170
sg72
VDineshDSouza
p171
sg66
VDinesh D'Souza
p172
sa(dp173
g33
I226743798
sg148
(lp174
I63
aI76
asg42
V226743798
p175
sg72
VCaidenCowger
p176
sg66
VCaiden Cowger
p177
sa(dp178
g33
I19222164
sg148
(lp179
I77
aI90
asg42
V19222164
p180
sg72
VAnthonyCumia
p181
sg66
VAnthony Cumia
p182
sasVsymbols
p183
(lp184
sVtrends
p185
(lp186
sVhashtags
p187
(lp188
sVurls
p189
(lp190
(dp191
g75
Vhttp://t.co/kFmYV1850M
p192
sg148
(lp193
I92
aI114
asVexpanded_url
p194
Vhttp://prntscr.com/7rnggc
p195
sVdisplay_url
p196
Vprntscr.com/7rnggc
p197
sassVin_reply_to_screen_name
p198
Vmirahwood
p199
sg42
V620053732097703936
p200
sVretweet_count
p201
I0
sVin_reply_to_user_id
p202
I48278272
sVfavorited
p203
I00
sVuser
p204
g29
sVgeo
p205
NsVin_reply_to_user_id_str
p206
g129
sVpossibly_sensitive
p207
I00
sg68
g126
sg76
VSun Jul 12 02:15:04 +0000 2015
p208
sVfilter_level
p209
g121
sVin_reply_to_status_id_str
p210
V620052246395392001
p211
sVplace
p212
(dp213
Vfull_name
p214
VBerne, Switzerland
p215
sg75
Vhttps://api.twitter.com/1.1/geo/id/5868d0e0749c9c47.json
p216
sVcountry
p217
VSchweiz
p218
sVplace_type
p219
Vadmin
p220
sVbounding_box
p221
(dp222
Vtype
p223
VPolygon
p224
sg140
(lp225
(lp226
(lp227
F6.861601
aF46.326441
aa(lp228
F6.861601
aF47.34528
aa(lp229
F8.455051
aF47.34528
aa(lp230
F8.455051
aF46.326441
aaassVcountry_code
p231
VCH
p232
sVattributes
p233
(dp234
sg33
V5868d0e0749c9c47
p235
sg66
VBern
p236
sssS'coordinates'
p237
NsS'timestamp_ms'
p238
g142
sS'entities'
p239
g144
sS'in_reply_to_status_id_str'
p240
g211
sS'in_reply_to_screen_name'
p241
g199
sg89
g200
sS'retweeted'
p242
I00
sS'place'
p243
g0
(ctweepy.models
Place
p244
g2
Ntp245
Rp246
(dp247
S'full_name'
p248
g215
sg108
g216
sS'country'
p249
g218
sS'place_type'
p250
g220
sS'bounding_box'
p251
g0
(ctweepy.models
BoundingBox
p252
g2
Ntp253
Rp254
(dp255
S'type'
p256
g224
sg237
g225
sbsS'country_code'
p257
g232
sS'attributes'
p258
g234
sg24
g235
sg102
g236
sbsS'retweet_count'
p259
I0
sg109
g110
(S'\x07\xdf\x07\x0c\x02\x0f\x04\x00\x00\x00'
p260
tp261
Rp262
sS'in_reply_to_user_id'
p263
I48278272
sb.