ccopy_reg
_reconstructor
p0
(ctweepy.models
Status
p1
c__builtin__
object
p2
Ntp3
Rp4
(dp5
S'favorited'
p6
I00
sS'contributors'
p7
NsS'truncated'
p8
I00
sS'text'
p9
Vhttp://t.co/MGZm76Pcsy
p10
sS'source_url'
p11
Vhttp://twitter.com
p12
sS'possibly_sensitive'
p13
I00
sS'in_reply_to_status_id'
p14
NsS'user'
p15
g0
(ctweepy.models
User
p16
g2
Ntp17
Rp18
(dp19
S'follow_request_sent'
p20
NsS'profile_use_background_image'
p21
I00
sS'profile_sidebar_fill_color'
p22
V000000
p23
sS'id'
p24
I2879569993
sS'verified'
p25
I00
sS'profile_image_url_https'
p26
Vhttps://pbs.twimg.com/profile_images/610874208827146241/voSDsKk8_normal.png
p27
sS'_json'
p28
(dp29
Vfollow_request_sent
p30
NsVprofile_use_background_image
p31
I00
sVdefault_profile_image
p32
I00
sVid
p33
I2879569993
sVverified
p34
I00
sVprofile_image_url_https
p35
g27
sVprofile_sidebar_fill_color
p36
g23
sVprofile_text_color
p37
V000000
p38
sVfollowers_count
p39
I246
sVprofile_sidebar_border_color
p40
V000000
p41
sVid_str
p42
V2879569993
p43
sVprofile_background_color
p44
V000000
p45
sVlisted_count
p46
I3
sVprofile_background_image_url_https
p47
Vhttps://abs.twimg.com/images/themes/theme14/bg.gif
p48
sVutc_offset
p49
NsVstatuses_count
p50
I1351
sVdescription
p51
VNEVER COULD HIDE WHO I AM. \u000a.http://ish.re/JJRT -not me.
p52
sVfriends_count
p53
I277
sVlocation
p54
VRepublic of Mozambique
p55
sVprofile_link_color
p56
VDD2E44
p57
sVprofile_image_url
p58
Vhttp://pbs.twimg.com/profile_images/610874208827146241/voSDsKk8_normal.png
p59
sVfollowing
p60
NsVgeo_enabled
p61
I01
sVprofile_banner_url
p62
Vhttps://pbs.twimg.com/profile_banners/2879569993/1434478513
p63
sVprofile_background_image_url
p64
Vhttp://abs.twimg.com/images/themes/theme14/bg.gif
p65
sVname
p66
VD\u2200MN\u2200L\u308bX 
p67
sVlang
p68
Ven
p69
sVprofile_background_tile
p70
I00
sVfavourites_count
p71
I29
sVscreen_name
p72
VDd0xblack1
p73
sVnotifications
p74
NsVurl
p75
NsVcreated_at
p76
VMon Oct 27 13:04:37 +0000 2014
p77
sVcontributors_enabled
p78
I00
sVtime_zone
p79
NsVprotected
p80
I00
sVdefault_profile
p81
I00
sVis_translator
p82
I00
ssS'contributors_enabled'
p83
I00
sS'profile_text_color'
p84
g38
sS'followers_count'
p85
I246
sS'profile_sidebar_border_color'
p86
g41
sS'location'
p87
g55
sS'default_profile_image'
p88
I00
sS'id_str'
p89
g43
sS'utc_offset'
p90
NsS'statuses_count'
p91
I1351
sS'description'
p92
VNEVER COULD HIDE WHO I AM. \u000a.http://ish.re/JJRT -not me.
p93
sS'friends_count'
p94
I277
sS'profile_link_color'
p95
g57
sS'profile_image_url'
p96
g59
sS'notifications'
p97
NsS'geo_enabled'
p98
I01
sS'profile_background_color'
p99
g45
sS'profile_banner_url'
p100
g63
sS'profile_background_image_url'
p101
g65
sS'name'
p102
g67
sS'lang'
p103
g69
sS'following'
p104
I00
sS'profile_background_tile'
p105
I00
sS'favourites_count'
p106
I29
sS'screen_name'
p107
g73
sS'url'
p108
NsS'created_at'
p109
cdatetime
datetime
p110
(S'\x07\xde\n\x1b\r\x04%\x00\x00\x00'
p111
tp112
Rp113
sS'profile_background_image_url_https'
p114
g48
sS'time_zone'
p115
NsS'protected'
p116
I00
sS'default_profile'
p117
I00
sS'is_translator'
p118
I00
sS'listed_count'
p119
I3
sbsS'filter_level'
p120
Vlow
p121
sS'geo'
p122
Nsg24
I620682837725970432
sS'favorite_count'
p123
I0
sS'source'
p124
VTwitter Web Client
p125
sg103
Vund
p126
sS'author'
p127
g18
sS'in_reply_to_user_id_str'
p128
Nsg28
(dp129
Vcontributors
p130
NsVtruncated
p131
I00
sVtext
p132
g10
sVin_reply_to_status_id
p133
Nsg33
I620682837725970432
sVfavorite_count
p134
I0
sVsource
p135
V<a href="http://twitter.com" rel="nofollow">Twitter Web Client</a>
p136
sVretweeted
p137
I00
sVcoordinates
p138
NsVtimestamp_ms
p139
V1436817294900
p140
sVentities
p141
(dp142
Vuser_mentions
p143
(lp144
sVsymbols
p145
(lp146
sVtrends
p147
(lp148
sVhashtags
p149
(lp150
sVurls
p151
(lp152
(dp153
g75
Vhttp://t.co/MGZm76Pcsy
p154
sVindices
p155
(lp156
I0
aI22
asVexpanded_url
p157
Vhttp://prntscr.com/7safjt
p158
sVdisplay_url
p159
Vprntscr.com/7safjt
p160
sassVin_reply_to_screen_name
p161
Nsg42
V620682837725970432
p162
sVretweet_count
p163
I0
sVin_reply_to_user_id
p164
NsVfavorited
p165
I00
sVuser
p166
g29
sVgeo
p167
NsVin_reply_to_user_id_str
p168
NsVpossibly_sensitive
p169
I00
sg68
g126
sg76
VMon Jul 13 19:54:54 +0000 2015
p170
sVfilter_level
p171
g121
sVin_reply_to_status_id_str
p172
NsVplace
p173
(dp174
Vfull_name
p175
VZurich, Switzerland
p176
sg75
Vhttps://api.twitter.com/1.1/geo/id/3acb748d0f1e9265.json
p177
sVcountry
p178
VSchweiz
p179
sVplace_type
p180
Vcity
p181
sVbounding_box
p182
(dp183
Vtype
p184
VPolygon
p185
sg138
(lp186
(lp187
(lp188
F8.448081
aF47.320183
aa(lp189
F8.448081
aF47.434721
aa(lp190
F8.625442
aF47.434721
aa(lp191
F8.625442
aF47.320183
aaassVcountry_code
p192
VCH
p193
sVattributes
p194
(dp195
sg33
V3acb748d0f1e9265
p196
sg66
VZurich
p197
sssS'coordinates'
p198
NsS'timestamp_ms'
p199
g140
sS'entities'
p200
g142
sS'in_reply_to_status_id_str'
p201
NsS'in_reply_to_screen_name'
p202
Nsg89
g162
sS'retweeted'
p203
I00
sS'place'
p204
g0
(ctweepy.models
Place
p205
g2
Ntp206
Rp207
(dp208
S'full_name'
p209
g176
sg108
g177
sS'country'
p210
g179
sS'place_type'
p211
g181
sS'bounding_box'
p212
g0
(ctweepy.models
BoundingBox
p213
g2
Ntp214
Rp215
(dp216
S'type'
p217
g185
sg198
g186
sbsS'country_code'
p218
g193
sS'attributes'
p219
g195
sg24
g196
sg102
g197
sbsS'retweet_count'
p220
I0
sg109
g110
(S'\x07\xdf\x07\r\x1366\x00\x00\x00'
p221
tp222
Rp223
sS'in_reply_to_user_id'
p224
Nsb.