ccopy_reg
_reconstructor
p0
(ctweepy.models
Status
p1
c__builtin__
object
p2
Ntp3
Rp4
(dp5
S'favorited'
p6
I00
sS'contributors'
p7
NsS'truncated'
p8
I00
sS'text'
p9
VI was on the train #S2 from #ZurichAirport to #BahnhofEnge when I was surprised by the beautiful #sunset at ZurichHB. http://t.co/G8WNU76Q6j
p10
sS'source_url'
p11
Vhttp://twitter.com/download/android
p12
sS'possibly_sensitive'
p13
I00
sS'in_reply_to_status_id'
p14
NsS'user'
p15
g0
(ctweepy.models
User
p16
g2
Ntp17
Rp18
(dp19
S'follow_request_sent'
p20
NsS'profile_use_background_image'
p21
I01
sS'profile_sidebar_fill_color'
p22
VE84F17
p23
sS'id'
p24
I22408286
sS'verified'
p25
I00
sS'profile_image_url_https'
p26
Vhttps://pbs.twimg.com/profile_images/593778267313688578/kQM7mHjl_normal.jpg
p27
sS'_json'
p28
(dp29
Vfollow_request_sent
p30
NsVprofile_use_background_image
p31
I01
sVdefault_profile_image
p32
I00
sVid
p33
I22408286
sVverified
p34
I00
sVprofile_image_url_https
p35
g27
sVprofile_sidebar_fill_color
p36
g23
sVprofile_text_color
p37
V030301
p38
sVfollowers_count
p39
I613
sVprofile_sidebar_border_color
p40
VFFFFFF
p41
sVid_str
p42
V22408286
p43
sVprofile_background_color
p44
V1A12FF
p45
sVlisted_count
p46
I13
sVprofile_background_image_url_https
p47
Vhttps://pbs.twimg.com/profile_background_images/26936294/a.JPG
p48
sVutc_offset
p49
I7200
sVstatuses_count
p50
I8256
sVdescription
p51
V* Ghelo is my nickname * I'm #DJ #BongAguinaldo @ http://www.pinasmusiczone.com * #Blogger @ http://bubong.blogspot.com *#Poet * #Lambily *
p52
sVfriends_count
p53
I851
sVlocation
p54
VZurich, Switzerland
p55
sVprofile_link_color
p56
V4A913C
p57
sVprofile_image_url
p58
Vhttp://pbs.twimg.com/profile_images/593778267313688578/kQM7mHjl_normal.jpg
p59
sVfollowing
p60
NsVgeo_enabled
p61
I01
sVprofile_banner_url
p62
Vhttps://pbs.twimg.com/profile_banners/22408286/1430402720
p63
sVprofile_background_image_url
p64
Vhttp://pbs.twimg.com/profile_background_images/26936294/a.JPG
p65
sVname
p66
VAngelo Zantua
p67
sVlang
p68
Ven
p69
sVprofile_background_tile
p70
I00
sVfavourites_count
p71
I16
sVscreen_name
p72
Vbubong
p73
sVnotifications
p74
NsVurl
p75
Vhttp://instagram.com/bubong
p76
sVcreated_at
p77
VSun Mar 01 21:21:00 +0000 2009
p78
sVcontributors_enabled
p79
I00
sVtime_zone
p80
VBern
p81
sVprotected
p82
I00
sVdefault_profile
p83
I00
sVis_translator
p84
I00
ssS'contributors_enabled'
p85
I00
sS'profile_text_color'
p86
g38
sS'followers_count'
p87
I613
sS'profile_sidebar_border_color'
p88
g41
sS'location'
p89
g55
sS'default_profile_image'
p90
I00
sS'id_str'
p91
g43
sS'utc_offset'
p92
I7200
sS'statuses_count'
p93
I8256
sS'description'
p94
g52
sS'friends_count'
p95
I851
sS'profile_link_color'
p96
g57
sS'profile_image_url'
p97
g59
sS'notifications'
p98
NsS'geo_enabled'
p99
I01
sS'profile_background_color'
p100
g45
sS'profile_banner_url'
p101
g63
sS'profile_background_image_url'
p102
g65
sS'name'
p103
g67
sS'lang'
p104
g69
sS'following'
p105
I00
sS'profile_background_tile'
p106
I00
sS'favourites_count'
p107
I16
sS'screen_name'
p108
g73
sS'url'
p109
g76
sS'created_at'
p110
cdatetime
datetime
p111
(S'\x07\xd9\x03\x01\x15\x15\x00\x00\x00\x00'
p112
tp113
Rp114
sS'profile_background_image_url_https'
p115
g48
sS'time_zone'
p116
g81
sS'protected'
p117
I00
sS'default_profile'
p118
I00
sS'is_translator'
p119
I00
sS'listed_count'
p120
I13
sbsS'filter_level'
p121
Vlow
p122
sS'geo'
p123
Nsg24
I618864320458412032
sS'favorite_count'
p124
I0
sS'source'
p125
VTwitter for Android
p126
sg104
Ven
p127
sS'author'
p128
g18
sS'in_reply_to_user_id_str'
p129
Nsg28
(dp130
Vcontributors
p131
NsVtruncated
p132
I00
sVtext
p133
g10
sVin_reply_to_status_id
p134
Nsg33
I618864320458412032
sVfavorite_count
p135
I0
sVsource
p136
V<a href="http://twitter.com/download/android" rel="nofollow">Twitter for Android</a>
p137
sVretweeted
p138
I00
sVcoordinates
p139
NsVtimestamp_ms
p140
V1436383726597
p141
sVentities
p142
(dp143
Vsymbols
p144
(lp145
sVmedia
p146
(lp147
(dp148
Vexpanded_url
p149
Vhttp://twitter.com/bubong/status/618864320458412032/photo/1
p150
sVdisplay_url
p151
Vpic.twitter.com/G8WNU76Q6j
p152
sg75
Vhttp://t.co/G8WNU76Q6j
p153
sVmedia_url_https
p154
Vhttps://pbs.twimg.com/media/CJalzy1UcAAhDb-.jpg
p155
sg42
V618864308047343616
p156
sVsizes
p157
(dp158
Vsmall
p159
(dp160
Vh
p161
I340
sVresize
p162
Vfit
p163
sVw
p164
I340
ssVlarge
p165
(dp166
g161
I984
sg162
Vfit
p167
sg164
I984
ssVmedium
p168
(dp169
g161
I600
sg162
Vfit
p170
sg164
I600
ssVthumb
p171
(dp172
g161
I150
sg162
Vcrop
p173
sg164
I150
sssVindices
p174
(lp175
I118
aI140
asVtype
p176
Vphoto
p177
sg33
I618864308047343616
sVmedia_url
p178
Vhttp://pbs.twimg.com/media/CJalzy1UcAAhDb-.jpg
p179
sasVhashtags
p180
(lp181
(dp182
g174
(lp183
I19
aI22
asg133
VS2
p184
sa(dp185
g174
(lp186
I28
aI42
asg133
VZurichAirport
p187
sa(dp188
g174
(lp189
I46
aI58
asg133
VBahnhofEnge
p190
sa(dp191
g174
(lp192
I97
aI104
asg133
Vsunset
p193
sasVuser_mentions
p194
(lp195
sVtrends
p196
(lp197
sVurls
p198
(lp199
ssVin_reply_to_screen_name
p200
Nsg42
V618864320458412032
p201
sVretweet_count
p202
I0
sVin_reply_to_user_id
p203
NsVfavorited
p204
I00
sVuser
p205
g29
sVgeo
p206
NsVin_reply_to_user_id_str
p207
NsVpossibly_sensitive
p208
I00
sg68
g127
sg77
VWed Jul 08 19:28:46 +0000 2015
p209
sVfilter_level
p210
g122
sVin_reply_to_status_id_str
p211
NsVplace
p212
(dp213
Vfull_name
p214
VZurich, Switzerland
p215
sg75
Vhttps://api.twitter.com/1.1/geo/id/3acb748d0f1e9265.json
p216
sVcountry
p217
VSchweiz
p218
sVplace_type
p219
Vcity
p220
sVbounding_box
p221
(dp222
g176
VPolygon
p223
sg139
(lp224
(lp225
(lp226
F8.448081
aF47.320183
aa(lp227
F8.448081
aF47.434721
aa(lp228
F8.625442
aF47.434721
aa(lp229
F8.625442
aF47.320183
aaassVcountry_code
p230
VCH
p231
sVattributes
p232
(dp233
sg33
V3acb748d0f1e9265
p234
sg66
VZurich
p235
ssVextended_entities
p236
(dp237
g146
(lp238
(dp239
g149
Vhttp://twitter.com/bubong/status/618864320458412032/photo/1
p240
sg151
Vpic.twitter.com/G8WNU76Q6j
p241
sg75
Vhttp://t.co/G8WNU76Q6j
p242
sg154
Vhttps://pbs.twimg.com/media/CJalzy1UcAAhDb-.jpg
p243
sg42
V618864308047343616
p244
sg157
(dp245
g159
(dp246
g161
I340
sg162
Vfit
p247
sg164
I340
ssg165
(dp248
g161
I984
sg162
Vfit
p249
sg164
I984
ssg168
(dp250
g161
I600
sg162
Vfit
p251
sg164
I600
ssg171
(dp252
g161
I150
sg162
Vcrop
p253
sg164
I150
sssg174
(lp254
I118
aI140
asg176
Vphoto
p255
sg33
I618864308047343616
sg178
Vhttp://pbs.twimg.com/media/CJalzy1UcAAhDb-.jpg
p256
sasssS'coordinates'
p257
NsS'timestamp_ms'
p258
g141
sS'entities'
p259
g143
sS'in_reply_to_status_id_str'
p260
NsS'in_reply_to_screen_name'
p261
Nsg91
g201
sS'extended_entities'
p262
g237
sS'retweeted'
p263
I00
sS'place'
p264
g0
(ctweepy.models
Place
p265
g2
Ntp266
Rp267
(dp268
S'full_name'
p269
g215
sg109
g216
sS'country'
p270
g218
sS'place_type'
p271
g220
sS'bounding_box'
p272
g0
(ctweepy.models
BoundingBox
p273
g2
Ntp274
Rp275
(dp276
S'type'
p277
g223
sg257
g224
sbsS'country_code'
p278
g231
sS'attributes'
p279
g233
sg24
g234
sg103
g235
sbsS'retweet_count'
p280
I0
sg110
g111
(S'\x07\xdf\x07\x08\x13\x1c.\x00\x00\x00'
p281
tp282
Rp283
sS'in_reply_to_user_id'
p284
Nsb.