ccopy_reg
_reconstructor
p0
(ctweepy.models
Status
p1
c__builtin__
object
p2
Ntp3
Rp4
(dp5
S'favorited'
p6
I00
sS'contributors'
p7
NsS'truncated'
p8
I00
sS'text'
p9
VFull day at the @CenturionClubZH, proud of my commited trainees! http://t.co/3IDWEBEdXK @ Centurion Club https://t.co/SZByc3Kq9I
p10
sS'source_url'
p11
Vhttp://instagram.com
p12
sS'possibly_sensitive'
p13
I00
sS'in_reply_to_status_id'
p14
NsS'user'
p15
g0
(ctweepy.models
User
p16
g2
Ntp17
Rp18
(dp19
S'follow_request_sent'
p20
NsS'profile_use_background_image'
p21
I01
sS'profile_sidebar_fill_color'
p22
VFFFFFF
p23
sS'id'
p24
I200055472
sS'verified'
p25
I00
sS'profile_image_url_https'
p26
Vhttps://pbs.twimg.com/profile_images/571952269998817280/LLd_2L5__normal.jpeg
p27
sS'_json'
p28
(dp29
Vfollow_request_sent
p30
NsVprofile_use_background_image
p31
I01
sVdefault_profile_image
p32
I00
sVid
p33
I200055472
sVverified
p34
I00
sVprofile_image_url_https
p35
g27
sVprofile_sidebar_fill_color
p36
g23
sVprofile_text_color
p37
V333333
p38
sVfollowers_count
p39
I36408
sVprofile_sidebar_border_color
p40
VFFFFFF
p41
sVid_str
p42
V200055472
p43
sVprofile_background_color
p44
VB2DFDA
p45
sVlisted_count
p46
I314
sVprofile_background_image_url_https
p47
Vhttps://pbs.twimg.com/profile_background_images/477716103217422336/xROsBjsT.jpeg
p48
sVutc_offset
p49
I7200
sVstatuses_count
p50
I38923
sVdescription
p51
VPersonal Trainer and Nutrition Expert. TV, Radio and Magazine features. http://t.co/1qC3Dnah8m Owner of http://t.co/FtpUPKkrub and http://t.co/mMR2ldAqt1
p52
sVfriends_count
p53
I506
sVlocation
p54
VZurich, Switzerland
p55
sVprofile_link_color
p56
V93A644
p57
sVprofile_image_url
p58
Vhttp://pbs.twimg.com/profile_images/571952269998817280/LLd_2L5__normal.jpeg
p59
sVfollowing
p60
NsVgeo_enabled
p61
I01
sVprofile_banner_url
p62
Vhttps://pbs.twimg.com/profile_banners/200055472/1435216448
p63
sVprofile_background_image_url
p64
Vhttp://pbs.twimg.com/profile_background_images/477716103217422336/xROsBjsT.jpeg
p65
sVname
p66
VCindy Landolt
p67
sVlang
p68
Ven
p69
sVprofile_background_tile
p70
I01
sVfavourites_count
p71
I433
sVscreen_name
p72
VCindyTraining
p73
sVnotifications
p74
NsVurl
p75
Vhttp://www.cindytraining.com/
p76
sVcreated_at
p77
VFri Oct 08 10:20:42 +0000 2010
p78
sVcontributors_enabled
p79
I00
sVtime_zone
p80
VBern
p81
sVprotected
p82
I00
sVdefault_profile
p83
I00
sVis_translator
p84
I00
ssS'contributors_enabled'
p85
I00
sS'profile_text_color'
p86
g38
sS'followers_count'
p87
I36408
sS'profile_sidebar_border_color'
p88
g41
sS'location'
p89
g55
sS'default_profile_image'
p90
I00
sS'id_str'
p91
g43
sS'utc_offset'
p92
I7200
sS'statuses_count'
p93
I38923
sS'description'
p94
g52
sS'friends_count'
p95
I506
sS'profile_link_color'
p96
g57
sS'profile_image_url'
p97
g59
sS'notifications'
p98
NsS'geo_enabled'
p99
I01
sS'profile_background_color'
p100
g45
sS'profile_banner_url'
p101
g63
sS'profile_background_image_url'
p102
g65
sS'name'
p103
g67
sS'lang'
p104
g69
sS'following'
p105
I00
sS'profile_background_tile'
p106
I01
sS'favourites_count'
p107
I433
sS'screen_name'
p108
g73
sS'url'
p109
g76
sS'created_at'
p110
cdatetime
datetime
p111
(S'\x07\xda\n\x08\n\x14*\x00\x00\x00'
p112
tp113
Rp114
sS'profile_background_image_url_https'
p115
g48
sS'time_zone'
p116
g81
sS'protected'
p117
I00
sS'default_profile'
p118
I00
sS'is_translator'
p119
I00
sS'listed_count'
p120
I314
sbsS'filter_level'
p121
Vlow
p122
sS'geo'
p123
(dp124
Vtype
p125
VPoint
p126
sVcoordinates
p127
(lp128
F47.359131
aF8.55293
assg24
I620718338151477248
sS'favorite_count'
p129
I0
sS'source'
p130
VInstagram
p131
sg104
Ven
p132
sS'author'
p133
g18
sS'in_reply_to_user_id_str'
p134
Nsg28
(dp135
Vcontributors
p136
NsVtruncated
p137
I00
sVtext
p138
g10
sVin_reply_to_status_id
p139
Nsg33
I620718338151477248
sVfavorite_count
p140
I0
sVsource
p141
V<a href="http://instagram.com" rel="nofollow">Instagram</a>
p142
sVretweeted
p143
I00
sg127
(dp144
g125
VPoint
p145
sg127
(lp146
F8.55293
aF47.359131
assVtimestamp_ms
p147
V1436825758861
p148
sVentities
p149
(dp150
Vuser_mentions
p151
(lp152
(dp153
g33
I2546697344
sVindices
p154
(lp155
I16
aI32
asg42
V2546697344
p156
sg72
VCenturionClubZH
p157
sg66
VCenturion Club
p158
sasVsymbols
p159
(lp160
sVtrends
p161
(lp162
sVhashtags
p163
(lp164
sVurls
p165
(lp166
(dp167
g75
Vhttp://t.co/3IDWEBEdXK
p168
sg154
(lp169
I65
aI87
asVexpanded_url
p170
Vhttp://www.centurionclub.ch
p171
sVdisplay_url
p172
Vcenturionclub.ch
p173
sa(dp174
g75
Vhttps://t.co/SZByc3Kq9I
p175
sg154
(lp176
I105
aI128
asg170
Vhttps://instagram.com/p/5F2T9Zw9GG/
p177
sg172
Vinstagram.com/p/5F2T9Zw9GG/
p178
sassVin_reply_to_screen_name
p179
Nsg42
V620718338151477248
p180
sVretweet_count
p181
I0
sVin_reply_to_user_id
p182
NsVfavorited
p183
I00
sVuser
p184
g29
sVgeo
p185
g124
sVin_reply_to_user_id_str
p186
NsVpossibly_sensitive
p187
I00
sg68
g132
sg77
VMon Jul 13 22:15:58 +0000 2015
p188
sVfilter_level
p189
g122
sVin_reply_to_status_id_str
p190
NsVplace
p191
(dp192
Vfull_name
p193
VZurich, Switzerland
p194
sg75
Vhttps://api.twitter.com/1.1/geo/id/3acb748d0f1e9265.json
p195
sVcountry
p196
VSchweiz
p197
sVplace_type
p198
Vcity
p199
sVbounding_box
p200
(dp201
g125
VPolygon
p202
sg127
(lp203
(lp204
(lp205
F8.448081
aF47.320183
aa(lp206
F8.448081
aF47.434721
aa(lp207
F8.625442
aF47.434721
aa(lp208
F8.625442
aF47.320183
aaassVcountry_code
p209
VCH
p210
sVattributes
p211
(dp212
sg33
V3acb748d0f1e9265
p213
sg66
VZurich
p214
sssS'coordinates'
p215
g144
sS'timestamp_ms'
p216
g148
sS'entities'
p217
g150
sS'in_reply_to_status_id_str'
p218
NsS'in_reply_to_screen_name'
p219
Nsg91
g180
sS'retweeted'
p220
I00
sS'place'
p221
g0
(ctweepy.models
Place
p222
g2
Ntp223
Rp224
(dp225
S'full_name'
p226
g194
sg109
g195
sS'country'
p227
g197
sS'place_type'
p228
g199
sS'bounding_box'
p229
g0
(ctweepy.models
BoundingBox
p230
g2
Ntp231
Rp232
(dp233
S'type'
p234
g202
sg215
g203
sbsS'country_code'
p235
g210
sS'attributes'
p236
g212
sg24
g213
sg103
g214
sbsS'retweet_count'
p237
I0
sg110
g111
(S'\x07\xdf\x07\r\x16\x0f:\x00\x00\x00'
p238
tp239
Rp240
sS'in_reply_to_user_id'
p241
Nsb.