ccopy_reg
_reconstructor
p0
(ctweepy.models
Status
p1
c__builtin__
object
p2
Ntp3
Rp4
(dp5
S'favorited'
p6
I00
sS'contributors'
p7
NsS'truncated'
p8
I00
sS'text'
p9
V@golf_villars http://t.co/jBNSsOiC2y
p10
sS'source_url'
p11
Vhttp://twitter.com
p12
sS'possibly_sensitive'
p13
I00
sS'in_reply_to_status_id'
p14
I618799379542056960
sS'user'
p15
g0
(ctweepy.models
User
p16
g2
Ntp17
Rp18
(dp19
S'follow_request_sent'
p20
NsS'profile_use_background_image'
p21
I01
sS'profile_sidebar_fill_color'
p22
VDDEEF6
p23
sS'id'
p24
I3356454105
sS'verified'
p25
I00
sS'profile_image_url_https'
p26
Vhttps://pbs.twimg.com/profile_images/616912182039547904/CigTdAEQ_normal.jpg
p27
sS'_json'
p28
(dp29
Vfollow_request_sent
p30
NsVprofile_use_background_image
p31
I01
sVdefault_profile_image
p32
I00
sVid
p33
I3356454105
sVverified
p34
I00
sVprofile_image_url_https
p35
g27
sVprofile_sidebar_fill_color
p36
g23
sVprofile_text_color
p37
V333333
p38
sVfollowers_count
p39
I3
sVprofile_sidebar_border_color
p40
VC0DEED
p41
sVid_str
p42
V3356454105
p43
sVprofile_background_color
p44
VC0DEED
p45
sVlisted_count
p46
I0
sVprofile_background_image_url_https
p47
Vhttps://abs.twimg.com/images/themes/theme1/bg.png
p48
sVutc_offset
p49
NsVstatuses_count
p50
I6
sVdescription
p51
NsVfriends_count
p52
I23
sVlocation
p53
V
p54
sVprofile_link_color
p55
V0084B4
p56
sVprofile_image_url
p57
Vhttp://pbs.twimg.com/profile_images/616912182039547904/CigTdAEQ_normal.jpg
p58
sVfollowing
p59
NsVgeo_enabled
p60
I01
sVprofile_banner_url
p61
Vhttps://pbs.twimg.com/profile_banners/3356454105/1436177709
p62
sVprofile_background_image_url
p63
Vhttp://abs.twimg.com/images/themes/theme1/bg.png
p64
sVname
p65
VGolf Club Villars
p66
sVlang
p67
Vfr
p68
sVprofile_background_tile
p69
I00
sVfavourites_count
p70
I0
sVscreen_name
p71
Vgolf_villars
p72
sVnotifications
p73
NsVurl
p74
NsVcreated_at
p75
VFri Jul 03 09:42:59 +0000 2015
p76
sVcontributors_enabled
p77
I00
sVtime_zone
p78
NsVprotected
p79
I00
sVdefault_profile
p80
I01
sVis_translator
p81
I00
ssS'contributors_enabled'
p82
I00
sS'profile_text_color'
p83
g38
sS'followers_count'
p84
I3
sS'profile_sidebar_border_color'
p85
g41
sS'location'
p86
g54
sS'default_profile_image'
p87
I00
sS'id_str'
p88
g43
sS'utc_offset'
p89
NsS'statuses_count'
p90
I6
sS'description'
p91
NsS'friends_count'
p92
I23
sS'profile_link_color'
p93
g56
sS'profile_image_url'
p94
g58
sS'notifications'
p95
NsS'geo_enabled'
p96
I01
sS'profile_background_color'
p97
g45
sS'profile_banner_url'
p98
g62
sS'profile_background_image_url'
p99
g64
sS'name'
p100
g66
sS'lang'
p101
g68
sS'following'
p102
I00
sS'profile_background_tile'
p103
I00
sS'favourites_count'
p104
I0
sS'screen_name'
p105
g72
sS'url'
p106
NsS'created_at'
p107
cdatetime
datetime
p108
(S'\x07\xdf\x07\x03\t*;\x00\x00\x00'
p109
tp110
Rp111
sS'profile_background_image_url_https'
p112
g48
sS'time_zone'
p113
NsS'protected'
p114
I00
sS'default_profile'
p115
I01
sS'is_translator'
p116
I00
sS'listed_count'
p117
I0
sbsS'filter_level'
p118
Vlow
p119
sS'geo'
p120
Nsg24
I618799542415282176
sS'favorite_count'
p121
I0
sS'source'
p122
VTwitter Web Client
p123
sg101
Vund
p124
sS'author'
p125
g18
sS'in_reply_to_user_id_str'
p126
V3356454105
p127
sg28
(dp128
Vcontributors
p129
NsVtruncated
p130
I00
sVtext
p131
g10
sVin_reply_to_status_id
p132
I618799379542056960
sg33
I618799542415282176
sVfavorite_count
p133
I0
sVsource
p134
V<a href="http://twitter.com" rel="nofollow">Twitter Web Client</a>
p135
sVretweeted
p136
I00
sVcoordinates
p137
NsVtimestamp_ms
p138
V1436368282308
p139
sVentities
p140
(dp141
Vsymbols
p142
(lp143
sVmedia
p144
(lp145
(dp146
Vexpanded_url
p147
Vhttp://twitter.com/golf_villars/status/618799542415282176/photo/1
p148
sVdisplay_url
p149
Vpic.twitter.com/jBNSsOiC2y
p150
sg74
Vhttp://t.co/jBNSsOiC2y
p151
sVmedia_url_https
p152
Vhttps://pbs.twimg.com/media/CJZq53fUcAA-ji9.jpg
p153
sg42
V618799541190422528
p154
sVsizes
p155
(dp156
Vsmall
p157
(dp158
Vh
p159
I195
sVresize
p160
Vfit
p161
sVw
p162
I301
ssVlarge
p163
(dp164
g159
I195
sg160
Vfit
p165
sg162
I301
ssVmedium
p166
(dp167
g159
I195
sg160
Vfit
p168
sg162
I301
ssVthumb
p169
(dp170
g159
I150
sg160
Vcrop
p171
sg162
I150
sssVindices
p172
(lp173
I14
aI36
asVtype
p174
Vphoto
p175
sg33
I618799541190422528
sVmedia_url
p176
Vhttp://pbs.twimg.com/media/CJZq53fUcAA-ji9.jpg
p177
sasVhashtags
p178
(lp179
sVuser_mentions
p180
(lp181
(dp182
g33
I3356454105
sg172
(lp183
I0
aI13
asg42
V3356454105
p184
sg71
Vgolf_villars
p185
sg65
VGolf Club Villars
p186
sasVtrends
p187
(lp188
sVurls
p189
(lp190
ssVin_reply_to_screen_name
p191
Vgolf_villars
p192
sg42
V618799542415282176
p193
sVretweet_count
p194
I0
sVin_reply_to_user_id
p195
I3356454105
sVfavorited
p196
I00
sVuser
p197
g29
sVgeo
p198
NsVin_reply_to_user_id_str
p199
g127
sVpossibly_sensitive
p200
I00
sg67
g124
sg75
VWed Jul 08 15:11:22 +0000 2015
p201
sVfilter_level
p202
g119
sVin_reply_to_status_id_str
p203
V618799379542056960
p204
sVplace
p205
(dp206
Vfull_name
p207
VZurich, Suisse
p208
sg74
Vhttps://api.twitter.com/1.1/geo/id/3acb748d0f1e9265.json
p209
sVcountry
p210
VSchweiz
p211
sVplace_type
p212
Vcity
p213
sVbounding_box
p214
(dp215
g174
VPolygon
p216
sg137
(lp217
(lp218
(lp219
F8.448081
aF47.320183
aa(lp220
F8.448081
aF47.434721
aa(lp221
F8.625442
aF47.434721
aa(lp222
F8.625442
aF47.320183
aaassVcountry_code
p223
VCH
p224
sVattributes
p225
(dp226
sg33
V3acb748d0f1e9265
p227
sg65
VZurich
p228
ssVextended_entities
p229
(dp230
g144
(lp231
(dp232
g147
Vhttp://twitter.com/golf_villars/status/618799542415282176/photo/1
p233
sg149
Vpic.twitter.com/jBNSsOiC2y
p234
sg74
Vhttp://t.co/jBNSsOiC2y
p235
sg152
Vhttps://pbs.twimg.com/media/CJZq53fUcAA-ji9.jpg
p236
sg42
V618799541190422528
p237
sg155
(dp238
g157
(dp239
g159
I195
sg160
Vfit
p240
sg162
I301
ssg163
(dp241
g159
I195
sg160
Vfit
p242
sg162
I301
ssg166
(dp243
g159
I195
sg160
Vfit
p244
sg162
I301
ssg169
(dp245
g159
I150
sg160
Vcrop
p246
sg162
I150
sssg172
(lp247
I14
aI36
asg174
Vphoto
p248
sg33
I618799541190422528
sg176
Vhttp://pbs.twimg.com/media/CJZq53fUcAA-ji9.jpg
p249
sasssS'coordinates'
p250
NsS'timestamp_ms'
p251
g139
sS'entities'
p252
g141
sS'in_reply_to_status_id_str'
p253
g204
sS'in_reply_to_screen_name'
p254
g192
sg88
g193
sS'extended_entities'
p255
g230
sS'retweeted'
p256
I00
sS'place'
p257
g0
(ctweepy.models
Place
p258
g2
Ntp259
Rp260
(dp261
S'full_name'
p262
g208
sg106
g209
sS'country'
p263
g211
sS'place_type'
p264
g213
sS'bounding_box'
p265
g0
(ctweepy.models
BoundingBox
p266
g2
Ntp267
Rp268
(dp269
S'type'
p270
g216
sg250
g217
sbsS'country_code'
p271
g224
sS'attributes'
p272
g226
sg24
g227
sg100
g228
sbsS'retweet_count'
p273
I0
sg107
g108
(S'\x07\xdf\x07\x08\x0f\x0b\x16\x00\x00\x00'
p274
tp275
Rp276
sS'in_reply_to_user_id'
p277
I3356454105
sb.