ccopy_reg
_reconstructor
p0
(ctweepy.models
Status
p1
c__builtin__
object
p2
Ntp3
Rp4
(dp5
S'favorited'
p6
I00
sS'contributors'
p7
NsS'truncated'
p8
I00
sS'text'
p9
V@KatherynMcgooga HAPPY FRIDAYYYYY\u000aI NEED YOU GUYS TO HELP ME GET THIS VIDEO TO THE 10K MARK \u000a@VaronaCollectiv https://t.co/6gZIUNunu3 \u2026
p10
sS'source_url'
p11
Vhttp://twitter.com
p12
sS'possibly_sensitive'
p13
I00
sS'in_reply_to_status_id'
p14
NsS'user'
p15
g0
(ctweepy.models
User
p16
g2
Ntp17
Rp18
(dp19
S'follow_request_sent'
p20
NsS'profile_use_background_image'
p21
I01
sS'profile_sidebar_fill_color'
p22
V080808
p23
sS'id'
p24
I85995928
sS'verified'
p25
I00
sS'profile_image_url_https'
p26
Vhttps://pbs.twimg.com/profile_images/1603376259/D_LYFE_PHOTO_NO_LOGO_.10_new_normal.png
p27
sS'_json'
p28
(dp29
Vfollow_request_sent
p30
NsVprofile_use_background_image
p31
I01
sVdefault_profile_image
p32
I00
sVid
p33
I85995928
sVverified
p34
I00
sVprofile_image_url_https
p35
g27
sVprofile_sidebar_fill_color
p36
g23
sVprofile_text_color
p37
VE36B1C
p38
sVfollowers_count
p39
I30657
sVprofile_sidebar_border_color
p40
VFFFFFF
p41
sVid_str
p42
V85995928
p43
sVprofile_background_color
p44
V0A0A0A
p45
sVlisted_count
p46
I47
sVprofile_background_image_url_https
p47
Vhttps://pbs.twimg.com/profile_background_images/446520507819495424/jgm-A73X.png
p48
sVutc_offset
p49
I-18000
sVstatuses_count
p50
I18224
sVdescription
p51
VCelebrity DJ of the Stars and Co-CEO of Grindin Entertainment //  Monster Products International\u000aAmbassador
p52
sVfriends_count
p53
I12881
sVlocation
p54
Vhttp://www.grindinent.com
p55
sVprofile_link_color
p56
VB31B00
p57
sVprofile_image_url
p58
Vhttp://pbs.twimg.com/profile_images/1603376259/D_LYFE_PHOTO_NO_LOGO_.10_new_normal.png
p59
sVfollowing
p60
NsVgeo_enabled
p61
I01
sVprofile_banner_url
p62
Vhttps://pbs.twimg.com/profile_banners/85995928/1400741017
p63
sVprofile_background_image_url
p64
Vhttp://pbs.twimg.com/profile_background_images/446520507819495424/jgm-A73X.png
p65
sVname
p66
VD-LYFE
p67
sVlang
p68
Ven
p69
sVprofile_background_tile
p70
I01
sVfavourites_count
p71
I15
sVscreen_name
p72
VtheDLYFEshow
p73
sVnotifications
p74
NsVurl
p75
Vhttp://www.monsterproducts.com/artistroster/artist.asp?artistid=209
p76
sVcreated_at
p77
VThu Oct 29 04:48:00 +0000 2009
p78
sVcontributors_enabled
p79
I00
sVtime_zone
p80
VQuito
p81
sVprotected
p82
I00
sVdefault_profile
p83
I00
sVis_translator
p84
I00
ssS'contributors_enabled'
p85
I00
sS'profile_text_color'
p86
g38
sS'followers_count'
p87
I30657
sS'profile_sidebar_border_color'
p88
g41
sS'location'
p89
g55
sS'default_profile_image'
p90
I00
sS'id_str'
p91
g43
sS'utc_offset'
p92
I-18000
sS'statuses_count'
p93
I18224
sS'description'
p94
VCelebrity DJ of the Stars and Co-CEO of Grindin Entertainment //  Monster Products International\u000aAmbassador
p95
sS'friends_count'
p96
I12881
sS'profile_link_color'
p97
g57
sS'profile_image_url'
p98
g59
sS'notifications'
p99
NsS'geo_enabled'
p100
I01
sS'profile_background_color'
p101
g45
sS'profile_banner_url'
p102
g63
sS'profile_background_image_url'
p103
g65
sS'name'
p104
g67
sS'lang'
p105
g69
sS'following'
p106
I00
sS'profile_background_tile'
p107
I01
sS'favourites_count'
p108
I15
sS'screen_name'
p109
g73
sS'url'
p110
g76
sS'created_at'
p111
cdatetime
datetime
p112
(S'\x07\xd9\n\x1d\x040\x00\x00\x00\x00'
p113
tp114
Rp115
sS'profile_background_image_url_https'
p116
g48
sS'time_zone'
p117
g81
sS'protected'
p118
I00
sS'default_profile'
p119
I00
sS'is_translator'
p120
I00
sS'listed_count'
p121
I47
sbsS'filter_level'
p122
Vlow
p123
sS'geo'
p124
Nsg24
I619580705807441920
sS'favorite_count'
p125
I0
sS'source'
p126
VTwitter Web Client
p127
sg105
Ven
p128
sS'author'
p129
g18
sS'in_reply_to_user_id_str'
p130
V1036754180
p131
sg28
(dp132
Vcontributors
p133
NsVtruncated
p134
I00
sVtext
p135
V@KatherynMcgooga HAPPY FRIDAYYYYY\u000aI NEED YOU GUYS TO HELP ME GET THIS VIDEO TO THE 10K MARK \u000a@VaronaCollectiv https://t.co/6gZIUNunu3 \u2026
p136
sVin_reply_to_status_id
p137
Nsg33
I619580705807441920
sVfavorite_count
p138
I0
sVsource
p139
V<a href="http://twitter.com" rel="nofollow">Twitter Web Client</a>
p140
sVretweeted
p141
I00
sVcoordinates
p142
NsVtimestamp_ms
p143
V1436554526174
p144
sVentities
p145
(dp146
Vuser_mentions
p147
(lp148
(dp149
g33
I1036754180
sVindices
p150
(lp151
I0
aI16
asg42
V1036754180
p152
sg72
VKatherynMcgooga
p153
sg66
VKatherynMcgooga
p154
sa(dp155
g33
I2238794191
sg150
(lp156
I93
aI109
asg42
V2238794191
p157
sg72
VVaronaCollectiv
p158
sg66
VTVC
p159
sasVsymbols
p160
(lp161
sVtrends
p162
(lp163
sVhashtags
p164
(lp165
sVurls
p166
(lp167
(dp168
g75
Vhttps://t.co/6gZIUNunu3
p169
sg150
(lp170
I110
aI133
asVexpanded_url
p171
Vhttps://www.youtube.com/watch?v=H9CGc2INp88
p172
sVdisplay_url
p173
Vyoutube.com/watch?v=H9CGc2\u2026
p174
sassVin_reply_to_screen_name
p175
VKatherynMcgooga
p176
sg42
V619580705807441920
p177
sVretweet_count
p178
I0
sVin_reply_to_user_id
p179
I1036754180
sVfavorited
p180
I00
sVuser
p181
g29
sVgeo
p182
NsVin_reply_to_user_id_str
p183
g131
sVpossibly_sensitive
p184
I00
sg68
g128
sg77
VFri Jul 10 18:55:26 +0000 2015
p185
sVfilter_level
p186
g123
sVin_reply_to_status_id_str
p187
NsVplace
p188
(dp189
Vfull_name
p190
VZurich, Switzerland
p191
sg75
Vhttps://api.twitter.com/1.1/geo/id/3acb748d0f1e9265.json
p192
sVcountry
p193
VSchweiz
p194
sVplace_type
p195
Vcity
p196
sVbounding_box
p197
(dp198
Vtype
p199
VPolygon
p200
sg142
(lp201
(lp202
(lp203
F8.448081
aF47.320183
aa(lp204
F8.448081
aF47.434721
aa(lp205
F8.625442
aF47.434721
aa(lp206
F8.625442
aF47.320183
aaassVcountry_code
p207
VCH
p208
sVattributes
p209
(dp210
sg33
V3acb748d0f1e9265
p211
sg66
VZurich
p212
sssS'coordinates'
p213
NsS'timestamp_ms'
p214
g144
sS'entities'
p215
g146
sS'in_reply_to_status_id_str'
p216
NsS'in_reply_to_screen_name'
p217
g176
sg91
g177
sS'retweeted'
p218
I00
sS'place'
p219
g0
(ctweepy.models
Place
p220
g2
Ntp221
Rp222
(dp223
S'full_name'
p224
g191
sg110
g192
sS'country'
p225
g194
sS'place_type'
p226
g196
sS'bounding_box'
p227
g0
(ctweepy.models
BoundingBox
p228
g2
Ntp229
Rp230
(dp231
S'type'
p232
g200
sg213
g201
sbsS'country_code'
p233
g208
sS'attributes'
p234
g210
sg24
g211
sg104
g212
sbsS'retweet_count'
p235
I0
sg111
g112
(S'\x07\xdf\x07\n\x127\x1a\x00\x00\x00'
p236
tp237
Rp238
sS'in_reply_to_user_id'
p239
I1036754180
sb.