ccopy_reg
_reconstructor
p0
(ctweepy.models
Status
p1
c__builtin__
object
p2
Ntp3
Rp4
(dp5
S'favorited'
p6
I00
sS'contributors'
p7
NsS'truncated'
p8
I00
sS'text'
p9
VQuintessential France: fishing boats on a beach near Yport in Normandy.\u000a#QuintessentialFrance http://t.co/k0KcBeYcDg
p10
sS'source_url'
p11
Vhttp://twitter.com
p12
sS'possibly_sensitive'
p13
I00
sS'in_reply_to_status_id'
p14
NsS'user'
p15
g0
(ctweepy.models
User
p16
g2
Ntp17
Rp18
(dp19
S'follow_request_sent'
p20
NsS'profile_use_background_image'
p21
I01
sS'profile_sidebar_fill_color'
p22
VDDEEF6
p23
sS'id'
p24
I164639663
sS'verified'
p25
I00
sS'profile_image_url_https'
p26
Vhttps://pbs.twimg.com/profile_images/610187408836050944/gBVgvrHv_normal.jpg
p27
sS'_json'
p28
(dp29
Vfollow_request_sent
p30
NsVprofile_use_background_image
p31
I01
sVdefault_profile_image
p32
I00
sVid
p33
I164639663
sVverified
p34
I00
sVprofile_image_url_https
p35
g27
sVprofile_sidebar_fill_color
p36
g23
sVprofile_text_color
p37
V333333
p38
sVfollowers_count
p39
I531
sVprofile_sidebar_border_color
p40
VC0DEED
p41
sVid_str
p42
V164639663
p43
sVprofile_background_color
p44
VC0DEED
p45
sVlisted_count
p46
I24
sVprofile_background_image_url_https
p47
Vhttps://abs.twimg.com/images/themes/theme1/bg.png
p48
sVutc_offset
p49
I-7200
sVstatuses_count
p50
I5403
sVdescription
p51
VI'm a food writer and editor specializing in French cuisine. I'm writing a book, What to Eat in France. http://t.co/guV7pdhCJg  #WhatToEatInFrance #FoodWriting
p52
sVfriends_count
p53
I615
sVlocation
p54
VSwitzerland, France
p55
sVprofile_link_color
p56
V0084B4
p57
sVprofile_image_url
p58
Vhttp://pbs.twimg.com/profile_images/610187408836050944/gBVgvrHv_normal.jpg
p59
sVfollowing
p60
NsVgeo_enabled
p61
I01
sVprofile_background_image_url
p62
Vhttp://abs.twimg.com/images/themes/theme1/bg.png
p63
sVname
p64
VJonell Galloway
p65
sVlang
p66
Ven
p67
sVprofile_background_tile
p68
I00
sVfavourites_count
p69
I33
sVscreen_name
p70
VJonellGalloway
p71
sVnotifications
p72
NsVurl
p73
Vhttp://theramblingepicure.com
p74
sVcreated_at
p75
VFri Jul 09 11:01:06 +0000 2010
p76
sVcontributors_enabled
p77
I00
sVtime_zone
p78
VGreenland
p79
sVprotected
p80
I00
sVdefault_profile
p81
I01
sVis_translator
p82
I00
ssS'contributors_enabled'
p83
I00
sS'profile_text_color'
p84
g38
sS'followers_count'
p85
I531
sS'profile_sidebar_border_color'
p86
g41
sS'location'
p87
g55
sS'default_profile_image'
p88
I00
sS'id_str'
p89
g43
sS'utc_offset'
p90
I-7200
sS'statuses_count'
p91
I5403
sS'description'
p92
g52
sS'friends_count'
p93
I615
sS'profile_link_color'
p94
g57
sS'profile_image_url'
p95
g59
sS'notifications'
p96
NsS'geo_enabled'
p97
I01
sS'profile_background_color'
p98
g45
sS'profile_background_image_url'
p99
g63
sS'name'
p100
g65
sS'lang'
p101
g67
sS'following'
p102
I00
sS'profile_background_tile'
p103
I00
sS'favourites_count'
p104
I33
sS'screen_name'
p105
g71
sS'url'
p106
g74
sS'created_at'
p107
cdatetime
datetime
p108
(S'\x07\xda\x07\t\x0b\x01\x06\x00\x00\x00'
p109
tp110
Rp111
sS'profile_background_image_url_https'
p112
g48
sS'time_zone'
p113
g79
sS'protected'
p114
I00
sS'default_profile'
p115
I01
sS'is_translator'
p116
I00
sS'listed_count'
p117
I24
sbsS'filter_level'
p118
Vlow
p119
sS'geo'
p120
Nsg24
I619618686677200896
sS'favorite_count'
p121
I0
sS'source'
p122
VTwitter Web Client
p123
sg101
Ven
p124
sS'author'
p125
g18
sS'in_reply_to_user_id_str'
p126
Nsg28
(dp127
Vcontributors
p128
NsVtruncated
p129
I00
sVtext
p130
VQuintessential France: fishing boats on a beach near Yport in Normandy.\u000a#QuintessentialFrance http://t.co/k0KcBeYcDg
p131
sVin_reply_to_status_id
p132
Nsg33
I619618686677200896
sVfavorite_count
p133
I0
sVsource
p134
V<a href="http://twitter.com" rel="nofollow">Twitter Web Client</a>
p135
sVretweeted
p136
I00
sVcoordinates
p137
NsVtimestamp_ms
p138
V1436563581519
p139
sVentities
p140
(dp141
Vsymbols
p142
(lp143
sVmedia
p144
(lp145
(dp146
Vexpanded_url
p147
Vhttp://twitter.com/JonellGalloway/status/619618686677200896/photo/1
p148
sVdisplay_url
p149
Vpic.twitter.com/k0KcBeYcDg
p150
sg73
Vhttp://t.co/k0KcBeYcDg
p151
sVmedia_url_https
p152
Vhttps://pbs.twimg.com/media/CJlT6V2UcAAN9EG.jpg
p153
sg42
V619618685502648320
p154
sVsizes
p155
(dp156
Vsmall
p157
(dp158
Vh
p159
I255
sVresize
p160
Vfit
p161
sVw
p162
I340
ssVlarge
p163
(dp164
g159
I705
sg160
Vfit
p165
sg162
I940
ssVmedium
p166
(dp167
g159
I450
sg160
Vfit
p168
sg162
I600
ssVthumb
p169
(dp170
g159
I150
sg160
Vcrop
p171
sg162
I150
sssVindices
p172
(lp173
I94
aI116
asVtype
p174
Vphoto
p175
sg33
I619618685502648320
sVmedia_url
p176
Vhttp://pbs.twimg.com/media/CJlT6V2UcAAN9EG.jpg
p177
sasVhashtags
p178
(lp179
(dp180
g172
(lp181
I72
aI93
asg130
VQuintessentialFrance
p182
sasVuser_mentions
p183
(lp184
sVtrends
p185
(lp186
sVurls
p187
(lp188
ssVin_reply_to_screen_name
p189
Nsg42
V619618686677200896
p190
sVretweet_count
p191
I0
sVin_reply_to_user_id
p192
NsVfavorited
p193
I00
sVuser
p194
g29
sVgeo
p195
NsVin_reply_to_user_id_str
p196
NsVpossibly_sensitive
p197
I00
sg66
g124
sg75
VFri Jul 10 21:26:21 +0000 2015
p198
sVfilter_level
p199
g119
sVin_reply_to_status_id_str
p200
NsVplace
p201
(dp202
Vfull_name
p203
VZurich, Switzerland
p204
sg73
Vhttps://api.twitter.com/1.1/geo/id/3acb748d0f1e9265.json
p205
sVcountry
p206
VSchweiz
p207
sVplace_type
p208
Vcity
p209
sVbounding_box
p210
(dp211
g174
VPolygon
p212
sg137
(lp213
(lp214
(lp215
F8.448081
aF47.320183
aa(lp216
F8.448081
aF47.434721
aa(lp217
F8.625442
aF47.434721
aa(lp218
F8.625442
aF47.320183
aaassVcountry_code
p219
VCH
p220
sVattributes
p221
(dp222
sg33
V3acb748d0f1e9265
p223
sg64
VZurich
p224
ssVextended_entities
p225
(dp226
g144
(lp227
(dp228
g147
Vhttp://twitter.com/JonellGalloway/status/619618686677200896/photo/1
p229
sg149
Vpic.twitter.com/k0KcBeYcDg
p230
sg73
Vhttp://t.co/k0KcBeYcDg
p231
sg152
Vhttps://pbs.twimg.com/media/CJlT6V2UcAAN9EG.jpg
p232
sg42
V619618685502648320
p233
sg155
(dp234
g157
(dp235
g159
I255
sg160
Vfit
p236
sg162
I340
ssg163
(dp237
g159
I705
sg160
Vfit
p238
sg162
I940
ssg166
(dp239
g159
I450
sg160
Vfit
p240
sg162
I600
ssg169
(dp241
g159
I150
sg160
Vcrop
p242
sg162
I150
sssg172
(lp243
I94
aI116
asg174
Vphoto
p244
sg33
I619618685502648320
sg176
Vhttp://pbs.twimg.com/media/CJlT6V2UcAAN9EG.jpg
p245
sasssS'coordinates'
p246
NsS'timestamp_ms'
p247
g139
sS'entities'
p248
g141
sS'in_reply_to_status_id_str'
p249
NsS'in_reply_to_screen_name'
p250
Nsg89
g190
sS'extended_entities'
p251
g226
sS'retweeted'
p252
I00
sS'place'
p253
g0
(ctweepy.models
Place
p254
g2
Ntp255
Rp256
(dp257
S'full_name'
p258
g204
sg106
g205
sS'country'
p259
g207
sS'place_type'
p260
g209
sS'bounding_box'
p261
g0
(ctweepy.models
BoundingBox
p262
g2
Ntp263
Rp264
(dp265
S'type'
p266
g212
sg246
g213
sbsS'country_code'
p267
g220
sS'attributes'
p268
g222
sg24
g223
sg100
g224
sbsS'retweet_count'
p269
I0
sg107
g108
(S'\x07\xdf\x07\n\x15\x1a\x15\x00\x00\x00'
p270
tp271
Rp272
sS'in_reply_to_user_id'
p273
Nsb.