ccopy_reg
_reconstructor
p0
(ctweepy.models
Status
p1
c__builtin__
object
p2
Ntp3
Rp4
(dp5
S'favorited'
p6
I00
sS'contributors'
p7
NsS'truncated'
p8
I00
sS'text'
p9
VHi @NiallOfficial how are you baby? I love you
p10
sS'source_url'
p11
Vhttp://twitter.com
p12
sS'possibly_sensitive'
p13
I00
sS'in_reply_to_status_id'
p14
NsS'user'
p15
g0
(ctweepy.models
User
p16
g2
Ntp17
Rp18
(dp19
S'follow_request_sent'
p20
NsS'profile_use_background_image'
p21
I01
sS'profile_sidebar_fill_color'
p22
VE5507E
p23
sS'id'
p24
I130640431
sS'verified'
p25
I00
sS'profile_image_url_https'
p26
Vhttps://pbs.twimg.com/profile_images/618149327953858560/5bf39rkP_normal.jpg
p27
sS'_json'
p28
(dp29
Vfollow_request_sent
p30
NsVprofile_use_background_image
p31
I01
sVdefault_profile_image
p32
I00
sVid
p33
I130640431
sVverified
p34
I00
sVprofile_image_url_https
p35
g27
sVprofile_sidebar_fill_color
p36
g23
sVprofile_text_color
p37
V362720
p38
sVfollowers_count
p39
I690
sVprofile_sidebar_border_color
p40
VFFFFFF
p41
sVid_str
p42
V130640431
p43
sVprofile_background_color
p44
VFF6699
p45
sVlisted_count
p46
I6
sVprofile_background_image_url_https
p47
Vhttps://pbs.twimg.com/profile_background_images/779686728/8d70c90d4aa2e311f145a56a531ffbbf.jpeg
p48
sVutc_offset
p49
I-36000
sVstatuses_count
p50
I31056
sVdescription
p51
V\u27284 in our eyes 5 in our hearts\u2728 \u2716\ufe0fNiallgirl\u2716\ufe0f Nuestros hilos rojos estan unidos.
p52
sVfriends_count
p53
I658
sVlocation
p54
V
p55
sVprofile_link_color
p56
VB40B43
p57
sVprofile_image_url
p58
Vhttp://pbs.twimg.com/profile_images/618149327953858560/5bf39rkP_normal.jpg
p59
sVfollowing
p60
NsVgeo_enabled
p61
I01
sVprofile_banner_url
p62
Vhttps://pbs.twimg.com/profile_banners/130640431/1434396096
p63
sVprofile_background_image_url
p64
Vhttp://pbs.twimg.com/profile_background_images/779686728/8d70c90d4aa2e311f145a56a531ffbbf.jpeg
p65
sVname
p66
V\u274c TYSM OTY/GD3 \u274c
p67
sVlang
p68
Ves
p69
sVprofile_background_tile
p70
I01
sVfavourites_count
p71
I256
sVscreen_name
p72
VFvpz05
p73
sVnotifications
p74
NsVurl
p75
Vhttp://noisetrade.com/cimorelli/hearts-on-fire
p76
sVcreated_at
p77
VWed Apr 07 22:10:59 +0000 2010
p78
sVcontributors_enabled
p79
I00
sVtime_zone
p80
VHawaii
p81
sVprotected
p82
I00
sVdefault_profile
p83
I00
sVis_translator
p84
I00
ssS'contributors_enabled'
p85
I00
sS'profile_text_color'
p86
g38
sS'followers_count'
p87
I690
sS'profile_sidebar_border_color'
p88
g41
sS'location'
p89
g55
sS'default_profile_image'
p90
I00
sS'id_str'
p91
g43
sS'utc_offset'
p92
I-36000
sS'statuses_count'
p93
I31056
sS'description'
p94
g52
sS'friends_count'
p95
I658
sS'profile_link_color'
p96
g57
sS'profile_image_url'
p97
g59
sS'notifications'
p98
NsS'geo_enabled'
p99
I01
sS'profile_background_color'
p100
g45
sS'profile_banner_url'
p101
g63
sS'profile_background_image_url'
p102
g65
sS'name'
p103
g67
sS'lang'
p104
g69
sS'following'
p105
I00
sS'profile_background_tile'
p106
I01
sS'favourites_count'
p107
I256
sS'screen_name'
p108
g73
sS'url'
p109
g76
sS'created_at'
p110
cdatetime
datetime
p111
(S'\x07\xda\x04\x07\x16\n;\x00\x00\x00'
p112
tp113
Rp114
sS'profile_background_image_url_https'
p115
g48
sS'time_zone'
p116
g81
sS'protected'
p117
I00
sS'default_profile'
p118
I00
sS'is_translator'
p119
I00
sS'listed_count'
p120
I6
sbsS'filter_level'
p121
Vlow
p122
sS'geo'
p123
Nsg24
I619621067578081281
sS'favorite_count'
p124
I0
sS'source'
p125
VTwitter Web Client
p126
sg104
Ven
p127
sS'author'
p128
g18
sS'in_reply_to_user_id_str'
p129
Nsg28
(dp130
Vcontributors
p131
NsVtruncated
p132
I00
sVtext
p133
g10
sVin_reply_to_status_id
p134
Nsg33
I619621067578081281
sVfavorite_count
p135
I0
sVsource
p136
V<a href="http://twitter.com" rel="nofollow">Twitter Web Client</a>
p137
sVretweeted
p138
I00
sVcoordinates
p139
NsVtimestamp_ms
p140
V1436564149170
p141
sVentities
p142
(dp143
Vuser_mentions
p144
(lp145
(dp146
g33
I105119490
sVindices
p147
(lp148
I3
aI17
asg42
V105119490
p149
sg72
VNiallOfficial
p150
sg66
VNiall Horan
p151
sasVsymbols
p152
(lp153
sVtrends
p154
(lp155
sVhashtags
p156
(lp157
sVurls
p158
(lp159
ssVin_reply_to_screen_name
p160
Nsg42
V619621067578081281
p161
sVretweet_count
p162
I0
sVin_reply_to_user_id
p163
NsVfavorited
p164
I00
sVuser
p165
g29
sVgeo
p166
NsVin_reply_to_user_id_str
p167
NsVpossibly_sensitive
p168
I00
sg68
g127
sg77
VFri Jul 10 21:35:49 +0000 2015
p169
sVfilter_level
p170
g122
sVin_reply_to_status_id_str
p171
NsVplace
p172
(dp173
Vfull_name
p174
VZurich, Suiza
p175
sg75
Vhttps://api.twitter.com/1.1/geo/id/db94c1cccc67c4f4.json
p176
sVcountry
p177
VSchweiz
p178
sVplace_type
p179
Vadmin
p180
sVbounding_box
p181
(dp182
Vtype
p183
VPolygon
p184
sg139
(lp185
(lp186
(lp187
F8.357749
aF47.159384
aa(lp188
F8.357749
aF47.694503
aa(lp189
F8.984445
aF47.694503
aa(lp190
F8.984445
aF47.159384
aaassVcountry_code
p191
VCH
p192
sVattributes
p193
(dp194
sg33
Vdb94c1cccc67c4f4
p195
sg66
VZurich
p196
sssS'coordinates'
p197
NsS'timestamp_ms'
p198
g141
sS'entities'
p199
g143
sS'in_reply_to_status_id_str'
p200
NsS'in_reply_to_screen_name'
p201
Nsg91
g161
sS'retweeted'
p202
I00
sS'place'
p203
g0
(ctweepy.models
Place
p204
g2
Ntp205
Rp206
(dp207
S'full_name'
p208
g175
sg109
g176
sS'country'
p209
g178
sS'place_type'
p210
g180
sS'bounding_box'
p211
g0
(ctweepy.models
BoundingBox
p212
g2
Ntp213
Rp214
(dp215
S'type'
p216
g184
sg197
g185
sbsS'country_code'
p217
g192
sS'attributes'
p218
g194
sg24
g195
sg103
g196
sbsS'retweet_count'
p219
I0
sg110
g111
(S'\x07\xdf\x07\n\x15#1\x00\x00\x00'
p220
tp221
Rp222
sS'in_reply_to_user_id'
p223
Nsb.