ccopy_reg
_reconstructor
p0
(ctweepy.models
Status
p1
c__builtin__
object
p2
Ntp3
Rp4
(dp5
S'favorited'
p6
I00
sS'contributors'
p7
NsS'truncated'
p8
I00
sS'text'
p9
V@IkaWariaMurid @Aspri69 yaaaa. Aku pingin ketemu dia.. Add aku yaa bebe @AraSemok
p10
sS'source_url'
p11
Vhttp://twitter.com/download/iphone
p12
sS'possibly_sensitive'
p13
I00
sS'in_reply_to_status_id'
p14
I621131486025003008
sS'user'
p15
g0
(ctweepy.models
User
p16
g2
Ntp17
Rp18
(dp19
S'follow_request_sent'
p20
NsS'profile_use_background_image'
p21
I01
sS'profile_sidebar_fill_color'
p22
VDDEEF6
p23
sS'id'
p24
I2861615840
sS'verified'
p25
I00
sS'profile_image_url_https'
p26
Vhttps://pbs.twimg.com/profile_images/564852475593637888/r1x5RkNq_normal.jpeg
p27
sS'_json'
p28
(dp29
Vfollow_request_sent
p30
NsVprofile_use_background_image
p31
I01
sVdefault_profile_image
p32
I00
sVid
p33
I2861615840
sVverified
p34
I00
sVprofile_image_url_https
p35
g27
sVprofile_sidebar_fill_color
p36
g23
sVprofile_text_color
p37
V333333
p38
sVfollowers_count
p39
I429
sVprofile_sidebar_border_color
p40
VC0DEED
p41
sVid_str
p42
V2861615840
p43
sVprofile_background_color
p44
VC0DEED
p45
sVlisted_count
p46
I1
sVprofile_background_image_url_https
p47
Vhttps://abs.twimg.com/images/themes/theme1/bg.png
p48
sVutc_offset
p49
I25200
sVstatuses_count
p50
I6178
sVdescription
p51
VLaki dewasa. Telat nakal. Calon #gadun. check my fav.
p52
sVfriends_count
p53
I796
sVlocation
p54
VJakarta. Borneo.
p55
sVprofile_link_color
p56
V0084B4
p57
sVprofile_image_url
p58
Vhttp://pbs.twimg.com/profile_images/564852475593637888/r1x5RkNq_normal.jpeg
p59
sVfollowing
p60
NsVgeo_enabled
p61
I01
sVprofile_banner_url
p62
Vhttps://pbs.twimg.com/profile_banners/2861615840/1436920404
p63
sVprofile_background_image_url
p64
Vhttp://abs.twimg.com/images/themes/theme1/bg.png
p65
sVname
p66
VA Lover
p67
sVlang
p68
Ven
p69
sVprofile_background_tile
p70
I00
sVfavourites_count
p71
I259
sVscreen_name
p72
Vhemanperth
p73
sVnotifications
p74
NsVurl
p75
NsVcreated_at
p76
VSat Oct 18 01:29:11 +0000 2014
p77
sVcontributors_enabled
p78
I00
sVtime_zone
p79
VKrasnoyarsk
p80
sVprotected
p81
I00
sVdefault_profile
p82
I01
sVis_translator
p83
I00
ssS'contributors_enabled'
p84
I00
sS'profile_text_color'
p85
g38
sS'followers_count'
p86
I429
sS'profile_sidebar_border_color'
p87
g41
sS'location'
p88
g55
sS'default_profile_image'
p89
I00
sS'id_str'
p90
g43
sS'utc_offset'
p91
I25200
sS'statuses_count'
p92
I6178
sS'description'
p93
g52
sS'friends_count'
p94
I796
sS'profile_link_color'
p95
g57
sS'profile_image_url'
p96
g59
sS'notifications'
p97
NsS'geo_enabled'
p98
I01
sS'profile_background_color'
p99
g45
sS'profile_banner_url'
p100
g63
sS'profile_background_image_url'
p101
g65
sS'name'
p102
g67
sS'lang'
p103
g69
sS'following'
p104
I00
sS'profile_background_tile'
p105
I00
sS'favourites_count'
p106
I259
sS'screen_name'
p107
g73
sS'url'
p108
NsS'created_at'
p109
cdatetime
datetime
p110
(S'\x07\xde\n\x12\x01\x1d\x0b\x00\x00\x00'
p111
tp112
Rp113
sS'profile_background_image_url_https'
p114
g48
sS'time_zone'
p115
g80
sS'protected'
p116
I00
sS'default_profile'
p117
I01
sS'is_translator'
p118
I00
sS'listed_count'
p119
I1
sbsS'filter_level'
p120
Vlow
p121
sS'geo'
p122
Nsg24
I621132516838244355
sS'favorite_count'
p123
I0
sS'source'
p124
VTwitter for iPhone
p125
sg103
Vin
p126
sS'author'
p127
g18
sS'in_reply_to_user_id_str'
p128
V3185870119
p129
sg28
(dp130
Vcontributors
p131
NsVtruncated
p132
I00
sVtext
p133
g10
sVin_reply_to_status_id
p134
I621131486025003008
sg33
I621132516838244355
sVfavorite_count
p135
I0
sVsource
p136
V<a href="http://twitter.com/download/iphone" rel="nofollow">Twitter for iPhone</a>
p137
sVretweeted
p138
I00
sVcoordinates
p139
NsVtimestamp_ms
p140
V1436924506755
p141
sVentities
p142
(dp143
Vuser_mentions
p144
(lp145
(dp146
g33
I3185870119
sVindices
p147
(lp148
I0
aI14
asg42
V3185870119
p149
sg72
VIkaWariaMurid
p150
sg66
VBanci NakHaL
p151
sa(dp152
g33
I3051858565
sg147
(lp153
I15
aI23
asg42
V3051858565
p154
sg72
VAspri69
p155
sg66
VAra Semox
p156
sa(dp157
g33
I2936941129
sg147
(lp158
I72
aI81
asg42
V2936941129
p159
sg72
VAraSemok
p160
sg66
VAraSemok Promote
p161
sasVsymbols
p162
(lp163
sVtrends
p164
(lp165
sVhashtags
p166
(lp167
sVurls
p168
(lp169
ssVin_reply_to_screen_name
p170
VIkaWariaMurid
p171
sg42
V621132516838244355
p172
sVretweet_count
p173
I0
sVin_reply_to_user_id
p174
I3185870119
sVfavorited
p175
I00
sVuser
p176
g29
sVgeo
p177
NsVin_reply_to_user_id_str
p178
g129
sVpossibly_sensitive
p179
I00
sg68
g126
sg76
VWed Jul 15 01:41:46 +0000 2015
p180
sVfilter_level
p181
g121
sVin_reply_to_status_id_str
p182
V621131486025003008
p183
sVplace
p184
(dp185
Vfull_name
p186
VZurich, Switzerland
p187
sg75
Vhttps://api.twitter.com/1.1/geo/id/db94c1cccc67c4f4.json
p188
sVcountry
p189
VSchweiz
p190
sVplace_type
p191
Vadmin
p192
sVbounding_box
p193
(dp194
Vtype
p195
VPolygon
p196
sg139
(lp197
(lp198
(lp199
F8.357749
aF47.159384
aa(lp200
F8.357749
aF47.694503
aa(lp201
F8.984445
aF47.694503
aa(lp202
F8.984445
aF47.159384
aaassVcountry_code
p203
VCH
p204
sVattributes
p205
(dp206
sg33
Vdb94c1cccc67c4f4
p207
sg66
VZurich
p208
sssS'coordinates'
p209
NsS'timestamp_ms'
p210
g141
sS'entities'
p211
g143
sS'in_reply_to_status_id_str'
p212
g183
sS'in_reply_to_screen_name'
p213
g171
sg90
g172
sS'retweeted'
p214
I00
sS'place'
p215
g0
(ctweepy.models
Place
p216
g2
Ntp217
Rp218
(dp219
S'full_name'
p220
g187
sg108
g188
sS'country'
p221
g190
sS'place_type'
p222
g192
sS'bounding_box'
p223
g0
(ctweepy.models
BoundingBox
p224
g2
Ntp225
Rp226
(dp227
S'type'
p228
g196
sg209
g197
sbsS'country_code'
p229
g204
sS'attributes'
p230
g206
sg24
g207
sg102
g208
sbsS'retweet_count'
p231
I0
sg109
g110
(S'\x07\xdf\x07\x0f\x01).\x00\x00\x00'
p232
tp233
Rp234
sS'in_reply_to_user_id'
p235
I3185870119
sb.