ccopy_reg
_reconstructor
p0
(ctweepy.models
Status
p1
c__builtin__
object
p2
Ntp3
Rp4
(dp5
S'favorited'
p6
I00
sS'contributors'
p7
NsS'truncated'
p8
I00
sS'text'
p9
V@google #Zurich has a brilliant office! #gondola #oasis #officespaces http://t.co/UdsRqfonIc
p10
sS'source_url'
p11
Vhttp://twitter.com
p12
sS'possibly_sensitive'
p13
I00
sS'in_reply_to_status_id'
p14
NsS'user'
p15
g0
(ctweepy.models
User
p16
g2
Ntp17
Rp18
(dp19
S'follow_request_sent'
p20
NsS'profile_use_background_image'
p21
I01
sS'profile_sidebar_fill_color'
p22
VE8E5E8
p23
sS'id'
p24
I191077712
sS'verified'
p25
I00
sS'profile_image_url_https'
p26
Vhttps://pbs.twimg.com/profile_images/378800000368333935/0b60a6cb62bd3c01b22356cbbcd1fcc4_normal.jpeg
p27
sS'_json'
p28
(dp29
Vfollow_request_sent
p30
NsVprofile_use_background_image
p31
I01
sVdefault_profile_image
p32
I00
sVid
p33
I191077712
sVverified
p34
I00
sVprofile_image_url_https
p35
g27
sVprofile_sidebar_fill_color
p36
g23
sVprofile_text_color
p37
V050505
p38
sVfollowers_count
p39
I287
sVprofile_sidebar_border_color
p40
V0A0A0A
p41
sVid_str
p42
V191077712
p43
sVprofile_background_color
p44
V1A1B1F
p45
sVlisted_count
p46
I21
sVprofile_background_image_url_https
p47
Vhttps://pbs.twimg.com/profile_background_images/200076182/pattern7.png
p48
sVutc_offset
p49
NsVstatuses_count
p50
I856
sVdescription
p51
VI'm a #realisticdreamer... a VW bus owner... and an interaction designer at @Youtube (@Google), previously Lead UX Designer on @WordsWFriends @Zynga.
p52
sVfriends_count
p53
I234
sVlocation
p54
VSan Francisco, CA
p55
sVprofile_link_color
p56
V0C9FE3
p57
sVprofile_image_url
p58
Vhttp://pbs.twimg.com/profile_images/378800000368333935/0b60a6cb62bd3c01b22356cbbcd1fcc4_normal.jpeg
p59
sVfollowing
p60
NsVgeo_enabled
p61
I01
sVprofile_banner_url
p62
Vhttps://pbs.twimg.com/profile_banners/191077712/1425969540
p63
sVprofile_background_image_url
p64
Vhttp://pbs.twimg.com/profile_background_images/200076182/pattern7.png
p65
sVname
p66
VWhitney Taylor
p67
sVlang
p68
Ven
p69
sVprofile_background_tile
p70
I01
sVfavourites_count
p71
I63
sVscreen_name
p72
Vwtaylordesign
p73
sVnotifications
p74
NsVurl
p75
Vhttp://xcentricdesign.com
p76
sVcreated_at
p77
VWed Sep 15 15:15:43 +0000 2010
p78
sVcontributors_enabled
p79
I00
sVtime_zone
p80
NsVprotected
p81
I00
sVdefault_profile
p82
I00
sVis_translator
p83
I00
ssS'contributors_enabled'
p84
I00
sS'profile_text_color'
p85
g38
sS'followers_count'
p86
I287
sS'profile_sidebar_border_color'
p87
g41
sS'location'
p88
g55
sS'default_profile_image'
p89
I00
sS'id_str'
p90
g43
sS'utc_offset'
p91
NsS'statuses_count'
p92
I856
sS'description'
p93
g52
sS'friends_count'
p94
I234
sS'profile_link_color'
p95
g57
sS'profile_image_url'
p96
g59
sS'notifications'
p97
NsS'geo_enabled'
p98
I01
sS'profile_background_color'
p99
g45
sS'profile_banner_url'
p100
g63
sS'profile_background_image_url'
p101
g65
sS'name'
p102
g67
sS'lang'
p103
g69
sS'following'
p104
I00
sS'profile_background_tile'
p105
I01
sS'favourites_count'
p106
I63
sS'screen_name'
p107
g73
sS'url'
p108
g76
sS'created_at'
p109
cdatetime
datetime
p110
(S'\x07\xda\t\x0f\x0f\x0f+\x00\x00\x00'
p111
tp112
Rp113
sS'profile_background_image_url_https'
p114
g48
sS'time_zone'
p115
NsS'protected'
p116
I00
sS'default_profile'
p117
I00
sS'is_translator'
p118
I00
sS'listed_count'
p119
I21
sbsS'filter_level'
p120
Vlow
p121
sS'geo'
p122
Nsg24
I618759524065914881
sS'favorite_count'
p123
I0
sS'source'
p124
VTwitter Web Client
p125
sg103
Ven
p126
sS'author'
p127
g18
sS'in_reply_to_user_id_str'
p128
V20536157
p129
sg28
(dp130
Vcontributors
p131
NsVtruncated
p132
I00
sVtext
p133
g10
sVin_reply_to_status_id
p134
Nsg33
I618759524065914881
sVfavorite_count
p135
I0
sVsource
p136
V<a href="http://twitter.com" rel="nofollow">Twitter Web Client</a>
p137
sVretweeted
p138
I00
sVcoordinates
p139
NsVtimestamp_ms
p140
V1436358741190
p141
sVentities
p142
(dp143
Vsymbols
p144
(lp145
sVmedia
p146
(lp147
(dp148
Vexpanded_url
p149
Vhttp://twitter.com/wtaylordesign/status/618759524065914881/photo/1
p150
sVdisplay_url
p151
Vpic.twitter.com/UdsRqfonIc
p152
sg75
Vhttp://t.co/UdsRqfonIc
p153
sVmedia_url_https
p154
Vhttps://pbs.twimg.com/media/CJZGgfaWcAADbxj.jpg
p155
sg42
V618759522811801600
p156
sVsizes
p157
(dp158
Vlarge
p159
(dp160
Vh
p161
I720
sVresize
p162
Vfit
p163
sVw
p164
I960
ssVsmall
p165
(dp166
g161
I255
sg162
Vfit
p167
sg164
I340
ssVmedium
p168
(dp169
g161
I450
sg162
Vfit
p170
sg164
I600
ssVthumb
p171
(dp172
g161
I150
sg162
Vcrop
p173
sg164
I150
sssVindices
p174
(lp175
I70
aI92
asVtype
p176
Vphoto
p177
sg33
I618759522811801600
sVmedia_url
p178
Vhttp://pbs.twimg.com/media/CJZGgfaWcAADbxj.jpg
p179
sasVhashtags
p180
(lp181
(dp182
g174
(lp183
I8
aI15
asg133
VZurich
p184
sa(dp185
g174
(lp186
I40
aI48
asg133
Vgondola
p187
sa(dp188
g174
(lp189
I49
aI55
asg133
Voasis
p190
sa(dp191
g174
(lp192
I56
aI69
asg133
Vofficespaces
p193
sasVuser_mentions
p194
(lp195
(dp196
g33
I20536157
sg174
(lp197
I0
aI7
asg42
V20536157
p198
sg72
Vgoogle
p199
sg66
VGoogle
p200
sasVtrends
p201
(lp202
sVurls
p203
(lp204
ssVin_reply_to_screen_name
p205
Vgoogle
p206
sg42
V618759524065914881
p207
sVretweet_count
p208
I0
sVin_reply_to_user_id
p209
I20536157
sVfavorited
p210
I00
sVuser
p211
g29
sVgeo
p212
NsVin_reply_to_user_id_str
p213
g129
sVpossibly_sensitive
p214
I00
sg68
g126
sg77
VWed Jul 08 12:32:21 +0000 2015
p215
sVfilter_level
p216
g121
sVin_reply_to_status_id_str
p217
NsVplace
p218
(dp219
Vfull_name
p220
VZurich, Switzerland
p221
sg75
Vhttps://api.twitter.com/1.1/geo/id/3acb748d0f1e9265.json
p222
sVcountry
p223
VSchweiz
p224
sVplace_type
p225
Vcity
p226
sVbounding_box
p227
(dp228
g176
VPolygon
p229
sg139
(lp230
(lp231
(lp232
F8.448081
aF47.320183
aa(lp233
F8.448081
aF47.434721
aa(lp234
F8.625442
aF47.434721
aa(lp235
F8.625442
aF47.320183
aaassVcountry_code
p236
VCH
p237
sVattributes
p238
(dp239
sg33
V3acb748d0f1e9265
p240
sg66
VZurich
p241
ssVextended_entities
p242
(dp243
g146
(lp244
(dp245
g149
Vhttp://twitter.com/wtaylordesign/status/618759524065914881/photo/1
p246
sg151
Vpic.twitter.com/UdsRqfonIc
p247
sg75
Vhttp://t.co/UdsRqfonIc
p248
sg154
Vhttps://pbs.twimg.com/media/CJZGgfaWcAADbxj.jpg
p249
sg42
V618759522811801600
p250
sg157
(dp251
g159
(dp252
g161
I720
sg162
Vfit
p253
sg164
I960
ssg165
(dp254
g161
I255
sg162
Vfit
p255
sg164
I340
ssg168
(dp256
g161
I450
sg162
Vfit
p257
sg164
I600
ssg171
(dp258
g161
I150
sg162
Vcrop
p259
sg164
I150
sssg174
(lp260
I70
aI92
asg176
Vphoto
p261
sg33
I618759522811801600
sg178
Vhttp://pbs.twimg.com/media/CJZGgfaWcAADbxj.jpg
p262
sa(dp263
g149
Vhttp://twitter.com/wtaylordesign/status/618759524065914881/photo/1
p264
sg151
Vpic.twitter.com/UdsRqfonIc
p265
sg75
Vhttp://t.co/UdsRqfonIc
p266
sg154
Vhttps://pbs.twimg.com/media/CJZGggqWgAAABsU.jpg
p267
sg42
V618759523147350016
p268
sg157
(dp269
g165
(dp270
g161
I453
sg162
Vfit
p271
sg164
I340
ssg159
(dp272
g161
I960
sg162
Vfit
p273
sg164
I720
ssg168
(dp274
g161
I800
sg162
Vfit
p275
sg164
I600
ssg171
(dp276
g161
I150
sg162
Vcrop
p277
sg164
I150
sssg174
(lp278
I70
aI92
asg176
Vphoto
p279
sg33
I618759523147350016
sg178
Vhttp://pbs.twimg.com/media/CJZGggqWgAAABsU.jpg
p280
sasssS'coordinates'
p281
NsS'timestamp_ms'
p282
g141
sS'entities'
p283
g143
sS'in_reply_to_status_id_str'
p284
NsS'in_reply_to_screen_name'
p285
g206
sg90
g207
sS'extended_entities'
p286
g243
sS'retweeted'
p287
I00
sS'place'
p288
g0
(ctweepy.models
Place
p289
g2
Ntp290
Rp291
(dp292
S'full_name'
p293
g221
sg108
g222
sS'country'
p294
g224
sS'place_type'
p295
g226
sS'bounding_box'
p296
g0
(ctweepy.models
BoundingBox
p297
g2
Ntp298
Rp299
(dp300
S'type'
p301
g229
sg281
g230
sbsS'country_code'
p302
g237
sS'attributes'
p303
g239
sg24
g240
sg102
g241
sbsS'retweet_count'
p304
I0
sg109
g110
(S'\x07\xdf\x07\x08\x0c \x15\x00\x00\x00'
p305
tp306
Rp307
sS'in_reply_to_user_id'
p308
I20536157
sb.