ccopy_reg
_reconstructor
p0
(ctweepy.models
Status
p1
c__builtin__
object
p2
Ntp3
Rp4
(dp5
S'favorited'
p6
I00
sS'contributors'
p7
NsS'truncated'
p8
I00
sS'text'
p9
VSo... I'll be in UK for 'Tinderella' at http://t.co/Hw7AjLeRRP on 28th November. I've got 3 spaces. who's coming? @JonBradfield  @Danielf90
p10
sS'source_url'
p11
Vhttp://twitter.com/download/android
p12
sS'possibly_sensitive'
p13
I00
sS'in_reply_to_status_id'
p14
NsS'user'
p15
g0
(ctweepy.models
User
p16
g2
Ntp17
Rp18
(dp19
S'follow_request_sent'
p20
NsS'profile_use_background_image'
p21
I01
sS'profile_sidebar_fill_color'
p22
VF6F6F6
p23
sS'id'
p24
I831914852
sS'verified'
p25
I00
sS'profile_image_url_https'
p26
Vhttps://pbs.twimg.com/profile_images/621053095477387264/pkx7k77-_normal.jpg
p27
sS'_json'
p28
(dp29
Vfollow_request_sent
p30
NsVprofile_use_background_image
p31
I01
sVdefault_profile_image
p32
I00
sVid
p33
I831914852
sVverified
p34
I00
sVprofile_image_url_https
p35
g27
sVprofile_sidebar_fill_color
p36
g23
sVprofile_text_color
p37
V333333
p38
sVfollowers_count
p39
I402
sVprofile_sidebar_border_color
p40
VEEEEEE
p41
sVid_str
p42
V831914852
p43
sVprofile_background_color
p44
VACDED6
p45
sVlisted_count
p46
I12
sVprofile_background_image_url_https
p47
Vhttps://abs.twimg.com/images/themes/theme18/bg.gif
p48
sVutc_offset
p49
I3600
sVstatuses_count
p50
I8822
sVdescription
p51
Vfear cannot touch you, it can only taunt you
p52
sVfriends_count
p53
I529
sVlocation
p54
VZurich
p55
sVprofile_link_color
p56
V038543
p57
sVprofile_image_url
p58
Vhttp://pbs.twimg.com/profile_images/621053095477387264/pkx7k77-_normal.jpg
p59
sVfollowing
p60
NsVgeo_enabled
p61
I01
sVprofile_banner_url
p62
Vhttps://pbs.twimg.com/profile_banners/831914852/1431978793
p63
sVprofile_background_image_url
p64
Vhttp://abs.twimg.com/images/themes/theme18/bg.gif
p65
sVname
p66
VR for Robert 
p67
sVlang
p68
Ven
p69
sVprofile_background_tile
p70
I00
sVfavourites_count
p71
I2062
sVscreen_name
p72
Vrobertb83
p73
sVnotifications
p74
NsVurl
p75
NsVcreated_at
p76
VTue Sep 18 21:27:36 +0000 2012
p77
sVcontributors_enabled
p78
I00
sVtime_zone
p79
VLondon
p80
sVprotected
p81
I00
sVdefault_profile
p82
I00
sVis_translator
p83
I00
ssS'contributors_enabled'
p84
I00
sS'profile_text_color'
p85
g38
sS'followers_count'
p86
I402
sS'profile_sidebar_border_color'
p87
g41
sS'location'
p88
g55
sS'default_profile_image'
p89
I00
sS'id_str'
p90
g43
sS'utc_offset'
p91
I3600
sS'statuses_count'
p92
I8822
sS'description'
p93
g52
sS'friends_count'
p94
I529
sS'profile_link_color'
p95
g57
sS'profile_image_url'
p96
g59
sS'notifications'
p97
NsS'geo_enabled'
p98
I01
sS'profile_background_color'
p99
g45
sS'profile_banner_url'
p100
g63
sS'profile_background_image_url'
p101
g65
sS'name'
p102
g67
sS'lang'
p103
g69
sS'following'
p104
I00
sS'profile_background_tile'
p105
I00
sS'favourites_count'
p106
I2062
sS'screen_name'
p107
g73
sS'url'
p108
NsS'created_at'
p109
cdatetime
datetime
p110
(S'\x07\xdc\t\x12\x15\x1b$\x00\x00\x00'
p111
tp112
Rp113
sS'profile_background_image_url_https'
p114
g48
sS'time_zone'
p115
g80
sS'protected'
p116
I00
sS'default_profile'
p117
I00
sS'is_translator'
p118
I00
sS'listed_count'
p119
I12
sbsS'filter_level'
p120
Vlow
p121
sS'geo'
p122
Nsg24
I621063517957943296
sS'favorite_count'
p123
I0
sS'source'
p124
VTwitter for Android
p125
sg103
Ven
p126
sS'author'
p127
g18
sS'in_reply_to_user_id_str'
p128
Nsg28
(dp129
Vcontributors
p130
NsVtruncated
p131
I00
sVtext
p132
g10
sVin_reply_to_status_id
p133
Nsg33
I621063517957943296
sVfavorite_count
p134
I0
sVsource
p135
V<a href="http://twitter.com/download/android" rel="nofollow">Twitter for Android</a>
p136
sVretweeted
p137
I00
sVcoordinates
p138
NsVtimestamp_ms
p139
V1436908056140
p140
sVentities
p141
(dp142
Vuser_mentions
p143
(lp144
(dp145
g33
I52452117
sVindices
p146
(lp147
I114
aI127
asg42
V52452117
p148
sg72
VJonBradfield
p149
sg66
VJon Bradfield
p150
sa(dp151
g33
I23356571
sg146
(lp152
I129
aI139
asg42
V23356571
p153
sg72
VDanielf90
p154
sg66
VDaniel Sommer
p155
sasVsymbols
p156
(lp157
sVtrends
p158
(lp159
sVhashtags
p160
(lp161
sVurls
p162
(lp163
(dp164
g75
Vhttp://t.co/Hw7AjLeRRP
p165
sg146
(lp166
I40
aI62
asVexpanded_url
p167
Vhttp://abovethestag.com
p168
sVdisplay_url
p169
Vabovethestag.com
p170
sassVin_reply_to_screen_name
p171
Nsg42
V621063517957943296
p172
sVretweet_count
p173
I0
sVin_reply_to_user_id
p174
NsVfavorited
p175
I00
sVuser
p176
g29
sVgeo
p177
NsVin_reply_to_user_id_str
p178
NsVpossibly_sensitive
p179
I00
sg68
g126
sg76
VTue Jul 14 21:07:36 +0000 2015
p180
sVfilter_level
p181
g121
sVin_reply_to_status_id_str
p182
NsVplace
p183
(dp184
Vfull_name
p185
VZurich, Switzerland
p186
sg75
Vhttps://api.twitter.com/1.1/geo/id/3acb748d0f1e9265.json
p187
sVcountry
p188
VSchweiz
p189
sVplace_type
p190
Vcity
p191
sVbounding_box
p192
(dp193
Vtype
p194
VPolygon
p195
sg138
(lp196
(lp197
(lp198
F8.448081
aF47.320183
aa(lp199
F8.448081
aF47.434721
aa(lp200
F8.625442
aF47.434721
aa(lp201
F8.625442
aF47.320183
aaassVcountry_code
p202
VCH
p203
sVattributes
p204
(dp205
sg33
V3acb748d0f1e9265
p206
sg66
VZurich
p207
sssS'coordinates'
p208
NsS'timestamp_ms'
p209
g140
sS'entities'
p210
g142
sS'in_reply_to_status_id_str'
p211
NsS'in_reply_to_screen_name'
p212
Nsg90
g172
sS'retweeted'
p213
I00
sS'place'
p214
g0
(ctweepy.models
Place
p215
g2
Ntp216
Rp217
(dp218
S'full_name'
p219
g186
sg108
g187
sS'country'
p220
g189
sS'place_type'
p221
g191
sS'bounding_box'
p222
g0
(ctweepy.models
BoundingBox
p223
g2
Ntp224
Rp225
(dp226
S'type'
p227
g195
sg208
g196
sbsS'country_code'
p228
g203
sS'attributes'
p229
g205
sg24
g206
sg102
g207
sbsS'retweet_count'
p230
I0
sg109
g110
(S'\x07\xdf\x07\x0e\x15\x07$\x00\x00\x00'
p231
tp232
Rp233
sS'in_reply_to_user_id'
p234
Nsb.