ccopy_reg
_reconstructor
p0
(ctweepy.models
Status
p1
c__builtin__
object
p2
Ntp3
Rp4
(dp5
S'favorited'
p6
I00
sS'contributors'
p7
NsS'truncated'
p8
I00
sS'text'
p9
V#Poliambulatorio #Ludes... C'E' MOLTO DI PIU'... #fisioterapia #riabilitazione #massaggi #lugano #swiss #tecar #como http://t.co/dCOZ1L5q4U
p10
sS'source_url'
p11
Vhttp://twitter.com
p12
sS'possibly_sensitive'
p13
I00
sS'in_reply_to_status_id'
p14
NsS'user'
p15
g0
(ctweepy.models
User
p16
g2
Ntp17
Rp18
(dp19
S'follow_request_sent'
p20
NsS'profile_use_background_image'
p21
I01
sS'profile_sidebar_fill_color'
p22
VDDEEF6
p23
sS'id'
p24
I252307995
sS'verified'
p25
I00
sS'profile_image_url_https'
p26
Vhttps://pbs.twimg.com/profile_images/443328698607878144/O7scyvL0_normal.jpeg
p27
sS'_json'
p28
(dp29
Vfollow_request_sent
p30
NsVprofile_use_background_image
p31
I01
sVdefault_profile_image
p32
I00
sVid
p33
I252307995
sVverified
p34
I00
sVprofile_image_url_https
p35
g27
sVprofile_sidebar_fill_color
p36
g23
sVprofile_text_color
p37
V333333
p38
sVfollowers_count
p39
I300
sVprofile_sidebar_border_color
p40
VC0DEED
p41
sVid_str
p42
V252307995
p43
sVprofile_background_color
p44
VC0DEED
p45
sVlisted_count
p46
I14
sVprofile_background_image_url_https
p47
Vhttps://abs.twimg.com/images/themes/theme1/bg.png
p48
sVutc_offset
p49
I7200
sVstatuses_count
p50
I1053
sVdescription
p51
VSwiss Education
p52
sVfriends_count
p53
I128
sVlocation
p54
VSwitzerland
p55
sVprofile_link_color
p56
V000FB3
p57
sVprofile_image_url
p58
Vhttp://pbs.twimg.com/profile_images/443328698607878144/O7scyvL0_normal.jpeg
p59
sVfollowing
p60
NsVgeo_enabled
p61
I01
sVprofile_banner_url
p62
Vhttps://pbs.twimg.com/profile_banners/252307995/1432724219
p63
sVprofile_background_image_url
p64
Vhttp://abs.twimg.com/images/themes/theme1/bg.png
p65
sVname
p66
VLudes University
p67
sVlang
p68
Vit
p69
sVprofile_background_tile
p70
I00
sVfavourites_count
p71
I213
sVscreen_name
p72
Vuniludes
p73
sVnotifications
p74
NsVurl
p75
Vhttp://www.uniludes.ch
p76
sVcreated_at
p77
VMon Feb 14 22:56:29 +0000 2011
p78
sVcontributors_enabled
p79
I00
sVtime_zone
p80
VBern
p81
sVprotected
p82
I00
sVdefault_profile
p83
I00
sVis_translator
p84
I00
ssS'contributors_enabled'
p85
I00
sS'profile_text_color'
p86
g38
sS'followers_count'
p87
I300
sS'profile_sidebar_border_color'
p88
g41
sS'location'
p89
g55
sS'default_profile_image'
p90
I00
sS'id_str'
p91
g43
sS'utc_offset'
p92
I7200
sS'statuses_count'
p93
I1053
sS'description'
p94
g52
sS'friends_count'
p95
I128
sS'profile_link_color'
p96
g57
sS'profile_image_url'
p97
g59
sS'notifications'
p98
NsS'geo_enabled'
p99
I01
sS'profile_background_color'
p100
g45
sS'profile_banner_url'
p101
g63
sS'profile_background_image_url'
p102
g65
sS'name'
p103
g67
sS'lang'
p104
g69
sS'following'
p105
I00
sS'profile_background_tile'
p106
I00
sS'favourites_count'
p107
I213
sS'screen_name'
p108
g73
sS'url'
p109
g76
sS'created_at'
p110
cdatetime
datetime
p111
(S'\x07\xdb\x02\x0e\x168\x1d\x00\x00\x00'
p112
tp113
Rp114
sS'profile_background_image_url_https'
p115
g48
sS'time_zone'
p116
g81
sS'protected'
p117
I00
sS'default_profile'
p118
I00
sS'is_translator'
p119
I00
sS'listed_count'
p120
I14
sbsS'filter_level'
p121
Vlow
p122
sS'geo'
p123
Nsg24
I620546598007898112
sS'favorite_count'
p124
I0
sS'source'
p125
VTwitter Web Client
p126
sg104
Vit
p127
sS'author'
p128
g18
sS'in_reply_to_user_id_str'
p129
Nsg28
(dp130
Vcontributors
p131
NsVtruncated
p132
I00
sVtext
p133
g10
sVin_reply_to_status_id
p134
Nsg33
I620546598007898112
sVfavorite_count
p135
I0
sVsource
p136
V<a href="http://twitter.com" rel="nofollow">Twitter Web Client</a>
p137
sVretweeted
p138
I00
sVcoordinates
p139
NsVtimestamp_ms
p140
V1436784812820
p141
sVentities
p142
(dp143
Vsymbols
p144
(lp145
sVmedia
p146
(lp147
(dp148
Vexpanded_url
p149
Vhttp://twitter.com/uniludes/status/620546598007898112/photo/1
p150
sVdisplay_url
p151
Vpic.twitter.com/dCOZ1L5q4U
p152
sg75
Vhttp://t.co/dCOZ1L5q4U
p153
sVmedia_url_https
p154
Vhttps://pbs.twimg.com/media/CJyf15vVAAAsrkh.jpg
p155
sg42
V620546597051498496
p156
sVsizes
p157
(dp158
Vlarge
p159
(dp160
Vh
p161
I600
sVresize
p162
Vfit
p163
sVw
p164
I397
ssVsmall
p165
(dp166
g161
I513
sg162
Vfit
p167
sg164
I340
ssVmedium
p168
(dp169
g161
I600
sg162
Vfit
p170
sg164
I397
ssVthumb
p171
(dp172
g161
I150
sg162
Vcrop
p173
sg164
I150
sssVindices
p174
(lp175
I117
aI139
asVtype
p176
Vphoto
p177
sg33
I620546597051498496
sVmedia_url
p178
Vhttp://pbs.twimg.com/media/CJyf15vVAAAsrkh.jpg
p179
sasVhashtags
p180
(lp181
(dp182
g174
(lp183
I0
aI16
asg133
VPoliambulatorio
p184
sa(dp185
g174
(lp186
I17
aI23
asg133
VLudes
p187
sa(dp188
g174
(lp189
I49
aI62
asg133
Vfisioterapia
p190
sa(dp191
g174
(lp192
I63
aI78
asg133
Vriabilitazione
p193
sa(dp194
g174
(lp195
I79
aI88
asg133
Vmassaggi
p196
sa(dp197
g174
(lp198
I89
aI96
asg133
Vlugano
p199
sa(dp200
g174
(lp201
I97
aI103
asg133
Vswiss
p202
sa(dp203
g174
(lp204
I104
aI110
asg133
Vtecar
p205
sa(dp206
g174
(lp207
I111
aI116
asg133
Vcomo
p208
sasVuser_mentions
p209
(lp210
sVtrends
p211
(lp212
sVurls
p213
(lp214
ssVin_reply_to_screen_name
p215
Nsg42
V620546598007898112
p216
sVretweet_count
p217
I0
sVin_reply_to_user_id
p218
NsVfavorited
p219
I00
sVuser
p220
g29
sVgeo
p221
NsVin_reply_to_user_id_str
p222
NsVpossibly_sensitive
p223
I00
sg68
g127
sg77
VMon Jul 13 10:53:32 +0000 2015
p224
sVfilter_level
p225
g122
sVin_reply_to_status_id_str
p226
NsVplace
p227
(dp228
Vfull_name
p229
VZurigo, Svizzera
p230
sg75
Vhttps://api.twitter.com/1.1/geo/id/db94c1cccc67c4f4.json
p231
sVcountry
p232
VSchweiz
p233
sVplace_type
p234
Vadmin
p235
sVbounding_box
p236
(dp237
g176
VPolygon
p238
sg139
(lp239
(lp240
(lp241
F8.357749
aF47.159384
aa(lp242
F8.357749
aF47.694503
aa(lp243
F8.984445
aF47.694503
aa(lp244
F8.984445
aF47.159384
aaassVcountry_code
p245
VCH
p246
sVattributes
p247
(dp248
sg33
Vdb94c1cccc67c4f4
p249
sg66
VZurigo
p250
ssVextended_entities
p251
(dp252
g146
(lp253
(dp254
g149
Vhttp://twitter.com/uniludes/status/620546598007898112/photo/1
p255
sg151
Vpic.twitter.com/dCOZ1L5q4U
p256
sg75
Vhttp://t.co/dCOZ1L5q4U
p257
sg154
Vhttps://pbs.twimg.com/media/CJyf15vVAAAsrkh.jpg
p258
sg42
V620546597051498496
p259
sg157
(dp260
g159
(dp261
g161
I600
sg162
Vfit
p262
sg164
I397
ssg165
(dp263
g161
I513
sg162
Vfit
p264
sg164
I340
ssg168
(dp265
g161
I600
sg162
Vfit
p266
sg164
I397
ssg171
(dp267
g161
I150
sg162
Vcrop
p268
sg164
I150
sssg174
(lp269
I117
aI139
asg176
Vphoto
p270
sg33
I620546597051498496
sg178
Vhttp://pbs.twimg.com/media/CJyf15vVAAAsrkh.jpg
p271
sasssS'coordinates'
p272
NsS'timestamp_ms'
p273
g141
sS'entities'
p274
g143
sS'in_reply_to_status_id_str'
p275
NsS'in_reply_to_screen_name'
p276
Nsg91
g216
sS'extended_entities'
p277
g252
sS'retweeted'
p278
I00
sS'place'
p279
g0
(ctweepy.models
Place
p280
g2
Ntp281
Rp282
(dp283
S'full_name'
p284
g230
sg109
g231
sS'country'
p285
g233
sS'place_type'
p286
g235
sS'bounding_box'
p287
g0
(ctweepy.models
BoundingBox
p288
g2
Ntp289
Rp290
(dp291
S'type'
p292
g238
sg272
g239
sbsS'country_code'
p293
g246
sS'attributes'
p294
g248
sg24
g249
sg103
g250
sbsS'retweet_count'
p295
I0
sg110
g111
(S'\x07\xdf\x07\r\n5 \x00\x00\x00'
p296
tp297
Rp298
sS'in_reply_to_user_id'
p299
Nsb.