ccopy_reg
_reconstructor
p0
(ctweepy.models
Status
p1
c__builtin__
object
p2
Ntp3
Rp4
(dp5
S'favorited'
p6
I00
sS'contributors'
p7
NsS'truncated'
p8
I00
sS'text'
p9
V\u30b9\u30de\u30db\u306e\u30e9\u30a4\u30f3\uff11\u30f6\u6708\u3076\u308a\u306b\u958b\u3044\u305fw\u000a\u5e83\u544a\u796d\u308a\u308f\u308d\u305f
p10
sS'source_url'
p11
Vhttp://twitter.com
p12
sS'possibly_sensitive'
p13
I00
sS'in_reply_to_status_id'
p14
NsS'user'
p15
g0
(ctweepy.models
User
p16
g2
Ntp17
Rp18
(dp19
S'follow_request_sent'
p20
NsS'profile_use_background_image'
p21
I01
sS'profile_sidebar_fill_color'
p22
VDDEEF6
p23
sS'id'
p24
I215781281
sS'verified'
p25
I00
sS'profile_image_url_https'
p26
Vhttps://pbs.twimg.com/profile_images/593881934004031488/nwpcW-2p_normal.jpg
p27
sS'_json'
p28
(dp29
Vfollow_request_sent
p30
NsVprofile_use_background_image
p31
I01
sVdefault_profile_image
p32
I00
sVid
p33
I215781281
sVverified
p34
I00
sVprofile_image_url_https
p35
g27
sVprofile_sidebar_fill_color
p36
g23
sVprofile_text_color
p37
V333333
p38
sVfollowers_count
p39
I2842
sVprofile_sidebar_border_color
p40
VC0DEED
p41
sVid_str
p42
V215781281
p43
sVprofile_background_color
p44
VC0DEED
p45
sVlisted_count
p46
I27
sVprofile_background_image_url_https
p47
Vhttps://pbs.twimg.com/profile_background_images/376805099/_____.jpg
p48
sVutc_offset
p49
I32400
sVstatuses_count
p50
I36394
sVdescription
p51
NsVfriends_count
p52
I2805
sVlocation
p53
V
p54
sVprofile_link_color
p55
V236BC2
p56
sVprofile_image_url
p57
Vhttp://pbs.twimg.com/profile_images/593881934004031488/nwpcW-2p_normal.jpg
p58
sVfollowing
p59
NsVgeo_enabled
p60
I01
sVprofile_banner_url
p61
Vhttps://pbs.twimg.com/profile_banners/215781281/1428247542
p62
sVprofile_background_image_url
p63
Vhttp://pbs.twimg.com/profile_background_images/376805099/_____.jpg
p64
sVname
p65
V\uff81\uff6e\uff6f\uff8a\uff9f\uff70\uff20\u30b9\u30a4\u30b9\u306a\u3046
p66
sVlang
p67
Ven
p68
sVprofile_background_tile
p69
I01
sVfavourites_count
p70
I7568
sVscreen_name
p71
VTom_Takizawa
p72
sVnotifications
p73
NsVurl
p74
Vhttp://instagram.com/tom_takizawa
p75
sVcreated_at
p76
VSun Nov 14 22:09:38 +0000 2010
p77
sVcontributors_enabled
p78
I00
sVtime_zone
p79
VTokyo
p80
sVprotected
p81
I00
sVdefault_profile
p82
I00
sVis_translator
p83
I00
ssS'contributors_enabled'
p84
I00
sS'profile_text_color'
p85
g38
sS'followers_count'
p86
I2842
sS'profile_sidebar_border_color'
p87
g41
sS'location'
p88
g54
sS'default_profile_image'
p89
I00
sS'id_str'
p90
g43
sS'utc_offset'
p91
I32400
sS'statuses_count'
p92
I36394
sS'description'
p93
NsS'friends_count'
p94
I2805
sS'profile_link_color'
p95
g56
sS'profile_image_url'
p96
g58
sS'notifications'
p97
NsS'geo_enabled'
p98
I01
sS'profile_background_color'
p99
g45
sS'profile_banner_url'
p100
g62
sS'profile_background_image_url'
p101
g64
sS'name'
p102
g66
sS'lang'
p103
g68
sS'following'
p104
I00
sS'profile_background_tile'
p105
I01
sS'favourites_count'
p106
I7568
sS'screen_name'
p107
g72
sS'url'
p108
g75
sS'created_at'
p109
cdatetime
datetime
p110
(S'\x07\xda\x0b\x0e\x16\t&\x00\x00\x00'
p111
tp112
Rp113
sS'profile_background_image_url_https'
p114
g48
sS'time_zone'
p115
g80
sS'protected'
p116
I00
sS'default_profile'
p117
I00
sS'is_translator'
p118
I00
sS'listed_count'
p119
I27
sbsS'filter_level'
p120
Vlow
p121
sS'geo'
p122
Nsg24
I621041472410923009
sS'favorite_count'
p123
I0
sS'source'
p124
VTwitter Web Client
p125
sg103
Vja
p126
sS'author'
p127
g18
sS'in_reply_to_user_id_str'
p128
Nsg28
(dp129
Vcontributors
p130
NsVtruncated
p131
I00
sVtext
p132
V\u30b9\u30de\u30db\u306e\u30e9\u30a4\u30f3\uff11\u30f6\u6708\u3076\u308a\u306b\u958b\u3044\u305fw\u000a\u5e83\u544a\u796d\u308a\u308f\u308d\u305f
p133
sVin_reply_to_status_id
p134
Nsg33
I621041472410923009
sVfavorite_count
p135
I0
sVsource
p136
V<a href="http://twitter.com" rel="nofollow">Twitter Web Client</a>
p137
sVretweeted
p138
I00
sVcoordinates
p139
NsVtimestamp_ms
p140
V1436902800072
p141
sVentities
p142
(dp143
Vuser_mentions
p144
(lp145
sVsymbols
p146
(lp147
sVtrends
p148
(lp149
sVhashtags
p150
(lp151
sVurls
p152
(lp153
ssVin_reply_to_screen_name
p154
Nsg42
V621041472410923009
p155
sVretweet_count
p156
I0
sVin_reply_to_user_id
p157
NsVfavorited
p158
I00
sVuser
p159
g29
sVgeo
p160
NsVin_reply_to_user_id_str
p161
NsVpossibly_sensitive
p162
I00
sg67
g126
sg76
VTue Jul 14 19:40:00 +0000 2015
p163
sVfilter_level
p164
g121
sVin_reply_to_status_id_str
p165
NsVplace
p166
(dp167
Vfull_name
p168
VZurich, Switzerland
p169
sg74
Vhttps://api.twitter.com/1.1/geo/id/3acb748d0f1e9265.json
p170
sVcountry
p171
VSchweiz
p172
sVplace_type
p173
Vcity
p174
sVbounding_box
p175
(dp176
Vtype
p177
VPolygon
p178
sg139
(lp179
(lp180
(lp181
F8.448081
aF47.320183
aa(lp182
F8.448081
aF47.434721
aa(lp183
F8.625442
aF47.434721
aa(lp184
F8.625442
aF47.320183
aaassVcountry_code
p185
VCH
p186
sVattributes
p187
(dp188
sg33
V3acb748d0f1e9265
p189
sg65
VZurich
p190
sssS'coordinates'
p191
NsS'timestamp_ms'
p192
g141
sS'entities'
p193
g143
sS'in_reply_to_status_id_str'
p194
NsS'in_reply_to_screen_name'
p195
Nsg90
g155
sS'retweeted'
p196
I00
sS'place'
p197
g0
(ctweepy.models
Place
p198
g2
Ntp199
Rp200
(dp201
S'full_name'
p202
g169
sg108
g170
sS'country'
p203
g172
sS'place_type'
p204
g174
sS'bounding_box'
p205
g0
(ctweepy.models
BoundingBox
p206
g2
Ntp207
Rp208
(dp209
S'type'
p210
g178
sg191
g179
sbsS'country_code'
p211
g186
sS'attributes'
p212
g188
sg24
g189
sg102
g190
sbsS'retweet_count'
p213
I0
sg109
g110
(S'\x07\xdf\x07\x0e\x13(\x00\x00\x00\x00'
p214
tp215
Rp216
sS'in_reply_to_user_id'
p217
Nsb.