ccopy_reg
_reconstructor
p0
(ctweepy.models
Status
p1
c__builtin__
object
p2
Ntp3
Rp4
(dp5
S'favorited'
p6
I00
sS'contributors'
p7
NsS'truncated'
p8
I00
sS'text'
p9
VGUYS! \U0001f603 We're on @YouTube now! Ready? Set, GO! \U0001f4a5 Make sure to check it out and subscribe to our brand new channel! \U0001f389 https://t.co/efg3sHBhZE
p10
sS'source_url'
p11
Vhttp://twitter.com
p12
sS'possibly_sensitive'
p13
I00
sS'in_reply_to_status_id'
p14
NsS'user'
p15
g0
(ctweepy.models
User
p16
g2
Ntp17
Rp18
(dp19
S'follow_request_sent'
p20
NsS'profile_use_background_image'
p21
I01
sS'profile_sidebar_fill_color'
p22
VDDEEF6
p23
sS'id'
p24
I3130730819
sS'verified'
p25
I00
sS'profile_image_url_https'
p26
Vhttps://pbs.twimg.com/profile_images/584429687184695297/QP0F7Vkh_normal.jpg
p27
sS'_json'
p28
(dp29
Vfollow_request_sent
p30
NsVprofile_use_background_image
p31
I01
sVdefault_profile_image
p32
I00
sVid
p33
I3130730819
sVverified
p34
I00
sVprofile_image_url_https
p35
g27
sVprofile_sidebar_fill_color
p36
g23
sVprofile_text_color
p37
V333333
p38
sVfollowers_count
p39
I12
sVprofile_sidebar_border_color
p40
VC0DEED
p41
sVid_str
p42
V3130730819
p43
sVprofile_background_color
p44
VC0DEED
p45
sVlisted_count
p46
I0
sVprofile_background_image_url_https
p47
Vhttps://abs.twimg.com/images/themes/theme1/bg.png
p48
sVutc_offset
p49
NsVstatuses_count
p50
I7
sVdescription
p51
VHey guys! We're two actors/vloggers/weirdos from Switzerland traveling the whole world and stuff. Girl is called @shannonstaller and boy is @ninoruef
p52
sVfriends_count
p53
I3
sVlocation
p54
VSwitzerland
p55
sVprofile_link_color
p56
V0084B4
p57
sVprofile_image_url
p58
Vhttp://pbs.twimg.com/profile_images/584429687184695297/QP0F7Vkh_normal.jpg
p59
sVfollowing
p60
NsVgeo_enabled
p61
I01
sVprofile_banner_url
p62
Vhttps://pbs.twimg.com/profile_banners/3130730819/1428996939
p63
sVprofile_background_image_url
p64
Vhttp://abs.twimg.com/images/themes/theme1/bg.png
p65
sVname
p66
VFOLLOW THE TWO
p67
sVlang
p68
Ven
p69
sVprofile_background_tile
p70
I00
sVfavourites_count
p71
I5
sVscreen_name
p72
Vfollowthetwo
p73
sVnotifications
p74
NsVurl
p75
Vhttp://www.followthetwo.com
p76
sVcreated_at
p77
VTue Mar 31 12:47:35 +0000 2015
p78
sVcontributors_enabled
p79
I00
sVtime_zone
p80
NsVprotected
p81
I00
sVdefault_profile
p82
I01
sVis_translator
p83
I00
ssS'contributors_enabled'
p84
I00
sS'profile_text_color'
p85
g38
sS'followers_count'
p86
I12
sS'profile_sidebar_border_color'
p87
g41
sS'location'
p88
g55
sS'default_profile_image'
p89
I00
sS'id_str'
p90
g43
sS'utc_offset'
p91
NsS'statuses_count'
p92
I7
sS'description'
p93
g52
sS'friends_count'
p94
I3
sS'profile_link_color'
p95
g57
sS'profile_image_url'
p96
g59
sS'notifications'
p97
NsS'geo_enabled'
p98
I01
sS'profile_background_color'
p99
g45
sS'profile_banner_url'
p100
g63
sS'profile_background_image_url'
p101
g65
sS'name'
p102
g67
sS'lang'
p103
g69
sS'following'
p104
I00
sS'profile_background_tile'
p105
I00
sS'favourites_count'
p106
I5
sS'screen_name'
p107
g73
sS'url'
p108
g76
sS'created_at'
p109
cdatetime
datetime
p110
(S'\x07\xdf\x03\x1f\x0c/#\x00\x00\x00'
p111
tp112
Rp113
sS'profile_background_image_url_https'
p114
g48
sS'time_zone'
p115
NsS'protected'
p116
I00
sS'default_profile'
p117
I01
sS'is_translator'
p118
I00
sS'listed_count'
p119
I0
sbsS'filter_level'
p120
Vlow
p121
sS'geo'
p122
Nsg24
I619483915833708544
sS'favorite_count'
p123
I0
sS'source'
p124
VTwitter Web Client
p125
sg103
Ven
p126
sS'author'
p127
g18
sS'in_reply_to_user_id_str'
p128
Nsg28
(dp129
Vcontributors
p130
NsVtruncated
p131
I00
sVtext
p132
g10
sVin_reply_to_status_id
p133
Nsg33
I619483915833708544
sVfavorite_count
p134
I0
sVsource
p135
V<a href="http://twitter.com" rel="nofollow">Twitter Web Client</a>
p136
sVretweeted
p137
I00
sVcoordinates
p138
NsVtimestamp_ms
p139
V1436531449646
p140
sVentities
p141
(dp142
Vuser_mentions
p143
(lp144
(dp145
g33
I10228272
sVindices
p146
(lp147
I17
aI25
asg42
V10228272
p148
sg72
VYouTube
p149
sg66
VYouTube
p150
sasVsymbols
p151
(lp152
sVtrends
p153
(lp154
sVhashtags
p155
(lp156
sVurls
p157
(lp158
(dp159
g75
Vhttps://t.co/efg3sHBhZE
p160
sg146
(lp161
I117
aI140
asVexpanded_url
p162
Vhttps://youtu.be/oCeyFaN-V94
p163
sVdisplay_url
p164
Vyoutu.be/oCeyFaN-V94
p165
sassVin_reply_to_screen_name
p166
Nsg42
V619483915833708544
p167
sVretweet_count
p168
I0
sVin_reply_to_user_id
p169
NsVfavorited
p170
I00
sVuser
p171
g29
sVgeo
p172
NsVin_reply_to_user_id_str
p173
NsVpossibly_sensitive
p174
I00
sg68
g126
sg77
VFri Jul 10 12:30:49 +0000 2015
p175
sVfilter_level
p176
g121
sVin_reply_to_status_id_str
p177
NsVplace
p178
(dp179
Vfull_name
p180
VZurich, Switzerland
p181
sg75
Vhttps://api.twitter.com/1.1/geo/id/3acb748d0f1e9265.json
p182
sVcountry
p183
VSchweiz
p184
sVplace_type
p185
Vcity
p186
sVbounding_box
p187
(dp188
Vtype
p189
VPolygon
p190
sg138
(lp191
(lp192
(lp193
F8.448081
aF47.320183
aa(lp194
F8.448081
aF47.434721
aa(lp195
F8.625442
aF47.434721
aa(lp196
F8.625442
aF47.320183
aaassVcountry_code
p197
VCH
p198
sVattributes
p199
(dp200
sg33
V3acb748d0f1e9265
p201
sg66
VZurich
p202
sssS'coordinates'
p203
NsS'timestamp_ms'
p204
g140
sS'entities'
p205
g142
sS'in_reply_to_status_id_str'
p206
NsS'in_reply_to_screen_name'
p207
Nsg90
g167
sS'retweeted'
p208
I00
sS'place'
p209
g0
(ctweepy.models
Place
p210
g2
Ntp211
Rp212
(dp213
S'full_name'
p214
g181
sg108
g182
sS'country'
p215
g184
sS'place_type'
p216
g186
sS'bounding_box'
p217
g0
(ctweepy.models
BoundingBox
p218
g2
Ntp219
Rp220
(dp221
S'type'
p222
g190
sg203
g191
sbsS'country_code'
p223
g198
sS'attributes'
p224
g200
sg24
g201
sg102
g202
sbsS'retweet_count'
p225
I0
sg109
g110
(S'\x07\xdf\x07\n\x0c\x1e1\x00\x00\x00'
p226
tp227
Rp228
sS'in_reply_to_user_id'
p229
Nsb.