ccopy_reg
_reconstructor
p0
(ctweepy.models
Status
p1
c__builtin__
object
p2
Ntp3
Rp4
(dp5
S'favorited'
p6
I00
sS'contributors'
p7
NsS'truncated'
p8
I00
sS'text'
p9
VThere's a VERY good reason these islands were voted as being the world's most beautiful! #galapagos #swiss  https://t.co/BQrN96j180 #Ecuador
p10
sS'source_url'
p11
Vhttp://twitter.com
p12
sS'possibly_sensitive'
p13
I00
sS'in_reply_to_status_id'
p14
NsS'user'
p15
g0
(ctweepy.models
User
p16
g2
Ntp17
Rp18
(dp19
S'follow_request_sent'
p20
NsS'profile_use_background_image'
p21
I00
sS'profile_sidebar_fill_color'
p22
V000000
p23
sS'id'
p24
I2867975837
sS'verified'
p25
I00
sS'profile_image_url_https'
p26
Vhttps://pbs.twimg.com/profile_images/586355549106745345/BcguLjXh_normal.jpg
p27
sS'_json'
p28
(dp29
Vfollow_request_sent
p30
NsVprofile_use_background_image
p31
I00
sVdefault_profile_image
p32
I00
sVid
p33
I2867975837
sVverified
p34
I00
sVprofile_image_url_https
p35
g27
sVprofile_sidebar_fill_color
p36
g23
sVprofile_text_color
p37
V000000
p38
sVfollowers_count
p39
I27
sVprofile_sidebar_border_color
p40
V000000
p41
sVid_str
p42
V2867975837
p43
sVprofile_background_color
p44
V000000
p45
sVlisted_count
p46
I7
sVprofile_background_image_url_https
p47
Vhttps://abs.twimg.com/images/themes/theme1/bg.png
p48
sVutc_offset
p49
I7200
sVstatuses_count
p50
I351
sVdescription
p51
VArt /News/Travel
p52
sVfriends_count
p53
I15
sVlocation
p54
VEcuador-Swiss
p55
sVprofile_link_color
p56
V94D487
p57
sVprofile_image_url
p58
Vhttp://pbs.twimg.com/profile_images/586355549106745345/BcguLjXh_normal.jpg
p59
sVfollowing
p60
NsVgeo_enabled
p61
I01
sVprofile_banner_url
p62
Vhttps://pbs.twimg.com/profile_banners/2867975837/1424645046
p63
sVprofile_background_image_url
p64
Vhttp://abs.twimg.com/images/themes/theme1/bg.png
p65
sVname
p66
VEcuaculture
p67
sVlang
p68
Vfr
p69
sVprofile_background_tile
p70
I00
sVfavourites_count
p71
I6
sVscreen_name
p72
Vecuaculture
p73
sVnotifications
p74
NsVurl
p75
Vhttp://www.ecuaculture.com
p76
sVcreated_at
p77
VSat Nov 08 21:20:29 +0000 2014
p78
sVcontributors_enabled
p79
I00
sVtime_zone
p80
VLjubljana
p81
sVprotected
p82
I00
sVdefault_profile
p83
I00
sVis_translator
p84
I00
ssS'contributors_enabled'
p85
I00
sS'profile_text_color'
p86
g38
sS'followers_count'
p87
I27
sS'profile_sidebar_border_color'
p88
g41
sS'location'
p89
g55
sS'default_profile_image'
p90
I00
sS'id_str'
p91
g43
sS'utc_offset'
p92
I7200
sS'statuses_count'
p93
I351
sS'description'
p94
g52
sS'friends_count'
p95
I15
sS'profile_link_color'
p96
g57
sS'profile_image_url'
p97
g59
sS'notifications'
p98
NsS'geo_enabled'
p99
I01
sS'profile_background_color'
p100
g45
sS'profile_banner_url'
p101
g63
sS'profile_background_image_url'
p102
g65
sS'name'
p103
g67
sS'lang'
p104
g69
sS'following'
p105
I00
sS'profile_background_tile'
p106
I00
sS'favourites_count'
p107
I6
sS'screen_name'
p108
g73
sS'url'
p109
g76
sS'created_at'
p110
cdatetime
datetime
p111
(S'\x07\xde\x0b\x08\x15\x14\x1d\x00\x00\x00'
p112
tp113
Rp114
sS'profile_background_image_url_https'
p115
g48
sS'time_zone'
p116
g81
sS'protected'
p117
I00
sS'default_profile'
p118
I00
sS'is_translator'
p119
I00
sS'listed_count'
p120
I7
sbsS'filter_level'
p121
Vlow
p122
sS'geo'
p123
Nsg24
I621067974498234368
sS'favorite_count'
p124
I0
sS'source'
p125
VTwitter Web Client
p126
sg104
Ven
p127
sS'author'
p128
g18
sS'in_reply_to_user_id_str'
p129
Nsg28
(dp130
Vcontributors
p131
NsVtruncated
p132
I00
sVtext
p133
g10
sVin_reply_to_status_id
p134
Nsg33
I621067974498234368
sVfavorite_count
p135
I0
sVsource
p136
V<a href="http://twitter.com" rel="nofollow">Twitter Web Client</a>
p137
sVretweeted
p138
I00
sVcoordinates
p139
NsVtimestamp_ms
p140
V1436909118662
p141
sVentities
p142
(dp143
Vuser_mentions
p144
(lp145
sVsymbols
p146
(lp147
sVtrends
p148
(lp149
sVhashtags
p150
(lp151
(dp152
Vindices
p153
(lp154
I89
aI99
asg133
Vgalapagos
p155
sa(dp156
g153
(lp157
I100
aI106
asg133
Vswiss
p158
sa(dp159
g153
(lp160
I132
aI140
asg133
VEcuador
p161
sasVurls
p162
(lp163
(dp164
g75
Vhttps://t.co/BQrN96j180
p165
sg153
(lp166
I108
aI131
asVexpanded_url
p167
Vhttps://www.facebook.com/pages/Ecuaculture/409292775903809?fref=ts
p168
sVdisplay_url
p169
Vfacebook.com/pages/Ecuacult\u2026
p170
sassVin_reply_to_screen_name
p171
Nsg42
V621067974498234368
p172
sVretweet_count
p173
I0
sVin_reply_to_user_id
p174
NsVfavorited
p175
I00
sVuser
p176
g29
sVgeo
p177
NsVin_reply_to_user_id_str
p178
NsVpossibly_sensitive
p179
I00
sg68
g127
sg77
VTue Jul 14 21:25:18 +0000 2015
p180
sVfilter_level
p181
g122
sVin_reply_to_status_id_str
p182
NsVplace
p183
(dp184
Vfull_name
p185
VZurich, Suisse
p186
sg75
Vhttps://api.twitter.com/1.1/geo/id/3acb748d0f1e9265.json
p187
sVcountry
p188
VSchweiz
p189
sVplace_type
p190
Vcity
p191
sVbounding_box
p192
(dp193
Vtype
p194
VPolygon
p195
sg139
(lp196
(lp197
(lp198
F8.448081
aF47.320183
aa(lp199
F8.448081
aF47.434721
aa(lp200
F8.625442
aF47.434721
aa(lp201
F8.625442
aF47.320183
aaassVcountry_code
p202
VCH
p203
sVattributes
p204
(dp205
sg33
V3acb748d0f1e9265
p206
sg66
VZurich
p207
sssS'coordinates'
p208
NsS'timestamp_ms'
p209
g141
sS'entities'
p210
g143
sS'in_reply_to_status_id_str'
p211
NsS'in_reply_to_screen_name'
p212
Nsg91
g172
sS'retweeted'
p213
I00
sS'place'
p214
g0
(ctweepy.models
Place
p215
g2
Ntp216
Rp217
(dp218
S'full_name'
p219
g186
sg109
g187
sS'country'
p220
g189
sS'place_type'
p221
g191
sS'bounding_box'
p222
g0
(ctweepy.models
BoundingBox
p223
g2
Ntp224
Rp225
(dp226
S'type'
p227
g195
sg208
g196
sbsS'country_code'
p228
g203
sS'attributes'
p229
g205
sg24
g206
sg103
g207
sbsS'retweet_count'
p230
I0
sg110
g111
(S'\x07\xdf\x07\x0e\x15\x19\x12\x00\x00\x00'
p231
tp232
Rp233
sS'in_reply_to_user_id'
p234
Nsb.