ccopy_reg
_reconstructor
p0
(ctweepy.models
Status
p1
c__builtin__
object
p2
Ntp3
Rp4
(dp5
S'favorited'
p6
I00
sS'contributors'
p7
NsS'truncated'
p8
I00
sS'text'
p9
VInspiring: IAAS World Congress "How to feed the planet" #agriculture #food #research #science @Syngenta @IAAS_World http://t.co/Xk4jGKtO95
p10
sS'source_url'
p11
Vhttp://twitter.com/download/iphone
p12
sS'possibly_sensitive'
p13
I00
sS'in_reply_to_status_id'
p14
NsS'user'
p15
g0
(ctweepy.models
User
p16
g2
Ntp17
Rp18
(dp19
S'follow_request_sent'
p20
NsS'profile_use_background_image'
p21
I01
sS'profile_sidebar_fill_color'
p22
VF6F6F6
p23
sS'id'
p24
I44376201
sS'verified'
p25
I00
sS'profile_image_url_https'
p26
Vhttps://pbs.twimg.com/profile_images/537319889342431232/dNuIIPh4_normal.jpeg
p27
sS'_json'
p28
(dp29
Vfollow_request_sent
p30
NsVprofile_use_background_image
p31
I01
sVdefault_profile_image
p32
I00
sVid
p33
I44376201
sVverified
p34
I00
sVprofile_image_url_https
p35
g27
sVprofile_sidebar_fill_color
p36
g23
sVprofile_text_color
p37
V333333
p38
sVfollowers_count
p39
I4640
sVprofile_sidebar_border_color
p40
VFFFFFF
p41
sVid_str
p42
V44376201
p43
sVprofile_background_color
p44
VBADFCD
p45
sVlisted_count
p46
I10
sVprofile_background_image_url_https
p47
Vhttps://abs.twimg.com/images/themes/theme12/bg.gif
p48
sVutc_offset
p49
I7200
sVstatuses_count
p50
I378
sVdescription
p51
VDigital PR Strategist | Writer, Speaker, Coach | Multilingual International Communications :: Take it One Step Further \u2013 Create. Communicate. Inspire.
p52
sVfriends_count
p53
I319
sVlocation
p54
VZurich
p55
sVprofile_link_color
p56
VFA6A0A
p57
sVprofile_image_url
p58
Vhttp://pbs.twimg.com/profile_images/537319889342431232/dNuIIPh4_normal.jpeg
p59
sVfollowing
p60
NsVgeo_enabled
p61
I01
sVprofile_banner_url
p62
Vhttps://pbs.twimg.com/profile_banners/44376201/1398363115
p63
sVprofile_background_image_url
p64
Vhttp://abs.twimg.com/images/themes/theme12/bg.gif
p65
sVname
p66
VAngela M. Carlucci
p67
sVlang
p68
Ven
p69
sVprofile_background_tile
p70
I00
sVfavourites_count
p71
I189
sVscreen_name
p72
Vangelacarlucci
p73
sVnotifications
p74
NsVurl
p75
Vhttp://sintagma.com
p76
sVcreated_at
p77
VWed Jun 03 15:04:25 +0000 2009
p78
sVcontributors_enabled
p79
I00
sVtime_zone
p80
VRome
p81
sVprotected
p82
I00
sVdefault_profile
p83
I00
sVis_translator
p84
I00
ssS'contributors_enabled'
p85
I00
sS'profile_text_color'
p86
g38
sS'followers_count'
p87
I4640
sS'profile_sidebar_border_color'
p88
g41
sS'location'
p89
g55
sS'default_profile_image'
p90
I00
sS'id_str'
p91
g43
sS'utc_offset'
p92
I7200
sS'statuses_count'
p93
I378
sS'description'
p94
g52
sS'friends_count'
p95
I319
sS'profile_link_color'
p96
g57
sS'profile_image_url'
p97
g59
sS'notifications'
p98
NsS'geo_enabled'
p99
I01
sS'profile_background_color'
p100
g45
sS'profile_banner_url'
p101
g63
sS'profile_background_image_url'
p102
g65
sS'name'
p103
g67
sS'lang'
p104
g69
sS'following'
p105
I00
sS'profile_background_tile'
p106
I00
sS'favourites_count'
p107
I189
sS'screen_name'
p108
g73
sS'url'
p109
g76
sS'created_at'
p110
cdatetime
datetime
p111
(S'\x07\xd9\x06\x03\x0f\x04\x19\x00\x00\x00'
p112
tp113
Rp114
sS'profile_background_image_url_https'
p115
g48
sS'time_zone'
p116
g81
sS'protected'
p117
I00
sS'default_profile'
p118
I00
sS'is_translator'
p119
I00
sS'listed_count'
p120
I10
sbsS'filter_level'
p121
Vlow
p122
sS'geo'
p123
Nsg24
I621279167108268032
sS'favorite_count'
p124
I0
sS'source'
p125
VTwitter for iPhone
p126
sg104
Ven
p127
sS'author'
p128
g18
sS'in_reply_to_user_id_str'
p129
Nsg28
(dp130
Vcontributors
p131
NsVtruncated
p132
I00
sVtext
p133
g10
sVin_reply_to_status_id
p134
Nsg33
I621279167108268032
sVfavorite_count
p135
I0
sVsource
p136
V<a href="http://twitter.com/download/iphone" rel="nofollow">Twitter for iPhone</a>
p137
sVretweeted
p138
I00
sVcoordinates
p139
NsVtimestamp_ms
p140
V1436959470904
p141
sVentities
p142
(dp143
Vsymbols
p144
(lp145
sVmedia
p146
(lp147
(dp148
Vexpanded_url
p149
Vhttp://twitter.com/angelacarlucci/status/621279167108268032/photo/1
p150
sVdisplay_url
p151
Vpic.twitter.com/Xk4jGKtO95
p152
sg75
Vhttp://t.co/Xk4jGKtO95
p153
sVmedia_url_https
p154
Vhttps://pbs.twimg.com/media/CJ86GmAWoAAfroL.jpg
p155
sg42
V621279158556073984
p156
sVsizes
p157
(dp158
Vsmall
p159
(dp160
Vh
p161
I236
sVresize
p162
Vfit
p163
sVw
p164
I340
ssVlarge
p165
(dp166
g161
I565
sg162
Vfit
p167
sg164
I812
ssVmedium
p168
(dp169
g161
I417
sg162
Vfit
p170
sg164
I600
ssVthumb
p171
(dp172
g161
I150
sg162
Vcrop
p173
sg164
I150
sssVindices
p174
(lp175
I116
aI138
asVtype
p176
Vphoto
p177
sg33
I621279158556073984
sVmedia_url
p178
Vhttp://pbs.twimg.com/media/CJ86GmAWoAAfroL.jpg
p179
sasVhashtags
p180
(lp181
(dp182
g174
(lp183
I56
aI68
asg133
Vagriculture
p184
sa(dp185
g174
(lp186
I69
aI74
asg133
Vfood
p187
sa(dp188
g174
(lp189
I75
aI84
asg133
Vresearch
p190
sa(dp191
g174
(lp192
I85
aI93
asg133
Vscience
p193
sasVuser_mentions
p194
(lp195
(dp196
g33
I17488526
sg174
(lp197
I94
aI103
asg42
V17488526
p198
sg72
VSyngenta
p199
sg66
VSyngenta
p200
sa(dp201
g33
I231961021
sg174
(lp202
I104
aI115
asg42
V231961021
p203
sg72
VIAAS_World
p204
sg66
VIAAS International
p205
sasVtrends
p206
(lp207
sVurls
p208
(lp209
ssVin_reply_to_screen_name
p210
Nsg42
V621279167108268032
p211
sVretweet_count
p212
I0
sVin_reply_to_user_id
p213
NsVfavorited
p214
I00
sVuser
p215
g29
sVgeo
p216
NsVin_reply_to_user_id_str
p217
NsVpossibly_sensitive
p218
I00
sg68
g127
sg77
VWed Jul 15 11:24:30 +0000 2015
p219
sVfilter_level
p220
g122
sVin_reply_to_status_id_str
p221
NsVplace
p222
(dp223
Vfull_name
p224
VZurich, Switzerland
p225
sg75
Vhttps://api.twitter.com/1.1/geo/id/3acb748d0f1e9265.json
p226
sVcountry
p227
VSchweiz
p228
sVplace_type
p229
Vcity
p230
sVbounding_box
p231
(dp232
g176
VPolygon
p233
sg139
(lp234
(lp235
(lp236
F8.448081
aF47.320183
aa(lp237
F8.448081
aF47.434721
aa(lp238
F8.625442
aF47.434721
aa(lp239
F8.625442
aF47.320183
aaassVcountry_code
p240
VCH
p241
sVattributes
p242
(dp243
sg33
V3acb748d0f1e9265
p244
sg66
VZurich
p245
ssVextended_entities
p246
(dp247
g146
(lp248
(dp249
g149
Vhttp://twitter.com/angelacarlucci/status/621279167108268032/photo/1
p250
sg151
Vpic.twitter.com/Xk4jGKtO95
p251
sg75
Vhttp://t.co/Xk4jGKtO95
p252
sg154
Vhttps://pbs.twimg.com/media/CJ86GmAWoAAfroL.jpg
p253
sg42
V621279158556073984
p254
sg157
(dp255
g159
(dp256
g161
I236
sg162
Vfit
p257
sg164
I340
ssg165
(dp258
g161
I565
sg162
Vfit
p259
sg164
I812
ssg168
(dp260
g161
I417
sg162
Vfit
p261
sg164
I600
ssg171
(dp262
g161
I150
sg162
Vcrop
p263
sg164
I150
sssg174
(lp264
I116
aI138
asg176
Vphoto
p265
sg33
I621279158556073984
sg178
Vhttp://pbs.twimg.com/media/CJ86GmAWoAAfroL.jpg
p266
sasssS'coordinates'
p267
NsS'timestamp_ms'
p268
g141
sS'entities'
p269
g143
sS'in_reply_to_status_id_str'
p270
NsS'in_reply_to_screen_name'
p271
Nsg91
g211
sS'extended_entities'
p272
g247
sS'retweeted'
p273
I00
sS'place'
p274
g0
(ctweepy.models
Place
p275
g2
Ntp276
Rp277
(dp278
S'full_name'
p279
g225
sg109
g226
sS'country'
p280
g228
sS'place_type'
p281
g230
sS'bounding_box'
p282
g0
(ctweepy.models
BoundingBox
p283
g2
Ntp284
Rp285
(dp286
S'type'
p287
g233
sg267
g234
sbsS'country_code'
p288
g241
sS'attributes'
p289
g243
sg24
g244
sg103
g245
sbsS'retweet_count'
p290
I0
sg110
g111
(S'\x07\xdf\x07\x0f\x0b\x18\x1e\x00\x00\x00'
p291
tp292
Rp293
sS'in_reply_to_user_id'
p294
Nsb.