ccopy_reg
_reconstructor
p0
(ctweepy.models
Status
p1
c__builtin__
object
p2
Ntp3
Rp4
(dp5
S'favorited'
p6
I00
sS'contributors'
p7
NsS'truncated'
p8
I00
sS'text'
p9
V\u0644\u0627 \u062a\u0635\u0627\u0644\u062d\u000a\u000a\u0645\u0639\u0631\u0643\u0629 \u0627\u0644\u0641\u0631\u0642\u0627\u0646 : \u0627\u0644\u0641\u0627\u0635\u0644\u0629\u000a\u000a\u0648 \u0644\u0627 \u0635\u0648\u062a \u064a\u0639\u0644\u0648 \u0641\u0648\u0642 \u0635\u0648\u062a \u0627\u0644\u0645\u0642\u0627\u0648\u0645\u0629\u000a\u000ahttps://t.co/I0UFqcsQDW
p10
sS'source_url'
p11
Vhttp://twitter.com
p12
sS'possibly_sensitive'
p13
I00
sS'in_reply_to_status_id'
p14
NsS'user'
p15
g0
(ctweepy.models
User
p16
g2
Ntp17
Rp18
(dp19
S'follow_request_sent'
p20
NsS'profile_use_background_image'
p21
I01
sS'profile_sidebar_fill_color'
p22
VDDEEF6
p23
sS'id'
p24
I2661333835
sS'verified'
p25
I00
sS'profile_image_url_https'
p26
Vhttps://pbs.twimg.com/profile_images/618820259982630912/AwP3crJk_normal.jpg
p27
sS'_json'
p28
(dp29
Vfollow_request_sent
p30
NsVprofile_use_background_image
p31
I01
sVdefault_profile_image
p32
I00
sVid
p33
I2661333835
sVverified
p34
I00
sVprofile_image_url_https
p35
g27
sVprofile_sidebar_fill_color
p36
g23
sVprofile_text_color
p37
V333333
p38
sVfollowers_count
p39
I2
sVprofile_sidebar_border_color
p40
VC0DEED
p41
sVid_str
p42
V2661333835
p43
sVprofile_background_color
p44
VC0DEED
p45
sVlisted_count
p46
I0
sVprofile_background_image_url_https
p47
Vhttps://abs.twimg.com/images/themes/theme1/bg.png
p48
sVutc_offset
p49
NsVstatuses_count
p50
I181
sVdescription
p51
NsVfriends_count
p52
I16
sVlocation
p53
V
p54
sVprofile_link_color
p55
V0084B4
p56
sVprofile_image_url
p57
Vhttp://pbs.twimg.com/profile_images/618820259982630912/AwP3crJk_normal.jpg
p58
sVfollowing
p59
NsVgeo_enabled
p60
I01
sVprofile_banner_url
p61
Vhttps://pbs.twimg.com/profile_banners/2661333835/1436373197
p62
sVprofile_background_image_url
p63
Vhttp://abs.twimg.com/images/themes/theme1/bg.png
p64
sVname
p65
VHosni Guermassi
p66
sVlang
p67
Vfr
p68
sVprofile_background_tile
p69
I00
sVfavourites_count
p70
I1
sVscreen_name
p71
Vzohramoud
p72
sVnotifications
p73
NsVurl
p74
NsVcreated_at
p75
VSun Jul 20 02:10:18 +0000 2014
p76
sVcontributors_enabled
p77
I00
sVtime_zone
p78
NsVprotected
p79
I00
sVdefault_profile
p80
I01
sVis_translator
p81
I00
ssS'contributors_enabled'
p82
I00
sS'profile_text_color'
p83
g38
sS'followers_count'
p84
I2
sS'profile_sidebar_border_color'
p85
g41
sS'location'
p86
g54
sS'default_profile_image'
p87
I00
sS'id_str'
p88
g43
sS'utc_offset'
p89
NsS'statuses_count'
p90
I181
sS'description'
p91
NsS'friends_count'
p92
I16
sS'profile_link_color'
p93
g56
sS'profile_image_url'
p94
g58
sS'notifications'
p95
NsS'geo_enabled'
p96
I01
sS'profile_background_color'
p97
g45
sS'profile_banner_url'
p98
g62
sS'profile_background_image_url'
p99
g64
sS'name'
p100
g66
sS'lang'
p101
g68
sS'following'
p102
I00
sS'profile_background_tile'
p103
I00
sS'favourites_count'
p104
I1
sS'screen_name'
p105
g72
sS'url'
p106
NsS'created_at'
p107
cdatetime
datetime
p108
(S'\x07\xde\x07\x14\x02\n\x12\x00\x00\x00'
p109
tp110
Rp111
sS'profile_background_image_url_https'
p112
g48
sS'time_zone'
p113
NsS'protected'
p114
I00
sS'default_profile'
p115
I01
sS'is_translator'
p116
I00
sS'listed_count'
p117
I0
sbsS'filter_level'
p118
Vlow
p119
sS'geo'
p120
Nsg24
I618942508987469825
sS'favorite_count'
p121
I0
sS'source'
p122
VTwitter Web Client
p123
sg101
Var
p124
sS'author'
p125
g18
sS'in_reply_to_user_id_str'
p126
Nsg28
(dp127
Vcontributors
p128
NsVtruncated
p129
I00
sVtext
p130
V\u0644\u0627 \u062a\u0635\u0627\u0644\u062d\u000a\u000a\u0645\u0639\u0631\u0643\u0629 \u0627\u0644\u0641\u0631\u0642\u0627\u0646 : \u0627\u0644\u0641\u0627\u0635\u0644\u0629\u000a\u000a\u0648 \u0644\u0627 \u0635\u0648\u062a \u064a\u0639\u0644\u0648 \u0641\u0648\u0642 \u0635\u0648\u062a \u0627\u0644\u0645\u0642\u0627\u0648\u0645\u0629\u000a\u000ahttps://t.co/I0UFqcsQDW
p131
sVin_reply_to_status_id
p132
Nsg33
I618942508987469825
sVfavorite_count
p133
I0
sVsource
p134
V<a href="http://twitter.com" rel="nofollow">Twitter Web Client</a>
p135
sVretweeted
p136
I00
sVcoordinates
p137
NsVtimestamp_ms
p138
V1436402368195
p139
sVentities
p140
(dp141
Vuser_mentions
p142
(lp143
sVsymbols
p144
(lp145
sVtrends
p146
(lp147
sVhashtags
p148
(lp149
sVurls
p150
(lp151
(dp152
g74
Vhttps://t.co/I0UFqcsQDW
p153
sVindices
p154
(lp155
I67
aI90
asVexpanded_url
p156
Vhttps://www.youtube.com/watch?t=36&v=LGClNkBPU4Q
p157
sVdisplay_url
p158
Vyoutube.com/watch?t=36&v=L\u2026
p159
sassVin_reply_to_screen_name
p160
Nsg42
V618942508987469825
p161
sVretweet_count
p162
I0
sVin_reply_to_user_id
p163
NsVfavorited
p164
I00
sVuser
p165
g29
sVgeo
p166
NsVin_reply_to_user_id_str
p167
NsVpossibly_sensitive
p168
I00
sg67
g124
sg75
VThu Jul 09 00:39:28 +0000 2015
p169
sVfilter_level
p170
g119
sVin_reply_to_status_id_str
p171
NsVplace
p172
(dp173
Vfull_name
p174
VArgovie, Suisse
p175
sg74
Vhttps://api.twitter.com/1.1/geo/id/64c89c3f0e8b8b2e.json
p176
sVcountry
p177
VSchweiz
p178
sVplace_type
p179
Vadmin
p180
sVbounding_box
p181
(dp182
Vtype
p183
VPolygon
p184
sg137
(lp185
(lp186
(lp187
F7.713449
aF47.137443
aa(lp188
F7.713449
aF47.621039
aa(lp189
F8.455222
aF47.621039
aa(lp190
F8.455222
aF47.137443
aaassVcountry_code
p191
VCH
p192
sVattributes
p193
(dp194
sg33
V64c89c3f0e8b8b2e
p195
sg65
VArgovie
p196
sssS'coordinates'
p197
NsS'timestamp_ms'
p198
g139
sS'entities'
p199
g141
sS'in_reply_to_status_id_str'
p200
NsS'in_reply_to_screen_name'
p201
Nsg88
g161
sS'retweeted'
p202
I00
sS'place'
p203
g0
(ctweepy.models
Place
p204
g2
Ntp205
Rp206
(dp207
S'full_name'
p208
g175
sg106
g176
sS'country'
p209
g178
sS'place_type'
p210
g180
sS'bounding_box'
p211
g0
(ctweepy.models
BoundingBox
p212
g2
Ntp213
Rp214
(dp215
S'type'
p216
g184
sg197
g185
sbsS'country_code'
p217
g192
sS'attributes'
p218
g194
sg24
g195
sg100
g196
sbsS'retweet_count'
p219
I0
sg107
g108
(S"\x07\xdf\x07\t\x00'\x1c\x00\x00\x00"
p220
tp221
Rp222
sS'in_reply_to_user_id'
p223
Nsb.