ccopy_reg
_reconstructor
p0
(ctweepy.models
Status
p1
c__builtin__
object
p2
Ntp3
Rp4
(dp5
S'favorited'
p6
I00
sS'contributors'
p7
NsS'truncated'
p8
I00
sS'text'
p9
Vhttp://t.co/vtBm99SJxL
p10
sS'source_url'
p11
Vhttp://twitter.com
p12
sS'possibly_sensitive'
p13
I00
sS'in_reply_to_status_id'
p14
NsS'user'
p15
g0
(ctweepy.models
User
p16
g2
Ntp17
Rp18
(dp19
S'follow_request_sent'
p20
NsS'profile_use_background_image'
p21
I01
sS'profile_sidebar_fill_color'
p22
VDDEEF6
p23
sS'id'
p24
I924059480
sS'verified'
p25
I00
sS'profile_image_url_https'
p26
Vhttps://pbs.twimg.com/profile_images/557864182692212737/4iKLt0cn_normal.jpeg
p27
sS'_json'
p28
(dp29
Vfollow_request_sent
p30
NsVprofile_use_background_image
p31
I01
sVdefault_profile_image
p32
I00
sVid
p33
I924059480
sVverified
p34
I00
sVprofile_image_url_https
p35
g27
sVprofile_sidebar_fill_color
p36
g23
sVprofile_text_color
p37
V333333
p38
sVfollowers_count
p39
I709
sVprofile_sidebar_border_color
p40
VC0DEED
p41
sVid_str
p42
V924059480
p43
sVprofile_background_color
p44
VC0DEED
p45
sVlisted_count
p46
I19
sVprofile_background_image_url_https
p47
Vhttps://abs.twimg.com/images/themes/theme1/bg.png
p48
sVutc_offset
p49
I-36000
sVstatuses_count
p50
I28710
sVdescription
p51
VGuy from switzerland who likes football, games (mostly LoL), mlp and other stuff. bi, 23 years old and single Private account:@Priv_Elondras Skype: Elondras
p52
sVfriends_count
p53
I512
sVlocation
p54
VSchweiz
p55
sVprofile_link_color
p56
V0084B4
p57
sVprofile_image_url
p58
Vhttp://pbs.twimg.com/profile_images/557864182692212737/4iKLt0cn_normal.jpeg
p59
sVfollowing
p60
NsVgeo_enabled
p61
I01
sVprofile_banner_url
p62
Vhttps://pbs.twimg.com/profile_banners/924059480/1421315927
p63
sVprofile_background_image_url
p64
Vhttp://abs.twimg.com/images/themes/theme1/bg.png
p65
sVname
p66
VElondras
p67
sVlang
p68
Ven
p69
sVprofile_background_tile
p70
I00
sVfavourites_count
p71
I6266
sVscreen_name
p72
VElondras
p73
sVnotifications
p74
NsVurl
p75
Vhttp://www.youtube.com/user/Elondras?feature=watch
p76
sVcreated_at
p77
VSat Nov 03 21:22:00 +0000 2012
p78
sVcontributors_enabled
p79
I00
sVtime_zone
p80
VHawaii
p81
sVprotected
p82
I00
sVdefault_profile
p83
I01
sVis_translator
p84
I00
ssS'contributors_enabled'
p85
I00
sS'profile_text_color'
p86
g38
sS'followers_count'
p87
I709
sS'profile_sidebar_border_color'
p88
g41
sS'location'
p89
g55
sS'default_profile_image'
p90
I00
sS'id_str'
p91
g43
sS'utc_offset'
p92
I-36000
sS'statuses_count'
p93
I28710
sS'description'
p94
g52
sS'friends_count'
p95
I512
sS'profile_link_color'
p96
g57
sS'profile_image_url'
p97
g59
sS'notifications'
p98
NsS'geo_enabled'
p99
I01
sS'profile_background_color'
p100
g45
sS'profile_banner_url'
p101
g63
sS'profile_background_image_url'
p102
g65
sS'name'
p103
g67
sS'lang'
p104
g69
sS'following'
p105
I00
sS'profile_background_tile'
p106
I00
sS'favourites_count'
p107
I6266
sS'screen_name'
p108
g73
sS'url'
p109
g76
sS'created_at'
p110
cdatetime
datetime
p111
(S'\x07\xdc\x0b\x03\x15\x16\x00\x00\x00\x00'
p112
tp113
Rp114
sS'profile_background_image_url_https'
p115
g48
sS'time_zone'
p116
g81
sS'protected'
p117
I00
sS'default_profile'
p118
I01
sS'is_translator'
p119
I00
sS'listed_count'
p120
I19
sbsS'filter_level'
p121
Vlow
p122
sS'geo'
p123
Nsg24
I620839514492145668
sS'favorite_count'
p124
I0
sS'source'
p125
VTwitter Web Client
p126
sg104
Vund
p127
sS'author'
p128
g18
sS'in_reply_to_user_id_str'
p129
Nsg28
(dp130
Vcontributors
p131
NsVtruncated
p132
I00
sVtext
p133
g10
sVin_reply_to_status_id
p134
Nsg33
I620839514492145668
sVfavorite_count
p135
I0
sVsource
p136
V<a href="http://twitter.com" rel="nofollow">Twitter Web Client</a>
p137
sVretweeted
p138
I00
sVcoordinates
p139
NsVtimestamp_ms
p140
V1436854649552
p141
sVentities
p142
(dp143
Vsymbols
p144
(lp145
sVmedia
p146
(lp147
(dp148
Vexpanded_url
p149
Vhttp://twitter.com/Elondras/status/620839514492145668/photo/1
p150
sVdisplay_url
p151
Vpic.twitter.com/vtBm99SJxL
p152
sg75
Vhttp://t.co/vtBm99SJxL
p153
sVmedia_url_https
p154
Vhttps://pbs.twimg.com/media/CJ2qP4rUYAA3hIi.jpg
p155
sg42
V620839513535832064
p156
sVsizes
p157
(dp158
Vsmall
p159
(dp160
Vh
p161
I223
sVresize
p162
Vfit
p163
sVw
p164
I340
ssVlarge
p165
(dp166
g161
I363
sg162
Vfit
p167
sg164
I552
ssVmedium
p168
(dp169
g161
I363
sg162
Vfit
p170
sg164
I552
ssVthumb
p171
(dp172
g161
I150
sg162
Vcrop
p173
sg164
I150
sssVindices
p174
(lp175
I0
aI22
asVtype
p176
Vphoto
p177
sg33
I620839513535832064
sVmedia_url
p178
Vhttp://pbs.twimg.com/media/CJ2qP4rUYAA3hIi.jpg
p179
sasVhashtags
p180
(lp181
sVuser_mentions
p182
(lp183
sVtrends
p184
(lp185
sVurls
p186
(lp187
ssVin_reply_to_screen_name
p188
Nsg42
V620839514492145668
p189
sVretweet_count
p190
I0
sVin_reply_to_user_id
p191
NsVfavorited
p192
I00
sVuser
p193
g29
sVgeo
p194
NsVin_reply_to_user_id_str
p195
NsVpossibly_sensitive
p196
I00
sg68
g127
sg77
VTue Jul 14 06:17:29 +0000 2015
p197
sVfilter_level
p198
g122
sVin_reply_to_status_id_str
p199
NsVplace
p200
(dp201
Vfull_name
p202
VZurich, Switzerland
p203
sg75
Vhttps://api.twitter.com/1.1/geo/id/3acb748d0f1e9265.json
p204
sVcountry
p205
VSchweiz
p206
sVplace_type
p207
Vcity
p208
sVbounding_box
p209
(dp210
g176
VPolygon
p211
sg139
(lp212
(lp213
(lp214
F8.448081
aF47.320183
aa(lp215
F8.448081
aF47.434721
aa(lp216
F8.625442
aF47.434721
aa(lp217
F8.625442
aF47.320183
aaassVcountry_code
p218
VCH
p219
sVattributes
p220
(dp221
sg33
V3acb748d0f1e9265
p222
sg66
VZurich
p223
ssVextended_entities
p224
(dp225
g146
(lp226
(dp227
g149
Vhttp://twitter.com/Elondras/status/620839514492145668/photo/1
p228
sg151
Vpic.twitter.com/vtBm99SJxL
p229
sg75
Vhttp://t.co/vtBm99SJxL
p230
sg154
Vhttps://pbs.twimg.com/media/CJ2qP4rUYAA3hIi.jpg
p231
sg42
V620839513535832064
p232
sg157
(dp233
g159
(dp234
g161
I223
sg162
Vfit
p235
sg164
I340
ssg165
(dp236
g161
I363
sg162
Vfit
p237
sg164
I552
ssg168
(dp238
g161
I363
sg162
Vfit
p239
sg164
I552
ssg171
(dp240
g161
I150
sg162
Vcrop
p241
sg164
I150
sssg174
(lp242
I0
aI22
asg176
Vphoto
p243
sg33
I620839513535832064
sg178
Vhttp://pbs.twimg.com/media/CJ2qP4rUYAA3hIi.jpg
p244
sasssS'coordinates'
p245
NsS'timestamp_ms'
p246
g141
sS'entities'
p247
g143
sS'in_reply_to_status_id_str'
p248
NsS'in_reply_to_screen_name'
p249
Nsg91
g189
sS'extended_entities'
p250
g225
sS'retweeted'
p251
I00
sS'place'
p252
g0
(ctweepy.models
Place
p253
g2
Ntp254
Rp255
(dp256
S'full_name'
p257
g203
sg109
g204
sS'country'
p258
g206
sS'place_type'
p259
g208
sS'bounding_box'
p260
g0
(ctweepy.models
BoundingBox
p261
g2
Ntp262
Rp263
(dp264
S'type'
p265
g211
sg245
g212
sbsS'country_code'
p266
g219
sS'attributes'
p267
g221
sg24
g222
sg103
g223
sbsS'retweet_count'
p268
I0
sg110
g111
(S'\x07\xdf\x07\x0e\x06\x11\x1d\x00\x00\x00'
p269
tp270
Rp271
sS'in_reply_to_user_id'
p272
Nsb.