ccopy_reg
_reconstructor
p0
(ctweepy.models
Status
p1
c__builtin__
object
p2
Ntp3
Rp4
(dp5
S'favorited'
p6
I00
sS'contributors'
p7
NsS'truncated'
p8
I00
sS'text'
p9
Vnote the sarcasm lol
p10
sS'source_url'
p11
Vhttp://twitter.com
p12
sS'possibly_sensitive'
p13
I01
sS'in_reply_to_status_id'
p14
I620538046417604608
sS'user'
p15
g0
(ctweepy.models
User
p16
g2
Ntp17
Rp18
(dp19
S'follow_request_sent'
p20
NsS'profile_use_background_image'
p21
I01
sS'profile_sidebar_fill_color'
p22
V000000
p23
sS'id'
p24
I1626918325
sS'verified'
p25
I00
sS'profile_image_url_https'
p26
Vhttps://pbs.twimg.com/profile_images/613610043116814336/INXlfMS2_normal.jpg
p27
sS'_json'
p28
(dp29
Vfollow_request_sent
p30
NsVprofile_use_background_image
p31
I01
sVdefault_profile_image
p32
I00
sVid
p33
I1626918325
sVverified
p34
I00
sVprofile_image_url_https
p35
g27
sVprofile_sidebar_fill_color
p36
g23
sVprofile_text_color
p37
V000000
p38
sVfollowers_count
p39
I523
sVprofile_sidebar_border_color
p40
V000000
p41
sVid_str
p42
V1626918325
p43
sVprofile_background_color
p44
V1A1B1F
p45
sVlisted_count
p46
I1
sVprofile_background_image_url_https
p47
Vhttps://pbs.twimg.com/profile_background_images/590128056750112769/-ckoUD3K.jpg
p48
sVutc_offset
p49
I7200
sVstatuses_count
p50
I9856
sVdescription
p51
NsVfriends_count
p52
I201
sVlocation
p53
V
p54
sVprofile_link_color
p55
V2FC2EF
p56
sVprofile_image_url
p57
Vhttp://pbs.twimg.com/profile_images/613610043116814336/INXlfMS2_normal.jpg
p58
sVfollowing
p59
NsVgeo_enabled
p60
I01
sVprofile_banner_url
p61
Vhttps://pbs.twimg.com/profile_banners/1626918325/1435131026
p62
sVprofile_background_image_url
p63
Vhttp://pbs.twimg.com/profile_background_images/590128056750112769/-ckoUD3K.jpg
p64
sVname
p65
VSchweiz
p66
sVlang
p67
Ven
p68
sVprofile_background_tile
p69
I00
sVfavourites_count
p70
I11353
sVscreen_name
p71
Vmariellapola
p72
sVnotifications
p73
NsVurl
p74
NsVcreated_at
p75
VSun Jul 28 03:09:37 +0000 2013
p76
sVcontributors_enabled
p77
I00
sVtime_zone
p78
VBern
p79
sVprotected
p80
I00
sVdefault_profile
p81
I00
sVis_translator
p82
I00
ssS'contributors_enabled'
p83
I00
sS'profile_text_color'
p84
g38
sS'followers_count'
p85
I523
sS'profile_sidebar_border_color'
p86
g41
sS'location'
p87
g54
sS'default_profile_image'
p88
I00
sS'id_str'
p89
g43
sS'utc_offset'
p90
I7200
sS'statuses_count'
p91
I9856
sS'description'
p92
NsS'friends_count'
p93
I201
sS'profile_link_color'
p94
g56
sS'profile_image_url'
p95
g58
sS'notifications'
p96
NsS'geo_enabled'
p97
I01
sS'profile_background_color'
p98
g45
sS'profile_banner_url'
p99
g62
sS'profile_background_image_url'
p100
g64
sS'name'
p101
g66
sS'lang'
p102
g68
sS'following'
p103
I00
sS'profile_background_tile'
p104
I00
sS'favourites_count'
p105
I11353
sS'screen_name'
p106
g72
sS'url'
p107
NsS'created_at'
p108
cdatetime
datetime
p109
(S'\x07\xdd\x07\x1c\x03\t%\x00\x00\x00'
p110
tp111
Rp112
sS'profile_background_image_url_https'
p113
g48
sS'time_zone'
p114
g79
sS'protected'
p115
I00
sS'default_profile'
p116
I00
sS'is_translator'
p117
I00
sS'listed_count'
p118
I1
sbsS'filter_level'
p119
Vlow
p120
sS'geo'
p121
Nsg24
I620538086338990080
sS'favorite_count'
p122
I0
sS'source'
p123
VTwitter Web Client
p124
sg102
Ven
p125
sS'author'
p126
g18
sS'in_reply_to_user_id_str'
p127
V1626918325
p128
sg28
(dp129
Vcontributors
p130
NsVtruncated
p131
I00
sVtext
p132
g10
sVin_reply_to_status_id
p133
I620538046417604608
sg33
I620538086338990080
sVfavorite_count
p134
I0
sVsource
p135
V<a href="http://twitter.com" rel="nofollow">Twitter Web Client</a>
p136
sVretweeted
p137
I00
sVcoordinates
p138
NsVtimestamp_ms
p139
V1436782783480
p140
sVentities
p141
(dp142
Vuser_mentions
p143
(lp144
sVsymbols
p145
(lp146
sVtrends
p147
(lp148
sVhashtags
p149
(lp150
sVurls
p151
(lp152
ssVin_reply_to_screen_name
p153
Vmariellapola
p154
sg42
V620538086338990080
p155
sVretweet_count
p156
I0
sVin_reply_to_user_id
p157
I1626918325
sVfavorited
p158
I00
sVuser
p159
g29
sVgeo
p160
NsVin_reply_to_user_id_str
p161
g128
sVpossibly_sensitive
p162
I01
sg67
g125
sg75
VMon Jul 13 10:19:43 +0000 2015
p163
sVfilter_level
p164
g120
sVin_reply_to_status_id_str
p165
V620538046417604608
p166
sVplace
p167
(dp168
Vfull_name
p169
VZurich, Switzerland
p170
sg74
Vhttps://api.twitter.com/1.1/geo/id/3acb748d0f1e9265.json
p171
sVcountry
p172
VSchweiz
p173
sVplace_type
p174
Vcity
p175
sVbounding_box
p176
(dp177
Vtype
p178
VPolygon
p179
sg138
(lp180
(lp181
(lp182
F8.448081
aF47.320183
aa(lp183
F8.448081
aF47.434721
aa(lp184
F8.625442
aF47.434721
aa(lp185
F8.625442
aF47.320183
aaassVcountry_code
p186
VCH
p187
sVattributes
p188
(dp189
sg33
V3acb748d0f1e9265
p190
sg65
VZurich
p191
sssS'coordinates'
p192
NsS'timestamp_ms'
p193
g140
sS'entities'
p194
g142
sS'in_reply_to_status_id_str'
p195
g166
sS'in_reply_to_screen_name'
p196
g154
sg89
g155
sS'retweeted'
p197
I00
sS'place'
p198
g0
(ctweepy.models
Place
p199
g2
Ntp200
Rp201
(dp202
S'full_name'
p203
g170
sg107
g171
sS'country'
p204
g173
sS'place_type'
p205
g175
sS'bounding_box'
p206
g0
(ctweepy.models
BoundingBox
p207
g2
Ntp208
Rp209
(dp210
S'type'
p211
g179
sg192
g180
sbsS'country_code'
p212
g187
sS'attributes'
p213
g189
sg24
g190
sg101
g191
sbsS'retweet_count'
p214
I0
sg108
g109
(S'\x07\xdf\x07\r\n\x13+\x00\x00\x00'
p215
tp216
Rp217
sS'in_reply_to_user_id'
p218
I1626918325
sb.