ccopy_reg
_reconstructor
p0
(ctweepy.models
Status
p1
c__builtin__
object
p2
Ntp3
Rp4
(dp5
S'contributors'
p6
NsS'truncated'
p7
I00
sS'text'
p8
VShocking  https://t.co/yWN9dUZim7
p9
sS'in_reply_to_status_id'
p10
NsS'id'
p11
I618844302135959552
sS'favorite_count'
p12
I0
sS'entities'
p13
(dp14
Vuser_mentions
p15
(lp16
sVsymbols
p17
(lp18
sVtrends
p19
(lp20
sVhashtags
p21
(lp22
sVurls
p23
(lp24
(dp25
Vurl
p26
Vhttps://t.co/yWN9dUZim7
p27
sVindices
p28
(lp29
I10
aI33
asVexpanded_url
p30
Vhttps://twitter.com/politico/status/618843259025141760
p31
sVdisplay_url
p32
Vtwitter.com/politico/statu\u2026
p33
sassS'quoted_status_id'
p34
I618843259025141760
sS'_json'
p35
(dp36
Vcontributors
p37
NsVtruncated
p38
I00
sVtext
p39
g9
sVin_reply_to_status_id
p40
NsVid
p41
I618844302135959552
sVfavorite_count
p42
I0
sVsource
p43
V<a href="http://twitter.com/download/iphone" rel="nofollow">Twitter for iPhone</a>
p44
sVquoted_status_id
p45
I618843259025141760
sVretweeted
p46
I00
sVcoordinates
p47
NsVtimestamp_ms
p48
V1436378953857
p49
sVquoted_status
p50
(dp51
g37
Nsg38
I00
sg39
VObama said to put odds of an Iran deal at 'less than 50-50' http://t.co/wCKjZTKp61 | Getty http://t.co/ox0Oenbtp1
p52
sg40
Nsg41
I618843259025141760
sg42
I0
sg43
V<a href="http://www.socialflow.com" rel="nofollow">SocialFlow</a>
p53
sg46
I00
sg47
NsVentities
p54
(dp55
g17
(lp56
sVmedia
p57
(lp58
(dp59
g30
Vhttp://twitter.com/politico/status/618843259025141760/photo/1
p60
sg32
Vpic.twitter.com/ox0Oenbtp1
p61
sg26
Vhttp://t.co/ox0Oenbtp1
p62
sVmedia_url_https
p63
Vhttps://pbs.twimg.com/media/CJaSqjFWEAAv9X5.jpg
p64
sVid_str
p65
V618843258479841280
p66
sVsizes
p67
(dp68
Vlarge
p69
(dp70
Vh
p71
I519
sVresize
p72
Vfit
p73
sVw
p74
I956
ssVsmall
p75
(dp76
g71
I184
sg72
Vfit
p77
sg74
I340
ssVmedium
p78
(dp79
g71
I325
sg72
Vfit
p80
sg74
I600
ssVthumb
p81
(dp82
g71
I150
sg72
Vcrop
p83
sg74
I150
sssg28
(lp84
I91
aI113
asVtype
p85
Vphoto
p86
sg41
I618843258479841280
sVmedia_url
p87
Vhttp://pbs.twimg.com/media/CJaSqjFWEAAv9X5.jpg
p88
sasg21
(lp89
sg15
(lp90
sg19
(lp91
sg23
(lp92
(dp93
g26
Vhttp://t.co/wCKjZTKp61
p94
sg28
(lp95
I60
aI82
asg30
Vhttp://politi.co/1JPxpqn
p96
sg32
Vpoliti.co/1JPxpqn
p97
sassVin_reply_to_screen_name
p98
Nsg65
V618843259025141760
p99
sVretweet_count
p100
I0
sVin_reply_to_user_id
p101
NsVfavorited
p102
I00
sVuser
p103
(dp104
Vfollow_request_sent
p105
NsVprofile_use_background_image
p106
I00
sVdefault_profile_image
p107
I00
sg41
I9300262
sVverified
p108
I01
sVprofile_image_url_https
p109
Vhttps://pbs.twimg.com/profile_images/378800000671090749/bd9d151b66dddabbb58ddc92b81cecb1_normal.jpeg
p110
sVprofile_sidebar_fill_color
p111
VDDEEF6
p112
sVprofile_text_color
p113
V333333
p114
sVfollowers_count
p115
I1195881
sVprofile_sidebar_border_color
p116
VFFFFFF
p117
sg65
V9300262
p118
sVprofile_background_color
p119
VE6E6E6
p120
sVlisted_count
p121
I25495
sVprofile_background_image_url_https
p122
Vhttps://pbs.twimg.com/profile_background_images/796212188/bbdc5e3f7842b5b33f418ac5bc9685ee.jpeg
p123
sVutc_offset
p124
I-14400
sVstatuses_count
p125
I114554
sVdescription
p126
VNobody knows politics like POLITICO.
p127
sVfriends_count
p128
I1004
sVlocation
p129
VWashington, D.C.
p130
sVprofile_link_color
p131
VDD2E44
p132
sVprofile_image_url
p133
Vhttp://pbs.twimg.com/profile_images/378800000671090749/bd9d151b66dddabbb58ddc92b81cecb1_normal.jpeg
p134
sVfollowing
p135
NsVgeo_enabled
p136
I00
sVprofile_banner_url
p137
Vhttps://pbs.twimg.com/profile_banners/9300262/1434995053
p138
sVprofile_background_image_url
p139
Vhttp://pbs.twimg.com/profile_background_images/796212188/bbdc5e3f7842b5b33f418ac5bc9685ee.jpeg
p140
sVname
p141
VPOLITICO
p142
sVlang
p143
Ven
p144
sVprofile_background_tile
p145
I01
sVfavourites_count
p146
I0
sVscreen_name
p147
Vpolitico
p148
sVnotifications
p149
Nsg26
Vhttp://www.politico.com
p150
sVcreated_at
p151
VMon Oct 08 00:29:38 +0000 2007
p152
sVcontributors_enabled
p153
I00
sVtime_zone
p154
VEastern Time (US & Canada)
p155
sVprotected
p156
I00
sVdefault_profile
p157
I00
sVis_translator
p158
I00
ssVgeo
p159
NsVin_reply_to_user_id_str
p160
NsVpossibly_sensitive
p161
I00
sg143
Ven
p162
sg151
VWed Jul 08 18:05:05 +0000 2015
p163
sVfilter_level
p164
Vlow
p165
sVin_reply_to_status_id_str
p166
NsVplace
p167
NsVextended_entities
p168
(dp169
g57
(lp170
(dp171
g30
Vhttp://twitter.com/politico/status/618843259025141760/photo/1
p172
sg32
Vpic.twitter.com/ox0Oenbtp1
p173
sg26
Vhttp://t.co/ox0Oenbtp1
p174
sg63
Vhttps://pbs.twimg.com/media/CJaSqjFWEAAv9X5.jpg
p175
sg65
V618843258479841280
p176
sg67
(dp177
g69
(dp178
g71
I519
sg72
Vfit
p179
sg74
I956
ssg75
(dp180
g71
I184
sg72
Vfit
p181
sg74
I340
ssg78
(dp182
g71
I325
sg72
Vfit
p183
sg74
I600
ssg81
(dp184
g71
I150
sg72
Vcrop
p185
sg74
I150
sssg28
(lp186
I91
aI113
asg85
Vphoto
p187
sg41
I618843258479841280
sg87
Vhttp://pbs.twimg.com/media/CJaSqjFWEAAv9X5.jpg
p188
sasssg54
g14
sg98
Nsg65
V618844302135959552
p189
sg100
I0
sg101
Nsg102
I00
sg103
(dp190
g105
Nsg106
I01
sg107
I00
sg41
I271361465
sg108
I00
sg109
Vhttps://pbs.twimg.com/profile_images/605507470363099136/ML2klFEV_normal.jpg
p191
sg111
VDDEEF6
p192
sg113
V333333
p193
sg115
I434
sg116
VC0DEED
p194
sg65
V271361465
p195
sg119
VC0DEED
p196
sg121
I25
sg122
Vhttps://abs.twimg.com/images/themes/theme1/bg.png
p197
sg124
Nsg125
I19209
sg126
VConsummate PR and Corporate Communication buff. Proudly flying Djembe communications flag across the West Africa region
p198
sg128
I596
sg129
V
p199
sg131
V0084B4
p200
sg133
Vhttp://pbs.twimg.com/profile_images/605507470363099136/ML2klFEV_normal.jpg
p201
sg135
Nsg136
I01
sg137
Vhttps://pbs.twimg.com/profile_banners/271361465/1424263426
p202
sg139
Vhttp://abs.twimg.com/images/themes/theme1/bg.png
p203
sg141
VOnome Okwah
p204
sg143
Ven
p205
sg145
I00
sg146
I44
sg147
Vomookwah
p206
sg149
Nsg26
Nsg151
VThu Mar 24 10:38:08 +0000 2011
p207
sg153
I00
sg154
Nsg156
I00
sg157
I01
sg158
I00
ssg159
Nsg160
Nsg161
I00
sg143
Ven
p208
sg151
VWed Jul 08 18:09:13 +0000 2015
p209
sVquoted_status_id_str
p210
V618843259025141760
p211
sg164
Vlow
p212
sg166
Nsg167
(dp213
Vfull_name
p214
VZurich, Switzerland
p215
sg26
Vhttps://api.twitter.com/1.1/geo/id/3acb748d0f1e9265.json
p216
sVcountry
p217
VSchweiz
p218
sVplace_type
p219
Vcity
p220
sVbounding_box
p221
(dp222
g85
VPolygon
p223
sg47
(lp224
(lp225
(lp226
F8.448081
aF47.320183
aa(lp227
F8.448081
aF47.434721
aa(lp228
F8.625442
aF47.434721
aa(lp229
F8.625442
aF47.320183
aaassVcountry_code
p230
VCH
p231
sVattributes
p232
(dp233
sg41
V3acb748d0f1e9265
p234
sg141
VZurich
p235
sssS'coordinates'
p236
NsS'timestamp_ms'
p237
g49
sS'quoted_status'
p238
g51
sS'source'
p239
VTwitter for iPhone
p240
sS'in_reply_to_screen_name'
p241
NsS'id_str'
p242
g189
sS'retweet_count'
p243
I0
sS'in_reply_to_user_id'
p244
NsS'favorited'
p245
I00
sS'source_url'
p246
Vhttp://twitter.com/download/iphone
p247
sS'user'
p248
g0
(ctweepy.models
User
p249
g2
Ntp250
Rp251
(dp252
S'follow_request_sent'
p253
NsS'profile_use_background_image'
p254
I01
sS'profile_sidebar_fill_color'
p255
g192
sg11
I271361465
sS'verified'
p256
I00
sS'profile_image_url_https'
p257
g191
sg35
g190
sS'contributors_enabled'
p258
I00
sS'profile_text_color'
p259
g193
sS'followers_count'
p260
I434
sS'profile_sidebar_border_color'
p261
g194
sS'location'
p262
g199
sS'default_profile_image'
p263
I00
sg242
g195
sS'utc_offset'
p264
NsS'statuses_count'
p265
I19209
sS'description'
p266
g198
sS'friends_count'
p267
I596
sS'profile_link_color'
p268
g200
sS'profile_image_url'
p269
g201
sS'notifications'
p270
NsS'geo_enabled'
p271
I01
sS'profile_background_color'
p272
g196
sS'profile_banner_url'
p273
g202
sS'profile_background_image_url'
p274
g203
sS'name'
p275
g204
sS'lang'
p276
g205
sS'following'
p277
I00
sS'profile_background_tile'
p278
I00
sS'favourites_count'
p279
I44
sS'screen_name'
p280
g206
sS'url'
p281
NsS'created_at'
p282
cdatetime
datetime
p283
(S'\x07\xdb\x03\x18\n&\x08\x00\x00\x00'
p284
tp285
Rp286
sS'profile_background_image_url_https'
p287
g197
sS'time_zone'
p288
NsS'protected'
p289
I00
sS'default_profile'
p290
I01
sS'is_translator'
p291
I00
sS'listed_count'
p292
I25
sbsS'geo'
p293
NsS'in_reply_to_user_id_str'
p294
NsS'possibly_sensitive'
p295
I00
sg276
g208
sg282
g283
(S'\x07\xdf\x07\x08\x12\t\r\x00\x00\x00'
p296
tp297
Rp298
sS'author'
p299
g251
sS'quoted_status_id_str'
p300
g211
sS'filter_level'
p301
g212
sS'in_reply_to_status_id_str'
p302
NsS'place'
p303
g0
(ctweepy.models
Place
p304
g2
Ntp305
Rp306
(dp307
S'full_name'
p308
g215
sg281
g216
sS'country'
p309
g218
sS'place_type'
p310
g220
sS'bounding_box'
p311
g0
(ctweepy.models
BoundingBox
p312
g2
Ntp313
Rp314
(dp315
S'type'
p316
g223
sg236
g224
sbsS'country_code'
p317
g231
sS'attributes'
p318
g233
sg11
g234
sg275
g235
sbsS'retweeted'
p319
I00
sb.