ccopy_reg
_reconstructor
p0
(ctweepy.models
Status
p1
c__builtin__
object
p2
Ntp3
Rp4
(dp5
S'favorited'
p6
I00
sS'contributors'
p7
NsS'truncated'
p8
I00
sS'text'
p9
VBeat SUI today to guarantee 1st in our pool! Playoffs start tomorrow! \U0001f44a \U0001f1e8\U0001f1e6 #GstaadMajor #SwatchMajorSeries http://t.co/lujKSWee3V
p10
sS'source_url'
p11
Vhttp://twitter.com
p12
sS'possibly_sensitive'
p13
I00
sS'in_reply_to_status_id'
p14
NsS'user'
p15
g0
(ctweepy.models
User
p16
g2
Ntp17
Rp18
(dp19
S'follow_request_sent'
p20
NsS'profile_use_background_image'
p21
I00
sS'profile_sidebar_fill_color'
p22
VDDEEF6
p23
sS'id'
p24
I278372617
sS'verified'
p25
I00
sS'profile_image_url_https'
p26
Vhttps://pbs.twimg.com/profile_images/527214645430337536/xKR8FjzX_normal.jpeg
p27
sS'_json'
p28
(dp29
Vfollow_request_sent
p30
NsVprofile_use_background_image
p31
I00
sVdefault_profile_image
p32
I00
sVid
p33
I278372617
sVverified
p34
I00
sVprofile_image_url_https
p35
g27
sVprofile_sidebar_fill_color
p36
g23
sVprofile_text_color
p37
V333333
p38
sVfollowers_count
p39
I1796
sVprofile_sidebar_border_color
p40
VFFFFFF
p41
sVid_str
p42
V278372617
p43
sVprofile_background_color
p44
V89C9FA
p45
sVlisted_count
p46
I57
sVprofile_background_image_url_https
p47
Vhttps://pbs.twimg.com/profile_background_images/447374983/GetImage.jpg
p48
sVutc_offset
p49
I-14400
sVstatuses_count
p50
I1530
sVdescription
p51
VProfessional Beach Volleyball Player for Team Canada. World traveller, book lover, foodie & coffee addict.  2016 Olympic hopeful.
p52
sVfriends_count
p53
I416
sVlocation
p54
VToronto, Ontario
p55
sVprofile_link_color
p56
V0084B4
p57
sVprofile_image_url
p58
Vhttp://pbs.twimg.com/profile_images/527214645430337536/xKR8FjzX_normal.jpeg
p59
sVfollowing
p60
NsVgeo_enabled
p61
I01
sVprofile_banner_url
p62
Vhttps://pbs.twimg.com/profile_banners/278372617/1410831393
p63
sVprofile_background_image_url
p64
Vhttp://pbs.twimg.com/profile_background_images/447374983/GetImage.jpg
p65
sVname
p66
VHeather Bansley
p67
sVlang
p68
Ven
p69
sVprofile_background_tile
p70
I00
sVfavourites_count
p71
I326
sVscreen_name
p72
VHeatherBansley
p73
sVnotifications
p74
NsVurl
p75
Vhttp://pavanbansley.com
p76
sVcreated_at
p77
VThu Apr 07 04:31:01 +0000 2011
p78
sVcontributors_enabled
p79
I00
sVtime_zone
p80
VEastern Time (US & Canada)
p81
sVprotected
p82
I00
sVdefault_profile
p83
I00
sVis_translator
p84
I00
ssS'contributors_enabled'
p85
I00
sS'profile_text_color'
p86
g38
sS'followers_count'
p87
I1796
sS'profile_sidebar_border_color'
p88
g41
sS'location'
p89
g55
sS'default_profile_image'
p90
I00
sS'id_str'
p91
g43
sS'utc_offset'
p92
I-14400
sS'statuses_count'
p93
I1530
sS'description'
p94
g52
sS'friends_count'
p95
I416
sS'profile_link_color'
p96
g57
sS'profile_image_url'
p97
g59
sS'notifications'
p98
NsS'geo_enabled'
p99
I01
sS'profile_background_color'
p100
g45
sS'profile_banner_url'
p101
g63
sS'profile_background_image_url'
p102
g65
sS'name'
p103
g67
sS'lang'
p104
g69
sS'following'
p105
I00
sS'profile_background_tile'
p106
I00
sS'favourites_count'
p107
I326
sS'screen_name'
p108
g73
sS'url'
p109
g76
sS'created_at'
p110
cdatetime
datetime
p111
(S'\x07\xdb\x04\x07\x04\x1f\x01\x00\x00\x00'
p112
tp113
Rp114
sS'profile_background_image_url_https'
p115
g48
sS'time_zone'
p116
g81
sS'protected'
p117
I00
sS'default_profile'
p118
I00
sS'is_translator'
p119
I00
sS'listed_count'
p120
I57
sbsS'filter_level'
p121
Vlow
p122
sS'geo'
p123
Nsg24
I619203819323420672
sS'favorite_count'
p124
I0
sS'source'
p125
VTwitter Web Client
p126
sg104
Ven
p127
sS'author'
p128
g18
sS'in_reply_to_user_id_str'
p129
Nsg28
(dp130
Vcontributors
p131
NsVtruncated
p132
I00
sVtext
p133
g10
sVin_reply_to_status_id
p134
Nsg33
I619203819323420672
sVfavorite_count
p135
I0
sVsource
p136
V<a href="http://twitter.com" rel="nofollow">Twitter Web Client</a>
p137
sVretweeted
p138
I00
sVcoordinates
p139
NsVtimestamp_ms
p140
V1436464669434
p141
sVentities
p142
(dp143
Vsymbols
p144
(lp145
sVmedia
p146
(lp147
(dp148
Vexpanded_url
p149
Vhttp://twitter.com/HeatherBansley/status/619203819323420672/photo/1
p150
sVdisplay_url
p151
Vpic.twitter.com/lujKSWee3V
p152
sg75
Vhttp://t.co/lujKSWee3V
p153
sVmedia_url_https
p154
Vhttps://pbs.twimg.com/media/CJfal3NWUAA6iRa.jpg
p155
sg42
V619203817796685824
p156
sVsizes
p157
(dp158
Vsmall
p159
(dp160
Vh
p161
I226
sVresize
p162
Vfit
p163
sVw
p164
I340
ssVlarge
p165
(dp166
g161
I333
sg162
Vfit
p167
sg164
I500
ssVmedium
p168
(dp169
g161
I333
sg162
Vfit
p170
sg164
I500
ssVthumb
p171
(dp172
g161
I150
sg162
Vcrop
p173
sg164
I150
sssVindices
p174
(lp175
I107
aI129
asVtype
p176
Vphoto
p177
sg33
I619203817796685824
sVmedia_url
p178
Vhttp://pbs.twimg.com/media/CJfal3NWUAA6iRa.jpg
p179
sasVhashtags
p180
(lp181
(dp182
g174
(lp183
I75
aI87
asg133
VGstaadMajor
p184
sa(dp185
g174
(lp186
I88
aI106
asg133
VSwatchMajorSeries
p187
sasVuser_mentions
p188
(lp189
sVtrends
p190
(lp191
sVurls
p192
(lp193
ssVin_reply_to_screen_name
p194
Nsg42
V619203819323420672
p195
sVretweet_count
p196
I0
sVin_reply_to_user_id
p197
NsVfavorited
p198
I00
sVuser
p199
g29
sVgeo
p200
NsVin_reply_to_user_id_str
p201
NsVpossibly_sensitive
p202
I00
sg68
g127
sg77
VThu Jul 09 17:57:49 +0000 2015
p203
sVfilter_level
p204
g122
sVin_reply_to_status_id_str
p205
NsVplace
p206
(dp207
Vfull_name
p208
VBerne, Switzerland
p209
sg75
Vhttps://api.twitter.com/1.1/geo/id/5868d0e0749c9c47.json
p210
sVcountry
p211
VSchweiz
p212
sVplace_type
p213
Vadmin
p214
sVbounding_box
p215
(dp216
g176
VPolygon
p217
sg139
(lp218
(lp219
(lp220
F6.861601
aF46.326441
aa(lp221
F6.861601
aF47.34528
aa(lp222
F8.455051
aF47.34528
aa(lp223
F8.455051
aF46.326441
aaassVcountry_code
p224
VCH
p225
sVattributes
p226
(dp227
sg33
V5868d0e0749c9c47
p228
sg66
VBern
p229
ssVextended_entities
p230
(dp231
g146
(lp232
(dp233
g149
Vhttp://twitter.com/HeatherBansley/status/619203819323420672/photo/1
p234
sg151
Vpic.twitter.com/lujKSWee3V
p235
sg75
Vhttp://t.co/lujKSWee3V
p236
sg154
Vhttps://pbs.twimg.com/media/CJfal3NWUAA6iRa.jpg
p237
sg42
V619203817796685824
p238
sg157
(dp239
g159
(dp240
g161
I226
sg162
Vfit
p241
sg164
I340
ssg165
(dp242
g161
I333
sg162
Vfit
p243
sg164
I500
ssg168
(dp244
g161
I333
sg162
Vfit
p245
sg164
I500
ssg171
(dp246
g161
I150
sg162
Vcrop
p247
sg164
I150
sssg174
(lp248
I107
aI129
asg176
Vphoto
p249
sg33
I619203817796685824
sg178
Vhttp://pbs.twimg.com/media/CJfal3NWUAA6iRa.jpg
p250
sasssS'coordinates'
p251
NsS'timestamp_ms'
p252
g141
sS'entities'
p253
g143
sS'in_reply_to_status_id_str'
p254
NsS'in_reply_to_screen_name'
p255
Nsg91
g195
sS'extended_entities'
p256
g231
sS'retweeted'
p257
I00
sS'place'
p258
g0
(ctweepy.models
Place
p259
g2
Ntp260
Rp261
(dp262
S'full_name'
p263
g209
sg109
g210
sS'country'
p264
g212
sS'place_type'
p265
g214
sS'bounding_box'
p266
g0
(ctweepy.models
BoundingBox
p267
g2
Ntp268
Rp269
(dp270
S'type'
p271
g217
sg251
g218
sbsS'country_code'
p272
g225
sS'attributes'
p273
g227
sg24
g228
sg103
g229
sbsS'retweet_count'
p274
I0
sg110
g111
(S'\x07\xdf\x07\t\x1191\x00\x00\x00'
p275
tp276
Rp277
sS'in_reply_to_user_id'
p278
Nsb.