ccopy_reg
_reconstructor
p0
(ctweepy.models
Status
p1
c__builtin__
object
p2
Ntp3
Rp4
(dp5
S'favorited'
p6
I00
sS'contributors'
p7
NsS'truncated'
p8
I00
sS'text'
p9
V#ZURICH #IT #Job: Business Solutions Strategist at VMware http://t.co/zVj0yVRS6W #Jobs #Hiring
p10
sS'source_url'
p11
Vhttp://tweetmyjobs.com
p12
sS'possibly_sensitive'
p13
I00
sS'in_reply_to_status_id'
p14
NsS'user'
p15
g0
(ctweepy.models
User
p16
g2
Ntp17
Rp18
(dp19
S'follow_request_sent'
p20
NsS'profile_use_background_image'
p21
I01
sS'profile_sidebar_fill_color'
p22
VDDEEF6
p23
sS'id'
p24
I2180401488
sS'verified'
p25
I00
sS'profile_image_url_https'
p26
Vhttps://pbs.twimg.com/profile_images/378800000772289935/b3ae6194419e750db17c91100e848c1f_normal.png
p27
sS'_json'
p28
(dp29
Vfollow_request_sent
p30
NsVprofile_use_background_image
p31
I01
sVdefault_profile_image
p32
I00
sVid
p33
I2180401488
sVverified
p34
I00
sVprofile_image_url_https
p35
g27
sVprofile_sidebar_fill_color
p36
g23
sVprofile_text_color
p37
V333333
p38
sVfollowers_count
p39
I1282
sVprofile_sidebar_border_color
p40
VFFFFFF
p41
sVid_str
p42
V2180401488
p43
sVprofile_background_color
p44
VC0DEED
p45
sVlisted_count
p46
I222
sVprofile_background_image_url_https
p47
Vhttps://pbs.twimg.com/profile_background_images/378800000116888419/bfc2345d93c1c7d4797c5c558b6c027d.png
p48
sVutc_offset
p49
NsVstatuses_count
p50
I4630
sVdescription
p51
VThe official VMware, Inc. page for info on the most recent job openings at VMware, Inc.
p52
sVfriends_count
p53
I21
sVlocation
p54
VWorldwide
p55
sVprofile_link_color
p56
V0084B4
p57
sVprofile_image_url
p58
Vhttp://pbs.twimg.com/profile_images/378800000772289935/b3ae6194419e750db17c91100e848c1f_normal.png
p59
sVfollowing
p60
NsVgeo_enabled
p61
I01
sVprofile_banner_url
p62
Vhttps://pbs.twimg.com/profile_banners/2180401488/1398811259
p63
sVprofile_background_image_url
p64
Vhttp://pbs.twimg.com/profile_background_images/378800000116888419/bfc2345d93c1c7d4797c5c558b6c027d.png
p65
sVname
p66
VVMware Jobs
p67
sVlang
p68
Ven
p69
sVprofile_background_tile
p70
I00
sVfavourites_count
p71
I0
sVscreen_name
p72
VVMwareJobs
p73
sVnotifications
p74
NsVurl
p75
Vhttp://vmware.com/careers
p76
sVcreated_at
p77
VThu Nov 07 16:19:15 +0000 2013
p78
sVcontributors_enabled
p79
I00
sVtime_zone
p80
NsVprotected
p81
I00
sVdefault_profile
p82
I00
sVis_translator
p83
I00
ssS'contributors_enabled'
p84
I00
sS'profile_text_color'
p85
g38
sS'followers_count'
p86
I1282
sS'profile_sidebar_border_color'
p87
g41
sS'location'
p88
g55
sS'default_profile_image'
p89
I00
sS'id_str'
p90
g43
sS'utc_offset'
p91
NsS'statuses_count'
p92
I4630
sS'description'
p93
g52
sS'friends_count'
p94
I21
sS'profile_link_color'
p95
g57
sS'profile_image_url'
p96
g59
sS'notifications'
p97
NsS'geo_enabled'
p98
I01
sS'profile_background_color'
p99
g45
sS'profile_banner_url'
p100
g63
sS'profile_background_image_url'
p101
g65
sS'name'
p102
g67
sS'lang'
p103
g69
sS'following'
p104
I00
sS'profile_background_tile'
p105
I00
sS'favourites_count'
p106
I0
sS'screen_name'
p107
g73
sS'url'
p108
g76
sS'created_at'
p109
cdatetime
datetime
p110
(S'\x07\xdd\x0b\x07\x10\x13\x0f\x00\x00\x00'
p111
tp112
Rp113
sS'profile_background_image_url_https'
p114
g48
sS'time_zone'
p115
NsS'protected'
p116
I00
sS'default_profile'
p117
I00
sS'is_translator'
p118
I00
sS'listed_count'
p119
I222
sbsS'filter_level'
p120
Vlow
p121
sS'geo'
p122
(dp123
Vtype
p124
VPoint
p125
sVcoordinates
p126
(lp127
F47.367347
aF8.550003
assg24
I619530474755457024
sS'favorite_count'
p128
I0
sS'source'
p129
VSafeTweet by TweetMyJOBS
p130
sg103
Vda
p131
sS'author'
p132
g18
sS'in_reply_to_user_id_str'
p133
Nsg28
(dp134
Vcontributors
p135
NsVtruncated
p136
I00
sVtext
p137
g10
sVin_reply_to_status_id
p138
Nsg33
I619530474755457024
sVfavorite_count
p139
I0
sVsource
p140
V<a href="http://tweetmyjobs.com" rel="nofollow">SafeTweet by TweetMyJOBS</a>
p141
sVretweeted
p142
I00
sg126
(dp143
g124
VPoint
p144
sg126
(lp145
F8.550003
aF47.367347
assVtimestamp_ms
p146
V1436542550158
p147
sVentities
p148
(dp149
Vuser_mentions
p150
(lp151
sVsymbols
p152
(lp153
sVtrends
p154
(lp155
sVhashtags
p156
(lp157
(dp158
Vindices
p159
(lp160
I0
aI7
asg137
VZURICH
p161
sa(dp162
g159
(lp163
I8
aI11
asg137
VIT
p164
sa(dp165
g159
(lp166
I12
aI16
asg137
VJob
p167
sa(dp168
g159
(lp169
I81
aI86
asg137
VJobs
p170
sa(dp171
g159
(lp172
I87
aI94
asg137
VHiring
p173
sasVurls
p174
(lp175
(dp176
g75
Vhttp://t.co/zVj0yVRS6W
p177
sg159
(lp178
I58
aI80
asVexpanded_url
p179
Vhttp://bit.ly/1P0p6Le
p180
sVdisplay_url
p181
Vbit.ly/1P0p6Le
p182
sassVin_reply_to_screen_name
p183
Nsg42
V619530474755457024
p184
sVretweet_count
p185
I0
sVin_reply_to_user_id
p186
NsVfavorited
p187
I00
sVuser
p188
g29
sVgeo
p189
g123
sVin_reply_to_user_id_str
p190
NsVpossibly_sensitive
p191
I00
sg68
g131
sg77
VFri Jul 10 15:35:50 +0000 2015
p192
sVfilter_level
p193
g121
sVin_reply_to_status_id_str
p194
NsVplace
p195
(dp196
Vfull_name
p197
VZurich, Switzerland
p198
sg75
Vhttps://api.twitter.com/1.1/geo/id/3acb748d0f1e9265.json
p199
sVcountry
p200
VSchweiz
p201
sVplace_type
p202
Vcity
p203
sVbounding_box
p204
(dp205
g124
VPolygon
p206
sg126
(lp207
(lp208
(lp209
F8.448081
aF47.320183
aa(lp210
F8.448081
aF47.434721
aa(lp211
F8.625442
aF47.434721
aa(lp212
F8.625442
aF47.320183
aaassVcountry_code
p213
VCH
p214
sVattributes
p215
(dp216
sg33
V3acb748d0f1e9265
p217
sg66
VZurich
p218
sssS'coordinates'
p219
g143
sS'timestamp_ms'
p220
g147
sS'entities'
p221
g149
sS'in_reply_to_status_id_str'
p222
NsS'in_reply_to_screen_name'
p223
Nsg90
g184
sS'retweeted'
p224
I00
sS'place'
p225
g0
(ctweepy.models
Place
p226
g2
Ntp227
Rp228
(dp229
S'full_name'
p230
g198
sg108
g199
sS'country'
p231
g201
sS'place_type'
p232
g203
sS'bounding_box'
p233
g0
(ctweepy.models
BoundingBox
p234
g2
Ntp235
Rp236
(dp237
S'type'
p238
g206
sg219
g207
sbsS'country_code'
p239
g214
sS'attributes'
p240
g216
sg24
g217
sg102
g218
sbsS'retweet_count'
p241
I0
sg109
g110
(S'\x07\xdf\x07\n\x0f#2\x00\x00\x00'
p242
tp243
Rp244
sS'in_reply_to_user_id'
p245
Nsb.