ccopy_reg
_reconstructor
p0
(ctweepy.models
Status
p1
c__builtin__
object
p2
Ntp3
Rp4
(dp5
S'favorited'
p6
I00
sS'contributors'
p7
NsS'truncated'
p8
I00
sS'text'
p9
V@peterfulton_ heard it's someone's special day \U0001f382! Happy birthday! @Dan_J_Cooper is going to Periscope the celebrations #InAHyattWorld at 3 \U0001f389
p10
sS'source_url'
p11
Vhttp://twitter.com/download/iphone
p12
sS'possibly_sensitive'
p13
I00
sS'in_reply_to_status_id'
p14
NsS'user'
p15
g0
(ctweepy.models
User
p16
g2
Ntp17
Rp18
(dp19
S'follow_request_sent'
p20
NsS'profile_use_background_image'
p21
I00
sS'profile_sidebar_fill_color'
p22
VFFF7CC
p23
sS'id'
p24
I19340618
sS'verified'
p25
I00
sS'profile_image_url_https'
p26
Vhttps://pbs.twimg.com/profile_images/576908765561114624/XUkBimnO_normal.jpeg
p27
sS'_json'
p28
(dp29
Vfollow_request_sent
p30
NsVprofile_use_background_image
p31
I00
sVdefault_profile_image
p32
I00
sVid
p33
I19340618
sVverified
p34
I00
sVprofile_image_url_https
p35
g27
sVprofile_sidebar_fill_color
p36
g23
sVprofile_text_color
p37
V0C3E53
p38
sVfollowers_count
p39
I2416
sVprofile_sidebar_border_color
p40
VFFFFFF
p41
sVid_str
p42
V19340618
p43
sVprofile_background_color
p44
V6D819E
p45
sVlisted_count
p46
I150
sVprofile_background_image_url_https
p47
Vhttps://pbs.twimg.com/profile_background_images/665592596/60cf99fd8fd002ce034d3e8af5eb1581.jpeg
p48
sVutc_offset
p49
I-18000
sVstatuses_count
p50
I8154
sVdescription
p51
VThings I more than Like... family, friends, food, travel, music, puppies & the INTERNET. Social @HyattTweets. @spacecampUSA alumni circa '91. Tweets are mine.
p52
sVfriends_count
p53
I2050
sVlocation
p54
VZurich 
p55
sVprofile_link_color
p56
VFF0000
p57
sVprofile_image_url
p58
Vhttp://pbs.twimg.com/profile_images/576908765561114624/XUkBimnO_normal.jpeg
p59
sVfollowing
p60
NsVgeo_enabled
p61
I01
sVprofile_banner_url
p62
Vhttps://pbs.twimg.com/profile_banners/19340618/1426337252
p63
sVprofile_background_image_url
p64
Vhttp://pbs.twimg.com/profile_background_images/665592596/60cf99fd8fd002ce034d3e8af5eb1581.jpeg
p65
sVname
p66
VJennifer Kedinger
p67
sVlang
p68
Ven
p69
sVprofile_background_tile
p70
I00
sVfavourites_count
p71
I997
sVscreen_name
p72
Vjenkedinger
p73
sVnotifications
p74
NsVurl
p75
Vhttp://eternalroadscholar.tumblr.com/
p76
sVcreated_at
p77
VThu Jan 22 14:41:28 +0000 2009
p78
sVcontributors_enabled
p79
I00
sVtime_zone
p80
VCentral Time (US & Canada)
p81
sVprotected
p82
I00
sVdefault_profile
p83
I00
sVis_translator
p84
I00
ssS'contributors_enabled'
p85
I00
sS'profile_text_color'
p86
g38
sS'followers_count'
p87
I2416
sS'profile_sidebar_border_color'
p88
g41
sS'location'
p89
g55
sS'default_profile_image'
p90
I00
sS'id_str'
p91
g43
sS'utc_offset'
p92
I-18000
sS'statuses_count'
p93
I8154
sS'description'
p94
g52
sS'friends_count'
p95
I2050
sS'profile_link_color'
p96
g57
sS'profile_image_url'
p97
g59
sS'notifications'
p98
NsS'geo_enabled'
p99
I01
sS'profile_background_color'
p100
g45
sS'profile_banner_url'
p101
g63
sS'profile_background_image_url'
p102
g65
sS'name'
p103
g67
sS'lang'
p104
g69
sS'following'
p105
I00
sS'profile_background_tile'
p106
I00
sS'favourites_count'
p107
I997
sS'screen_name'
p108
g73
sS'url'
p109
g76
sS'created_at'
p110
cdatetime
datetime
p111
(S'\x07\xd9\x01\x16\x0e)\x1c\x00\x00\x00'
p112
tp113
Rp114
sS'profile_background_image_url_https'
p115
g48
sS'time_zone'
p116
g81
sS'protected'
p117
I00
sS'default_profile'
p118
I00
sS'is_translator'
p119
I00
sS'listed_count'
p120
I150
sbsS'filter_level'
p121
Vlow
p122
sS'geo'
p123
Nsg24
I621236955964174336
sS'favorite_count'
p124
I0
sS'source'
p125
VTwitter for iPhone
p126
sg104
Ven
p127
sS'author'
p128
g18
sS'in_reply_to_user_id_str'
p129
V2985981651
p130
sg28
(dp131
Vcontributors
p132
NsVtruncated
p133
I00
sVtext
p134
g10
sVin_reply_to_status_id
p135
Nsg33
I621236955964174336
sVfavorite_count
p136
I0
sVsource
p137
V<a href="http://twitter.com/download/iphone" rel="nofollow">Twitter for iPhone</a>
p138
sVretweeted
p139
I00
sVcoordinates
p140
NsVtimestamp_ms
p141
V1436949406983
p142
sVentities
p143
(dp144
Vuser_mentions
p145
(lp146
(dp147
g33
I2985981651
sVindices
p148
(lp149
I0
aI13
asg42
V2985981651
p150
sg72
Vpeterfulton_
p151
sg66
VPeter Fulton
p152
sa(dp153
g33
I22752977
sg148
(lp154
I66
aI79
asg42
V22752977
p155
sg72
VDan_J_Cooper
p156
sg66
VDan Cooper
p157
sasVsymbols
p158
(lp159
sVtrends
p160
(lp161
sVhashtags
p162
(lp163
(dp164
g148
(lp165
I119
aI133
asg134
VInAHyattWorld
p166
sasVurls
p167
(lp168
ssVin_reply_to_screen_name
p169
Vpeterfulton_
p170
sg42
V621236955964174336
p171
sVretweet_count
p172
I0
sVin_reply_to_user_id
p173
I2985981651
sVfavorited
p174
I00
sVuser
p175
g29
sVgeo
p176
NsVin_reply_to_user_id_str
p177
g130
sVpossibly_sensitive
p178
I00
sg68
g127
sg77
VWed Jul 15 08:36:46 +0000 2015
p179
sVfilter_level
p180
g122
sVin_reply_to_status_id_str
p181
NsVplace
p182
(dp183
Vfull_name
p184
VZurich, Switzerland
p185
sg75
Vhttps://api.twitter.com/1.1/geo/id/3acb748d0f1e9265.json
p186
sVcountry
p187
VSchweiz
p188
sVplace_type
p189
Vcity
p190
sVbounding_box
p191
(dp192
Vtype
p193
VPolygon
p194
sg140
(lp195
(lp196
(lp197
F8.448081
aF47.320183
aa(lp198
F8.448081
aF47.434721
aa(lp199
F8.625442
aF47.434721
aa(lp200
F8.625442
aF47.320183
aaassVcountry_code
p201
VCH
p202
sVattributes
p203
(dp204
sg33
V3acb748d0f1e9265
p205
sg66
VZurich
p206
sssS'coordinates'
p207
NsS'timestamp_ms'
p208
g142
sS'entities'
p209
g144
sS'in_reply_to_status_id_str'
p210
NsS'in_reply_to_screen_name'
p211
g170
sg91
g171
sS'retweeted'
p212
I00
sS'place'
p213
g0
(ctweepy.models
Place
p214
g2
Ntp215
Rp216
(dp217
S'full_name'
p218
g185
sg109
g186
sS'country'
p219
g188
sS'place_type'
p220
g190
sS'bounding_box'
p221
g0
(ctweepy.models
BoundingBox
p222
g2
Ntp223
Rp224
(dp225
S'type'
p226
g194
sg207
g195
sbsS'country_code'
p227
g202
sS'attributes'
p228
g204
sg24
g205
sg103
g206
sbsS'retweet_count'
p229
I0
sg110
g111
(S'\x07\xdf\x07\x0f\x08$.\x00\x00\x00'
p230
tp231
Rp232
sS'in_reply_to_user_id'
p233
I2985981651
sb.