ccopy_reg
_reconstructor
p0
(ctweepy.models
Status
p1
c__builtin__
object
p2
Ntp3
Rp4
(dp5
S'favorited'
p6
I00
sS'contributors'
p7
NsS'truncated'
p8
I00
sS'text'
p9
Vfestival ready #frauenfeld @ Renaissance Zurich Tower Hotel https://t.co/oGE8STF2dK
p10
sS'source_url'
p11
Vhttp://instagram.com
p12
sS'possibly_sensitive'
p13
I00
sS'in_reply_to_status_id'
p14
NsS'user'
p15
g0
(ctweepy.models
User
p16
g2
Ntp17
Rp18
(dp19
S'follow_request_sent'
p20
NsS'profile_use_background_image'
p21
I01
sS'profile_sidebar_fill_color'
p22
VA8A8A8
p23
sS'id'
p24
I19673138
sS'verified'
p25
I00
sS'profile_image_url_https'
p26
Vhttps://pbs.twimg.com/profile_images/612797519546810368/ECtN3-_3_normal.jpg
p27
sS'_json'
p28
(dp29
Vfollow_request_sent
p30
NsVprofile_use_background_image
p31
I01
sVdefault_profile_image
p32
I00
sVid
p33
I19673138
sVverified
p34
I00
sVprofile_image_url_https
p35
g27
sVprofile_sidebar_fill_color
p36
g23
sVprofile_text_color
p37
V000000
p38
sVfollowers_count
p39
I79490
sVprofile_sidebar_border_color
p40
VFFFFFF
p41
sVid_str
p42
V19673138
p43
sVprofile_background_color
p44
VD9D9D9
p45
sVlisted_count
p46
I196
sVprofile_background_image_url_https
p47
Vhttps://pbs.twimg.com/profile_background_images/616403255417901057/RcTaDXUv.jpg
p48
sVutc_offset
p49
I-14400
sVstatuses_count
p50
I11230
sVdescription
p51
Vtruth is, i only perform at weddings tho\u000a                      \u000abooking: thejoshdick@gmail.com http://iam.erickthearchitect.com \u000ahttp://thegloriousdead.com
p52
sVfriends_count
p53
I460
sVlocation
p54
VBrooklyn, NY
p55
sVprofile_link_color
p56
V0D60A9
p57
sVprofile_image_url
p58
Vhttp://pbs.twimg.com/profile_images/612797519546810368/ECtN3-_3_normal.jpg
p59
sVfollowing
p60
NsVgeo_enabled
p61
I01
sVprofile_banner_url
p62
Vhttps://pbs.twimg.com/profile_banners/19673138/1430077897
p63
sVprofile_background_image_url
p64
Vhttp://pbs.twimg.com/profile_background_images/616403255417901057/RcTaDXUv.jpg
p65
sVname
p66
VErick The Architect
p67
sVlang
p68
Ven
p69
sVprofile_background_tile
p70
I01
sVfavourites_count
p71
I192
sVscreen_name
p72
Verickarcelliott
p73
sVnotifications
p74
NsVurl
p75
Vhttp://soundcloud.com/erickarchitect
p76
sVcreated_at
p77
VWed Jan 28 20:19:38 +0000 2009
p78
sVcontributors_enabled
p79
I00
sVtime_zone
p80
VEastern Time (US & Canada)
p81
sVprotected
p82
I00
sVdefault_profile
p83
I00
sVis_translator
p84
I00
ssS'contributors_enabled'
p85
I00
sS'profile_text_color'
p86
g38
sS'followers_count'
p87
I79490
sS'profile_sidebar_border_color'
p88
g41
sS'location'
p89
g55
sS'default_profile_image'
p90
I00
sS'id_str'
p91
g43
sS'utc_offset'
p92
I-14400
sS'statuses_count'
p93
I11230
sS'description'
p94
Vtruth is, i only perform at weddings tho\u000a                      \u000abooking: thejoshdick@gmail.com http://iam.erickthearchitect.com \u000ahttp://thegloriousdead.com
p95
sS'friends_count'
p96
I460
sS'profile_link_color'
p97
g57
sS'profile_image_url'
p98
g59
sS'notifications'
p99
NsS'geo_enabled'
p100
I01
sS'profile_background_color'
p101
g45
sS'profile_banner_url'
p102
g63
sS'profile_background_image_url'
p103
g65
sS'name'
p104
g67
sS'lang'
p105
g69
sS'following'
p106
I00
sS'profile_background_tile'
p107
I01
sS'favourites_count'
p108
I192
sS'screen_name'
p109
g73
sS'url'
p110
g76
sS'created_at'
p111
cdatetime
datetime
p112
(S'\x07\xd9\x01\x1c\x14\x13&\x00\x00\x00'
p113
tp114
Rp115
sS'profile_background_image_url_https'
p116
g48
sS'time_zone'
p117
g81
sS'protected'
p118
I00
sS'default_profile'
p119
I00
sS'is_translator'
p120
I00
sS'listed_count'
p121
I196
sbsS'filter_level'
p122
Vlow
p123
sS'geo'
p124
(dp125
Vtype
p126
VPoint
p127
sVcoordinates
p128
(lp129
F47.388139
aF8.514603
assg24
I619784381629079552
sS'favorite_count'
p130
I0
sS'source'
p131
VInstagram
p132
sg105
Ven
p133
sS'author'
p134
g18
sS'in_reply_to_user_id_str'
p135
Nsg28
(dp136
Vcontributors
p137
NsVtruncated
p138
I00
sVtext
p139
g10
sVin_reply_to_status_id
p140
Nsg33
I619784381629079552
sVfavorite_count
p141
I0
sVsource
p142
V<a href="http://instagram.com" rel="nofollow">Instagram</a>
p143
sVretweeted
p144
I00
sg128
(dp145
g126
VPoint
p146
sg128
(lp147
F8.514603
aF47.388139
assVtimestamp_ms
p148
V1436603086274
p149
sVentities
p150
(dp151
Vuser_mentions
p152
(lp153
sVsymbols
p154
(lp155
sVtrends
p156
(lp157
sVhashtags
p158
(lp159
(dp160
Vindices
p161
(lp162
I15
aI26
asg139
Vfrauenfeld
p163
sasVurls
p164
(lp165
(dp166
g75
Vhttps://t.co/oGE8STF2dK
p167
sg161
(lp168
I60
aI83
asVexpanded_url
p169
Vhttps://instagram.com/p/4_TK3MA1kW/
p170
sVdisplay_url
p171
Vinstagram.com/p/4_TK3MA1kW/
p172
sassVin_reply_to_screen_name
p173
Nsg42
V619784381629079552
p174
sVretweet_count
p175
I0
sVin_reply_to_user_id
p176
NsVfavorited
p177
I00
sVuser
p178
g29
sVgeo
p179
g125
sVin_reply_to_user_id_str
p180
NsVpossibly_sensitive
p181
I00
sg68
g133
sg77
VSat Jul 11 08:24:46 +0000 2015
p182
sVfilter_level
p183
g123
sVin_reply_to_status_id_str
p184
NsVplace
p185
(dp186
Vfull_name
p187
VZurich, Switzerland
p188
sg75
Vhttps://api.twitter.com/1.1/geo/id/3acb748d0f1e9265.json
p189
sVcountry
p190
VSchweiz
p191
sVplace_type
p192
Vcity
p193
sVbounding_box
p194
(dp195
g126
VPolygon
p196
sg128
(lp197
(lp198
(lp199
F8.448081
aF47.320183
aa(lp200
F8.448081
aF47.434721
aa(lp201
F8.625442
aF47.434721
aa(lp202
F8.625442
aF47.320183
aaassVcountry_code
p203
VCH
p204
sVattributes
p205
(dp206
sg33
V3acb748d0f1e9265
p207
sg66
VZurich
p208
sssS'coordinates'
p209
g145
sS'timestamp_ms'
p210
g149
sS'entities'
p211
g151
sS'in_reply_to_status_id_str'
p212
NsS'in_reply_to_screen_name'
p213
Nsg91
g174
sS'retweeted'
p214
I00
sS'place'
p215
g0
(ctweepy.models
Place
p216
g2
Ntp217
Rp218
(dp219
S'full_name'
p220
g188
sg110
g189
sS'country'
p221
g191
sS'place_type'
p222
g193
sS'bounding_box'
p223
g0
(ctweepy.models
BoundingBox
p224
g2
Ntp225
Rp226
(dp227
S'type'
p228
g196
sg209
g197
sbsS'country_code'
p229
g204
sS'attributes'
p230
g206
sg24
g207
sg104
g208
sbsS'retweet_count'
p231
I0
sg111
g112
(S'\x07\xdf\x07\x0b\x08\x18.\x00\x00\x00'
p232
tp233
Rp234
sS'in_reply_to_user_id'
p235
Nsb.