ccopy_reg
_reconstructor
p0
(ctweepy.models
Status
p1
c__builtin__
object
p2
Ntp3
Rp4
(dp5
S'favorited'
p6
I00
sS'contributors'
p7
NsS'truncated'
p8
I00
sS'text'
p9
VHappy birthday bro @Faraiiiii http://t.co/ak9JzTWAJr
p10
sS'source_url'
p11
Vhttp://twitter.com/download/iphone
p12
sS'possibly_sensitive'
p13
I00
sS'in_reply_to_status_id'
p14
NsS'user'
p15
g0
(ctweepy.models
User
p16
g2
Ntp17
Rp18
(dp19
S'follow_request_sent'
p20
NsS'profile_use_background_image'
p21
I01
sS'profile_sidebar_fill_color'
p22
VEADEAA
p23
sS'id'
p24
I124957130
sS'verified'
p25
I00
sS'profile_image_url_https'
p26
Vhttps://pbs.twimg.com/profile_images/617803557400514561/XQWFS47N_normal.jpg
p27
sS'_json'
p28
(dp29
Vfollow_request_sent
p30
NsVprofile_use_background_image
p31
I01
sVdefault_profile_image
p32
I00
sVid
p33
I124957130
sVverified
p34
I00
sVprofile_image_url_https
p35
g27
sVprofile_sidebar_fill_color
p36
g23
sVprofile_text_color
p37
V333333
p38
sVfollowers_count
p39
I361
sVprofile_sidebar_border_color
p40
VD9B17E
p41
sVid_str
p42
V124957130
p43
sVprofile_background_color
p44
V8B542B
p45
sVlisted_count
p46
I2
sVprofile_background_image_url_https
p47
Vhttps://pbs.twimg.com/profile_background_images/116162962/vintage.jpg
p48
sVutc_offset
p49
I-25200
sVstatuses_count
p50
I2084
sVdescription
p51
VArizona State University || Kappa Kappa Gamma
p52
sVfriends_count
p53
I223
sVlocation
p54
V
p55
sVprofile_link_color
p56
V9D582E
p57
sVprofile_image_url
p58
Vhttp://pbs.twimg.com/profile_images/617803557400514561/XQWFS47N_normal.jpg
p59
sVfollowing
p60
NsVgeo_enabled
p61
I01
sVprofile_banner_url
p62
Vhttps://pbs.twimg.com/profile_banners/124957130/1434168667
p63
sVprofile_background_image_url
p64
Vhttp://pbs.twimg.com/profile_background_images/116162962/vintage.jpg
p65
sVname
p66
VKatie Skinner
p67
sVlang
p68
Ven
p69
sVprofile_background_tile
p70
I00
sVfavourites_count
p71
I3357
sVscreen_name
p72
Vkatieskinner123
p73
sVnotifications
p74
NsVurl
p75
NsVcreated_at
p76
VSun Mar 21 05:11:41 +0000 2010
p77
sVcontributors_enabled
p78
I00
sVtime_zone
p79
VArizona
p80
sVprotected
p81
I00
sVdefault_profile
p82
I00
sVis_translator
p83
I00
ssS'contributors_enabled'
p84
I00
sS'profile_text_color'
p85
g38
sS'followers_count'
p86
I361
sS'profile_sidebar_border_color'
p87
g41
sS'location'
p88
g55
sS'default_profile_image'
p89
I00
sS'id_str'
p90
g43
sS'utc_offset'
p91
I-25200
sS'statuses_count'
p92
I2084
sS'description'
p93
g52
sS'friends_count'
p94
I223
sS'profile_link_color'
p95
g57
sS'profile_image_url'
p96
g59
sS'notifications'
p97
NsS'geo_enabled'
p98
I01
sS'profile_background_color'
p99
g45
sS'profile_banner_url'
p100
g63
sS'profile_background_image_url'
p101
g65
sS'name'
p102
g67
sS'lang'
p103
g69
sS'following'
p104
I00
sS'profile_background_tile'
p105
I00
sS'favourites_count'
p106
I3357
sS'screen_name'
p107
g73
sS'url'
p108
NsS'created_at'
p109
cdatetime
datetime
p110
(S'\x07\xda\x03\x15\x05\x0b)\x00\x00\x00'
p111
tp112
Rp113
sS'profile_background_image_url_https'
p114
g48
sS'time_zone'
p115
g80
sS'protected'
p116
I00
sS'default_profile'
p117
I00
sS'is_translator'
p118
I00
sS'listed_count'
p119
I2
sbsS'filter_level'
p120
Vlow
p121
sS'geo'
p122
Nsg24
I619822964448587776
sS'favorite_count'
p123
I0
sS'source'
p124
VTwitter for iPhone
p125
sg103
Ven
p126
sS'author'
p127
g18
sS'in_reply_to_user_id_str'
p128
Nsg28
(dp129
Vcontributors
p130
NsVtruncated
p131
I00
sVtext
p132
g10
sVin_reply_to_status_id
p133
Nsg33
I619822964448587776
sVfavorite_count
p134
I0
sVsource
p135
V<a href="http://twitter.com/download/iphone" rel="nofollow">Twitter for iPhone</a>
p136
sVretweeted
p137
I00
sVcoordinates
p138
NsVtimestamp_ms
p139
V1436612285135
p140
sVentities
p141
(dp142
Vsymbols
p143
(lp144
sVmedia
p145
(lp146
(dp147
Vexpanded_url
p148
Vhttp://twitter.com/katieskinner123/status/619822964448587776/photo/1
p149
sVdisplay_url
p150
Vpic.twitter.com/ak9JzTWAJr
p151
sg75
Vhttp://t.co/ak9JzTWAJr
p152
sVmedia_url_https
p153
Vhttps://pbs.twimg.com/media/CJoNsVcVAAAZeKK.jpg
p154
sg42
V619822954038231040
p155
sVsizes
p156
(dp157
Vlarge
p158
(dp159
Vh
p160
I1012
sVresize
p161
Vfit
p162
sVw
p163
I1024
ssVsmall
p164
(dp165
g160
I336
sg161
Vfit
p166
sg163
I340
ssVmedium
p167
(dp168
g160
I592
sg161
Vfit
p169
sg163
I600
ssVthumb
p170
(dp171
g160
I150
sg161
Vcrop
p172
sg163
I150
sssVindices
p173
(lp174
I30
aI52
asVtype
p175
Vphoto
p176
sg33
I619822954038231040
sVmedia_url
p177
Vhttp://pbs.twimg.com/media/CJoNsVcVAAAZeKK.jpg
p178
sasVhashtags
p179
(lp180
sVuser_mentions
p181
(lp182
(dp183
g33
I52237621
sg173
(lp184
I19
aI29
asg42
V52237621
p185
sg72
VFaraiiiii
p186
sg66
VFarai Bennett
p187
sasVtrends
p188
(lp189
sVurls
p190
(lp191
ssVin_reply_to_screen_name
p192
Nsg42
V619822964448587776
p193
sVretweet_count
p194
I0
sVin_reply_to_user_id
p195
NsVfavorited
p196
I00
sVuser
p197
g29
sVgeo
p198
NsVin_reply_to_user_id_str
p199
NsVpossibly_sensitive
p200
I00
sg68
g126
sg76
VSat Jul 11 10:58:05 +0000 2015
p201
sVfilter_level
p202
g121
sVin_reply_to_status_id_str
p203
NsVplace
p204
(dp205
Vfull_name
p206
VZurich, Switzerland
p207
sg75
Vhttps://api.twitter.com/1.1/geo/id/3acb748d0f1e9265.json
p208
sVcountry
p209
VSchweiz
p210
sVplace_type
p211
Vcity
p212
sVbounding_box
p213
(dp214
g175
VPolygon
p215
sg138
(lp216
(lp217
(lp218
F8.448081
aF47.320183
aa(lp219
F8.448081
aF47.434721
aa(lp220
F8.625442
aF47.434721
aa(lp221
F8.625442
aF47.320183
aaassVcountry_code
p222
VCH
p223
sVattributes
p224
(dp225
sg33
V3acb748d0f1e9265
p226
sg66
VZurich
p227
ssVextended_entities
p228
(dp229
g145
(lp230
(dp231
g148
Vhttp://twitter.com/katieskinner123/status/619822964448587776/photo/1
p232
sg150
Vpic.twitter.com/ak9JzTWAJr
p233
sg75
Vhttp://t.co/ak9JzTWAJr
p234
sg153
Vhttps://pbs.twimg.com/media/CJoNsVcVAAAZeKK.jpg
p235
sg42
V619822954038231040
p236
sg156
(dp237
g158
(dp238
g160
I1012
sg161
Vfit
p239
sg163
I1024
ssg164
(dp240
g160
I336
sg161
Vfit
p241
sg163
I340
ssg167
(dp242
g160
I592
sg161
Vfit
p243
sg163
I600
ssg170
(dp244
g160
I150
sg161
Vcrop
p245
sg163
I150
sssg173
(lp246
I30
aI52
asg175
Vphoto
p247
sg33
I619822954038231040
sg177
Vhttp://pbs.twimg.com/media/CJoNsVcVAAAZeKK.jpg
p248
sasssS'coordinates'
p249
NsS'timestamp_ms'
p250
g140
sS'entities'
p251
g142
sS'in_reply_to_status_id_str'
p252
NsS'in_reply_to_screen_name'
p253
Nsg90
g193
sS'extended_entities'
p254
g229
sS'retweeted'
p255
I00
sS'place'
p256
g0
(ctweepy.models
Place
p257
g2
Ntp258
Rp259
(dp260
S'full_name'
p261
g207
sg108
g208
sS'country'
p262
g210
sS'place_type'
p263
g212
sS'bounding_box'
p264
g0
(ctweepy.models
BoundingBox
p265
g2
Ntp266
Rp267
(dp268
S'type'
p269
g215
sg249
g216
sbsS'country_code'
p270
g223
sS'attributes'
p271
g225
sg24
g226
sg102
g227
sbsS'retweet_count'
p272
I0
sg109
g110
(S'\x07\xdf\x07\x0b\n:\x05\x00\x00\x00'
p273
tp274
Rp275
sS'in_reply_to_user_id'
p276
Nsb.