ccopy_reg
_reconstructor
p0
(ctweepy.models
Status
p1
c__builtin__
object
p2
Ntp3
Rp4
(dp5
S'favorited'
p6
I00
sS'contributors'
p7
NsS'truncated'
p8
I00
sS'text'
p9
V@lensrevolution jeanmusica @jeanoficialpr latinroadie @marcanthony #marcanthonyband #marcanthony\u2026 https://t.co/mVlg3mAMVU
p10
sS'source_url'
p11
Vhttp://instagram.com
p12
sS'possibly_sensitive'
p13
I00
sS'in_reply_to_status_id'
p14
NsS'user'
p15
g0
(ctweepy.models
User
p16
g2
Ntp17
Rp18
(dp19
S'follow_request_sent'
p20
NsS'profile_use_background_image'
p21
I01
sS'profile_sidebar_fill_color'
p22
VDDEEF6
p23
sS'id'
p24
I96180833
sS'verified'
p25
I00
sS'profile_image_url_https'
p26
Vhttps://pbs.twimg.com/profile_images/536883228804931584/RcyqbCDZ_normal.jpeg
p27
sS'_json'
p28
(dp29
Vfollow_request_sent
p30
NsVprofile_use_background_image
p31
I01
sVdefault_profile_image
p32
I00
sVid
p33
I96180833
sVverified
p34
I00
sVprofile_image_url_https
p35
g27
sVprofile_sidebar_fill_color
p36
g23
sVprofile_text_color
p37
V333333
p38
sVfollowers_count
p39
I252
sVprofile_sidebar_border_color
p40
VC0DEED
p41
sVid_str
p42
V96180833
p43
sVprofile_background_color
p44
VC0DEED
p45
sVlisted_count
p46
I2
sVprofile_background_image_url_https
p47
Vhttps://abs.twimg.com/images/themes/theme1/bg.png
p48
sVutc_offset
p49
I-14400
sVstatuses_count
p50
I548
sVdescription
p51
VNew Fresh Idea's with music for the ears! Positive Management NY want to change the world.
p52
sVfriends_count
p53
I634
sVlocation
p54
VBronx, NY
p55
sVprofile_link_color
p56
V0084B4
p57
sVprofile_image_url
p58
Vhttp://pbs.twimg.com/profile_images/536883228804931584/RcyqbCDZ_normal.jpeg
p59
sVfollowing
p60
NsVgeo_enabled
p61
I01
sVprofile_banner_url
p62
Vhttps://pbs.twimg.com/profile_banners/96180833/1358621373
p63
sVprofile_background_image_url
p64
Vhttp://abs.twimg.com/images/themes/theme1/bg.png
p65
sVname
p66
VGlenn Acosta
p67
sVlang
p68
Ven
p69
sVprofile_background_tile
p70
I00
sVfavourites_count
p71
I12
sVscreen_name
p72
VGlennAcostaNY
p73
sVnotifications
p74
NsVurl
p75
Vhttp://www.facebook.com/home.php#!/pages/Positive-Management-NYC/138763026161227
p76
sVcreated_at
p77
VFri Dec 11 18:40:23 +0000 2009
p78
sVcontributors_enabled
p79
I00
sVtime_zone
p80
VEastern Time (US & Canada)
p81
sVprotected
p82
I00
sVdefault_profile
p83
I01
sVis_translator
p84
I00
ssS'contributors_enabled'
p85
I00
sS'profile_text_color'
p86
g38
sS'followers_count'
p87
I252
sS'profile_sidebar_border_color'
p88
g41
sS'location'
p89
g55
sS'default_profile_image'
p90
I00
sS'id_str'
p91
g43
sS'utc_offset'
p92
I-14400
sS'statuses_count'
p93
I548
sS'description'
p94
g52
sS'friends_count'
p95
I634
sS'profile_link_color'
p96
g57
sS'profile_image_url'
p97
g59
sS'notifications'
p98
NsS'geo_enabled'
p99
I01
sS'profile_background_color'
p100
g45
sS'profile_banner_url'
p101
g63
sS'profile_background_image_url'
p102
g65
sS'name'
p103
g67
sS'lang'
p104
g69
sS'following'
p105
I00
sS'profile_background_tile'
p106
I00
sS'favourites_count'
p107
I12
sS'screen_name'
p108
g73
sS'url'
p109
g76
sS'created_at'
p110
cdatetime
datetime
p111
(S'\x07\xd9\x0c\x0b\x12(\x17\x00\x00\x00'
p112
tp113
Rp114
sS'profile_background_image_url_https'
p115
g48
sS'time_zone'
p116
g81
sS'protected'
p117
I00
sS'default_profile'
p118
I01
sS'is_translator'
p119
I00
sS'listed_count'
p120
I2
sbsS'filter_level'
p121
Vlow
p122
sS'geo'
p123
(dp124
Vtype
p125
VPoint
p126
sVcoordinates
p127
(lp128
F47.411714
aF8.551717
assg24
I618466098531463168
sS'favorite_count'
p129
I0
sS'source'
p130
VInstagram
p131
sg104
Ven
p132
sS'author'
p133
g18
sS'in_reply_to_user_id_str'
p134
V458911403
p135
sg28
(dp136
Vcontributors
p137
NsVtruncated
p138
I00
sVtext
p139
g10
sVin_reply_to_status_id
p140
Nsg33
I618466098531463168
sVfavorite_count
p141
I0
sVsource
p142
V<a href="http://instagram.com" rel="nofollow">Instagram</a>
p143
sVretweeted
p144
I00
sg127
(dp145
g125
VPoint
p146
sg127
(lp147
F8.551717
aF47.411714
assVtimestamp_ms
p148
V1436288783091
p149
sVentities
p150
(dp151
Vuser_mentions
p152
(lp153
(dp154
g33
I458911403
sVindices
p155
(lp156
I0
aI15
asg42
V458911403
p157
sg72
Vlensrevolution
p158
sg66
VCarlos Escobar
p159
sa(dp160
g33
I175444049
sg155
(lp161
I27
aI41
asg42
V175444049
p162
sg72
VJeanOficialPR
p163
sg66
VJean Oficial PR
p164
sa(dp165
g33
I254274083
sg155
(lp166
I54
aI66
asg42
V254274083
p167
sg72
VMarcAnthony
p168
sg66
VMarc Anthony
p169
sasVsymbols
p170
(lp171
sVtrends
p172
(lp173
sVhashtags
p174
(lp175
(dp176
g155
(lp177
I67
aI83
asg139
Vmarcanthonyband
p178
sa(dp179
g155
(lp180
I84
aI96
asg139
Vmarcanthony
p181
sasVurls
p182
(lp183
(dp184
g75
Vhttps://t.co/mVlg3mAMVU
p185
sg155
(lp186
I98
aI121
asVexpanded_url
p187
Vhttps://instagram.com/p/417rvwJBco/
p188
sVdisplay_url
p189
Vinstagram.com/p/417rvwJBco/
p190
sassVin_reply_to_screen_name
p191
Vlensrevolution
p192
sg42
V618466098531463168
p193
sVretweet_count
p194
I0
sVin_reply_to_user_id
p195
I458911403
sVfavorited
p196
I00
sVuser
p197
g29
sVgeo
p198
g124
sVin_reply_to_user_id_str
p199
g135
sVpossibly_sensitive
p200
I00
sg68
g132
sg77
VTue Jul 07 17:06:23 +0000 2015
p201
sVfilter_level
p202
g122
sVin_reply_to_status_id_str
p203
NsVplace
p204
(dp205
Vfull_name
p206
VZurich, Switzerland
p207
sg75
Vhttps://api.twitter.com/1.1/geo/id/3acb748d0f1e9265.json
p208
sVcountry
p209
VSchweiz
p210
sVplace_type
p211
Vcity
p212
sVbounding_box
p213
(dp214
g125
VPolygon
p215
sg127
(lp216
(lp217
(lp218
F8.448081
aF47.320183
aa(lp219
F8.448081
aF47.434721
aa(lp220
F8.625442
aF47.434721
aa(lp221
F8.625442
aF47.320183
aaassVcountry_code
p222
VCH
p223
sVattributes
p224
(dp225
sg33
V3acb748d0f1e9265
p226
sg66
VZurich
p227
sssS'coordinates'
p228
g145
sS'timestamp_ms'
p229
g149
sS'entities'
p230
g151
sS'in_reply_to_status_id_str'
p231
NsS'in_reply_to_screen_name'
p232
g192
sg91
g193
sS'retweeted'
p233
I00
sS'place'
p234
g0
(ctweepy.models
Place
p235
g2
Ntp236
Rp237
(dp238
S'full_name'
p239
g207
sg109
g208
sS'country'
p240
g210
sS'place_type'
p241
g212
sS'bounding_box'
p242
g0
(ctweepy.models
BoundingBox
p243
g2
Ntp244
Rp245
(dp246
S'type'
p247
g215
sg228
g216
sbsS'country_code'
p248
g223
sS'attributes'
p249
g225
sg24
g226
sg103
g227
sbsS'retweet_count'
p250
I0
sg110
g111
(S'\x07\xdf\x07\x07\x11\x06\x17\x00\x00\x00'
p251
tp252
Rp253
sS'in_reply_to_user_id'
p254
I458911403
sb.