ccopy_reg
_reconstructor
p0
(ctweepy.models
Status
p1
c__builtin__
object
p2
Ntp3
Rp4
(dp5
S'favorited'
p6
I00
sS'contributors'
p7
NsS'truncated'
p8
I00
sS'text'
p9
V9th St. needs a public parking deck; all parking issues there are interconnected.@LaurenHorsch @indyweek @TBJrealestate
p10
sS'source_url'
p11
Vhttp://twitter.com
p12
sS'possibly_sensitive'
p13
I00
sS'in_reply_to_status_id'
p14
NsS'user'
p15
g0
(ctweepy.models
User
p16
g2
Ntp17
Rp18
(dp19
S'follow_request_sent'
p20
NsS'profile_use_background_image'
p21
I01
sS'profile_sidebar_fill_color'
p22
VDDEEF6
p23
sS'id'
p24
I563826153
sS'verified'
p25
I00
sS'profile_image_url_https'
p26
Vhttps://pbs.twimg.com/profile_images/2167385854/NSW1_normal.png
p27
sS'_json'
p28
(dp29
Vfollow_request_sent
p30
NsVprofile_use_background_image
p31
I01
sVdefault_profile_image
p32
I00
sVid
p33
I563826153
sVverified
p34
I00
sVprofile_image_url_https
p35
g27
sVprofile_sidebar_fill_color
p36
g23
sVprofile_text_color
p37
V333333
p38
sVfollowers_count
p39
I822
sVprofile_sidebar_border_color
p40
VC0DEED
p41
sVid_str
p42
V563826153
p43
sVprofile_background_color
p44
VC0DEED
p45
sVlisted_count
p46
I45
sVprofile_background_image_url_https
p47
Vhttps://abs.twimg.com/images/themes/theme1/bg.png
p48
sVutc_offset
p49
NsVstatuses_count
p50
I2298
sVdescription
p51
VDurham, North Carolina microblog about all things Ninth Street (http://ninth-street.blogspot.com/), food, drink, development, sustainability, etc.
p52
sVfriends_count
p53
I244
sVlocation
p54
V
p55
sVprofile_link_color
p56
V0084B4
p57
sVprofile_image_url
p58
Vhttp://pbs.twimg.com/profile_images/2167385854/NSW1_normal.png
p59
sVfollowing
p60
NsVgeo_enabled
p61
I01
sVprofile_background_image_url
p62
Vhttp://abs.twimg.com/images/themes/theme1/bg.png
p63
sVname
p64
VNinthStreetWatch
p65
sVlang
p66
Ven
p67
sVprofile_background_tile
p68
I00
sVfavourites_count
p69
I160
sVscreen_name
p70
VNinthStreetWatc
p71
sVnotifications
p72
NsVurl
p73
Vhttp://ninth-street.blogspot.com
p74
sVcreated_at
p75
VThu Apr 26 13:57:43 +0000 2012
p76
sVcontributors_enabled
p77
I00
sVtime_zone
p78
NsVprotected
p79
I00
sVdefault_profile
p80
I01
sVis_translator
p81
I00
ssS'contributors_enabled'
p82
I00
sS'profile_text_color'
p83
g38
sS'followers_count'
p84
I822
sS'profile_sidebar_border_color'
p85
g41
sS'location'
p86
g55
sS'default_profile_image'
p87
I00
sS'id_str'
p88
g43
sS'utc_offset'
p89
NsS'statuses_count'
p90
I2298
sS'description'
p91
g52
sS'friends_count'
p92
I244
sS'profile_link_color'
p93
g57
sS'profile_image_url'
p94
g59
sS'notifications'
p95
NsS'geo_enabled'
p96
I01
sS'profile_background_color'
p97
g45
sS'profile_background_image_url'
p98
g63
sS'name'
p99
g65
sS'lang'
p100
g67
sS'following'
p101
I00
sS'profile_background_tile'
p102
I00
sS'favourites_count'
p103
I160
sS'screen_name'
p104
g71
sS'url'
p105
g74
sS'created_at'
p106
cdatetime
datetime
p107
(S'\x07\xdc\x04\x1a\r9+\x00\x00\x00'
p108
tp109
Rp110
sS'profile_background_image_url_https'
p111
g48
sS'time_zone'
p112
NsS'protected'
p113
I00
sS'default_profile'
p114
I01
sS'is_translator'
p115
I00
sS'listed_count'
p116
I45
sbsS'filter_level'
p117
Vlow
p118
sS'geo'
p119
Nsg24
I618507110918262784
sS'favorite_count'
p120
I0
sS'source'
p121
VTwitter Web Client
p122
sg100
Ven
p123
sS'author'
p124
g18
sS'in_reply_to_user_id_str'
p125
Nsg28
(dp126
Vcontributors
p127
NsVtruncated
p128
I00
sVtext
p129
g10
sVin_reply_to_status_id
p130
Nsg33
I618507110918262784
sVfavorite_count
p131
I0
sVsource
p132
V<a href="http://twitter.com" rel="nofollow">Twitter Web Client</a>
p133
sVretweeted
p134
I00
sVcoordinates
p135
NsVtimestamp_ms
p136
V1436298561206
p137
sVentities
p138
(dp139
Vuser_mentions
p140
(lp141
(dp142
g33
I107305060
sVindices
p143
(lp144
I81
aI94
asg42
V107305060
p145
sg70
VLaurenHorsch
p146
sg64
VLauren Horsch
p147
sa(dp148
g33
I16667591
sg143
(lp149
I95
aI104
asg42
V16667591
p150
sg70
Vindyweek
p151
sg64
VIndy Week
p152
sa(dp153
g33
I443172407
sg143
(lp154
I105
aI119
asg42
V443172407
p155
sg70
VTBJrealestate
p156
sg64
VAmanda Hoyle
p157
sasVsymbols
p158
(lp159
sVtrends
p160
(lp161
sVhashtags
p162
(lp163
sVurls
p164
(lp165
ssVin_reply_to_screen_name
p166
Nsg42
V618507110918262784
p167
sVretweet_count
p168
I0
sVin_reply_to_user_id
p169
NsVfavorited
p170
I00
sVuser
p171
g29
sVgeo
p172
NsVin_reply_to_user_id_str
p173
NsVpossibly_sensitive
p174
I00
sg66
g123
sg75
VTue Jul 07 19:49:21 +0000 2015
p175
sVfilter_level
p176
g118
sVin_reply_to_status_id_str
p177
NsVplace
p178
(dp179
Vfull_name
p180
VZurich, Switzerland
p181
sg73
Vhttps://api.twitter.com/1.1/geo/id/3acb748d0f1e9265.json
p182
sVcountry
p183
VSchweiz
p184
sVplace_type
p185
Vcity
p186
sVbounding_box
p187
(dp188
Vtype
p189
VPolygon
p190
sg135
(lp191
(lp192
(lp193
F8.448081
aF47.320183
aa(lp194
F8.448081
aF47.434721
aa(lp195
F8.625442
aF47.434721
aa(lp196
F8.625442
aF47.320183
aaassVcountry_code
p197
VCH
p198
sVattributes
p199
(dp200
sg33
V3acb748d0f1e9265
p201
sg64
VZurich
p202
sssS'coordinates'
p203
NsS'timestamp_ms'
p204
g137
sS'entities'
p205
g139
sS'in_reply_to_status_id_str'
p206
NsS'in_reply_to_screen_name'
p207
Nsg88
g167
sS'retweeted'
p208
I00
sS'place'
p209
g0
(ctweepy.models
Place
p210
g2
Ntp211
Rp212
(dp213
S'full_name'
p214
g181
sg105
g182
sS'country'
p215
g184
sS'place_type'
p216
g186
sS'bounding_box'
p217
g0
(ctweepy.models
BoundingBox
p218
g2
Ntp219
Rp220
(dp221
S'type'
p222
g190
sg203
g191
sbsS'country_code'
p223
g198
sS'attributes'
p224
g200
sg24
g201
sg99
g202
sbsS'retweet_count'
p225
I0
sg106
g107
(S'\x07\xdf\x07\x07\x131\x15\x00\x00\x00'
p226
tp227
Rp228
sS'in_reply_to_user_id'
p229
Nsb.