ccopy_reg
_reconstructor
p0
(ctweepy.models
Status
p1
c__builtin__
object
p2
Ntp3
Rp4
(dp5
S'favorited'
p6
I00
sS'contributors'
p7
NsS'truncated'
p8
I00
sS'text'
p9
V@Satyajit1712 \u0915\u0939\u093e\u0901 \u092a\u094b\u0939\u094b\u0902\u091a\u093e \u0926\u093f\u092f\u093e \u092e\u0947\u0930\u0947 sap \u0915\u094b
p10
sS'source_url'
p11
Vhttp://twitter.com/download/android
p12
sS'possibly_sensitive'
p13
I00
sS'in_reply_to_status_id'
p14
I620573926440046596
sS'user'
p15
g0
(ctweepy.models
User
p16
g2
Ntp17
Rp18
(dp19
S'follow_request_sent'
p20
NsS'profile_use_background_image'
p21
I01
sS'profile_sidebar_fill_color'
p22
VE3E2DE
p23
sS'id'
p24
I114367389
sS'verified'
p25
I00
sS'profile_image_url_https'
p26
Vhttps://pbs.twimg.com/profile_images/469855524935053312/rgJPzQ4a_normal.jpeg
p27
sS'_json'
p28
(dp29
Vfollow_request_sent
p30
NsVprofile_use_background_image
p31
I01
sVdefault_profile_image
p32
I00
sVid
p33
I114367389
sVverified
p34
I00
sVprofile_image_url_https
p35
g27
sVprofile_sidebar_fill_color
p36
g23
sVprofile_text_color
p37
V634047
p38
sVfollowers_count
p39
I105
sVprofile_sidebar_border_color
p40
VD3D2CF
p41
sVid_str
p42
V114367389
p43
sVprofile_background_color
p44
VEDECE9
p45
sVlisted_count
p46
I0
sVprofile_background_image_url_https
p47
Vhttps://pbs.twimg.com/profile_background_images/600038221/n629wa5m33tdyyq5c280.jpeg
p48
sVutc_offset
p49
I7200
sVstatuses_count
p50
I675
sVdescription
p51
NsVfriends_count
p52
I38
sVlocation
p53
VSwitzerland
p54
sVprofile_link_color
p55
V088253
p56
sVprofile_image_url
p57
Vhttp://pbs.twimg.com/profile_images/469855524935053312/rgJPzQ4a_normal.jpeg
p58
sVfollowing
p59
NsVgeo_enabled
p60
I01
sVprofile_banner_url
p61
Vhttps://pbs.twimg.com/profile_banners/114367389/1400858425
p62
sVprofile_background_image_url
p63
Vhttp://pbs.twimg.com/profile_background_images/600038221/n629wa5m33tdyyq5c280.jpeg
p64
sVname
p65
Vrahul ambardar
p66
sVlang
p67
Ven
p68
sVprofile_background_tile
p69
I00
sVfavourites_count
p70
I4
sVscreen_name
p71
Vambardarrahul
p72
sVnotifications
p73
NsVurl
p74
Vhttp://ch.linkedin.com/in/ambardarrahul
p75
sVcreated_at
p76
VMon Feb 15 05:01:27 +0000 2010
p77
sVcontributors_enabled
p78
I00
sVtime_zone
p79
VAmsterdam
p80
sVprotected
p81
I00
sVdefault_profile
p82
I00
sVis_translator
p83
I00
ssS'contributors_enabled'
p84
I00
sS'profile_text_color'
p85
g38
sS'followers_count'
p86
I105
sS'profile_sidebar_border_color'
p87
g41
sS'location'
p88
g54
sS'default_profile_image'
p89
I00
sS'id_str'
p90
g43
sS'utc_offset'
p91
I7200
sS'statuses_count'
p92
I675
sS'description'
p93
NsS'friends_count'
p94
I38
sS'profile_link_color'
p95
g56
sS'profile_image_url'
p96
g58
sS'notifications'
p97
NsS'geo_enabled'
p98
I01
sS'profile_background_color'
p99
g45
sS'profile_banner_url'
p100
g62
sS'profile_background_image_url'
p101
g64
sS'name'
p102
g66
sS'lang'
p103
g68
sS'following'
p104
I00
sS'profile_background_tile'
p105
I00
sS'favourites_count'
p106
I4
sS'screen_name'
p107
g72
sS'url'
p108
g75
sS'created_at'
p109
cdatetime
datetime
p110
(S'\x07\xda\x02\x0f\x05\x01\x1b\x00\x00\x00'
p111
tp112
Rp113
sS'profile_background_image_url_https'
p114
g48
sS'time_zone'
p115
g80
sS'protected'
p116
I00
sS'default_profile'
p117
I00
sS'is_translator'
p118
I00
sS'listed_count'
p119
I0
sbsS'filter_level'
p120
Vlow
p121
sS'geo'
p122
Nsg24
I620787510554267652
sS'favorite_count'
p123
I0
sS'source'
p124
VTwitter for Android
p125
sg103
Vhi
p126
sS'author'
p127
g18
sS'in_reply_to_user_id_str'
p128
V332486672
p129
sg28
(dp130
Vcontributors
p131
NsVtruncated
p132
I00
sVtext
p133
g10
sVin_reply_to_status_id
p134
I620573926440046596
sg33
I620787510554267652
sVfavorite_count
p135
I0
sVsource
p136
V<a href="http://twitter.com/download/android" rel="nofollow">Twitter for Android</a>
p137
sVretweeted
p138
I00
sVcoordinates
p139
NsVtimestamp_ms
p140
V1436842250847
p141
sVentities
p142
(dp143
Vuser_mentions
p144
(lp145
(dp146
g33
I332486672
sVindices
p147
(lp148
I0
aI13
asg42
V332486672
p149
sg71
VSatyajit1712
p150
sg65
VSatyajit Mohapatra
p151
sasVsymbols
p152
(lp153
sVtrends
p154
(lp155
sVhashtags
p156
(lp157
sVurls
p158
(lp159
ssVin_reply_to_screen_name
p160
VSatyajit1712
p161
sg42
V620787510554267652
p162
sVretweet_count
p163
I0
sVin_reply_to_user_id
p164
I332486672
sVfavorited
p165
I00
sVuser
p166
g29
sVgeo
p167
NsVin_reply_to_user_id_str
p168
g129
sVpossibly_sensitive
p169
I00
sg67
g126
sg76
VTue Jul 14 02:50:50 +0000 2015
p170
sVfilter_level
p171
g121
sVin_reply_to_status_id_str
p172
V620573926440046596
p173
sVplace
p174
(dp175
Vfull_name
p176
VZurich, Switzerland
p177
sg74
Vhttps://api.twitter.com/1.1/geo/id/3acb748d0f1e9265.json
p178
sVcountry
p179
VSchweiz
p180
sVplace_type
p181
Vcity
p182
sVbounding_box
p183
(dp184
Vtype
p185
VPolygon
p186
sg139
(lp187
(lp188
(lp189
F8.448081
aF47.320183
aa(lp190
F8.448081
aF47.434721
aa(lp191
F8.625442
aF47.434721
aa(lp192
F8.625442
aF47.320183
aaassVcountry_code
p193
VCH
p194
sVattributes
p195
(dp196
sg33
V3acb748d0f1e9265
p197
sg65
VZurich
p198
sssS'coordinates'
p199
NsS'timestamp_ms'
p200
g141
sS'entities'
p201
g143
sS'in_reply_to_status_id_str'
p202
g173
sS'in_reply_to_screen_name'
p203
g161
sg90
g162
sS'retweeted'
p204
I00
sS'place'
p205
g0
(ctweepy.models
Place
p206
g2
Ntp207
Rp208
(dp209
S'full_name'
p210
g177
sg108
g178
sS'country'
p211
g180
sS'place_type'
p212
g182
sS'bounding_box'
p213
g0
(ctweepy.models
BoundingBox
p214
g2
Ntp215
Rp216
(dp217
S'type'
p218
g186
sg199
g187
sbsS'country_code'
p219
g194
sS'attributes'
p220
g196
sg24
g197
sg102
g198
sbsS'retweet_count'
p221
I0
sg109
g110
(S'\x07\xdf\x07\x0e\x0222\x00\x00\x00'
p222
tp223
Rp224
sS'in_reply_to_user_id'
p225
I332486672
sb.