ccopy_reg
_reconstructor
p0
(ctweepy.models
Status
p1
c__builtin__
object
p2
Ntp3
Rp4
(dp5
S'favorited'
p6
I00
sS'contributors'
p7
NsS'truncated'
p8
I00
sS'text'
p9
V@_HankRearden @squareslicenews @RealMarkCole Christ rolls of the douche bags tongues like water. Yet no mention of the PEDOPHILE MUHAMMAS.
p10
sS'source_url'
p11
Vhttp://twitter.com
p12
sS'possibly_sensitive'
p13
I00
sS'in_reply_to_status_id'
p14
I620459783091523585
sS'user'
p15
g0
(ctweepy.models
User
p16
g2
Ntp17
Rp18
(dp19
S'follow_request_sent'
p20
NsS'profile_use_background_image'
p21
I00
sS'profile_sidebar_fill_color'
p22
V000000
p23
sS'id'
p24
I2879569993
sS'verified'
p25
I00
sS'profile_image_url_https'
p26
Vhttps://pbs.twimg.com/profile_images/610874208827146241/voSDsKk8_normal.png
p27
sS'_json'
p28
(dp29
Vfollow_request_sent
p30
NsVprofile_use_background_image
p31
I00
sVdefault_profile_image
p32
I00
sVid
p33
I2879569993
sVverified
p34
I00
sVprofile_image_url_https
p35
g27
sVprofile_sidebar_fill_color
p36
g23
sVprofile_text_color
p37
V000000
p38
sVfollowers_count
p39
I255
sVprofile_sidebar_border_color
p40
V000000
p41
sVid_str
p42
V2879569993
p43
sVprofile_background_color
p44
V000000
p45
sVlisted_count
p46
I3
sVprofile_background_image_url_https
p47
Vhttps://abs.twimg.com/images/themes/theme14/bg.gif
p48
sVutc_offset
p49
NsVstatuses_count
p50
I1329
sVdescription
p51
VNEVER COULD HIDE WHO I AM. \u000a.http://ish.re/JJRT -not me.
p52
sVfriends_count
p53
I285
sVlocation
p54
VRepublic of Mozambique
p55
sVprofile_link_color
p56
VDD2E44
p57
sVprofile_image_url
p58
Vhttp://pbs.twimg.com/profile_images/610874208827146241/voSDsKk8_normal.png
p59
sVfollowing
p60
NsVgeo_enabled
p61
I01
sVprofile_banner_url
p62
Vhttps://pbs.twimg.com/profile_banners/2879569993/1434478513
p63
sVprofile_background_image_url
p64
Vhttp://abs.twimg.com/images/themes/theme14/bg.gif
p65
sVname
p66
VD\u2200MN\u2200L\u308bX 
p67
sVlang
p68
Ven
p69
sVprofile_background_tile
p70
I00
sVfavourites_count
p71
I29
sVscreen_name
p72
VDd0xblack1
p73
sVnotifications
p74
NsVurl
p75
NsVcreated_at
p76
VMon Oct 27 13:04:37 +0000 2014
p77
sVcontributors_enabled
p78
I00
sVtime_zone
p79
NsVprotected
p80
I00
sVdefault_profile
p81
I00
sVis_translator
p82
I00
ssS'contributors_enabled'
p83
I00
sS'profile_text_color'
p84
g38
sS'followers_count'
p85
I255
sS'profile_sidebar_border_color'
p86
g41
sS'location'
p87
g55
sS'default_profile_image'
p88
I00
sS'id_str'
p89
g43
sS'utc_offset'
p90
NsS'statuses_count'
p91
I1329
sS'description'
p92
VNEVER COULD HIDE WHO I AM. \u000a.http://ish.re/JJRT -not me.
p93
sS'friends_count'
p94
I285
sS'profile_link_color'
p95
g57
sS'profile_image_url'
p96
g59
sS'notifications'
p97
NsS'geo_enabled'
p98
I01
sS'profile_background_color'
p99
g45
sS'profile_banner_url'
p100
g63
sS'profile_background_image_url'
p101
g65
sS'name'
p102
g67
sS'lang'
p103
g69
sS'following'
p104
I00
sS'profile_background_tile'
p105
I00
sS'favourites_count'
p106
I29
sS'screen_name'
p107
g73
sS'url'
p108
NsS'created_at'
p109
cdatetime
datetime
p110
(S'\x07\xde\n\x1b\r\x04%\x00\x00\x00'
p111
tp112
Rp113
sS'profile_background_image_url_https'
p114
g48
sS'time_zone'
p115
NsS'protected'
p116
I00
sS'default_profile'
p117
I00
sS'is_translator'
p118
I00
sS'listed_count'
p119
I3
sbsS'filter_level'
p120
Vlow
p121
sS'geo'
p122
Nsg24
I620460433871388672
sS'favorite_count'
p123
I0
sS'source'
p124
VTwitter Web Client
p125
sg103
Ven
p126
sS'author'
p127
g18
sS'in_reply_to_user_id_str'
p128
V2461452080
p129
sg28
(dp130
Vcontributors
p131
NsVtruncated
p132
I00
sVtext
p133
g10
sVin_reply_to_status_id
p134
I620459783091523585
sg33
I620460433871388672
sVfavorite_count
p135
I0
sVsource
p136
V<a href="http://twitter.com" rel="nofollow">Twitter Web Client</a>
p137
sVretweeted
p138
I00
sVcoordinates
p139
NsVtimestamp_ms
p140
V1436764269689
p141
sVentities
p142
(dp143
Vuser_mentions
p144
(lp145
(dp146
g33
I2461452080
sVindices
p147
(lp148
I0
aI13
asg42
V2461452080
p149
sg72
V_HankRearden
p150
sg66
VAmerican Hank \u0646
p151
sa(dp152
g33
I3252296713
sg147
(lp153
I14
aI30
asg42
V3252296713
p154
sg72
Vsquareslicenews
p155
sg66
VJohn Johnson
p156
sa(dp157
g33
I808855729
sg147
(lp158
I31
aI44
asg42
V808855729
p159
sg72
VRealMarkCole
p160
sg66
VMark Cole
p161
sasVsymbols
p162
(lp163
sVtrends
p164
(lp165
sVhashtags
p166
(lp167
sVurls
p168
(lp169
ssVin_reply_to_screen_name
p170
V_HankRearden
p171
sg42
V620460433871388672
p172
sVretweet_count
p173
I0
sVin_reply_to_user_id
p174
I2461452080
sVfavorited
p175
I00
sVuser
p176
g29
sVgeo
p177
NsVin_reply_to_user_id_str
p178
g129
sVpossibly_sensitive
p179
I00
sg68
g126
sg76
VMon Jul 13 05:11:09 +0000 2015
p180
sVfilter_level
p181
g121
sVin_reply_to_status_id_str
p182
V620459783091523585
p183
sVplace
p184
(dp185
Vfull_name
p186
VBerne, Switzerland
p187
sg75
Vhttps://api.twitter.com/1.1/geo/id/5868d0e0749c9c47.json
p188
sVcountry
p189
VSchweiz
p190
sVplace_type
p191
Vadmin
p192
sVbounding_box
p193
(dp194
Vtype
p195
VPolygon
p196
sg139
(lp197
(lp198
(lp199
F6.861601
aF46.326441
aa(lp200
F6.861601
aF47.34528
aa(lp201
F8.455051
aF47.34528
aa(lp202
F8.455051
aF46.326441
aaassVcountry_code
p203
VCH
p204
sVattributes
p205
(dp206
sg33
V5868d0e0749c9c47
p207
sg66
VBern
p208
sssS'coordinates'
p209
NsS'timestamp_ms'
p210
g141
sS'entities'
p211
g143
sS'in_reply_to_status_id_str'
p212
g183
sS'in_reply_to_screen_name'
p213
g171
sg89
g172
sS'retweeted'
p214
I00
sS'place'
p215
g0
(ctweepy.models
Place
p216
g2
Ntp217
Rp218
(dp219
S'full_name'
p220
g187
sg108
g188
sS'country'
p221
g190
sS'place_type'
p222
g192
sS'bounding_box'
p223
g0
(ctweepy.models
BoundingBox
p224
g2
Ntp225
Rp226
(dp227
S'type'
p228
g196
sg209
g197
sbsS'country_code'
p229
g204
sS'attributes'
p230
g206
sg24
g207
sg102
g208
sbsS'retweet_count'
p231
I0
sg109
g110
(S'\x07\xdf\x07\r\x05\x0b\t\x00\x00\x00'
p232
tp233
Rp234
sS'in_reply_to_user_id'
p235
I2461452080
sb.