ccopy_reg
_reconstructor
p0
(ctweepy.models
Status
p1
c__builtin__
object
p2
Ntp3
Rp4
(dp5
S'contributors'
p6
NsS'truncated'
p7
I00
sS'text'
p8
VDid we get a mention? @AliceRees3  https://t.co/hIjoS4DASn
p9
sS'in_reply_to_status_id'
p10
NsS'id'
p11
I620968983672569856
sS'favorite_count'
p12
I0
sS'entities'
p13
(dp14
Vuser_mentions
p15
(lp16
(dp17
Vid
p18
I1321299824
sVindices
p19
(lp20
I22
aI33
asVid_str
p21
V1321299824
p22
sVscreen_name
p23
VAliceRees3
p24
sVname
p25
VAlice Rees
p26
sasVsymbols
p27
(lp28
sVtrends
p29
(lp30
sVhashtags
p31
(lp32
sVurls
p33
(lp34
(dp35
Vurl
p36
Vhttps://t.co/hIjoS4DASn
p37
sg19
(lp38
I35
aI58
asVexpanded_url
p39
Vhttps://twitter.com/hinterestin/status/620962638768386048
p40
sVdisplay_url
p41
Vtwitter.com/hinterestin/st\u2026
p42
sassS'quoted_status_id'
p43
I620962638768386048
sS'_json'
p44
(dp45
Vcontributors
p46
NsVtruncated
p47
I00
sVtext
p48
g9
sVin_reply_to_status_id
p49
Nsg18
I620968983672569856
sVfavorite_count
p50
I0
sVsource
p51
V<a href="http://twitter.com/download/iphone" rel="nofollow">Twitter for iPhone</a>
p52
sVquoted_status_id
p53
I620962638768386048
sVretweeted
p54
I00
sVcoordinates
p55
NsVtimestamp_ms
p56
V1436885517410
p57
sVquoted_status
p58
(dp59
g46
Nsg47
I00
sg48
V17 Colouring Books That Are Perfect For Grown-Ups: Fresh ink.\u000a\u000a... http://t.co/vvGKuDm7Ee @hinterestin #random
p60
sg49
Nsg18
I620962638768386048
sg50
I0
sg51
V<a href="http://twitterfeed.com" rel="nofollow">twitterfeed</a>
p61
sg54
I00
sg55
NsVentities
p62
(dp63
g15
(lp64
(dp65
g18
I3171321661
sg19
(lp66
I90
aI102
asg21
V3171321661
p67
sg23
Vhinterestin
p68
sg25
VHinterestin
p69
sasg27
(lp70
sg29
(lp71
sg31
(lp72
(dp73
g19
(lp74
I103
aI110
asg48
Vrandom
p75
sasg33
(lp76
(dp77
g36
Vhttp://t.co/vvGKuDm7Ee
p78
sg19
(lp79
I67
aI89
asg39
Vhttp://bzfd.it/1UYjbqm
p80
sg41
Vbzfd.it/1UYjbqm
p81
sassVin_reply_to_screen_name
p82
Nsg21
V620962638768386048
p83
sVretweet_count
p84
I0
sVin_reply_to_user_id
p85
NsVfavorited
p86
I00
sVuser
p87
(dp88
Vfollow_request_sent
p89
NsVprofile_use_background_image
p90
I01
sVdefault_profile_image
p91
I00
sg18
I3171321661
sVverified
p92
I00
sVprofile_image_url_https
p93
Vhttps://pbs.twimg.com/profile_images/600333213974728704/5awX6t6w_normal.png
p94
sVprofile_sidebar_fill_color
p95
VDDEEF6
p96
sVprofile_text_color
p97
V333333
p98
sVfollowers_count
p99
I432
sVprofile_sidebar_border_color
p100
VC0DEED
p101
sg21
V3171321661
p102
sVprofile_background_color
p103
VC0DEED
p104
sVlisted_count
p105
I11
sVprofile_background_image_url_https
p106
Vhttps://abs.twimg.com/images/themes/theme1/bg.png
p107
sVutc_offset
p108
NsVstatuses_count
p109
I2394
sVdescription
p110
VBringing you funny and 'h'interesting News, Jokes, Pick-up-Lines, Quotes, Facts and random stuffs from around the web | follow us or miss out | dont unfollow
p111
sVfriends_count
p112
I1060
sVlocation
p113
VHinterestland
p114
sVprofile_link_color
p115
V0084B4
p116
sVprofile_image_url
p117
Vhttp://pbs.twimg.com/profile_images/600333213974728704/5awX6t6w_normal.png
p118
sVfollowing
p119
NsVgeo_enabled
p120
I00
sVprofile_banner_url
p121
Vhttps://pbs.twimg.com/profile_banners/3171321661/1431966334
p122
sVprofile_background_image_url
p123
Vhttp://abs.twimg.com/images/themes/theme1/bg.png
p124
sg25
VHinterestin
p125
sVlang
p126
Ven
p127
sVprofile_background_tile
p128
I00
sVfavourites_count
p129
I0
sg23
Vhinterestin
p130
sVnotifications
p131
Nsg36
NsVcreated_at
p132
VFri Apr 24 21:03:39 +0000 2015
p133
sVcontributors_enabled
p134
I00
sVtime_zone
p135
NsVprotected
p136
I00
sVdefault_profile
p137
I01
sVis_translator
p138
I00
ssVgeo
p139
NsVin_reply_to_user_id_str
p140
NsVpossibly_sensitive
p141
I00
sg126
Ven
p142
sg132
VTue Jul 14 14:26:44 +0000 2015
p143
sVfilter_level
p144
Vlow
p145
sVin_reply_to_status_id_str
p146
NsVplace
p147
Nssg62
g14
sg82
Nsg21
V620968983672569856
p148
sg84
I0
sg85
Nsg86
I00
sg87
(dp149
g89
Nsg90
I01
sg91
I00
sg18
I22706694
sg92
I00
sg93
Vhttps://pbs.twimg.com/profile_images/477177688332189696/0CMlgxH3_normal.jpeg
p150
sg95
VE3E2DE
p151
sg97
V634047
p152
sg99
I184
sg100
VD3D2CF
p153
sg21
V22706694
p154
sg103
VEDECE9
p155
sg105
I5
sg106
Vhttps://abs.twimg.com/images/themes/theme3/bg.gif
p156
sg108
I3600
sg109
I3915
sg110
VThe business of books, and exporting...and exporting books. All books are not my own.
p157
sg112
I621
sg113
VLondoned Up/Marvel Universe
p158
sg115
V088253
p159
sg117
Vhttp://pbs.twimg.com/profile_images/477177688332189696/0CMlgxH3_normal.jpeg
p160
sg119
Nsg120
I01
sg121
Vhttps://pbs.twimg.com/profile_banners/22706694/1423553494
p161
sg123
Vhttp://abs.twimg.com/images/themes/theme3/bg.gif
p162
sg25
VGary Clarke
p163
sg126
Ven
p164
sg128
I00
sg129
I1001
sg23
Vlastparty
p165
sg131
Nsg36
Vhttp://www.gmcbooktrade.com
p166
sg132
VWed Mar 04 00:30:16 +0000 2009
p167
sg134
I00
sg135
VLondon
p168
sg136
I00
sg137
I00
sg138
I00
ssg139
Nsg140
Nsg141
I00
sg126
Ven
p169
sg132
VTue Jul 14 14:51:57 +0000 2015
p170
sVquoted_status_id_str
p171
V620962638768386048
p172
sg144
Vlow
p173
sg146
Nsg147
(dp174
Vfull_name
p175
VZurich, Switzerland
p176
sg36
Vhttps://api.twitter.com/1.1/geo/id/3acb748d0f1e9265.json
p177
sVcountry
p178
VSchweiz
p179
sVplace_type
p180
Vcity
p181
sVbounding_box
p182
(dp183
Vtype
p184
VPolygon
p185
sg55
(lp186
(lp187
(lp188
F8.448081
aF47.320183
aa(lp189
F8.448081
aF47.434721
aa(lp190
F8.625442
aF47.434721
aa(lp191
F8.625442
aF47.320183
aaassVcountry_code
p192
VCH
p193
sVattributes
p194
(dp195
sg18
V3acb748d0f1e9265
p196
sg25
VZurich
p197
sssS'coordinates'
p198
NsS'timestamp_ms'
p199
g57
sS'quoted_status'
p200
g59
sS'source'
p201
VTwitter for iPhone
p202
sS'in_reply_to_screen_name'
p203
NsS'id_str'
p204
g148
sS'retweet_count'
p205
I0
sS'in_reply_to_user_id'
p206
NsS'favorited'
p207
I00
sS'source_url'
p208
Vhttp://twitter.com/download/iphone
p209
sS'user'
p210
g0
(ctweepy.models
User
p211
g2
Ntp212
Rp213
(dp214
S'follow_request_sent'
p215
NsS'profile_use_background_image'
p216
I01
sS'profile_sidebar_fill_color'
p217
g151
sg11
I22706694
sS'verified'
p218
I00
sS'profile_image_url_https'
p219
g150
sg44
g149
sS'contributors_enabled'
p220
I00
sS'profile_text_color'
p221
g152
sS'followers_count'
p222
I184
sS'profile_sidebar_border_color'
p223
g153
sS'location'
p224
g158
sS'default_profile_image'
p225
I00
sg204
g154
sS'utc_offset'
p226
I3600
sS'statuses_count'
p227
I3915
sS'description'
p228
g157
sS'friends_count'
p229
I621
sS'profile_link_color'
p230
g159
sS'profile_image_url'
p231
g160
sS'notifications'
p232
NsS'geo_enabled'
p233
I01
sS'profile_background_color'
p234
g155
sS'profile_banner_url'
p235
g161
sS'profile_background_image_url'
p236
g162
sS'name'
p237
g163
sS'lang'
p238
g164
sS'following'
p239
I00
sS'profile_background_tile'
p240
I00
sS'favourites_count'
p241
I1001
sS'screen_name'
p242
g165
sS'url'
p243
g166
sS'created_at'
p244
cdatetime
datetime
p245
(S'\x07\xd9\x03\x04\x00\x1e\x10\x00\x00\x00'
p246
tp247
Rp248
sS'profile_background_image_url_https'
p249
g156
sS'time_zone'
p250
g168
sS'protected'
p251
I00
sS'default_profile'
p252
I00
sS'is_translator'
p253
I00
sS'listed_count'
p254
I5
sbsS'geo'
p255
NsS'in_reply_to_user_id_str'
p256
NsS'possibly_sensitive'
p257
I00
sg238
g169
sg244
g245
(S'\x07\xdf\x07\x0e\x0e39\x00\x00\x00'
p258
tp259
Rp260
sS'author'
p261
g213
sS'quoted_status_id_str'
p262
g172
sS'filter_level'
p263
g173
sS'in_reply_to_status_id_str'
p264
NsS'place'
p265
g0
(ctweepy.models
Place
p266
g2
Ntp267
Rp268
(dp269
S'full_name'
p270
g176
sg243
g177
sS'country'
p271
g179
sS'place_type'
p272
g181
sS'bounding_box'
p273
g0
(ctweepy.models
BoundingBox
p274
g2
Ntp275
Rp276
(dp277
S'type'
p278
g185
sg198
g186
sbsS'country_code'
p279
g193
sS'attributes'
p280
g195
sg11
g196
sg237
g197
sbsS'retweeted'
p281
I00
sb.