ccopy_reg
_reconstructor
p0
(ctweepy.models
Status
p1
c__builtin__
object
p2
Ntp3
Rp4
(dp5
S'favorited'
p6
I00
sS'contributors'
p7
NsS'truncated'
p8
I00
sS'text'
p9
V@matetlemonde  Oh contente pour toi Mat :) petit cadeau : https://t.co/AVVXWg74YT https://t.co/cOoWS1UGJR #allyouneedisecuador #ecuaculture
p10
sS'source_url'
p11
Vhttp://twitter.com
p12
sS'possibly_sensitive'
p13
I00
sS'in_reply_to_status_id'
p14
I619894297492627456
sS'user'
p15
g0
(ctweepy.models
User
p16
g2
Ntp17
Rp18
(dp19
S'follow_request_sent'
p20
NsS'profile_use_background_image'
p21
I00
sS'profile_sidebar_fill_color'
p22
V000000
p23
sS'id'
p24
I2867975837
sS'verified'
p25
I00
sS'profile_image_url_https'
p26
Vhttps://pbs.twimg.com/profile_images/586355549106745345/BcguLjXh_normal.jpg
p27
sS'_json'
p28
(dp29
Vfollow_request_sent
p30
NsVprofile_use_background_image
p31
I00
sVdefault_profile_image
p32
I00
sVid
p33
I2867975837
sVverified
p34
I00
sVprofile_image_url_https
p35
g27
sVprofile_sidebar_fill_color
p36
g23
sVprofile_text_color
p37
V000000
p38
sVfollowers_count
p39
I23
sVprofile_sidebar_border_color
p40
V000000
p41
sVid_str
p42
V2867975837
p43
sVprofile_background_color
p44
V000000
p45
sVlisted_count
p46
I7
sVprofile_background_image_url_https
p47
Vhttps://abs.twimg.com/images/themes/theme1/bg.png
p48
sVutc_offset
p49
I7200
sVstatuses_count
p50
I337
sVdescription
p51
VArt /News/Travel
p52
sVfriends_count
p53
I15
sVlocation
p54
VEcuador-Swiss
p55
sVprofile_link_color
p56
V94D487
p57
sVprofile_image_url
p58
Vhttp://pbs.twimg.com/profile_images/586355549106745345/BcguLjXh_normal.jpg
p59
sVfollowing
p60
NsVgeo_enabled
p61
I01
sVprofile_banner_url
p62
Vhttps://pbs.twimg.com/profile_banners/2867975837/1424645046
p63
sVprofile_background_image_url
p64
Vhttp://abs.twimg.com/images/themes/theme1/bg.png
p65
sVname
p66
VEcuaculture
p67
sVlang
p68
Vfr
p69
sVprofile_background_tile
p70
I00
sVfavourites_count
p71
I8
sVscreen_name
p72
Vecuaculture
p73
sVnotifications
p74
NsVurl
p75
Vhttp://www.ecuaculture.com
p76
sVcreated_at
p77
VSat Nov 08 21:20:29 +0000 2014
p78
sVcontributors_enabled
p79
I00
sVtime_zone
p80
VLjubljana
p81
sVprotected
p82
I00
sVdefault_profile
p83
I00
sVis_translator
p84
I00
ssS'contributors_enabled'
p85
I00
sS'profile_text_color'
p86
g38
sS'followers_count'
p87
I23
sS'profile_sidebar_border_color'
p88
g41
sS'location'
p89
g55
sS'default_profile_image'
p90
I00
sS'id_str'
p91
g43
sS'utc_offset'
p92
I7200
sS'statuses_count'
p93
I337
sS'description'
p94
g52
sS'friends_count'
p95
I15
sS'profile_link_color'
p96
g57
sS'profile_image_url'
p97
g59
sS'notifications'
p98
NsS'geo_enabled'
p99
I01
sS'profile_background_color'
p100
g45
sS'profile_banner_url'
p101
g63
sS'profile_background_image_url'
p102
g65
sS'name'
p103
g67
sS'lang'
p104
g69
sS'following'
p105
I00
sS'profile_background_tile'
p106
I00
sS'favourites_count'
p107
I8
sS'screen_name'
p108
g73
sS'url'
p109
g76
sS'created_at'
p110
cdatetime
datetime
p111
(S'\x07\xde\x0b\x08\x15\x14\x1d\x00\x00\x00'
p112
tp113
Rp114
sS'profile_background_image_url_https'
p115
g48
sS'time_zone'
p116
g81
sS'protected'
p117
I00
sS'default_profile'
p118
I00
sS'is_translator'
p119
I00
sS'listed_count'
p120
I7
sbsS'filter_level'
p121
Vlow
p122
sS'geo'
p123
Nsg24
I619916891767881728
sS'favorite_count'
p124
I0
sS'source'
p125
VTwitter Web Client
p126
sg104
Vfr
p127
sS'author'
p128
g18
sS'in_reply_to_user_id_str'
p129
V2847339501
p130
sg28
(dp131
Vcontributors
p132
NsVtruncated
p133
I00
sVtext
p134
g10
sVin_reply_to_status_id
p135
I619894297492627456
sg33
I619916891767881728
sVfavorite_count
p136
I0
sVsource
p137
V<a href="http://twitter.com" rel="nofollow">Twitter Web Client</a>
p138
sVretweeted
p139
I00
sVcoordinates
p140
NsVtimestamp_ms
p141
V1436634679153
p142
sVentities
p143
(dp144
Vuser_mentions
p145
(lp146
(dp147
g33
I2847339501
sVindices
p148
(lp149
I0
aI13
asg42
V2847339501
p150
sg72
Vmatetlemonde
p151
sg66
VMat et le Monde
p152
sasVsymbols
p153
(lp154
sVtrends
p155
(lp156
sVhashtags
p157
(lp158
(dp159
g148
(lp160
I106
aI126
asg134
Vallyouneedisecuador
p161
sa(dp162
g148
(lp163
I127
aI139
asg134
Vecuaculture
p164
sasVurls
p165
(lp166
(dp167
g75
Vhttps://t.co/AVVXWg74YT
p168
sg148
(lp169
I58
aI81
asVexpanded_url
p170
Vhttps://www.pinterest.com/isabelsloth/cuyabeno/
p171
sVdisplay_url
p172
Vpinterest.com/isabelsloth/cu\u2026
p173
sa(dp174
g75
Vhttps://t.co/cOoWS1UGJR
p175
sg148
(lp176
I82
aI105
asg170
Vhttps://www.pinterest.com/isabelsloth/amazonie/
p177
sg172
Vpinterest.com/isabelsloth/am\u2026
p178
sassVin_reply_to_screen_name
p179
Vmatetlemonde
p180
sg42
V619916891767881728
p181
sVretweet_count
p182
I0
sVin_reply_to_user_id
p183
I2847339501
sVfavorited
p184
I00
sVuser
p185
g29
sVgeo
p186
NsVin_reply_to_user_id_str
p187
g130
sVpossibly_sensitive
p188
I00
sg68
g127
sg77
VSat Jul 11 17:11:19 +0000 2015
p189
sVfilter_level
p190
g122
sVin_reply_to_status_id_str
p191
V619894297492627456
p192
sVplace
p193
(dp194
Vfull_name
p195
VZurich, Suisse
p196
sg75
Vhttps://api.twitter.com/1.1/geo/id/3acb748d0f1e9265.json
p197
sVcountry
p198
VSchweiz
p199
sVplace_type
p200
Vcity
p201
sVbounding_box
p202
(dp203
Vtype
p204
VPolygon
p205
sg140
(lp206
(lp207
(lp208
F8.448081
aF47.320183
aa(lp209
F8.448081
aF47.434721
aa(lp210
F8.625442
aF47.434721
aa(lp211
F8.625442
aF47.320183
aaassVcountry_code
p212
VCH
p213
sVattributes
p214
(dp215
sg33
V3acb748d0f1e9265
p216
sg66
VZurich
p217
sssS'coordinates'
p218
NsS'timestamp_ms'
p219
g142
sS'entities'
p220
g144
sS'in_reply_to_status_id_str'
p221
g192
sS'in_reply_to_screen_name'
p222
g180
sg91
g181
sS'retweeted'
p223
I00
sS'place'
p224
g0
(ctweepy.models
Place
p225
g2
Ntp226
Rp227
(dp228
S'full_name'
p229
g196
sg109
g197
sS'country'
p230
g199
sS'place_type'
p231
g201
sS'bounding_box'
p232
g0
(ctweepy.models
BoundingBox
p233
g2
Ntp234
Rp235
(dp236
S'type'
p237
g205
sg218
g206
sbsS'country_code'
p238
g213
sS'attributes'
p239
g215
sg24
g216
sg103
g217
sbsS'retweet_count'
p240
I0
sg110
g111
(S'\x07\xdf\x07\x0b\x11\x0b\x13\x00\x00\x00'
p241
tp242
Rp243
sS'in_reply_to_user_id'
p244
I2847339501
sb.