ccopy_reg
_reconstructor
p0
(ctweepy.models
Status
p1
c__builtin__
object
p2
Ntp3
Rp4
(dp5
S'favorited'
p6
I00
sS'contributors'
p7
NsS'truncated'
p8
I00
sS'text'
p9
VGood morning! A new look is up on the blog today: http://t.co/7uGkWtDjAk #menswear #mensfashion #menstyle http://t.co/3AJsWCwD7Y
p10
sS'source_url'
p11
Vhttp://twitter.com
p12
sS'possibly_sensitive'
p13
I00
sS'in_reply_to_status_id'
p14
NsS'user'
p15
g0
(ctweepy.models
User
p16
g2
Ntp17
Rp18
(dp19
S'follow_request_sent'
p20
NsS'profile_use_background_image'
p21
I01
sS'profile_sidebar_fill_color'
p22
VF2EDF2
p23
sS'id'
p24
I46355358
sS'verified'
p25
I00
sS'profile_image_url_https'
p26
Vhttps://pbs.twimg.com/profile_images/546543583944134656/RmnnYaAp_normal.jpeg
p27
sS'_json'
p28
(dp29
Vfollow_request_sent
p30
NsVprofile_use_background_image
p31
I01
sVdefault_profile_image
p32
I00
sVid
p33
I46355358
sVverified
p34
I00
sVprofile_image_url_https
p35
g27
sVprofile_sidebar_fill_color
p36
g23
sVprofile_text_color
p37
V333333
p38
sVfollowers_count
p39
I695
sVprofile_sidebar_border_color
p40
VFFFFFF
p41
sVid_str
p42
V46355358
p43
sVprofile_background_color
p44
VFFFFFF
p45
sVlisted_count
p46
I26
sVprofile_background_image_url_https
p47
Vhttps://pbs.twimg.com/profile_background_images/378800000116572659/8c79c0fdb3394606b35c8a03f8f4023f.jpeg
p48
sVutc_offset
p49
I7200
sVstatuses_count
p50
I2584
sVdescription
p51
VLife is an adventure, so enjoy it! \u270c\ufe0f Blogger & Model | lips2lagerfeld@gmail.com | http://instagram.com/mroliverlips
p52
sVfriends_count
p53
I303
sVlocation
p54
VZurich
p55
sVprofile_link_color
p56
V990026
p57
sVprofile_image_url
p58
Vhttp://pbs.twimg.com/profile_images/546543583944134656/RmnnYaAp_normal.jpeg
p59
sVfollowing
p60
NsVgeo_enabled
p61
I01
sVprofile_banner_url
p62
Vhttps://pbs.twimg.com/profile_banners/46355358/1424256125
p63
sVprofile_background_image_url
p64
Vhttp://pbs.twimg.com/profile_background_images/378800000116572659/8c79c0fdb3394606b35c8a03f8f4023f.jpeg
p65
sVname
p66
VOliver Lips
p67
sVlang
p68
Ven
p69
sVprofile_background_tile
p70
I00
sVfavourites_count
p71
I1165
sVscreen_name
p72
VOliverLips
p73
sVnotifications
p74
NsVurl
p75
Vhttp://www.lips2lagerfeld.com
p76
sVcreated_at
p77
VThu Jun 11 09:51:29 +0000 2009
p78
sVcontributors_enabled
p79
I00
sVtime_zone
p80
VBern
p81
sVprotected
p82
I00
sVdefault_profile
p83
I00
sVis_translator
p84
I00
ssS'contributors_enabled'
p85
I00
sS'profile_text_color'
p86
g38
sS'followers_count'
p87
I695
sS'profile_sidebar_border_color'
p88
g41
sS'location'
p89
g55
sS'default_profile_image'
p90
I00
sS'id_str'
p91
g43
sS'utc_offset'
p92
I7200
sS'statuses_count'
p93
I2584
sS'description'
p94
g52
sS'friends_count'
p95
I303
sS'profile_link_color'
p96
g57
sS'profile_image_url'
p97
g59
sS'notifications'
p98
NsS'geo_enabled'
p99
I01
sS'profile_background_color'
p100
g45
sS'profile_banner_url'
p101
g63
sS'profile_background_image_url'
p102
g65
sS'name'
p103
g67
sS'lang'
p104
g69
sS'following'
p105
I00
sS'profile_background_tile'
p106
I00
sS'favourites_count'
p107
I1165
sS'screen_name'
p108
g73
sS'url'
p109
g76
sS'created_at'
p110
cdatetime
datetime
p111
(S'\x07\xd9\x06\x0b\t3\x1d\x00\x00\x00'
p112
tp113
Rp114
sS'profile_background_image_url_https'
p115
g48
sS'time_zone'
p116
g81
sS'protected'
p117
I00
sS'default_profile'
p118
I00
sS'is_translator'
p119
I00
sS'listed_count'
p120
I26
sbsS'filter_level'
p121
Vlow
p122
sS'geo'
p123
Nsg24
I620491049996288000
sS'favorite_count'
p124
I0
sS'source'
p125
VTwitter Web Client
p126
sg104
Ven
p127
sS'author'
p128
g18
sS'in_reply_to_user_id_str'
p129
Nsg28
(dp130
Vcontributors
p131
NsVtruncated
p132
I00
sVtext
p133
g10
sVin_reply_to_status_id
p134
Nsg33
I620491049996288000
sVfavorite_count
p135
I0
sVsource
p136
V<a href="http://twitter.com" rel="nofollow">Twitter Web Client</a>
p137
sVretweeted
p138
I00
sVcoordinates
p139
NsVtimestamp_ms
p140
V1436771569142
p141
sVentities
p142
(dp143
Vsymbols
p144
(lp145
sVmedia
p146
(lp147
(dp148
Vexpanded_url
p149
Vhttp://twitter.com/OliverLips/status/620491049996288000/photo/1
p150
sVdisplay_url
p151
Vpic.twitter.com/3AJsWCwD7Y
p152
sg75
Vhttp://t.co/3AJsWCwD7Y
p153
sVmedia_url_https
p154
Vhttps://pbs.twimg.com/media/CJxtUkwWsAAcGX0.jpg
p155
sg42
V620491048901586944
p156
sVsizes
p157
(dp158
Vsmall
p159
(dp160
Vh
p161
I226
sVresize
p162
Vfit
p163
sVw
p164
I340
ssVlarge
p165
(dp166
g161
I682
sg162
Vfit
p167
sg164
I1024
ssVmedium
p168
(dp169
g161
I400
sg162
Vfit
p170
sg164
I600
ssVthumb
p171
(dp172
g161
I150
sg162
Vcrop
p173
sg164
I150
sssVindices
p174
(lp175
I106
aI128
asVtype
p176
Vphoto
p177
sg33
I620491048901586944
sVmedia_url
p178
Vhttp://pbs.twimg.com/media/CJxtUkwWsAAcGX0.jpg
p179
sasVhashtags
p180
(lp181
(dp182
g174
(lp183
I73
aI82
asg133
Vmenswear
p184
sa(dp185
g174
(lp186
I83
aI95
asg133
Vmensfashion
p187
sa(dp188
g174
(lp189
I96
aI105
asg133
Vmenstyle
p190
sasVuser_mentions
p191
(lp192
sVtrends
p193
(lp194
sVurls
p195
(lp196
(dp197
g75
Vhttp://t.co/7uGkWtDjAk
p198
sg174
(lp199
I50
aI72
asg149
Vhttp://www.lips2lagerfeld.com/blog/2015/07/lakeside
p200
sg151
Vlips2lagerfeld.com/blog/2015/07/l\u2026
p201
sassVin_reply_to_screen_name
p202
Nsg42
V620491049996288000
p203
sVretweet_count
p204
I0
sVin_reply_to_user_id
p205
NsVfavorited
p206
I00
sVuser
p207
g29
sVgeo
p208
NsVin_reply_to_user_id_str
p209
NsVpossibly_sensitive
p210
I00
sg68
g127
sg77
VMon Jul 13 07:12:49 +0000 2015
p211
sVfilter_level
p212
g122
sVin_reply_to_status_id_str
p213
NsVplace
p214
(dp215
Vfull_name
p216
VZurich, Switzerland
p217
sg75
Vhttps://api.twitter.com/1.1/geo/id/3acb748d0f1e9265.json
p218
sVcountry
p219
VSchweiz
p220
sVplace_type
p221
Vcity
p222
sVbounding_box
p223
(dp224
g176
VPolygon
p225
sg139
(lp226
(lp227
(lp228
F8.448081
aF47.320183
aa(lp229
F8.448081
aF47.434721
aa(lp230
F8.625442
aF47.434721
aa(lp231
F8.625442
aF47.320183
aaassVcountry_code
p232
VCH
p233
sVattributes
p234
(dp235
sg33
V3acb748d0f1e9265
p236
sg66
VZurich
p237
ssVextended_entities
p238
(dp239
g146
(lp240
(dp241
g149
Vhttp://twitter.com/OliverLips/status/620491049996288000/photo/1
p242
sg151
Vpic.twitter.com/3AJsWCwD7Y
p243
sg75
Vhttp://t.co/3AJsWCwD7Y
p244
sg154
Vhttps://pbs.twimg.com/media/CJxtUkwWsAAcGX0.jpg
p245
sg42
V620491048901586944
p246
sg157
(dp247
g159
(dp248
g161
I226
sg162
Vfit
p249
sg164
I340
ssg165
(dp250
g161
I682
sg162
Vfit
p251
sg164
I1024
ssg168
(dp252
g161
I400
sg162
Vfit
p253
sg164
I600
ssg171
(dp254
g161
I150
sg162
Vcrop
p255
sg164
I150
sssg174
(lp256
I106
aI128
asg176
Vphoto
p257
sg33
I620491048901586944
sg178
Vhttp://pbs.twimg.com/media/CJxtUkwWsAAcGX0.jpg
p258
sasssS'coordinates'
p259
NsS'timestamp_ms'
p260
g141
sS'entities'
p261
g143
sS'in_reply_to_status_id_str'
p262
NsS'in_reply_to_screen_name'
p263
Nsg91
g203
sS'extended_entities'
p264
g239
sS'retweeted'
p265
I00
sS'place'
p266
g0
(ctweepy.models
Place
p267
g2
Ntp268
Rp269
(dp270
S'full_name'
p271
g217
sg109
g218
sS'country'
p272
g220
sS'place_type'
p273
g222
sS'bounding_box'
p274
g0
(ctweepy.models
BoundingBox
p275
g2
Ntp276
Rp277
(dp278
S'type'
p279
g225
sg259
g226
sbsS'country_code'
p280
g233
sS'attributes'
p281
g235
sg24
g236
sg103
g237
sbsS'retweet_count'
p282
I0
sg110
g111
(S'\x07\xdf\x07\r\x07\x0c1\x00\x00\x00'
p283
tp284
Rp285
sS'in_reply_to_user_id'
p286
Nsb.