ccopy_reg
_reconstructor
p0
(ctweepy.models
Status
p1
c__builtin__
object
p2
Ntp3
Rp4
(dp5
S'favorited'
p6
I00
sS'contributors'
p7
NsS'truncated'
p8
I00
sS'text'
p9
VZurich #Switzerland #GoodMorning http://t.co/9CQLefbIig
p10
sS'source_url'
p11
Vhttp://twitter.com/download/iphone
p12
sS'possibly_sensitive'
p13
I00
sS'in_reply_to_status_id'
p14
NsS'user'
p15
g0
(ctweepy.models
User
p16
g2
Ntp17
Rp18
(dp19
S'follow_request_sent'
p20
NsS'profile_use_background_image'
p21
I01
sS'profile_sidebar_fill_color'
p22
VDDEEF6
p23
sS'id'
p24
I582056835
sS'verified'
p25
I00
sS'profile_image_url_https'
p26
Vhttps://pbs.twimg.com/profile_images/2438457646/36shjyojrx25d20i4sm1_normal.jpeg
p27
sS'_json'
p28
(dp29
Vfollow_request_sent
p30
NsVprofile_use_background_image
p31
I01
sVdefault_profile_image
p32
I00
sVid
p33
I582056835
sVverified
p34
I00
sVprofile_image_url_https
p35
g27
sVprofile_sidebar_fill_color
p36
g23
sVprofile_text_color
p37
V333333
p38
sVfollowers_count
p39
I21
sVprofile_sidebar_border_color
p40
VC0DEED
p41
sVid_str
p42
V582056835
p43
sVprofile_background_color
p44
VC0DEED
p45
sVlisted_count
p46
I0
sVprofile_background_image_url_https
p47
Vhttps://abs.twimg.com/images/themes/theme1/bg.png
p48
sVutc_offset
p49
NsVstatuses_count
p50
I109
sVdescription
p51
NsVfriends_count
p52
I35
sVlocation
p53
V
p54
sVprofile_link_color
p55
V0084B4
p56
sVprofile_image_url
p57
Vhttp://pbs.twimg.com/profile_images/2438457646/36shjyojrx25d20i4sm1_normal.jpeg
p58
sVfollowing
p59
NsVgeo_enabled
p60
I01
sVprofile_background_image_url
p61
Vhttp://abs.twimg.com/images/themes/theme1/bg.png
p62
sVname
p63
VMathieu N-C
p64
sVlang
p65
Vfr
p66
sVprofile_background_tile
p67
I00
sVfavourites_count
p68
I3
sVscreen_name
p69
VM__NC
p70
sVnotifications
p71
NsVurl
p72
NsVcreated_at
p73
VWed May 16 16:35:29 +0000 2012
p74
sVcontributors_enabled
p75
I00
sVtime_zone
p76
NsVprotected
p77
I00
sVdefault_profile
p78
I01
sVis_translator
p79
I00
ssS'contributors_enabled'
p80
I00
sS'profile_text_color'
p81
g38
sS'followers_count'
p82
I21
sS'profile_sidebar_border_color'
p83
g41
sS'location'
p84
g54
sS'default_profile_image'
p85
I00
sS'id_str'
p86
g43
sS'utc_offset'
p87
NsS'statuses_count'
p88
I109
sS'description'
p89
NsS'friends_count'
p90
I35
sS'profile_link_color'
p91
g56
sS'profile_image_url'
p92
g58
sS'notifications'
p93
NsS'geo_enabled'
p94
I01
sS'profile_background_color'
p95
g45
sS'profile_background_image_url'
p96
g62
sS'name'
p97
g64
sS'lang'
p98
g66
sS'following'
p99
I00
sS'profile_background_tile'
p100
I00
sS'favourites_count'
p101
I3
sS'screen_name'
p102
g70
sS'url'
p103
NsS'created_at'
p104
cdatetime
datetime
p105
(S'\x07\xdc\x05\x10\x10#\x1d\x00\x00\x00'
p106
tp107
Rp108
sS'profile_background_image_url_https'
p109
g48
sS'time_zone'
p110
NsS'protected'
p111
I00
sS'default_profile'
p112
I01
sS'is_translator'
p113
I00
sS'listed_count'
p114
I0
sbsS'filter_level'
p115
Vlow
p116
sS'geo'
p117
Nsg24
I620873507245834240
sS'favorite_count'
p118
I0
sS'source'
p119
VTwitter for iPhone
p120
sg98
Vde
p121
sS'author'
p122
g18
sS'in_reply_to_user_id_str'
p123
Nsg28
(dp124
Vcontributors
p125
NsVtruncated
p126
I00
sVtext
p127
g10
sVin_reply_to_status_id
p128
Nsg33
I620873507245834240
sVfavorite_count
p129
I0
sVsource
p130
V<a href="http://twitter.com/download/iphone" rel="nofollow">Twitter for iPhone</a>
p131
sVretweeted
p132
I00
sVcoordinates
p133
NsVtimestamp_ms
p134
V1436862754056
p135
sVentities
p136
(dp137
Vsymbols
p138
(lp139
sVmedia
p140
(lp141
(dp142
Vexpanded_url
p143
Vhttp://twitter.com/M__NC/status/620873507245834240/photo/1
p144
sVdisplay_url
p145
Vpic.twitter.com/9CQLefbIig
p146
sg72
Vhttp://t.co/9CQLefbIig
p147
sVmedia_url_https
p148
Vhttps://pbs.twimg.com/media/CJ3JKhzWcAAloeo.jpg
p149
sg42
V620873506356621312
p150
sVsizes
p151
(dp152
Vsmall
p153
(dp154
Vh
p155
I255
sVresize
p156
Vfit
p157
sVw
p158
I340
ssVlarge
p159
(dp160
g155
I768
sg156
Vfit
p161
sg158
I1024
ssVmedium
p162
(dp163
g155
I450
sg156
Vfit
p164
sg158
I600
ssVthumb
p165
(dp166
g155
I150
sg156
Vcrop
p167
sg158
I150
sssVindices
p168
(lp169
I33
aI55
asVtype
p170
Vphoto
p171
sg33
I620873506356621312
sVmedia_url
p172
Vhttp://pbs.twimg.com/media/CJ3JKhzWcAAloeo.jpg
p173
sasVhashtags
p174
(lp175
(dp176
g168
(lp177
I7
aI19
asg127
VSwitzerland
p178
sa(dp179
g168
(lp180
I20
aI32
asg127
VGoodMorning
p181
sasVuser_mentions
p182
(lp183
sVtrends
p184
(lp185
sVurls
p186
(lp187
ssVin_reply_to_screen_name
p188
Nsg42
V620873507245834240
p189
sVretweet_count
p190
I0
sVin_reply_to_user_id
p191
NsVfavorited
p192
I00
sVuser
p193
g29
sVgeo
p194
NsVin_reply_to_user_id_str
p195
NsVpossibly_sensitive
p196
I00
sg65
g121
sg73
VTue Jul 14 08:32:34 +0000 2015
p197
sVfilter_level
p198
g116
sVin_reply_to_status_id_str
p199
NsVplace
p200
(dp201
Vfull_name
p202
VZurich, Suisse
p203
sg72
Vhttps://api.twitter.com/1.1/geo/id/3acb748d0f1e9265.json
p204
sVcountry
p205
VSchweiz
p206
sVplace_type
p207
Vcity
p208
sVbounding_box
p209
(dp210
g170
VPolygon
p211
sg133
(lp212
(lp213
(lp214
F8.448081
aF47.320183
aa(lp215
F8.448081
aF47.434721
aa(lp216
F8.625442
aF47.434721
aa(lp217
F8.625442
aF47.320183
aaassVcountry_code
p218
VCH
p219
sVattributes
p220
(dp221
sg33
V3acb748d0f1e9265
p222
sg63
VZurich
p223
ssVextended_entities
p224
(dp225
g140
(lp226
(dp227
g143
Vhttp://twitter.com/M__NC/status/620873507245834240/photo/1
p228
sg145
Vpic.twitter.com/9CQLefbIig
p229
sg72
Vhttp://t.co/9CQLefbIig
p230
sg148
Vhttps://pbs.twimg.com/media/CJ3JKhzWcAAloeo.jpg
p231
sg42
V620873506356621312
p232
sg151
(dp233
g153
(dp234
g155
I255
sg156
Vfit
p235
sg158
I340
ssg159
(dp236
g155
I768
sg156
Vfit
p237
sg158
I1024
ssg162
(dp238
g155
I450
sg156
Vfit
p239
sg158
I600
ssg165
(dp240
g155
I150
sg156
Vcrop
p241
sg158
I150
sssg168
(lp242
I33
aI55
asg170
Vphoto
p243
sg33
I620873506356621312
sg172
Vhttp://pbs.twimg.com/media/CJ3JKhzWcAAloeo.jpg
p244
sasssS'coordinates'
p245
NsS'timestamp_ms'
p246
g135
sS'entities'
p247
g137
sS'in_reply_to_status_id_str'
p248
NsS'in_reply_to_screen_name'
p249
Nsg86
g189
sS'extended_entities'
p250
g225
sS'retweeted'
p251
I00
sS'place'
p252
g0
(ctweepy.models
Place
p253
g2
Ntp254
Rp255
(dp256
S'full_name'
p257
g203
sg103
g204
sS'country'
p258
g206
sS'place_type'
p259
g208
sS'bounding_box'
p260
g0
(ctweepy.models
BoundingBox
p261
g2
Ntp262
Rp263
(dp264
S'type'
p265
g211
sg245
g212
sbsS'country_code'
p266
g219
sS'attributes'
p267
g221
sg24
g222
sg97
g223
sbsS'retweet_count'
p268
I0
sg104
g105
(S'\x07\xdf\x07\x0e\x08 "\x00\x00\x00'
p269
tp270
Rp271
sS'in_reply_to_user_id'
p272
Nsb.