ccopy_reg
_reconstructor
p0
(ctweepy.models
Status
p1
c__builtin__
object
p2
Ntp3
Rp4
(dp5
S'favorited'
p6
I00
sS'contributors'
p7
NsS'truncated'
p8
I00
sS'text'
p9
V@nic0lix @bencooke I love his legs
p10
sS'source_url'
p11
Vhttp://twitter.com/download/android
p12
sS'possibly_sensitive'
p13
I00
sS'in_reply_to_status_id'
p14
I620272871756050432
sS'user'
p15
g0
(ctweepy.models
User
p16
g2
Ntp17
Rp18
(dp19
S'follow_request_sent'
p20
NsS'profile_use_background_image'
p21
I01
sS'profile_sidebar_fill_color'
p22
VF6F6F6
p23
sS'id'
p24
I831914852
sS'verified'
p25
I00
sS'profile_image_url_https'
p26
Vhttps://pbs.twimg.com/profile_images/615033679929339904/JX-R_7az_normal.jpg
p27
sS'_json'
p28
(dp29
Vfollow_request_sent
p30
NsVprofile_use_background_image
p31
I01
sVdefault_profile_image
p32
I00
sVid
p33
I831914852
sVverified
p34
I00
sVprofile_image_url_https
p35
g27
sVprofile_sidebar_fill_color
p36
g23
sVprofile_text_color
p37
V333333
p38
sVfollowers_count
p39
I403
sVprofile_sidebar_border_color
p40
VEEEEEE
p41
sVid_str
p42
V831914852
p43
sVprofile_background_color
p44
VACDED6
p45
sVlisted_count
p46
I12
sVprofile_background_image_url_https
p47
Vhttps://abs.twimg.com/images/themes/theme18/bg.gif
p48
sVutc_offset
p49
I3600
sVstatuses_count
p50
I8811
sVdescription
p51
Vfear cannot touch you, it can only taunt you
p52
sVfriends_count
p53
I529
sVlocation
p54
VZurich
p55
sVprofile_link_color
p56
V038543
p57
sVprofile_image_url
p58
Vhttp://pbs.twimg.com/profile_images/615033679929339904/JX-R_7az_normal.jpg
p59
sVfollowing
p60
NsVgeo_enabled
p61
I01
sVprofile_banner_url
p62
Vhttps://pbs.twimg.com/profile_banners/831914852/1431978793
p63
sVprofile_background_image_url
p64
Vhttp://abs.twimg.com/images/themes/theme18/bg.gif
p65
sVname
p66
VR for Robert 
p67
sVlang
p68
Ven
p69
sVprofile_background_tile
p70
I00
sVfavourites_count
p71
I2048
sVscreen_name
p72
Vrobertb83
p73
sVnotifications
p74
NsVurl
p75
NsVcreated_at
p76
VTue Sep 18 21:27:36 +0000 2012
p77
sVcontributors_enabled
p78
I00
sVtime_zone
p79
VLondon
p80
sVprotected
p81
I00
sVdefault_profile
p82
I00
sVis_translator
p83
I00
ssS'contributors_enabled'
p84
I00
sS'profile_text_color'
p85
g38
sS'followers_count'
p86
I403
sS'profile_sidebar_border_color'
p87
g41
sS'location'
p88
g55
sS'default_profile_image'
p89
I00
sS'id_str'
p90
g43
sS'utc_offset'
p91
I3600
sS'statuses_count'
p92
I8811
sS'description'
p93
g52
sS'friends_count'
p94
I529
sS'profile_link_color'
p95
g57
sS'profile_image_url'
p96
g59
sS'notifications'
p97
NsS'geo_enabled'
p98
I01
sS'profile_background_color'
p99
g45
sS'profile_banner_url'
p100
g63
sS'profile_background_image_url'
p101
g65
sS'name'
p102
g67
sS'lang'
p103
g69
sS'following'
p104
I00
sS'profile_background_tile'
p105
I00
sS'favourites_count'
p106
I2048
sS'screen_name'
p107
g73
sS'url'
p108
NsS'created_at'
p109
cdatetime
datetime
p110
(S'\x07\xdc\t\x12\x15\x1b$\x00\x00\x00'
p111
tp112
Rp113
sS'profile_background_image_url_https'
p114
g48
sS'time_zone'
p115
g80
sS'protected'
p116
I00
sS'default_profile'
p117
I00
sS'is_translator'
p118
I00
sS'listed_count'
p119
I12
sbsS'filter_level'
p120
Vlow
p121
sS'geo'
p122
Nsg24
I620273056347496448
sS'favorite_count'
p123
I0
sS'source'
p124
VTwitter for Android
p125
sg103
Ven
p126
sS'author'
p127
g18
sS'in_reply_to_user_id_str'
p128
V2299763281
p129
sg28
(dp130
Vcontributors
p131
NsVtruncated
p132
I00
sVtext
p133
g10
sVin_reply_to_status_id
p134
I620272871756050432
sg33
I620273056347496448
sVfavorite_count
p135
I0
sVsource
p136
V<a href="http://twitter.com/download/android" rel="nofollow">Twitter for Android</a>
p137
sVretweeted
p138
I00
sVcoordinates
p139
NsVtimestamp_ms
p140
V1436719595406
p141
sVentities
p142
(dp143
Vuser_mentions
p144
(lp145
(dp146
g33
I2299763281
sVindices
p147
(lp148
I0
aI8
asg42
V2299763281
p149
sg72
Vnic0lix
p150
sg66
VNico
p151
sa(dp152
g33
I20182197
sg147
(lp153
I9
aI18
asg42
V20182197
p154
sg72
Vbencooke
p155
sg66
VBen
p156
sasVsymbols
p157
(lp158
sVtrends
p159
(lp160
sVhashtags
p161
(lp162
sVurls
p163
(lp164
ssVin_reply_to_screen_name
p165
Vnic0lix
p166
sg42
V620273056347496448
p167
sVretweet_count
p168
I0
sVin_reply_to_user_id
p169
I2299763281
sVfavorited
p170
I00
sVuser
p171
g29
sVgeo
p172
NsVin_reply_to_user_id_str
p173
g129
sVpossibly_sensitive
p174
I00
sg68
g126
sg76
VSun Jul 12 16:46:35 +0000 2015
p175
sVfilter_level
p176
g121
sVin_reply_to_status_id_str
p177
V620272871756050432
p178
sVplace
p179
(dp180
Vfull_name
p181
VZurich, Switzerland
p182
sg75
Vhttps://api.twitter.com/1.1/geo/id/3acb748d0f1e9265.json
p183
sVcountry
p184
VSchweiz
p185
sVplace_type
p186
Vcity
p187
sVbounding_box
p188
(dp189
Vtype
p190
VPolygon
p191
sg139
(lp192
(lp193
(lp194
F8.448081
aF47.320183
aa(lp195
F8.448081
aF47.434721
aa(lp196
F8.625442
aF47.434721
aa(lp197
F8.625442
aF47.320183
aaassVcountry_code
p198
VCH
p199
sVattributes
p200
(dp201
sg33
V3acb748d0f1e9265
p202
sg66
VZurich
p203
sssS'coordinates'
p204
NsS'timestamp_ms'
p205
g141
sS'entities'
p206
g143
sS'in_reply_to_status_id_str'
p207
g178
sS'in_reply_to_screen_name'
p208
g166
sg90
g167
sS'retweeted'
p209
I00
sS'place'
p210
g0
(ctweepy.models
Place
p211
g2
Ntp212
Rp213
(dp214
S'full_name'
p215
g182
sg108
g183
sS'country'
p216
g185
sS'place_type'
p217
g187
sS'bounding_box'
p218
g0
(ctweepy.models
BoundingBox
p219
g2
Ntp220
Rp221
(dp222
S'type'
p223
g191
sg204
g192
sbsS'country_code'
p224
g199
sS'attributes'
p225
g201
sg24
g202
sg102
g203
sbsS'retweet_count'
p226
I0
sg109
g110
(S'\x07\xdf\x07\x0c\x10.#\x00\x00\x00'
p227
tp228
Rp229
sS'in_reply_to_user_id'
p230
I2299763281
sb.