ccopy_reg
_reconstructor
p0
(ctweepy.models
Status
p1
c__builtin__
object
p2
Ntp3
Rp4
(dp5
S'favorited'
p6
I00
sS'contributors'
p7
NsS'truncated'
p8
I00
sS'text'
p9
VTime to Act: #WSIS - #SDG Matrix and its Third Dimension: Establishing Link between WSIS and SDG processes http://t.co/eTTNlKix6q #HLPF @itu
p10
sS'source_url'
p11
Vhttp://twitter.com
p12
sS'possibly_sensitive'
p13
I00
sS'in_reply_to_status_id'
p14
NsS'user'
p15
g0
(ctweepy.models
User
p16
g2
Ntp17
Rp18
(dp19
S'follow_request_sent'
p20
NsS'profile_use_background_image'
p21
I01
sS'profile_sidebar_fill_color'
p22
VF6FFD1
p23
sS'id'
p24
I53025802
sS'verified'
p25
I00
sS'profile_image_url_https'
p26
Vhttps://pbs.twimg.com/profile_images/1270356364/image_normal.jpg
p27
sS'_json'
p28
(dp29
Vfollow_request_sent
p30
NsVprofile_use_background_image
p31
I01
sVdefault_profile_image
p32
I00
sVid
p33
I53025802
sVverified
p34
I00
sVprofile_image_url_https
p35
g27
sVprofile_sidebar_fill_color
p36
g23
sVprofile_text_color
p37
V333333
p38
sVfollowers_count
p39
I406
sVprofile_sidebar_border_color
p40
VFFF8AD
p41
sVid_str
p42
V53025802
p43
sVprofile_background_color
p44
VFFF04D
p45
sVlisted_count
p46
I18
sVprofile_background_image_url_https
p47
Vhttps://pbs.twimg.com/profile_background_images/120674482/HandConnectCIS.gif
p48
sVutc_offset
p49
I7200
sVstatuses_count
p50
I596
sVdescription
p51
VStrategy and Policy Advisor at the International Telecommunication Union
p52
sVfriends_count
p53
I198
sVlocation
p54
VSwitzerland
p55
sVprofile_link_color
p56
V0099CC
p57
sVprofile_image_url
p58
Vhttp://pbs.twimg.com/profile_images/1270356364/image_normal.jpg
p59
sVfollowing
p60
NsVgeo_enabled
p61
I01
sVprofile_background_image_url
p62
Vhttp://pbs.twimg.com/profile_background_images/120674482/HandConnectCIS.gif
p63
sVname
p64
VJaroslaw K. PONDER
p65
sVlang
p66
Ven
p67
sVprofile_background_tile
p68
I01
sVfavourites_count
p69
I4
sVscreen_name
p70
VJaroslawPONDER
p71
sVnotifications
p72
NsVurl
p73
Vhttp://www.ponder.ch
p74
sVcreated_at
p75
VThu Jul 02 10:18:21 +0000 2009
p76
sVcontributors_enabled
p77
I00
sVtime_zone
p78
VBerlin
p79
sVprotected
p80
I00
sVdefault_profile
p81
I00
sVis_translator
p82
I00
ssS'contributors_enabled'
p83
I00
sS'profile_text_color'
p84
g38
sS'followers_count'
p85
I406
sS'profile_sidebar_border_color'
p86
g41
sS'location'
p87
g55
sS'default_profile_image'
p88
I00
sS'id_str'
p89
g43
sS'utc_offset'
p90
I7200
sS'statuses_count'
p91
I596
sS'description'
p92
g52
sS'friends_count'
p93
I198
sS'profile_link_color'
p94
g57
sS'profile_image_url'
p95
g59
sS'notifications'
p96
NsS'geo_enabled'
p97
I01
sS'profile_background_color'
p98
g45
sS'profile_background_image_url'
p99
g63
sS'name'
p100
g65
sS'lang'
p101
g67
sS'following'
p102
I00
sS'profile_background_tile'
p103
I01
sS'favourites_count'
p104
I4
sS'screen_name'
p105
g71
sS'url'
p106
g74
sS'created_at'
p107
cdatetime
datetime
p108
(S'\x07\xd9\x07\x02\n\x12\x15\x00\x00\x00'
p109
tp110
Rp111
sS'profile_background_image_url_https'
p112
g48
sS'time_zone'
p113
g79
sS'protected'
p114
I00
sS'default_profile'
p115
I00
sS'is_translator'
p116
I00
sS'listed_count'
p117
I18
sbsS'filter_level'
p118
Vlow
p119
sS'geo'
p120
Nsg24
I618825681837903872
sS'favorite_count'
p121
I0
sS'source'
p122
VTwitter Web Client
p123
sg101
Ven
p124
sS'author'
p125
g18
sS'in_reply_to_user_id_str'
p126
Nsg28
(dp127
Vcontributors
p128
NsVtruncated
p129
I00
sVtext
p130
g10
sVin_reply_to_status_id
p131
Nsg33
I618825681837903872
sVfavorite_count
p132
I0
sVsource
p133
V<a href="http://twitter.com" rel="nofollow">Twitter Web Client</a>
p134
sVretweeted
p135
I00
sVcoordinates
p136
NsVtimestamp_ms
p137
V1436374514432
p138
sVentities
p139
(dp140
Vuser_mentions
p141
(lp142
(dp143
g33
I40425262
sVindices
p144
(lp145
I136
aI140
asg42
V40425262
p146
sg70
VITU
p147
sg64
VITU
p148
sasVsymbols
p149
(lp150
sVtrends
p151
(lp152
sVhashtags
p153
(lp154
(dp155
g144
(lp156
I13
aI18
asg130
VWSIS
p157
sa(dp158
g144
(lp159
I21
aI25
asg130
VSDG
p160
sa(dp161
g144
(lp162
I130
aI135
asg130
VHLPF
p163
sasVurls
p164
(lp165
(dp166
g73
Vhttp://t.co/eTTNlKix6q
p167
sg144
(lp168
I107
aI129
asVexpanded_url
p169
Vhttp://www.wsis.org/sdg
p170
sVdisplay_url
p171
Vwsis.org/sdg
p172
sassVin_reply_to_screen_name
p173
Nsg42
V618825681837903872
p174
sVretweet_count
p175
I0
sVin_reply_to_user_id
p176
NsVfavorited
p177
I00
sVuser
p178
g29
sVgeo
p179
NsVin_reply_to_user_id_str
p180
NsVpossibly_sensitive
p181
I00
sg66
g124
sg75
VWed Jul 08 16:55:14 +0000 2015
p182
sVfilter_level
p183
g119
sVin_reply_to_status_id_str
p184
NsVplace
p185
(dp186
Vfull_name
p187
VZurich, Switzerland
p188
sg73
Vhttps://api.twitter.com/1.1/geo/id/3acb748d0f1e9265.json
p189
sVcountry
p190
VSchweiz
p191
sVplace_type
p192
Vcity
p193
sVbounding_box
p194
(dp195
Vtype
p196
VPolygon
p197
sg136
(lp198
(lp199
(lp200
F8.448081
aF47.320183
aa(lp201
F8.448081
aF47.434721
aa(lp202
F8.625442
aF47.434721
aa(lp203
F8.625442
aF47.320183
aaassVcountry_code
p204
VCH
p205
sVattributes
p206
(dp207
sg33
V3acb748d0f1e9265
p208
sg64
VZurich
p209
sssS'coordinates'
p210
NsS'timestamp_ms'
p211
g138
sS'entities'
p212
g140
sS'in_reply_to_status_id_str'
p213
NsS'in_reply_to_screen_name'
p214
Nsg89
g174
sS'retweeted'
p215
I00
sS'place'
p216
g0
(ctweepy.models
Place
p217
g2
Ntp218
Rp219
(dp220
S'full_name'
p221
g188
sg106
g189
sS'country'
p222
g191
sS'place_type'
p223
g193
sS'bounding_box'
p224
g0
(ctweepy.models
BoundingBox
p225
g2
Ntp226
Rp227
(dp228
S'type'
p229
g197
sg210
g198
sbsS'country_code'
p230
g205
sS'attributes'
p231
g207
sg24
g208
sg100
g209
sbsS'retweet_count'
p232
I0
sg107
g108
(S'\x07\xdf\x07\x08\x107\x0e\x00\x00\x00'
p233
tp234
Rp235
sS'in_reply_to_user_id'
p236
Nsb.