ccopy_reg
_reconstructor
p0
(ctweepy.models
Status
p1
c__builtin__
object
p2
Ntp3
Rp4
(dp5
S'favorited'
p6
I00
sS'contributors'
p7
NsS'truncated'
p8
I00
sS'text'
p9
V#Geneva - on the blog now! http://t.co/o2R9NlFSxB #travelblogger #switzerland #swissmissus http://t.co/icvWrYEfDd
p10
sS'source_url'
p11
Vhttp://twitter.com/download/iphone
p12
sS'possibly_sensitive'
p13
I00
sS'in_reply_to_status_id'
p14
NsS'user'
p15
g0
(ctweepy.models
User
p16
g2
Ntp17
Rp18
(dp19
S'follow_request_sent'
p20
NsS'profile_use_background_image'
p21
I00
sS'profile_sidebar_fill_color'
p22
VE3E2DE
p23
sS'id'
p24
I18644237
sS'verified'
p25
I00
sS'profile_image_url_https'
p26
Vhttps://pbs.twimg.com/profile_images/550737171263799296/ltW_F9ZA_normal.jpeg
p27
sS'_json'
p28
(dp29
Vfollow_request_sent
p30
NsVprofile_use_background_image
p31
I00
sVdefault_profile_image
p32
I00
sVid
p33
I18644237
sVverified
p34
I00
sVprofile_image_url_https
p35
g27
sVprofile_sidebar_fill_color
p36
g23
sVprofile_text_color
p37
V634047
p38
sVfollowers_count
p39
I175
sVprofile_sidebar_border_color
p40
VFFFFFF
p41
sVid_str
p42
V18644237
p43
sVprofile_background_color
p44
VEDECE9
p45
sVlisted_count
p46
I17
sVprofile_background_image_url_https
p47
Vhttps://pbs.twimg.com/profile_background_images/668773399/fc5a8b6cbbea87a1d1a0cdb9a6643391.jpeg
p48
sVutc_offset
p49
I7200
sVstatuses_count
p50
I1141
sVdescription
p51
VChicago wife living a Swiss life. Includes travel, fashion, and all things Swiss. Fabulous starts at 400m. #swissmissus
p52
sVfriends_count
p53
I134
sVlocation
p54
VZurich, Switzerland
p55
sVprofile_link_color
p56
VDD2E44
p57
sVprofile_image_url
p58
Vhttp://pbs.twimg.com/profile_images/550737171263799296/ltW_F9ZA_normal.jpeg
p59
sVfollowing
p60
NsVgeo_enabled
p61
I01
sVprofile_banner_url
p62
Vhttps://pbs.twimg.com/profile_banners/18644237/1436019009
p63
sVprofile_background_image_url
p64
Vhttp://pbs.twimg.com/profile_background_images/668773399/fc5a8b6cbbea87a1d1a0cdb9a6643391.jpeg
p65
sVname
p66
VSwiss Missus
p67
sVlang
p68
Ven
p69
sVprofile_background_tile
p70
I00
sVfavourites_count
p71
I212
sVscreen_name
p72
VSwiss_Missus
p73
sVnotifications
p74
NsVurl
p75
Vhttp://www.swissmissus.com
p76
sVcreated_at
p77
VMon Jan 05 20:22:46 +0000 2009
p78
sVcontributors_enabled
p79
I00
sVtime_zone
p80
VBerlin
p81
sVprotected
p82
I00
sVdefault_profile
p83
I00
sVis_translator
p84
I00
ssS'contributors_enabled'
p85
I00
sS'profile_text_color'
p86
g38
sS'followers_count'
p87
I175
sS'profile_sidebar_border_color'
p88
g41
sS'location'
p89
g55
sS'default_profile_image'
p90
I00
sS'id_str'
p91
g43
sS'utc_offset'
p92
I7200
sS'statuses_count'
p93
I1141
sS'description'
p94
g52
sS'friends_count'
p95
I134
sS'profile_link_color'
p96
g57
sS'profile_image_url'
p97
g59
sS'notifications'
p98
NsS'geo_enabled'
p99
I01
sS'profile_background_color'
p100
g45
sS'profile_banner_url'
p101
g63
sS'profile_background_image_url'
p102
g65
sS'name'
p103
g67
sS'lang'
p104
g69
sS'following'
p105
I00
sS'profile_background_tile'
p106
I00
sS'favourites_count'
p107
I212
sS'screen_name'
p108
g73
sS'url'
p109
g76
sS'created_at'
p110
cdatetime
datetime
p111
(S'\x07\xd9\x01\x05\x14\x16.\x00\x00\x00'
p112
tp113
Rp114
sS'profile_background_image_url_https'
p115
g48
sS'time_zone'
p116
g81
sS'protected'
p117
I00
sS'default_profile'
p118
I00
sS'is_translator'
p119
I00
sS'listed_count'
p120
I17
sbsS'filter_level'
p121
Vlow
p122
sS'geo'
p123
Nsg24
I620671323816230912
sS'favorite_count'
p124
I0
sS'source'
p125
VTwitter for iPhone
p126
sg104
Ven
p127
sS'author'
p128
g18
sS'in_reply_to_user_id_str'
p129
Nsg28
(dp130
Vcontributors
p131
NsVtruncated
p132
I00
sVtext
p133
g10
sVin_reply_to_status_id
p134
Nsg33
I620671323816230912
sVfavorite_count
p135
I0
sVsource
p136
V<a href="http://twitter.com/download/iphone" rel="nofollow">Twitter for iPhone</a>
p137
sVretweeted
p138
I00
sVcoordinates
p139
NsVtimestamp_ms
p140
V1436814549770
p141
sVentities
p142
(dp143
Vsymbols
p144
(lp145
sVmedia
p146
(lp147
(dp148
Vexpanded_url
p149
Vhttp://twitter.com/Swiss_Missus/status/620671323816230912/photo/1
p150
sVdisplay_url
p151
Vpic.twitter.com/icvWrYEfDd
p152
sg75
Vhttp://t.co/icvWrYEfDd
p153
sVmedia_url_https
p154
Vhttps://pbs.twimg.com/media/CJ0RRKGUAAEUgz2.jpg
p155
sg42
V620671310113275905
p156
sVsizes
p157
(dp158
Vsmall
p159
(dp160
Vh
p161
I340
sVresize
p162
Vfit
p163
sVw
p164
I340
ssVlarge
p165
(dp166
g161
I1024
sg162
Vfit
p167
sg164
I1024
ssVmedium
p168
(dp169
g161
I600
sg162
Vfit
p170
sg164
I600
ssVthumb
p171
(dp172
g161
I150
sg162
Vcrop
p173
sg164
I150
sssVindices
p174
(lp175
I91
aI113
asVtype
p176
Vphoto
p177
sg33
I620671310113275905
sVmedia_url
p178
Vhttp://pbs.twimg.com/media/CJ0RRKGUAAEUgz2.jpg
p179
sasVhashtags
p180
(lp181
(dp182
g174
(lp183
I0
aI7
asg133
VGeneva
p184
sa(dp185
g174
(lp186
I50
aI64
asg133
Vtravelblogger
p187
sa(dp188
g174
(lp189
I65
aI77
asg133
Vswitzerland
p190
sa(dp191
g174
(lp192
I78
aI90
asg133
Vswissmissus
p193
sasVuser_mentions
p194
(lp195
sVtrends
p196
(lp197
sVurls
p198
(lp199
(dp200
g75
Vhttp://t.co/o2R9NlFSxB
p201
sg174
(lp202
I27
aI49
asg149
Vhttp://www.swissmissus.com
p203
sg151
Vswissmissus.com
p204
sassVin_reply_to_screen_name
p205
Nsg42
V620671323816230912
p206
sVretweet_count
p207
I0
sVin_reply_to_user_id
p208
NsVfavorited
p209
I00
sVuser
p210
g29
sVgeo
p211
NsVin_reply_to_user_id_str
p212
NsVpossibly_sensitive
p213
I00
sg68
g127
sg77
VMon Jul 13 19:09:09 +0000 2015
p214
sVfilter_level
p215
g122
sVin_reply_to_status_id_str
p216
NsVplace
p217
(dp218
Vfull_name
p219
VZurich, Switzerland
p220
sg75
Vhttps://api.twitter.com/1.1/geo/id/3acb748d0f1e9265.json
p221
sVcountry
p222
VSchweiz
p223
sVplace_type
p224
Vcity
p225
sVbounding_box
p226
(dp227
g176
VPolygon
p228
sg139
(lp229
(lp230
(lp231
F8.448081
aF47.320183
aa(lp232
F8.448081
aF47.434721
aa(lp233
F8.625442
aF47.434721
aa(lp234
F8.625442
aF47.320183
aaassVcountry_code
p235
VCH
p236
sVattributes
p237
(dp238
sg33
V3acb748d0f1e9265
p239
sg66
VZurich
p240
ssVextended_entities
p241
(dp242
g146
(lp243
(dp244
g149
Vhttp://twitter.com/Swiss_Missus/status/620671323816230912/photo/1
p245
sg151
Vpic.twitter.com/icvWrYEfDd
p246
sg75
Vhttp://t.co/icvWrYEfDd
p247
sg154
Vhttps://pbs.twimg.com/media/CJ0RRKGUAAEUgz2.jpg
p248
sg42
V620671310113275905
p249
sg157
(dp250
g159
(dp251
g161
I340
sg162
Vfit
p252
sg164
I340
ssg165
(dp253
g161
I1024
sg162
Vfit
p254
sg164
I1024
ssg168
(dp255
g161
I600
sg162
Vfit
p256
sg164
I600
ssg171
(dp257
g161
I150
sg162
Vcrop
p258
sg164
I150
sssg174
(lp259
I91
aI113
asg176
Vphoto
p260
sg33
I620671310113275905
sg178
Vhttp://pbs.twimg.com/media/CJ0RRKGUAAEUgz2.jpg
p261
sasssS'coordinates'
p262
NsS'timestamp_ms'
p263
g141
sS'entities'
p264
g143
sS'in_reply_to_status_id_str'
p265
NsS'in_reply_to_screen_name'
p266
Nsg91
g206
sS'extended_entities'
p267
g242
sS'retweeted'
p268
I00
sS'place'
p269
g0
(ctweepy.models
Place
p270
g2
Ntp271
Rp272
(dp273
S'full_name'
p274
g220
sg109
g221
sS'country'
p275
g223
sS'place_type'
p276
g225
sS'bounding_box'
p277
g0
(ctweepy.models
BoundingBox
p278
g2
Ntp279
Rp280
(dp281
S'type'
p282
g228
sg262
g229
sbsS'country_code'
p283
g236
sS'attributes'
p284
g238
sg24
g239
sg103
g240
sbsS'retweet_count'
p285
I0
sg110
g111
(S'\x07\xdf\x07\r\x13\t\t\x00\x00\x00'
p286
tp287
Rp288
sS'in_reply_to_user_id'
p289
Nsb.