ccopy_reg
_reconstructor
p0
(ctweepy.models
Status
p1
c__builtin__
object
p2
Ntp3
Rp4
(dp5
S'contributors'
p6
NsS'truncated'
p7
I00
sS'text'
p8
VNOoOoOoOoOoOoOoOoOoOoO!!!!! Not Sharp!!! \U0001f621\U0001f62d\U0001f62b https://t.co/M2q91YoW4M
p9
sS'in_reply_to_status_id'
p10
NsS'id'
p11
I620262986498842624
sS'favorite_count'
p12
I0
sS'entities'
p13
(dp14
Vuser_mentions
p15
(lp16
sVsymbols
p17
(lp18
sVtrends
p19
(lp20
sVhashtags
p21
(lp22
sVurls
p23
(lp24
(dp25
Vurl
p26
Vhttps://t.co/M2q91YoW4M
p27
sVindices
p28
(lp29
I45
aI68
asVexpanded_url
p30
Vhttps://twitter.com/nhlblackhawks/status/619675388415905792
p31
sVdisplay_url
p32
Vtwitter.com/nhlblackhawks/\u2026
p33
sassS'quoted_status_id'
p34
I619675388415905792
sS'_json'
p35
(dp36
Vcontributors
p37
NsVtruncated
p38
I00
sVtext
p39
g9
sVin_reply_to_status_id
p40
NsVid
p41
I620262986498842624
sVfavorite_count
p42
I0
sVsource
p43
V<a href="http://twitter.com/download/iphone" rel="nofollow">Twitter for iPhone</a>
p44
sVquoted_status_id
p45
I619675388415905792
sVretweeted
p46
I00
sVcoordinates
p47
NsVtimestamp_ms
p48
V1436717194567
p49
sVquoted_status
p50
(dp51
g37
Nsg38
I00
sg39
VVP/GM Stan Bowman: "He will forever be a Blackhawk and we wish him and his family nothing but the best in Dallas and beyond."
p52
sg40
I619675163492134912
sg41
I619675388415905792
sg42
I0
sg43
V<a href="http://twitter.com" rel="nofollow">Twitter Web Client</a>
p53
sg46
I00
sg47
NsVentities
p54
(dp55
g15
(lp56
sg17
(lp57
sg19
(lp58
sg21
(lp59
sg23
(lp60
ssVin_reply_to_screen_name
p61
VNHLBlackhawks
p62
sVid_str
p63
V619675388415905792
p64
sVretweet_count
p65
I0
sVin_reply_to_user_id
p66
I14498484
sVfavorited
p67
I00
sVuser
p68
(dp69
Vfollow_request_sent
p70
NsVprofile_use_background_image
p71
I01
sVdefault_profile_image
p72
I00
sg41
I14498484
sVverified
p73
I01
sVprofile_image_url_https
p74
Vhttps://pbs.twimg.com/profile_images/610808109230104576/Pt7MU5nu_normal.jpg
p75
sVprofile_sidebar_fill_color
p76
VFFFFFF
p77
sVprofile_text_color
p78
V333333
p79
sVfollowers_count
p80
I1051485
sVprofile_sidebar_border_color
p81
V000000
p82
sg63
V14498484
p83
sVprofile_background_color
p84
V000000
p85
sVlisted_count
p86
I7765
sVprofile_background_image_url_https
p87
Vhttps://pbs.twimg.com/profile_background_images/455817616326553600/MIWdpI-P.jpeg
p88
sVutc_offset
p89
I-18000
sVstatuses_count
p90
I38608
sVdescription
p91
VOfficial Twitter for the NHL's Chicago Blackhawks. Game updates, news and contests. Managed by Blackhawks New Media.
p92
sVfriends_count
p93
I1840
sVlocation
p94
VChicago
p95
sVprofile_link_color
p96
VCE1126
p97
sVprofile_image_url
p98
Vhttp://pbs.twimg.com/profile_images/610808109230104576/Pt7MU5nu_normal.jpg
p99
sVfollowing
p100
NsVgeo_enabled
p101
I01
sVprofile_banner_url
p102
Vhttps://pbs.twimg.com/profile_banners/14498484/1434469212
p103
sVprofile_background_image_url
p104
Vhttp://pbs.twimg.com/profile_background_images/455817616326553600/MIWdpI-P.jpeg
p105
sVname
p106
VChicago Blackhawks
p107
sVlang
p108
Ven
p109
sVprofile_background_tile
p110
I00
sVfavourites_count
p111
I2761
sVscreen_name
p112
VNHLBlackhawks
p113
sVnotifications
p114
Nsg26
Vhttp://chicagoblackhawks.com
p115
sVcreated_at
p116
VWed Apr 23 18:31:56 +0000 2008
p117
sVcontributors_enabled
p118
I00
sVtime_zone
p119
VCentral Time (US & Canada)
p120
sVprotected
p121
I00
sVdefault_profile
p122
I00
sVis_translator
p123
I00
ssVgeo
p124
NsVin_reply_to_user_id_str
p125
V14498484
p126
sVpossibly_sensitive
p127
I00
sg108
Ven
p128
sg116
VSat Jul 11 01:11:40 +0000 2015
p129
sVfilter_level
p130
Vlow
p131
sVin_reply_to_status_id_str
p132
V619675163492134912
p133
sVplace
p134
Nssg54
g14
sg61
Nsg63
V620262986498842624
p135
sg65
I0
sg66
Nsg67
I00
sg68
(dp136
g70
Nsg71
I00
sg72
I00
sg41
I18644237
sg73
I00
sg74
Vhttps://pbs.twimg.com/profile_images/550737171263799296/ltW_F9ZA_normal.jpeg
p137
sg76
VE3E2DE
p138
sg78
V634047
p139
sg80
I175
sg81
VFFFFFF
p140
sg63
V18644237
p141
sg84
VEDECE9
p142
sg86
I17
sg87
Vhttps://pbs.twimg.com/profile_background_images/668773399/fc5a8b6cbbea87a1d1a0cdb9a6643391.jpeg
p143
sg89
I7200
sg90
I1133
sg91
VChicago wife living a Swiss life. Includes travel, fashion, and all things Swiss. Fabulous starts at 400m. #swissmissus
p144
sg93
I131
sg94
VZurich, Switzerland
p145
sg96
VDD2E44
p146
sg98
Vhttp://pbs.twimg.com/profile_images/550737171263799296/ltW_F9ZA_normal.jpeg
p147
sg100
Nsg101
I01
sg102
Vhttps://pbs.twimg.com/profile_banners/18644237/1436019009
p148
sg104
Vhttp://pbs.twimg.com/profile_background_images/668773399/fc5a8b6cbbea87a1d1a0cdb9a6643391.jpeg
p149
sg106
VSwiss Missus
p150
sg108
Ven
p151
sg110
I00
sg111
I212
sg112
VSwiss_Missus
p152
sg114
Nsg26
Vhttp://www.swissmissus.com
p153
sg116
VMon Jan 05 20:22:46 +0000 2009
p154
sg118
I00
sg119
VBerlin
p155
sg121
I00
sg122
I00
sg123
I00
ssg124
Nsg125
Nsg127
I00
sg108
Ven
p156
sg116
VSun Jul 12 16:06:34 +0000 2015
p157
sVquoted_status_id_str
p158
V619675388415905792
p159
sg130
Vlow
p160
sg132
Nsg134
(dp161
Vfull_name
p162
VZurich, Switzerland
p163
sg26
Vhttps://api.twitter.com/1.1/geo/id/3acb748d0f1e9265.json
p164
sVcountry
p165
VSchweiz
p166
sVplace_type
p167
Vcity
p168
sVbounding_box
p169
(dp170
Vtype
p171
VPolygon
p172
sg47
(lp173
(lp174
(lp175
F8.448081
aF47.320183
aa(lp176
F8.448081
aF47.434721
aa(lp177
F8.625442
aF47.434721
aa(lp178
F8.625442
aF47.320183
aaassVcountry_code
p179
VCH
p180
sVattributes
p181
(dp182
sg41
V3acb748d0f1e9265
p183
sg106
VZurich
p184
sssS'coordinates'
p185
NsS'timestamp_ms'
p186
g49
sS'quoted_status'
p187
g51
sS'source'
p188
VTwitter for iPhone
p189
sS'in_reply_to_screen_name'
p190
NsS'id_str'
p191
g135
sS'retweet_count'
p192
I0
sS'in_reply_to_user_id'
p193
NsS'favorited'
p194
I00
sS'source_url'
p195
Vhttp://twitter.com/download/iphone
p196
sS'user'
p197
g0
(ctweepy.models
User
p198
g2
Ntp199
Rp200
(dp201
S'follow_request_sent'
p202
NsS'profile_use_background_image'
p203
I00
sS'profile_sidebar_fill_color'
p204
g138
sg11
I18644237
sS'verified'
p205
I00
sS'profile_image_url_https'
p206
g137
sg35
g136
sS'contributors_enabled'
p207
I00
sS'profile_text_color'
p208
g139
sS'followers_count'
p209
I175
sS'profile_sidebar_border_color'
p210
g140
sS'location'
p211
g145
sS'default_profile_image'
p212
I00
sg191
g141
sS'utc_offset'
p213
I7200
sS'statuses_count'
p214
I1133
sS'description'
p215
g144
sS'friends_count'
p216
I131
sS'profile_link_color'
p217
g146
sS'profile_image_url'
p218
g147
sS'notifications'
p219
NsS'geo_enabled'
p220
I01
sS'profile_background_color'
p221
g142
sS'profile_banner_url'
p222
g148
sS'profile_background_image_url'
p223
g149
sS'name'
p224
g150
sS'lang'
p225
g151
sS'following'
p226
I00
sS'profile_background_tile'
p227
I00
sS'favourites_count'
p228
I212
sS'screen_name'
p229
g152
sS'url'
p230
g153
sS'created_at'
p231
cdatetime
datetime
p232
(S'\x07\xd9\x01\x05\x14\x16.\x00\x00\x00'
p233
tp234
Rp235
sS'profile_background_image_url_https'
p236
g143
sS'time_zone'
p237
g155
sS'protected'
p238
I00
sS'default_profile'
p239
I00
sS'is_translator'
p240
I00
sS'listed_count'
p241
I17
sbsS'geo'
p242
NsS'in_reply_to_user_id_str'
p243
NsS'possibly_sensitive'
p244
I00
sg225
g156
sg231
g232
(S'\x07\xdf\x07\x0c\x10\x06"\x00\x00\x00'
p245
tp246
Rp247
sS'author'
p248
g200
sS'quoted_status_id_str'
p249
g159
sS'filter_level'
p250
g160
sS'in_reply_to_status_id_str'
p251
NsS'place'
p252
g0
(ctweepy.models
Place
p253
g2
Ntp254
Rp255
(dp256
S'full_name'
p257
g163
sg230
g164
sS'country'
p258
g166
sS'place_type'
p259
g168
sS'bounding_box'
p260
g0
(ctweepy.models
BoundingBox
p261
g2
Ntp262
Rp263
(dp264
S'type'
p265
g172
sg185
g173
sbsS'country_code'
p266
g180
sS'attributes'
p267
g182
sg11
g183
sg224
g184
sbsS'retweeted'
p268
I00
sb.