ccopy_reg
_reconstructor
p0
(ctweepy.models
Status
p1
c__builtin__
object
p2
Ntp3
Rp4
(dp5
S'favorited'
p6
I00
sS'contributors'
p7
NsS'truncated'
p8
I00
sS'text'
p9
VNO!
p10
sS'source_url'
p11
Vhttp://twitter.com
p12
sS'possibly_sensitive'
p13
I00
sS'in_reply_to_status_id'
p14
NsS'user'
p15
g0
(ctweepy.models
User
p16
g2
Ntp17
Rp18
(dp19
S'follow_request_sent'
p20
NsS'profile_use_background_image'
p21
I00
sS'profile_sidebar_fill_color'
p22
V000000
p23
sS'id'
p24
I2879569993
sS'verified'
p25
I00
sS'profile_image_url_https'
p26
Vhttps://pbs.twimg.com/profile_images/610874208827146241/voSDsKk8_normal.png
p27
sS'_json'
p28
(dp29
Vfollow_request_sent
p30
NsVprofile_use_background_image
p31
I00
sVdefault_profile_image
p32
I00
sVid
p33
I2879569993
sVverified
p34
I00
sVprofile_image_url_https
p35
g27
sVprofile_sidebar_fill_color
p36
g23
sVprofile_text_color
p37
V000000
p38
sVfollowers_count
p39
I255
sVprofile_sidebar_border_color
p40
V000000
p41
sVid_str
p42
V2879569993
p43
sVprofile_background_color
p44
V000000
p45
sVlisted_count
p46
I3
sVprofile_background_image_url_https
p47
Vhttps://abs.twimg.com/images/themes/theme14/bg.gif
p48
sVutc_offset
p49
NsVstatuses_count
p50
I1326
sVdescription
p51
VNEVER COULD HIDE WHO I AM. \u000a.http://ish.re/JJRT -not me.
p52
sVfriends_count
p53
I285
sVlocation
p54
VRepublic of Mozambique
p55
sVprofile_link_color
p56
VDD2E44
p57
sVprofile_image_url
p58
Vhttp://pbs.twimg.com/profile_images/610874208827146241/voSDsKk8_normal.png
p59
sVfollowing
p60
NsVgeo_enabled
p61
I01
sVprofile_banner_url
p62
Vhttps://pbs.twimg.com/profile_banners/2879569993/1434478513
p63
sVprofile_background_image_url
p64
Vhttp://abs.twimg.com/images/themes/theme14/bg.gif
p65
sVname
p66
VD\u2200MN\u2200L\u308bX 
p67
sVlang
p68
Ven
p69
sVprofile_background_tile
p70
I00
sVfavourites_count
p71
I29
sVscreen_name
p72
VDd0xblack1
p73
sVnotifications
p74
NsVurl
p75
NsVcreated_at
p76
VMon Oct 27 13:04:37 +0000 2014
p77
sVcontributors_enabled
p78
I00
sVtime_zone
p79
NsVprotected
p80
I00
sVdefault_profile
p81
I00
sVis_translator
p82
I00
ssS'contributors_enabled'
p83
I00
sS'profile_text_color'
p84
g38
sS'followers_count'
p85
I255
sS'profile_sidebar_border_color'
p86
g41
sS'location'
p87
g55
sS'default_profile_image'
p88
I00
sS'id_str'
p89
g43
sS'utc_offset'
p90
NsS'statuses_count'
p91
I1326
sS'description'
p92
VNEVER COULD HIDE WHO I AM. \u000a.http://ish.re/JJRT -not me.
p93
sS'friends_count'
p94
I285
sS'profile_link_color'
p95
g57
sS'profile_image_url'
p96
g59
sS'notifications'
p97
NsS'geo_enabled'
p98
I01
sS'profile_background_color'
p99
g45
sS'profile_banner_url'
p100
g63
sS'profile_background_image_url'
p101
g65
sS'name'
p102
g67
sS'lang'
p103
g69
sS'following'
p104
I00
sS'profile_background_tile'
p105
I00
sS'favourites_count'
p106
I29
sS'screen_name'
p107
g73
sS'url'
p108
NsS'created_at'
p109
cdatetime
datetime
p110
(S'\x07\xde\n\x1b\r\x04%\x00\x00\x00'
p111
tp112
Rp113
sS'profile_background_image_url_https'
p114
g48
sS'time_zone'
p115
NsS'protected'
p116
I00
sS'default_profile'
p117
I00
sS'is_translator'
p118
I00
sS'listed_count'
p119
I3
sbsS'filter_level'
p120
Vlow
p121
sS'geo'
p122
Nsg24
I620456231233286144
sS'favorite_count'
p123
I0
sS'source'
p124
VTwitter Web Client
p125
sg103
Vund
p126
sS'author'
p127
g18
sS'in_reply_to_user_id_str'
p128
Nsg28
(dp129
Vcontributors
p130
NsVtruncated
p131
I00
sVtext
p132
g10
sVin_reply_to_status_id
p133
Nsg33
I620456231233286144
sVfavorite_count
p134
I0
sVsource
p135
V<a href="http://twitter.com" rel="nofollow">Twitter Web Client</a>
p136
sVretweeted
p137
I00
sVcoordinates
p138
NsVtimestamp_ms
p139
V1436763267702
p140
sVentities
p141
(dp142
Vuser_mentions
p143
(lp144
sVsymbols
p145
(lp146
sVtrends
p147
(lp148
sVhashtags
p149
(lp150
sVurls
p151
(lp152
ssVin_reply_to_screen_name
p153
Nsg42
V620456231233286144
p154
sVretweet_count
p155
I0
sVin_reply_to_user_id
p156
NsVfavorited
p157
I00
sVuser
p158
g29
sVgeo
p159
NsVin_reply_to_user_id_str
p160
NsVpossibly_sensitive
p161
I00
sg68
g126
sg76
VMon Jul 13 04:54:27 +0000 2015
p162
sVfilter_level
p163
g121
sVin_reply_to_status_id_str
p164
NsVplace
p165
(dp166
Vfull_name
p167
VBerne, Switzerland
p168
sg75
Vhttps://api.twitter.com/1.1/geo/id/5868d0e0749c9c47.json
p169
sVcountry
p170
VSchweiz
p171
sVplace_type
p172
Vadmin
p173
sVbounding_box
p174
(dp175
Vtype
p176
VPolygon
p177
sg138
(lp178
(lp179
(lp180
F6.861601
aF46.326441
aa(lp181
F6.861601
aF47.34528
aa(lp182
F8.455051
aF47.34528
aa(lp183
F8.455051
aF46.326441
aaassVcountry_code
p184
VCH
p185
sVattributes
p186
(dp187
sg33
V5868d0e0749c9c47
p188
sg66
VBern
p189
sssS'coordinates'
p190
NsS'timestamp_ms'
p191
g140
sS'entities'
p192
g142
sS'in_reply_to_status_id_str'
p193
NsS'in_reply_to_screen_name'
p194
Nsg89
g154
sS'retweeted'
p195
I00
sS'place'
p196
g0
(ctweepy.models
Place
p197
g2
Ntp198
Rp199
(dp200
S'full_name'
p201
g168
sg108
g169
sS'country'
p202
g171
sS'place_type'
p203
g173
sS'bounding_box'
p204
g0
(ctweepy.models
BoundingBox
p205
g2
Ntp206
Rp207
(dp208
S'type'
p209
g177
sg190
g178
sbsS'country_code'
p210
g185
sS'attributes'
p211
g187
sg24
g188
sg102
g189
sbsS'retweet_count'
p212
I0
sg109
g110
(S'\x07\xdf\x07\r\x046\x1b\x00\x00\x00'
p213
tp214
Rp215
sS'in_reply_to_user_id'
p216
Nsb.