ccopy_reg
_reconstructor
p0
(ctweepy.models
Status
p1
c__builtin__
object
p2
Ntp3
Rp4
(dp5
S'favorited'
p6
I00
sS'contributors'
p7
NsS'truncated'
p8
I00
sS'text'
p9
V#Ramadhan #SempatLagi #PiLangkawi #CariPeriukBelanga #PekasamKolaKedah #BukakPosa #TepiPantai\u2026 https://t.co/9EwK86y2Hl
p10
sS'source_url'
p11
Vhttp://instagram.com
p12
sS'possibly_sensitive'
p13
I00
sS'in_reply_to_status_id'
p14
NsS'user'
p15
g0
(ctweepy.models
User
p16
g2
Ntp17
Rp18
(dp19
S'follow_request_sent'
p20
NsS'profile_use_background_image'
p21
I01
sS'profile_sidebar_fill_color'
p22
VDDEEF6
p23
sS'id'
p24
I249009475
sS'verified'
p25
I00
sS'profile_image_url_https'
p26
Vhttps://pbs.twimg.com/profile_images/3265946045/9bee105ae9910541345445f4ccf28947_normal.jpeg
p27
sS'_json'
p28
(dp29
Vfollow_request_sent
p30
NsVprofile_use_background_image
p31
I01
sVdefault_profile_image
p32
I00
sVid
p33
I249009475
sVverified
p34
I00
sVprofile_image_url_https
p35
g27
sVprofile_sidebar_fill_color
p36
g23
sVprofile_text_color
p37
V333333
p38
sVfollowers_count
p39
I62
sVprofile_sidebar_border_color
p40
VC0DEED
p41
sVid_str
p42
V249009475
p43
sVprofile_background_color
p44
VC0DEED
p45
sVlisted_count
p46
I1
sVprofile_background_image_url_https
p47
Vhttps://abs.twimg.com/images/themes/theme1/bg.png
p48
sVutc_offset
p49
NsVstatuses_count
p50
I1186
sVdescription
p51
NsVfriends_count
p52
I112
sVlocation
p53
Vshah alam
p54
sVprofile_link_color
p55
V0084B4
p56
sVprofile_image_url
p57
Vhttp://pbs.twimg.com/profile_images/3265946045/9bee105ae9910541345445f4ccf28947_normal.jpeg
p58
sVfollowing
p59
NsVgeo_enabled
p60
I01
sVprofile_background_image_url
p61
Vhttp://abs.twimg.com/images/themes/theme1/bg.png
p62
sVname
p63
Vmuhamad izwan 
p64
sVlang
p65
Ven
p66
sVprofile_background_tile
p67
I00
sVfavourites_count
p68
I3
sVscreen_name
p69
Vcaplongz
p70
sVnotifications
p71
NsVurl
p72
Vhttp://www.caplongasianbookie.com
p73
sVcreated_at
p74
VTue Feb 08 04:54:14 +0000 2011
p75
sVcontributors_enabled
p76
I00
sVtime_zone
p77
NsVprotected
p78
I00
sVdefault_profile
p79
I01
sVis_translator
p80
I00
ssS'contributors_enabled'
p81
I00
sS'profile_text_color'
p82
g38
sS'followers_count'
p83
I62
sS'profile_sidebar_border_color'
p84
g41
sS'location'
p85
g54
sS'default_profile_image'
p86
I00
sS'id_str'
p87
g43
sS'utc_offset'
p88
NsS'statuses_count'
p89
I1186
sS'description'
p90
NsS'friends_count'
p91
I112
sS'profile_link_color'
p92
g56
sS'profile_image_url'
p93
g58
sS'notifications'
p94
NsS'geo_enabled'
p95
I01
sS'profile_background_color'
p96
g45
sS'profile_background_image_url'
p97
g62
sS'name'
p98
g64
sS'lang'
p99
g66
sS'following'
p100
I00
sS'profile_background_tile'
p101
I00
sS'favourites_count'
p102
I3
sS'screen_name'
p103
g70
sS'url'
p104
g73
sS'created_at'
p105
cdatetime
datetime
p106
(S'\x07\xdb\x02\x08\x046\x0e\x00\x00\x00'
p107
tp108
Rp109
sS'profile_background_image_url_https'
p110
g48
sS'time_zone'
p111
NsS'protected'
p112
I00
sS'default_profile'
p113
I01
sS'is_translator'
p114
I00
sS'listed_count'
p115
I1
sbsS'filter_level'
p116
Vlow
p117
sS'geo'
p118
(dp119
Vtype
p120
VPoint
p121
sVcoordinates
p122
(lp123
F47.380984
aF8.503636
assg24
I619816701165760512
sS'favorite_count'
p124
I0
sS'source'
p125
VInstagram
p126
sg99
Vund
p127
sS'author'
p128
g18
sS'in_reply_to_user_id_str'
p129
Nsg28
(dp130
Vcontributors
p131
NsVtruncated
p132
I00
sVtext
p133
g10
sVin_reply_to_status_id
p134
Nsg33
I619816701165760512
sVfavorite_count
p135
I0
sVsource
p136
V<a href="http://instagram.com" rel="nofollow">Instagram</a>
p137
sVretweeted
p138
I00
sg122
(dp139
g120
VPoint
p140
sg122
(lp141
F8.503636
aF47.380984
assVtimestamp_ms
p142
V1436610791852
p143
sVentities
p144
(dp145
Vuser_mentions
p146
(lp147
sVsymbols
p148
(lp149
sVtrends
p150
(lp151
sVhashtags
p152
(lp153
(dp154
Vindices
p155
(lp156
I0
aI9
asg133
VRamadhan
p157
sa(dp158
g155
(lp159
I10
aI21
asg133
VSempatLagi
p160
sa(dp161
g155
(lp162
I22
aI33
asg133
VPiLangkawi
p163
sa(dp164
g155
(lp165
I34
aI52
asg133
VCariPeriukBelanga
p166
sa(dp167
g155
(lp168
I53
aI70
asg133
VPekasamKolaKedah
p169
sa(dp170
g155
(lp171
I71
aI81
asg133
VBukakPosa
p172
sa(dp173
g155
(lp174
I82
aI93
asg133
VTepiPantai
p175
sasVurls
p176
(lp177
(dp178
g72
Vhttps://t.co/9EwK86y2Hl
p179
sg155
(lp180
I95
aI118
asVexpanded_url
p181
Vhttps://instagram.com/p/4_h3cUKxwH/
p182
sVdisplay_url
p183
Vinstagram.com/p/4_h3cUKxwH/
p184
sassVin_reply_to_screen_name
p185
Nsg42
V619816701165760512
p186
sVretweet_count
p187
I0
sVin_reply_to_user_id
p188
NsVfavorited
p189
I00
sVuser
p190
g29
sVgeo
p191
g119
sVin_reply_to_user_id_str
p192
NsVpossibly_sensitive
p193
I00
sg65
g127
sg74
VSat Jul 11 10:33:11 +0000 2015
p194
sVfilter_level
p195
g117
sVin_reply_to_status_id_str
p196
NsVplace
p197
(dp198
Vfull_name
p199
VZurich, Switzerland
p200
sg72
Vhttps://api.twitter.com/1.1/geo/id/3acb748d0f1e9265.json
p201
sVcountry
p202
VSchweiz
p203
sVplace_type
p204
Vcity
p205
sVbounding_box
p206
(dp207
g120
VPolygon
p208
sg122
(lp209
(lp210
(lp211
F8.448081
aF47.320183
aa(lp212
F8.448081
aF47.434721
aa(lp213
F8.625442
aF47.434721
aa(lp214
F8.625442
aF47.320183
aaassVcountry_code
p215
VCH
p216
sVattributes
p217
(dp218
sg33
V3acb748d0f1e9265
p219
sg63
VZurich
p220
sssS'coordinates'
p221
g139
sS'timestamp_ms'
p222
g143
sS'entities'
p223
g145
sS'in_reply_to_status_id_str'
p224
NsS'in_reply_to_screen_name'
p225
Nsg87
g186
sS'retweeted'
p226
I00
sS'place'
p227
g0
(ctweepy.models
Place
p228
g2
Ntp229
Rp230
(dp231
S'full_name'
p232
g200
sg104
g201
sS'country'
p233
g203
sS'place_type'
p234
g205
sS'bounding_box'
p235
g0
(ctweepy.models
BoundingBox
p236
g2
Ntp237
Rp238
(dp239
S'type'
p240
g208
sg221
g209
sbsS'country_code'
p241
g216
sS'attributes'
p242
g218
sg24
g219
sg98
g220
sbsS'retweet_count'
p243
I0
sg105
g106
(S'\x07\xdf\x07\x0b\n!\x0b\x00\x00\x00'
p244
tp245
Rp246
sS'in_reply_to_user_id'
p247
Nsb.