ccopy_reg
_reconstructor
p0
(ctweepy.models
Status
p1
c__builtin__
object
p2
Ntp3
Rp4
(dp5
S'favorited'
p6
I00
sS'contributors'
p7
NsS'truncated'
p8
I00
sS'text'
p9
VGoodmorninggg hehe :)
p10
sS'source_url'
p11
Vhttp://twitter.com
p12
sS'possibly_sensitive'
p13
I01
sS'in_reply_to_status_id'
p14
NsS'user'
p15
g0
(ctweepy.models
User
p16
g2
Ntp17
Rp18
(dp19
S'follow_request_sent'
p20
NsS'profile_use_background_image'
p21
I01
sS'profile_sidebar_fill_color'
p22
V000000
p23
sS'id'
p24
I1626918325
sS'verified'
p25
I00
sS'profile_image_url_https'
p26
Vhttps://pbs.twimg.com/profile_images/613610043116814336/INXlfMS2_normal.jpg
p27
sS'_json'
p28
(dp29
Vfollow_request_sent
p30
NsVprofile_use_background_image
p31
I01
sVdefault_profile_image
p32
I00
sVid
p33
I1626918325
sVverified
p34
I00
sVprofile_image_url_https
p35
g27
sVprofile_sidebar_fill_color
p36
g23
sVprofile_text_color
p37
V000000
p38
sVfollowers_count
p39
I522
sVprofile_sidebar_border_color
p40
V000000
p41
sVid_str
p42
V1626918325
p43
sVprofile_background_color
p44
V1A1B1F
p45
sVlisted_count
p46
I1
sVprofile_background_image_url_https
p47
Vhttps://pbs.twimg.com/profile_background_images/590128056750112769/-ckoUD3K.jpg
p48
sVutc_offset
p49
I7200
sVstatuses_count
p50
I9847
sVdescription
p51
NsVfriends_count
p52
I200
sVlocation
p53
V
p54
sVprofile_link_color
p55
V2FC2EF
p56
sVprofile_image_url
p57
Vhttp://pbs.twimg.com/profile_images/613610043116814336/INXlfMS2_normal.jpg
p58
sVfollowing
p59
NsVgeo_enabled
p60
I01
sVprofile_banner_url
p61
Vhttps://pbs.twimg.com/profile_banners/1626918325/1435131026
p62
sVprofile_background_image_url
p63
Vhttp://pbs.twimg.com/profile_background_images/590128056750112769/-ckoUD3K.jpg
p64
sVname
p65
VSchweiz
p66
sVlang
p67
Ven
p68
sVprofile_background_tile
p69
I00
sVfavourites_count
p70
I11261
sVscreen_name
p71
Vmariellapola
p72
sVnotifications
p73
NsVurl
p74
NsVcreated_at
p75
VSun Jul 28 03:09:37 +0000 2013
p76
sVcontributors_enabled
p77
I00
sVtime_zone
p78
VBern
p79
sVprotected
p80
I00
sVdefault_profile
p81
I00
sVis_translator
p82
I00
ssS'contributors_enabled'
p83
I00
sS'profile_text_color'
p84
g38
sS'followers_count'
p85
I522
sS'profile_sidebar_border_color'
p86
g41
sS'location'
p87
g54
sS'default_profile_image'
p88
I00
sS'id_str'
p89
g43
sS'utc_offset'
p90
I7200
sS'statuses_count'
p91
I9847
sS'description'
p92
NsS'friends_count'
p93
I200
sS'profile_link_color'
p94
g56
sS'profile_image_url'
p95
g58
sS'notifications'
p96
NsS'geo_enabled'
p97
I01
sS'profile_background_color'
p98
g45
sS'profile_banner_url'
p99
g62
sS'profile_background_image_url'
p100
g64
sS'name'
p101
g66
sS'lang'
p102
g68
sS'following'
p103
I00
sS'profile_background_tile'
p104
I00
sS'favourites_count'
p105
I11261
sS'screen_name'
p106
g72
sS'url'
p107
NsS'created_at'
p108
cdatetime
datetime
p109
(S'\x07\xdd\x07\x1c\x03\t%\x00\x00\x00'
p110
tp111
Rp112
sS'profile_background_image_url_https'
p113
g48
sS'time_zone'
p114
g79
sS'protected'
p115
I00
sS'default_profile'
p116
I00
sS'is_translator'
p117
I00
sS'listed_count'
p118
I1
sbsS'filter_level'
p119
Vlow
p120
sS'geo'
p121
Nsg24
I620115122615361536
sS'favorite_count'
p122
I0
sS'source'
p123
VTwitter Web Client
p124
sg102
Ven
p125
sS'author'
p126
g18
sS'in_reply_to_user_id_str'
p127
Nsg28
(dp128
Vcontributors
p129
NsVtruncated
p130
I00
sVtext
p131
g10
sVin_reply_to_status_id
p132
Nsg33
I620115122615361536
sVfavorite_count
p133
I0
sVsource
p134
V<a href="http://twitter.com" rel="nofollow">Twitter Web Client</a>
p135
sVretweeted
p136
I00
sVcoordinates
p137
NsVtimestamp_ms
p138
V1436681941070
p139
sVentities
p140
(dp141
Vuser_mentions
p142
(lp143
sVsymbols
p144
(lp145
sVtrends
p146
(lp147
sVhashtags
p148
(lp149
sVurls
p150
(lp151
ssVin_reply_to_screen_name
p152
Nsg42
V620115122615361536
p153
sVretweet_count
p154
I0
sVin_reply_to_user_id
p155
NsVfavorited
p156
I00
sVuser
p157
g29
sVgeo
p158
NsVin_reply_to_user_id_str
p159
NsVpossibly_sensitive
p160
I01
sg67
g125
sg75
VSun Jul 12 06:19:01 +0000 2015
p161
sVfilter_level
p162
g120
sVin_reply_to_status_id_str
p163
NsVplace
p164
(dp165
Vfull_name
p166
VZurich, Switzerland
p167
sg74
Vhttps://api.twitter.com/1.1/geo/id/3acb748d0f1e9265.json
p168
sVcountry
p169
VSchweiz
p170
sVplace_type
p171
Vcity
p172
sVbounding_box
p173
(dp174
Vtype
p175
VPolygon
p176
sg137
(lp177
(lp178
(lp179
F8.448081
aF47.320183
aa(lp180
F8.448081
aF47.434721
aa(lp181
F8.625442
aF47.434721
aa(lp182
F8.625442
aF47.320183
aaassVcountry_code
p183
VCH
p184
sVattributes
p185
(dp186
sg33
V3acb748d0f1e9265
p187
sg65
VZurich
p188
sssS'coordinates'
p189
NsS'timestamp_ms'
p190
g139
sS'entities'
p191
g141
sS'in_reply_to_status_id_str'
p192
NsS'in_reply_to_screen_name'
p193
Nsg89
g153
sS'retweeted'
p194
I00
sS'place'
p195
g0
(ctweepy.models
Place
p196
g2
Ntp197
Rp198
(dp199
S'full_name'
p200
g167
sg107
g168
sS'country'
p201
g170
sS'place_type'
p202
g172
sS'bounding_box'
p203
g0
(ctweepy.models
BoundingBox
p204
g2
Ntp205
Rp206
(dp207
S'type'
p208
g176
sg189
g177
sbsS'country_code'
p209
g184
sS'attributes'
p210
g186
sg24
g187
sg101
g188
sbsS'retweet_count'
p211
I0
sg108
g109
(S'\x07\xdf\x07\x0c\x06\x13\x01\x00\x00\x00'
p212
tp213
Rp214
sS'in_reply_to_user_id'
p215
Nsb.