ccopy_reg
_reconstructor
p0
(ctweepy.models
Status
p1
c__builtin__
object
p2
Ntp3
Rp4
(dp5
S'favorited'
p6
I00
sS'contributors'
p7
NsS'truncated'
p8
I00
sS'text'
p9
V@Ade_Mc_ sadly no. But hey drove round all day yesterday.  Just topped up 8ltrs!!!!
p10
sS'source_url'
p11
Vhttp://twitter.com/download/android
p12
sS'possibly_sensitive'
p13
I00
sS'in_reply_to_status_id'
p14
I619382488285212672
sS'user'
p15
g0
(ctweepy.models
User
p16
g2
Ntp17
Rp18
(dp19
S'follow_request_sent'
p20
NsS'profile_use_background_image'
p21
I01
sS'profile_sidebar_fill_color'
p22
VDDEEF6
p23
sS'id'
p24
I710984115
sS'verified'
p25
I00
sS'profile_image_url_https'
p26
Vhttps://pbs.twimg.com/profile_images/591729564646318080/G3aYH2E6_normal.jpg
p27
sS'_json'
p28
(dp29
Vfollow_request_sent
p30
NsVprofile_use_background_image
p31
I01
sVdefault_profile_image
p32
I00
sVid
p33
I710984115
sVverified
p34
I00
sVprofile_image_url_https
p35
g27
sVprofile_sidebar_fill_color
p36
g23
sVprofile_text_color
p37
V333333
p38
sVfollowers_count
p39
I988
sVprofile_sidebar_border_color
p40
VC0DEED
p41
sVid_str
p42
V710984115
p43
sVprofile_background_color
p44
VC0DEED
p45
sVlisted_count
p46
I20
sVprofile_background_image_url_https
p47
Vhttps://abs.twimg.com/images/themes/theme1/bg.png
p48
sVutc_offset
p49
NsVstatuses_count
p50
I17603
sVdescription
p51
VLove to buy cars, don't like selling them. Yoda to some.
p52
sVfriends_count
p53
I93
sVlocation
p54
VMonaco for the reality check
p55
sVprofile_link_color
p56
V0084B4
p57
sVprofile_image_url
p58
Vhttp://pbs.twimg.com/profile_images/591729564646318080/G3aYH2E6_normal.jpg
p59
sVfollowing
p60
NsVgeo_enabled
p61
I01
sVprofile_banner_url
p62
Vhttps://pbs.twimg.com/profile_banners/710984115/1384691320
p63
sVprofile_background_image_url
p64
Vhttp://abs.twimg.com/images/themes/theme1/bg.png
p65
sVname
p66
VPaul
p67
sVlang
p68
Ven
p69
sVprofile_background_tile
p70
I00
sVfavourites_count
p71
I7311
sVscreen_name
p72
VHabsyP
p73
sVnotifications
p74
NsVurl
p75
NsVcreated_at
p76
VSat Oct 12 14:31:59 +0000 2013
p77
sVcontributors_enabled
p78
I00
sVtime_zone
p79
NsVprotected
p80
I00
sVdefault_profile
p81
I01
sVis_translator
p82
I00
ssS'contributors_enabled'
p83
I00
sS'profile_text_color'
p84
g38
sS'followers_count'
p85
I988
sS'profile_sidebar_border_color'
p86
g41
sS'location'
p87
g55
sS'default_profile_image'
p88
I00
sS'id_str'
p89
g43
sS'utc_offset'
p90
NsS'statuses_count'
p91
I17603
sS'description'
p92
g52
sS'friends_count'
p93
I93
sS'profile_link_color'
p94
g57
sS'profile_image_url'
p95
g59
sS'notifications'
p96
NsS'geo_enabled'
p97
I01
sS'profile_background_color'
p98
g45
sS'profile_banner_url'
p99
g63
sS'profile_background_image_url'
p100
g65
sS'name'
p101
g67
sS'lang'
p102
g69
sS'following'
p103
I00
sS'profile_background_tile'
p104
I00
sS'favourites_count'
p105
I7311
sS'screen_name'
p106
g73
sS'url'
p107
NsS'created_at'
p108
cdatetime
datetime
p109
(S'\x07\xdd\n\x0c\x0e\x1f;\x00\x00\x00'
p110
tp111
Rp112
sS'profile_background_image_url_https'
p113
g48
sS'time_zone'
p114
NsS'protected'
p115
I00
sS'default_profile'
p116
I01
sS'is_translator'
p117
I00
sS'listed_count'
p118
I20
sbsS'filter_level'
p119
Vlow
p120
sS'geo'
p121
(dp122
Vtype
p123
VPoint
p124
sVcoordinates
p125
(lp126
F47.372637
aF8.573344
assg24
I619382823653392384
sS'favorite_count'
p127
I0
sS'source'
p128
VTwitter for Android
p129
sg102
Ven
p130
sS'author'
p131
g18
sS'in_reply_to_user_id_str'
p132
V3060212767
p133
sg28
(dp134
Vcontributors
p135
NsVtruncated
p136
I00
sVtext
p137
g10
sVin_reply_to_status_id
p138
I619382488285212672
sg33
I619382823653392384
sVfavorite_count
p139
I0
sVsource
p140
V<a href="http://twitter.com/download/android" rel="nofollow">Twitter for Android</a>
p141
sVretweeted
p142
I00
sg125
(dp143
g123
VPoint
p144
sg125
(lp145
F8.573344
aF47.372637
assVtimestamp_ms
p146
V1436507347392
p147
sVentities
p148
(dp149
Vuser_mentions
p150
(lp151
(dp152
g33
I3060212767
sVindices
p153
(lp154
I0
aI8
asg42
V3060212767
p155
sg72
VAde_Mc_
p156
sg66
VAdrian
p157
sasVsymbols
p158
(lp159
sVtrends
p160
(lp161
sVhashtags
p162
(lp163
sVurls
p164
(lp165
ssVin_reply_to_screen_name
p166
VAde_Mc_
p167
sg42
V619382823653392384
p168
sVretweet_count
p169
I0
sVin_reply_to_user_id
p170
I3060212767
sVfavorited
p171
I00
sVuser
p172
g29
sVgeo
p173
g122
sVin_reply_to_user_id_str
p174
g133
sVpossibly_sensitive
p175
I00
sg68
g130
sg76
VFri Jul 10 05:49:07 +0000 2015
p176
sVfilter_level
p177
g120
sVin_reply_to_status_id_str
p178
V619382488285212672
p179
sVplace
p180
(dp181
Vfull_name
p182
VZurich, Switzerland
p183
sg75
Vhttps://api.twitter.com/1.1/geo/id/3acb748d0f1e9265.json
p184
sVcountry
p185
VSchweiz
p186
sVplace_type
p187
Vcity
p188
sVbounding_box
p189
(dp190
g123
VPolygon
p191
sg125
(lp192
(lp193
(lp194
F8.448081
aF47.320183
aa(lp195
F8.448081
aF47.434721
aa(lp196
F8.625442
aF47.434721
aa(lp197
F8.625442
aF47.320183
aaassVcountry_code
p198
VCH
p199
sVattributes
p200
(dp201
sg33
V3acb748d0f1e9265
p202
sg66
VZurich
p203
sssS'coordinates'
p204
g143
sS'timestamp_ms'
p205
g147
sS'entities'
p206
g149
sS'in_reply_to_status_id_str'
p207
g179
sS'in_reply_to_screen_name'
p208
g167
sg89
g168
sS'retweeted'
p209
I00
sS'place'
p210
g0
(ctweepy.models
Place
p211
g2
Ntp212
Rp213
(dp214
S'full_name'
p215
g183
sg107
g184
sS'country'
p216
g186
sS'place_type'
p217
g188
sS'bounding_box'
p218
g0
(ctweepy.models
BoundingBox
p219
g2
Ntp220
Rp221
(dp222
S'type'
p223
g191
sg204
g192
sbsS'country_code'
p224
g199
sS'attributes'
p225
g201
sg24
g202
sg101
g203
sbsS'retweet_count'
p226
I0
sg108
g109
(S'\x07\xdf\x07\n\x051\x07\x00\x00\x00'
p227
tp228
Rp229
sS'in_reply_to_user_id'
p230
I3060212767
sb.