ccopy_reg
_reconstructor
p0
(ctweepy.models
Status
p1
c__builtin__
object
p2
Ntp3
Rp4
(dp5
S'favorited'
p6
I00
sS'contributors'
p7
NsS'truncated'
p8
I00
sS'text'
p9
VWhen architecture meets watchmaking artcraft! #Tree #Tipi inside #Chapel looks like #JaquetDroz #Sunstone #Watch http://t.co/GjfFZbDU7R
p10
sS'source_url'
p11
Vhttp://twitter.com
p12
sS'possibly_sensitive'
p13
I00
sS'in_reply_to_status_id'
p14
NsS'user'
p15
g0
(ctweepy.models
User
p16
g2
Ntp17
Rp18
(dp19
S'follow_request_sent'
p20
NsS'profile_use_background_image'
p21
I00
sS'profile_sidebar_fill_color'
p22
VEFEFEF
p23
sS'id'
p24
I1472111922
sS'verified'
p25
I00
sS'profile_image_url_https'
p26
Vhttps://pbs.twimg.com/profile_images/554668878710579201/HL-XSfjP_normal.jpeg
p27
sS'_json'
p28
(dp29
Vfollow_request_sent
p30
NsVprofile_use_background_image
p31
I00
sVdefault_profile_image
p32
I00
sVid
p33
I1472111922
sVverified
p34
I00
sVprofile_image_url_https
p35
g27
sVprofile_sidebar_fill_color
p36
g23
sVprofile_text_color
p37
V333333
p38
sVfollowers_count
p39
I162
sVprofile_sidebar_border_color
p40
VFFFFFF
p41
sVid_str
p42
V1472111922
p43
sVprofile_background_color
p44
V000000
p45
sVlisted_count
p46
I15
sVprofile_background_image_url_https
p47
Vhttps://abs.twimg.com/images/themes/theme14/bg.gif
p48
sVutc_offset
p49
I7200
sVstatuses_count
p50
I818
sVdescription
p51
VSTUDIOFORMA ARCHITECTS is a premium architecture & interior design company with representative offices in Zurich, Paris and Hamburg.
p52
sVfriends_count
p53
I448
sVlocation
p54
VZurich, Switzerland
p55
sVprofile_link_color
p56
V000000
p57
sVprofile_image_url
p58
Vhttp://pbs.twimg.com/profile_images/554668878710579201/HL-XSfjP_normal.jpeg
p59
sVfollowing
p60
NsVgeo_enabled
p61
I01
sVprofile_banner_url
p62
Vhttps://pbs.twimg.com/profile_banners/1472111922/1415108929
p63
sVprofile_background_image_url
p64
Vhttp://abs.twimg.com/images/themes/theme14/bg.gif
p65
sVname
p66
VSTUDIOFORMA
p67
sVlang
p68
Ven
p69
sVprofile_background_tile
p70
I01
sVfavourites_count
p71
I203
sVscreen_name
p72
Vstudioforma_arc
p73
sVnotifications
p74
NsVurl
p75
Vhttp://www.studioforma.ch
p76
sVcreated_at
p77
VFri May 31 13:16:17 +0000 2013
p78
sVcontributors_enabled
p79
I00
sVtime_zone
p80
VBern
p81
sVprotected
p82
I00
sVdefault_profile
p83
I00
sVis_translator
p84
I00
ssS'contributors_enabled'
p85
I00
sS'profile_text_color'
p86
g38
sS'followers_count'
p87
I162
sS'profile_sidebar_border_color'
p88
g41
sS'location'
p89
g55
sS'default_profile_image'
p90
I00
sS'id_str'
p91
g43
sS'utc_offset'
p92
I7200
sS'statuses_count'
p93
I818
sS'description'
p94
g52
sS'friends_count'
p95
I448
sS'profile_link_color'
p96
g57
sS'profile_image_url'
p97
g59
sS'notifications'
p98
NsS'geo_enabled'
p99
I01
sS'profile_background_color'
p100
g45
sS'profile_banner_url'
p101
g63
sS'profile_background_image_url'
p102
g65
sS'name'
p103
g67
sS'lang'
p104
g69
sS'following'
p105
I00
sS'profile_background_tile'
p106
I01
sS'favourites_count'
p107
I203
sS'screen_name'
p108
g73
sS'url'
p109
g76
sS'created_at'
p110
cdatetime
datetime
p111
(S'\x07\xdd\x05\x1f\r\x10\x11\x00\x00\x00'
p112
tp113
Rp114
sS'profile_background_image_url_https'
p115
g48
sS'time_zone'
p116
g81
sS'protected'
p117
I00
sS'default_profile'
p118
I00
sS'is_translator'
p119
I00
sS'listed_count'
p120
I15
sbsS'filter_level'
p121
Vlow
p122
sS'geo'
p123
Nsg24
I620917516437745664
sS'favorite_count'
p124
I0
sS'source'
p125
VTwitter Web Client
p126
sg104
Ven
p127
sS'author'
p128
g18
sS'in_reply_to_user_id_str'
p129
Nsg28
(dp130
Vcontributors
p131
NsVtruncated
p132
I00
sVtext
p133
g10
sVin_reply_to_status_id
p134
Nsg33
I620917516437745664
sVfavorite_count
p135
I0
sVsource
p136
V<a href="http://twitter.com" rel="nofollow">Twitter Web Client</a>
p137
sVretweeted
p138
I00
sVcoordinates
p139
NsVtimestamp_ms
p140
V1436873246665
p141
sVentities
p142
(dp143
Vsymbols
p144
(lp145
sVmedia
p146
(lp147
(dp148
Vexpanded_url
p149
Vhttp://twitter.com/studioforma_arc/status/620917516437745664/photo/1
p150
sVdisplay_url
p151
Vpic.twitter.com/GjfFZbDU7R
p152
sg75
Vhttp://t.co/GjfFZbDU7R
p153
sVmedia_url_https
p154
Vhttps://pbs.twimg.com/media/CJ3xMD7UcAALEoY.jpg
p155
sg42
V620917513161830400
p156
sVsizes
p157
(dp158
Vlarge
p159
(dp160
Vh
p161
I1438
sVresize
p162
Vfit
p163
sVw
p164
I915
ssVsmall
p165
(dp166
g161
I534
sg162
Vfit
p167
sg164
I340
ssVmedium
p168
(dp169
g161
I942
sg162
Vfit
p170
sg164
I600
ssVthumb
p171
(dp172
g161
I150
sg162
Vcrop
p173
sg164
I150
sssVindices
p174
(lp175
I113
aI135
asVtype
p176
Vphoto
p177
sg33
I620917513161830400
sVmedia_url
p178
Vhttp://pbs.twimg.com/media/CJ3xMD7UcAALEoY.jpg
p179
sasVhashtags
p180
(lp181
(dp182
g174
(lp183
I46
aI51
asg133
VTree
p184
sa(dp185
g174
(lp186
I52
aI57
asg133
VTipi
p187
sa(dp188
g174
(lp189
I65
aI72
asg133
VChapel
p190
sa(dp191
g174
(lp192
I84
aI95
asg133
VJaquetDroz
p193
sa(dp194
g174
(lp195
I96
aI105
asg133
VSunstone
p196
sa(dp197
g174
(lp198
I106
aI112
asg133
VWatch
p199
sasVuser_mentions
p200
(lp201
sVtrends
p202
(lp203
sVurls
p204
(lp205
ssVin_reply_to_screen_name
p206
Nsg42
V620917516437745664
p207
sVretweet_count
p208
I0
sVin_reply_to_user_id
p209
NsVfavorited
p210
I00
sVuser
p211
g29
sVgeo
p212
NsVin_reply_to_user_id_str
p213
NsVpossibly_sensitive
p214
I00
sg68
g127
sg77
VTue Jul 14 11:27:26 +0000 2015
p215
sVfilter_level
p216
g122
sVin_reply_to_status_id_str
p217
NsVplace
p218
(dp219
Vfull_name
p220
VZurich, Switzerland
p221
sg75
Vhttps://api.twitter.com/1.1/geo/id/3acb748d0f1e9265.json
p222
sVcountry
p223
VSchweiz
p224
sVplace_type
p225
Vcity
p226
sVbounding_box
p227
(dp228
g176
VPolygon
p229
sg139
(lp230
(lp231
(lp232
F8.448081
aF47.320183
aa(lp233
F8.448081
aF47.434721
aa(lp234
F8.625442
aF47.434721
aa(lp235
F8.625442
aF47.320183
aaassVcountry_code
p236
VCH
p237
sVattributes
p238
(dp239
sg33
V3acb748d0f1e9265
p240
sg66
VZurich
p241
ssVextended_entities
p242
(dp243
g146
(lp244
(dp245
g149
Vhttp://twitter.com/studioforma_arc/status/620917516437745664/photo/1
p246
sg151
Vpic.twitter.com/GjfFZbDU7R
p247
sg75
Vhttp://t.co/GjfFZbDU7R
p248
sg154
Vhttps://pbs.twimg.com/media/CJ3xMD7UcAALEoY.jpg
p249
sg42
V620917513161830400
p250
sg157
(dp251
g159
(dp252
g161
I1438
sg162
Vfit
p253
sg164
I915
ssg165
(dp254
g161
I534
sg162
Vfit
p255
sg164
I340
ssg168
(dp256
g161
I942
sg162
Vfit
p257
sg164
I600
ssg171
(dp258
g161
I150
sg162
Vcrop
p259
sg164
I150
sssg174
(lp260
I113
aI135
asg176
Vphoto
p261
sg33
I620917513161830400
sg178
Vhttp://pbs.twimg.com/media/CJ3xMD7UcAALEoY.jpg
p262
sa(dp263
g149
Vhttp://twitter.com/studioforma_arc/status/620917516437745664/photo/1
p264
sg151
Vpic.twitter.com/GjfFZbDU7R
p265
sg75
Vhttp://t.co/GjfFZbDU7R
p266
sg154
Vhttps://pbs.twimg.com/media/CJ3xMMeUkAAfEBf.jpg
p267
sg42
V620917515456122880
p268
sg157
(dp269
g165
(dp270
g161
I255
sg162
Vfit
p271
sg164
I340
ssg159
(dp272
g161
I768
sg162
Vfit
p273
sg164
I1024
ssg168
(dp274
g161
I450
sg162
Vfit
p275
sg164
I600
ssg171
(dp276
g161
I150
sg162
Vcrop
p277
sg164
I150
sssg174
(lp278
I113
aI135
asg176
Vphoto
p279
sg33
I620917515456122880
sg178
Vhttp://pbs.twimg.com/media/CJ3xMMeUkAAfEBf.jpg
p280
sasssS'coordinates'
p281
NsS'timestamp_ms'
p282
g141
sS'entities'
p283
g143
sS'in_reply_to_status_id_str'
p284
NsS'in_reply_to_screen_name'
p285
Nsg91
g207
sS'extended_entities'
p286
g243
sS'retweeted'
p287
I00
sS'place'
p288
g0
(ctweepy.models
Place
p289
g2
Ntp290
Rp291
(dp292
S'full_name'
p293
g221
sg109
g222
sS'country'
p294
g224
sS'place_type'
p295
g226
sS'bounding_box'
p296
g0
(ctweepy.models
BoundingBox
p297
g2
Ntp298
Rp299
(dp300
S'type'
p301
g229
sg281
g230
sbsS'country_code'
p302
g237
sS'attributes'
p303
g239
sg24
g240
sg103
g241
sbsS'retweet_count'
p304
I0
sg110
g111
(S'\x07\xdf\x07\x0e\x0b\x1b\x1a\x00\x00\x00'
p305
tp306
Rp307
sS'in_reply_to_user_id'
p308
Nsb.