ccopy_reg
_reconstructor
p0
(ctweepy.models
Status
p1
c__builtin__
object
p2
Ntp3
Rp4
(dp5
S'favorited'
p6
I00
sS'contributors'
p7
NsS'truncated'
p8
I00
sS'text'
p9
VSaw some street art on my run tonight \U0001f64a\U0001f44c #art #monkey #fitness #city #run #zurich #streetart http://t.co/UH5MN5Arkr
p10
sS'source_url'
p11
Vhttp://twitter.com/download/iphone
p12
sS'possibly_sensitive'
p13
I00
sS'in_reply_to_status_id'
p14
NsS'user'
p15
g0
(ctweepy.models
User
p16
g2
Ntp17
Rp18
(dp19
S'follow_request_sent'
p20
NsS'profile_use_background_image'
p21
I01
sS'profile_sidebar_fill_color'
p22
VEFEFEF
p23
sS'id'
p24
I291991611
sS'verified'
p25
I00
sS'profile_image_url_https'
p26
Vhttps://pbs.twimg.com/profile_images/587804013300752384/_vO6SxLX_normal.jpg
p27
sS'_json'
p28
(dp29
Vfollow_request_sent
p30
NsVprofile_use_background_image
p31
I01
sVdefault_profile_image
p32
I00
sVid
p33
I291991611
sVverified
p34
I00
sVprofile_image_url_https
p35
g27
sVprofile_sidebar_fill_color
p36
g23
sVprofile_text_color
p37
V333333
p38
sVfollowers_count
p39
I617
sVprofile_sidebar_border_color
p40
VEEEEEE
p41
sVid_str
p42
V291991611
p43
sVprofile_background_color
p44
V131516
p45
sVlisted_count
p46
I5
sVprofile_background_image_url_https
p47
Vhttps://abs.twimg.com/images/themes/theme14/bg.gif
p48
sVutc_offset
p49
NsVstatuses_count
p50
I4716
sVdescription
p51
VFitness, adventure, travel, golf.
p52
sVfriends_count
p53
I214
sVlocation
p54
VChandlers Ford, UK
p55
sVprofile_link_color
p56
V009999
p57
sVprofile_image_url
p58
Vhttp://pbs.twimg.com/profile_images/587804013300752384/_vO6SxLX_normal.jpg
p59
sVfollowing
p60
NsVgeo_enabled
p61
I01
sVprofile_banner_url
p62
Vhttps://pbs.twimg.com/profile_banners/291991611/1424036827
p63
sVprofile_background_image_url
p64
Vhttp://abs.twimg.com/images/themes/theme14/bg.gif
p65
sVname
p66
VJoe Wenman
p67
sVlang
p68
Ven
p69
sVprofile_background_tile
p70
I01
sVfavourites_count
p71
I953
sVscreen_name
p72
Vjoey_wenners
p73
sVnotifications
p74
NsVurl
p75
NsVcreated_at
p76
VMon May 02 23:07:35 +0000 2011
p77
sVcontributors_enabled
p78
I00
sVtime_zone
p79
NsVprotected
p80
I00
sVdefault_profile
p81
I00
sVis_translator
p82
I00
ssS'contributors_enabled'
p83
I00
sS'profile_text_color'
p84
g38
sS'followers_count'
p85
I617
sS'profile_sidebar_border_color'
p86
g41
sS'location'
p87
g55
sS'default_profile_image'
p88
I00
sS'id_str'
p89
g43
sS'utc_offset'
p90
NsS'statuses_count'
p91
I4716
sS'description'
p92
g52
sS'friends_count'
p93
I214
sS'profile_link_color'
p94
g57
sS'profile_image_url'
p95
g59
sS'notifications'
p96
NsS'geo_enabled'
p97
I01
sS'profile_background_color'
p98
g45
sS'profile_banner_url'
p99
g63
sS'profile_background_image_url'
p100
g65
sS'name'
p101
g67
sS'lang'
p102
g69
sS'following'
p103
I00
sS'profile_background_tile'
p104
I01
sS'favourites_count'
p105
I953
sS'screen_name'
p106
g73
sS'url'
p107
NsS'created_at'
p108
cdatetime
datetime
p109
(S'\x07\xdb\x05\x02\x17\x07#\x00\x00\x00'
p110
tp111
Rp112
sS'profile_background_image_url_https'
p113
g48
sS'time_zone'
p114
NsS'protected'
p115
I00
sS'default_profile'
p116
I00
sS'is_translator'
p117
I00
sS'listed_count'
p118
I5
sbsS'filter_level'
p119
Vlow
p120
sS'geo'
p121
Nsg24
I619277458664198144
sS'favorite_count'
p122
I0
sS'source'
p123
VTwitter for iPhone
p124
sg102
Ven
p125
sS'author'
p126
g18
sS'in_reply_to_user_id_str'
p127
Nsg28
(dp128
Vcontributors
p129
NsVtruncated
p130
I00
sVtext
p131
g10
sVin_reply_to_status_id
p132
Nsg33
I619277458664198144
sVfavorite_count
p133
I0
sVsource
p134
V<a href="http://twitter.com/download/iphone" rel="nofollow">Twitter for iPhone</a>
p135
sVretweeted
p136
I00
sVcoordinates
p137
NsVtimestamp_ms
p138
V1436482226421
p139
sVentities
p140
(dp141
Vsymbols
p142
(lp143
sVmedia
p144
(lp145
(dp146
Vexpanded_url
p147
Vhttp://twitter.com/joey_wenners/status/619277458664198144/photo/1
p148
sVdisplay_url
p149
Vpic.twitter.com/UH5MN5Arkr
p150
sg75
Vhttp://t.co/UH5MN5Arkr
p151
sVmedia_url_https
p152
Vhttps://pbs.twimg.com/media/CJgdj2pWsAEwdfj.jpg
p153
sg42
V619277450565038081
p154
sVsizes
p155
(dp156
Vsmall
p157
(dp158
Vh
p159
I340
sVresize
p160
Vfit
p161
sVw
p162
I340
ssVlarge
p163
(dp164
g159
I1024
sg160
Vfit
p165
sg162
I1024
ssVmedium
p166
(dp167
g159
I600
sg160
Vfit
p168
sg162
I600
ssVthumb
p169
(dp170
g159
I150
sg160
Vcrop
p171
sg162
I150
sssVindices
p172
(lp173
I93
aI115
asVtype
p174
Vphoto
p175
sg33
I619277450565038081
sVmedia_url
p176
Vhttp://pbs.twimg.com/media/CJgdj2pWsAEwdfj.jpg
p177
sasVhashtags
p178
(lp179
(dp180
g172
(lp181
I41
aI45
asg131
Vart
p182
sa(dp183
g172
(lp184
I46
aI53
asg131
Vmonkey
p185
sa(dp186
g172
(lp187
I54
aI62
asg131
Vfitness
p188
sa(dp189
g172
(lp190
I63
aI68
asg131
Vcity
p191
sa(dp192
g172
(lp193
I69
aI73
asg131
Vrun
p194
sa(dp195
g172
(lp196
I74
aI81
asg131
Vzurich
p197
sa(dp198
g172
(lp199
I82
aI92
asg131
Vstreetart
p200
sasVuser_mentions
p201
(lp202
sVtrends
p203
(lp204
sVurls
p205
(lp206
ssVin_reply_to_screen_name
p207
Nsg42
V619277458664198144
p208
sVretweet_count
p209
I0
sVin_reply_to_user_id
p210
NsVfavorited
p211
I00
sVuser
p212
g29
sVgeo
p213
NsVin_reply_to_user_id_str
p214
NsVpossibly_sensitive
p215
I00
sg68
g125
sg76
VThu Jul 09 22:50:26 +0000 2015
p216
sVfilter_level
p217
g120
sVin_reply_to_status_id_str
p218
NsVplace
p219
(dp220
Vfull_name
p221
VZurich, Switzerland
p222
sg75
Vhttps://api.twitter.com/1.1/geo/id/3acb748d0f1e9265.json
p223
sVcountry
p224
VSchweiz
p225
sVplace_type
p226
Vcity
p227
sVbounding_box
p228
(dp229
g174
VPolygon
p230
sg137
(lp231
(lp232
(lp233
F8.448081
aF47.320183
aa(lp234
F8.448081
aF47.434721
aa(lp235
F8.625442
aF47.434721
aa(lp236
F8.625442
aF47.320183
aaassVcountry_code
p237
VCH
p238
sVattributes
p239
(dp240
sg33
V3acb748d0f1e9265
p241
sg66
VZurich
p242
ssVextended_entities
p243
(dp244
g144
(lp245
(dp246
g147
Vhttp://twitter.com/joey_wenners/status/619277458664198144/photo/1
p247
sg149
Vpic.twitter.com/UH5MN5Arkr
p248
sg75
Vhttp://t.co/UH5MN5Arkr
p249
sg152
Vhttps://pbs.twimg.com/media/CJgdj2pWsAEwdfj.jpg
p250
sg42
V619277450565038081
p251
sg155
(dp252
g157
(dp253
g159
I340
sg160
Vfit
p254
sg162
I340
ssg163
(dp255
g159
I1024
sg160
Vfit
p256
sg162
I1024
ssg166
(dp257
g159
I600
sg160
Vfit
p258
sg162
I600
ssg169
(dp259
g159
I150
sg160
Vcrop
p260
sg162
I150
sssg172
(lp261
I93
aI115
asg174
Vphoto
p262
sg33
I619277450565038081
sg176
Vhttp://pbs.twimg.com/media/CJgdj2pWsAEwdfj.jpg
p263
sasssS'coordinates'
p264
NsS'timestamp_ms'
p265
g139
sS'entities'
p266
g141
sS'in_reply_to_status_id_str'
p267
NsS'in_reply_to_screen_name'
p268
Nsg89
g208
sS'extended_entities'
p269
g244
sS'retweeted'
p270
I00
sS'place'
p271
g0
(ctweepy.models
Place
p272
g2
Ntp273
Rp274
(dp275
S'full_name'
p276
g222
sg107
g223
sS'country'
p277
g225
sS'place_type'
p278
g227
sS'bounding_box'
p279
g0
(ctweepy.models
BoundingBox
p280
g2
Ntp281
Rp282
(dp283
S'type'
p284
g230
sg264
g231
sbsS'country_code'
p285
g238
sS'attributes'
p286
g240
sg24
g241
sg101
g242
sbsS'retweet_count'
p287
I0
sg108
g109
(S'\x07\xdf\x07\t\x162\x1a\x00\x00\x00'
p288
tp289
Rp290
sS'in_reply_to_user_id'
p291
Nsb.