ccopy_reg
_reconstructor
p0
(ctweepy.models
Status
p1
c__builtin__
object
p2
Ntp3
Rp4
(dp5
S'favorited'
p6
I00
sS'contributors'
p7
NsS'truncated'
p8
I00
sS'text'
p9
VAs you do. #Switzerland http://t.co/4dVYd5XFKf
p10
sS'source_url'
p11
Vhttp://twitter.com
p12
sS'possibly_sensitive'
p13
I00
sS'in_reply_to_status_id'
p14
NsS'user'
p15
g0
(ctweepy.models
User
p16
g2
Ntp17
Rp18
(dp19
S'follow_request_sent'
p20
NsS'profile_use_background_image'
p21
I01
sS'profile_sidebar_fill_color'
p22
VDDEEF6
p23
sS'id'
p24
I14442559
sS'verified'
p25
I00
sS'profile_image_url_https'
p26
Vhttps://pbs.twimg.com/profile_images/550986468978462720/esOdQ3NO_normal.jpeg
p27
sS'_json'
p28
(dp29
Vfollow_request_sent
p30
NsVprofile_use_background_image
p31
I01
sVdefault_profile_image
p32
I00
sVid
p33
I14442559
sVverified
p34
I00
sVprofile_image_url_https
p35
g27
sVprofile_sidebar_fill_color
p36
g23
sVprofile_text_color
p37
V333333
p38
sVfollowers_count
p39
I458
sVprofile_sidebar_border_color
p40
VC0DEED
p41
sVid_str
p42
V14442559
p43
sVprofile_background_color
p44
VC0DEED
p45
sVlisted_count
p46
I22
sVprofile_background_image_url_https
p47
Vhttps://abs.twimg.com/images/themes/theme1/bg.png
p48
sVutc_offset
p49
I36000
sVstatuses_count
p50
I27698
sVdescription
p51
VFunnier in text, better looking in avatar.
p52
sVfriends_count
p53
I819
sVlocation
p54
Velsewhere
p55
sVprofile_link_color
p56
V0084B4
p57
sVprofile_image_url
p58
Vhttp://pbs.twimg.com/profile_images/550986468978462720/esOdQ3NO_normal.jpeg
p59
sVfollowing
p60
NsVgeo_enabled
p61
I01
sVprofile_banner_url
p62
Vhttps://pbs.twimg.com/profile_banners/14442559/1350060026
p63
sVprofile_background_image_url
p64
Vhttp://abs.twimg.com/images/themes/theme1/bg.png
p65
sVname
p66
VSir homebrandcola
p67
sVlang
p68
Ven
p69
sVprofile_background_tile
p70
I00
sVfavourites_count
p71
I3125
sVscreen_name
p72
Vhomebrandcola
p73
sVnotifications
p74
NsVurl
p75
NsVcreated_at
p76
VSat Apr 19 11:52:23 +0000 2008
p77
sVcontributors_enabled
p78
I00
sVtime_zone
p79
VCanberra
p80
sVprotected
p81
I00
sVdefault_profile
p82
I01
sVis_translator
p83
I00
ssS'contributors_enabled'
p84
I00
sS'profile_text_color'
p85
g38
sS'followers_count'
p86
I458
sS'profile_sidebar_border_color'
p87
g41
sS'location'
p88
g55
sS'default_profile_image'
p89
I00
sS'id_str'
p90
g43
sS'utc_offset'
p91
I36000
sS'statuses_count'
p92
I27698
sS'description'
p93
g52
sS'friends_count'
p94
I819
sS'profile_link_color'
p95
g57
sS'profile_image_url'
p96
g59
sS'notifications'
p97
NsS'geo_enabled'
p98
I01
sS'profile_background_color'
p99
g45
sS'profile_banner_url'
p100
g63
sS'profile_background_image_url'
p101
g65
sS'name'
p102
g67
sS'lang'
p103
g69
sS'following'
p104
I00
sS'profile_background_tile'
p105
I00
sS'favourites_count'
p106
I3125
sS'screen_name'
p107
g73
sS'url'
p108
NsS'created_at'
p109
cdatetime
datetime
p110
(S'\x07\xd8\x04\x13\x0b4\x17\x00\x00\x00'
p111
tp112
Rp113
sS'profile_background_image_url_https'
p114
g48
sS'time_zone'
p115
g80
sS'protected'
p116
I00
sS'default_profile'
p117
I01
sS'is_translator'
p118
I00
sS'listed_count'
p119
I22
sbsS'filter_level'
p120
Vlow
p121
sS'geo'
p122
Nsg24
I621409062253645825
sS'favorite_count'
p123
I0
sS'source'
p124
VTwitter Web Client
p125
sg103
Ven
p126
sS'author'
p127
g18
sS'in_reply_to_user_id_str'
p128
Nsg28
(dp129
Vcontributors
p130
NsVtruncated
p131
I00
sVtext
p132
g10
sVin_reply_to_status_id
p133
Nsg33
I621409062253645825
sVfavorite_count
p134
I0
sVsource
p135
V<a href="http://twitter.com" rel="nofollow">Twitter Web Client</a>
p136
sVretweeted
p137
I00
sVcoordinates
p138
NsVtimestamp_ms
p139
V1436990440320
p140
sVentities
p141
(dp142
Vsymbols
p143
(lp144
sVmedia
p145
(lp146
(dp147
Vexpanded_url
p148
Vhttp://twitter.com/homebrandcola/status/621409062253645825/photo/1
p149
sVdisplay_url
p150
Vpic.twitter.com/4dVYd5XFKf
p151
sg75
Vhttp://t.co/4dVYd5XFKf
p152
sVmedia_url_https
p153
Vhttps://pbs.twimg.com/media/CJ-wP46WIAAE1SN.jpg
p154
sg42
V621409060622049280
p155
sVsizes
p156
(dp157
Vlarge
p158
(dp159
Vh
p160
I1365
sVresize
p161
Vfit
p162
sVw
p163
I1024
ssVsmall
p164
(dp165
g160
I453
sg161
Vfit
p166
sg163
I340
ssVmedium
p167
(dp168
g160
I800
sg161
Vfit
p169
sg163
I600
ssVthumb
p170
(dp171
g160
I150
sg161
Vcrop
p172
sg163
I150
sssVindices
p173
(lp174
I24
aI46
asVtype
p175
Vphoto
p176
sg33
I621409060622049280
sVmedia_url
p177
Vhttp://pbs.twimg.com/media/CJ-wP46WIAAE1SN.jpg
p178
sasVhashtags
p179
(lp180
(dp181
g173
(lp182
I11
aI23
asg132
VSwitzerland
p183
sasVuser_mentions
p184
(lp185
sVtrends
p186
(lp187
sVurls
p188
(lp189
ssVin_reply_to_screen_name
p190
Nsg42
V621409062253645825
p191
sVretweet_count
p192
I0
sVin_reply_to_user_id
p193
NsVfavorited
p194
I00
sVuser
p195
g29
sVgeo
p196
NsVin_reply_to_user_id_str
p197
NsVpossibly_sensitive
p198
I00
sg68
g126
sg76
VWed Jul 15 20:00:40 +0000 2015
p199
sVfilter_level
p200
g121
sVin_reply_to_status_id_str
p201
NsVplace
p202
(dp203
Vfull_name
p204
VBerne, Switzerland
p205
sg75
Vhttps://api.twitter.com/1.1/geo/id/5868d0e0749c9c47.json
p206
sVcountry
p207
VSchweiz
p208
sVplace_type
p209
Vadmin
p210
sVbounding_box
p211
(dp212
g175
VPolygon
p213
sg138
(lp214
(lp215
(lp216
F6.861601
aF46.326441
aa(lp217
F6.861601
aF47.34528
aa(lp218
F8.455051
aF47.34528
aa(lp219
F8.455051
aF46.326441
aaassVcountry_code
p220
VCH
p221
sVattributes
p222
(dp223
sg33
V5868d0e0749c9c47
p224
sg66
VBern
p225
ssVextended_entities
p226
(dp227
g145
(lp228
(dp229
g148
Vhttp://twitter.com/homebrandcola/status/621409062253645825/photo/1
p230
sg150
Vpic.twitter.com/4dVYd5XFKf
p231
sg75
Vhttp://t.co/4dVYd5XFKf
p232
sg153
Vhttps://pbs.twimg.com/media/CJ-wP46WIAAE1SN.jpg
p233
sg42
V621409060622049280
p234
sg156
(dp235
g158
(dp236
g160
I1365
sg161
Vfit
p237
sg163
I1024
ssg164
(dp238
g160
I453
sg161
Vfit
p239
sg163
I340
ssg167
(dp240
g160
I800
sg161
Vfit
p241
sg163
I600
ssg170
(dp242
g160
I150
sg161
Vcrop
p243
sg163
I150
sssg173
(lp244
I24
aI46
asg175
Vphoto
p245
sg33
I621409060622049280
sg177
Vhttp://pbs.twimg.com/media/CJ-wP46WIAAE1SN.jpg
p246
sasssS'coordinates'
p247
NsS'timestamp_ms'
p248
g140
sS'entities'
p249
g142
sS'in_reply_to_status_id_str'
p250
NsS'in_reply_to_screen_name'
p251
Nsg90
g191
sS'extended_entities'
p252
g227
sS'retweeted'
p253
I00
sS'place'
p254
g0
(ctweepy.models
Place
p255
g2
Ntp256
Rp257
(dp258
S'full_name'
p259
g205
sg108
g206
sS'country'
p260
g208
sS'place_type'
p261
g210
sS'bounding_box'
p262
g0
(ctweepy.models
BoundingBox
p263
g2
Ntp264
Rp265
(dp266
S'type'
p267
g213
sg247
g214
sbsS'country_code'
p268
g221
sS'attributes'
p269
g223
sg24
g224
sg102
g225
sbsS'retweet_count'
p270
I0
sg109
g110
(S'\x07\xdf\x07\x0f\x14\x00(\x00\x00\x00'
p271
tp272
Rp273
sS'in_reply_to_user_id'
p274
Nsb.