ccopy_reg
_reconstructor
p0
(ctweepy.models
Status
p1
c__builtin__
object
p2
Ntp3
Rp4
(dp5
S'favorited'
p6
I00
sS'contributors'
p7
NsS'truncated'
p8
I00
sS'text'
p9
VOrendain Aniversario Reposado\u000aSmooth taste of strong cooked agave mingled with wood, almond and vanilla aromas.\u000ahttp://t.co/XAPVxi5rOf
p10
sS'source_url'
p11
Vhttp://twitter.com
p12
sS'possibly_sensitive'
p13
I00
sS'in_reply_to_status_id'
p14
NsS'user'
p15
g0
(ctweepy.models
User
p16
g2
Ntp17
Rp18
(dp19
S'follow_request_sent'
p20
NsS'profile_use_background_image'
p21
I00
sS'profile_sidebar_fill_color'
p22
V000000
p23
sS'id'
p24
I2989778992
sS'verified'
p25
I00
sS'profile_image_url_https'
p26
Vhttps://pbs.twimg.com/profile_images/581368409331507200/l9iVGGQX_normal.png
p27
sS'_json'
p28
(dp29
Vfollow_request_sent
p30
NsVprofile_use_background_image
p31
I00
sVdefault_profile_image
p32
I00
sVid
p33
I2989778992
sVverified
p34
I00
sVprofile_image_url_https
p35
g27
sVprofile_sidebar_fill_color
p36
g23
sVprofile_text_color
p37
V000000
p38
sVfollowers_count
p39
I18
sVprofile_sidebar_border_color
p40
V000000
p41
sVid_str
p42
V2989778992
p43
sVprofile_background_color
p44
VABB8C2
p45
sVlisted_count
p46
I2
sVprofile_background_image_url_https
p47
Vhttps://pbs.twimg.com/profile_background_images/612943650151079936/r2nfMRZ-.png
p48
sVutc_offset
p49
NsVstatuses_count
p50
I93
sVdescription
p51
VEl Mariachi is a 100% Mexican company, whose aim is to spread Mexican culture throughout Europe with a range of classic Mexican drinks.
p52
sVfriends_count
p53
I46
sVlocation
p54
VZurich, Suiza
p55
sVprofile_link_color
p56
VDD2E11
p57
sVprofile_image_url
p58
Vhttp://pbs.twimg.com/profile_images/581368409331507200/l9iVGGQX_normal.png
p59
sVfollowing
p60
NsVgeo_enabled
p61
I01
sVprofile_banner_url
p62
Vhttps://pbs.twimg.com/profile_banners/2989778992/1427444098
p63
sVprofile_background_image_url
p64
Vhttp://pbs.twimg.com/profile_background_images/612943650151079936/r2nfMRZ-.png
p65
sVname
p66
VEl Mariachi
p67
sVlang
p68
Ves
p69
sVprofile_background_tile
p70
I00
sVfavourites_count
p71
I65
sVscreen_name
p72
VElMariachich
p73
sVnotifications
p74
NsVurl
p75
Vhttp://www.elmariachi.ch
p76
sVcreated_at
p77
VWed Jan 21 12:34:23 +0000 2015
p78
sVcontributors_enabled
p79
I00
sVtime_zone
p80
NsVprotected
p81
I00
sVdefault_profile
p82
I00
sVis_translator
p83
I00
ssS'contributors_enabled'
p84
I00
sS'profile_text_color'
p85
g38
sS'followers_count'
p86
I18
sS'profile_sidebar_border_color'
p87
g41
sS'location'
p88
g55
sS'default_profile_image'
p89
I00
sS'id_str'
p90
g43
sS'utc_offset'
p91
NsS'statuses_count'
p92
I93
sS'description'
p93
g52
sS'friends_count'
p94
I46
sS'profile_link_color'
p95
g57
sS'profile_image_url'
p96
g59
sS'notifications'
p97
NsS'geo_enabled'
p98
I01
sS'profile_background_color'
p99
g45
sS'profile_banner_url'
p100
g63
sS'profile_background_image_url'
p101
g65
sS'name'
p102
g67
sS'lang'
p103
g69
sS'following'
p104
I00
sS'profile_background_tile'
p105
I00
sS'favourites_count'
p106
I65
sS'screen_name'
p107
g73
sS'url'
p108
g76
sS'created_at'
p109
cdatetime
datetime
p110
(S'\x07\xdf\x01\x15\x0c"\x17\x00\x00\x00'
p111
tp112
Rp113
sS'profile_background_image_url_https'
p114
g48
sS'time_zone'
p115
NsS'protected'
p116
I00
sS'default_profile'
p117
I00
sS'is_translator'
p118
I00
sS'listed_count'
p119
I2
sbsS'filter_level'
p120
Vlow
p121
sS'geo'
p122
Nsg24
I621207368974602241
sS'favorite_count'
p123
I0
sS'source'
p124
VTwitter Web Client
p125
sg103
Ven
p126
sS'author'
p127
g18
sS'in_reply_to_user_id_str'
p128
Nsg28
(dp129
Vcontributors
p130
NsVtruncated
p131
I00
sVtext
p132
VOrendain Aniversario Reposado\u000aSmooth taste of strong cooked agave mingled with wood, almond and vanilla aromas.\u000ahttp://t.co/XAPVxi5rOf
p133
sVin_reply_to_status_id
p134
Nsg33
I621207368974602241
sVfavorite_count
p135
I0
sVsource
p136
V<a href="http://twitter.com" rel="nofollow">Twitter Web Client</a>
p137
sVretweeted
p138
I00
sVcoordinates
p139
NsVtimestamp_ms
p140
V1436942352895
p141
sVentities
p142
(dp143
Vuser_mentions
p144
(lp145
sVsymbols
p146
(lp147
sVtrends
p148
(lp149
sVhashtags
p150
(lp151
sVurls
p152
(lp153
(dp154
g75
Vhttp://t.co/XAPVxi5rOf
p155
sVindices
p156
(lp157
I112
aI134
asVexpanded_url
p158
Vhttp://shop.elmariachi.ch/collections/frontpage/products/orendain-aniversario-reposado-100-agave
p159
sVdisplay_url
p160
Vshop.elmariachi.ch/collections/fr\u2026
p161
sassVin_reply_to_screen_name
p162
Nsg42
V621207368974602241
p163
sVretweet_count
p164
I0
sVin_reply_to_user_id
p165
NsVfavorited
p166
I00
sVuser
p167
g29
sVgeo
p168
NsVin_reply_to_user_id_str
p169
NsVpossibly_sensitive
p170
I00
sg68
g126
sg77
VWed Jul 15 06:39:12 +0000 2015
p171
sVfilter_level
p172
g121
sVin_reply_to_status_id_str
p173
NsVplace
p174
(dp175
Vfull_name
p176
VZurich, Suiza
p177
sg75
Vhttps://api.twitter.com/1.1/geo/id/3acb748d0f1e9265.json
p178
sVcountry
p179
VSchweiz
p180
sVplace_type
p181
Vcity
p182
sVbounding_box
p183
(dp184
Vtype
p185
VPolygon
p186
sg139
(lp187
(lp188
(lp189
F8.448081
aF47.320183
aa(lp190
F8.448081
aF47.434721
aa(lp191
F8.625442
aF47.434721
aa(lp192
F8.625442
aF47.320183
aaassVcountry_code
p193
VCH
p194
sVattributes
p195
(dp196
sg33
V3acb748d0f1e9265
p197
sg66
VZurich
p198
sssS'coordinates'
p199
NsS'timestamp_ms'
p200
g141
sS'entities'
p201
g143
sS'in_reply_to_status_id_str'
p202
NsS'in_reply_to_screen_name'
p203
Nsg90
g163
sS'retweeted'
p204
I00
sS'place'
p205
g0
(ctweepy.models
Place
p206
g2
Ntp207
Rp208
(dp209
S'full_name'
p210
g177
sg108
g178
sS'country'
p211
g180
sS'place_type'
p212
g182
sS'bounding_box'
p213
g0
(ctweepy.models
BoundingBox
p214
g2
Ntp215
Rp216
(dp217
S'type'
p218
g186
sg199
g187
sbsS'country_code'
p219
g194
sS'attributes'
p220
g196
sg24
g197
sg102
g198
sbsS'retweet_count'
p221
I0
sg109
g110
(S"\x07\xdf\x07\x0f\x06'\x0c\x00\x00\x00"
p222
tp223
Rp224
sS'in_reply_to_user_id'
p225
Nsb.