ccopy_reg
_reconstructor
p0
(ctweepy.models
Status
p1
c__builtin__
object
p2
Ntp3
Rp4
(dp5
S'favorited'
p6
I00
sS'contributors'
p7
NsS'truncated'
p8
I00
sS'text'
p9
VYou haven't lived until you climb the Swiss alps in flip flops http://t.co/HXQR0vdJ5p
p10
sS'source_url'
p11
Vhttp://twitter.com/download/iphone
p12
sS'possibly_sensitive'
p13
I00
sS'in_reply_to_status_id'
p14
NsS'user'
p15
g0
(ctweepy.models
User
p16
g2
Ntp17
Rp18
(dp19
S'follow_request_sent'
p20
NsS'profile_use_background_image'
p21
I01
sS'profile_sidebar_fill_color'
p22
VDDEEF6
p23
sS'id'
p24
I1491195133
sS'verified'
p25
I00
sS'profile_image_url_https'
p26
Vhttps://pbs.twimg.com/profile_images/619057738694426624/SHIgtLxD_normal.jpg
p27
sS'_json'
p28
(dp29
Vfollow_request_sent
p30
NsVprofile_use_background_image
p31
I01
sVdefault_profile_image
p32
I00
sVid
p33
I1491195133
sVverified
p34
I00
sVprofile_image_url_https
p35
g27
sVprofile_sidebar_fill_color
p36
g23
sVprofile_text_color
p37
V333333
p38
sVfollowers_count
p39
I97
sVprofile_sidebar_border_color
p40
VC0DEED
p41
sVid_str
p42
V1491195133
p43
sVprofile_background_color
p44
VC0DEED
p45
sVlisted_count
p46
I0
sVprofile_background_image_url_https
p47
Vhttps://abs.twimg.com/images/themes/theme1/bg.png
p48
sVutc_offset
p49
NsVstatuses_count
p50
I699
sVdescription
p51
Vain't no party like a Scranton party
p52
sVfriends_count
p53
I142
sVlocation
p54
V
p55
sVprofile_link_color
p56
V0084B4
p57
sVprofile_image_url
p58
Vhttp://pbs.twimg.com/profile_images/619057738694426624/SHIgtLxD_normal.jpg
p59
sVfollowing
p60
NsVgeo_enabled
p61
I01
sVprofile_banner_url
p62
Vhttps://pbs.twimg.com/profile_banners/1491195133/1413946066
p63
sVprofile_background_image_url
p64
Vhttp://abs.twimg.com/images/themes/theme1/bg.png
p65
sVname
p66
VMaggie
p67
sVlang
p68
Ven
p69
sVprofile_background_tile
p70
I00
sVfavourites_count
p71
I992
sVscreen_name
p72
Vmagz_magz
p73
sVnotifications
p74
NsVurl
p75
NsVcreated_at
p76
VFri Jun 07 19:53:00 +0000 2013
p77
sVcontributors_enabled
p78
I00
sVtime_zone
p79
NsVprotected
p80
I00
sVdefault_profile
p81
I01
sVis_translator
p82
I00
ssS'contributors_enabled'
p83
I00
sS'profile_text_color'
p84
g38
sS'followers_count'
p85
I97
sS'profile_sidebar_border_color'
p86
g41
sS'location'
p87
g55
sS'default_profile_image'
p88
I00
sS'id_str'
p89
g43
sS'utc_offset'
p90
NsS'statuses_count'
p91
I699
sS'description'
p92
g52
sS'friends_count'
p93
I142
sS'profile_link_color'
p94
g57
sS'profile_image_url'
p95
g59
sS'notifications'
p96
NsS'geo_enabled'
p97
I01
sS'profile_background_color'
p98
g45
sS'profile_banner_url'
p99
g63
sS'profile_background_image_url'
p100
g65
sS'name'
p101
g67
sS'lang'
p102
g69
sS'following'
p103
I00
sS'profile_background_tile'
p104
I00
sS'favourites_count'
p105
I992
sS'screen_name'
p106
g73
sS'url'
p107
NsS'created_at'
p108
cdatetime
datetime
p109
(S'\x07\xdd\x06\x07\x135\x00\x00\x00\x00'
p110
tp111
Rp112
sS'profile_background_image_url_https'
p113
g48
sS'time_zone'
p114
NsS'protected'
p115
I00
sS'default_profile'
p116
I01
sS'is_translator'
p117
I00
sS'listed_count'
p118
I0
sbsS'filter_level'
p119
Vlow
p120
sS'geo'
p121
Nsg24
I620571006361575424
sS'favorite_count'
p122
I0
sS'source'
p123
VTwitter for iPhone
p124
sg102
Ven
p125
sS'author'
p126
g18
sS'in_reply_to_user_id_str'
p127
Nsg28
(dp128
Vcontributors
p129
NsVtruncated
p130
I00
sVtext
p131
g10
sVin_reply_to_status_id
p132
Nsg33
I620571006361575424
sVfavorite_count
p133
I0
sVsource
p134
V<a href="http://twitter.com/download/iphone" rel="nofollow">Twitter for iPhone</a>
p135
sVretweeted
p136
I00
sVcoordinates
p137
NsVtimestamp_ms
p138
V1436790632225
p139
sVentities
p140
(dp141
Vsymbols
p142
(lp143
sVmedia
p144
(lp145
(dp146
Vexpanded_url
p147
Vhttp://twitter.com/magz_magz/status/620571006361575424/photo/1
p148
sVdisplay_url
p149
Vpic.twitter.com/HXQR0vdJ5p
p150
sg75
Vhttp://t.co/HXQR0vdJ5p
p151
sVmedia_url_https
p152
Vhttps://pbs.twimg.com/media/CJy2B1vUcAA0w_c.jpg
p153
sg42
V620570991391961088
p154
sVsizes
p155
(dp156
Vsmall
p157
(dp158
Vh
p159
I453
sVresize
p160
Vfit
p161
sVw
p162
I340
ssVlarge
p163
(dp164
g159
I1024
sg160
Vfit
p165
sg162
I768
ssVmedium
p166
(dp167
g159
I800
sg160
Vfit
p168
sg162
I600
ssVthumb
p169
(dp170
g159
I150
sg160
Vcrop
p171
sg162
I150
sssVindices
p172
(lp173
I63
aI85
asVtype
p174
Vphoto
p175
sg33
I620570991391961088
sVmedia_url
p176
Vhttp://pbs.twimg.com/media/CJy2B1vUcAA0w_c.jpg
p177
sasVhashtags
p178
(lp179
sVuser_mentions
p180
(lp181
sVtrends
p182
(lp183
sVurls
p184
(lp185
ssVin_reply_to_screen_name
p186
Nsg42
V620571006361575424
p187
sVretweet_count
p188
I0
sVin_reply_to_user_id
p189
NsVfavorited
p190
I00
sVuser
p191
g29
sVgeo
p192
NsVin_reply_to_user_id_str
p193
NsVpossibly_sensitive
p194
I00
sg68
g125
sg76
VMon Jul 13 12:30:32 +0000 2015
p195
sVfilter_level
p196
g120
sVin_reply_to_status_id_str
p197
NsVplace
p198
(dp199
Vfull_name
p200
VBerne, Switzerland
p201
sg75
Vhttps://api.twitter.com/1.1/geo/id/5868d0e0749c9c47.json
p202
sVcountry
p203
VSchweiz
p204
sVplace_type
p205
Vadmin
p206
sVbounding_box
p207
(dp208
g174
VPolygon
p209
sg137
(lp210
(lp211
(lp212
F6.861601
aF46.326441
aa(lp213
F6.861601
aF47.34528
aa(lp214
F8.455051
aF47.34528
aa(lp215
F8.455051
aF46.326441
aaassVcountry_code
p216
VCH
p217
sVattributes
p218
(dp219
sg33
V5868d0e0749c9c47
p220
sg66
VBern
p221
ssVextended_entities
p222
(dp223
g144
(lp224
(dp225
g147
Vhttp://twitter.com/magz_magz/status/620571006361575424/photo/1
p226
sg149
Vpic.twitter.com/HXQR0vdJ5p
p227
sg75
Vhttp://t.co/HXQR0vdJ5p
p228
sg152
Vhttps://pbs.twimg.com/media/CJy2B1vUcAA0w_c.jpg
p229
sg42
V620570991391961088
p230
sg155
(dp231
g157
(dp232
g159
I453
sg160
Vfit
p233
sg162
I340
ssg163
(dp234
g159
I1024
sg160
Vfit
p235
sg162
I768
ssg166
(dp236
g159
I800
sg160
Vfit
p237
sg162
I600
ssg169
(dp238
g159
I150
sg160
Vcrop
p239
sg162
I150
sssg172
(lp240
I63
aI85
asg174
Vphoto
p241
sg33
I620570991391961088
sg176
Vhttp://pbs.twimg.com/media/CJy2B1vUcAA0w_c.jpg
p242
sasssS'coordinates'
p243
NsS'timestamp_ms'
p244
g139
sS'entities'
p245
g141
sS'in_reply_to_status_id_str'
p246
NsS'in_reply_to_screen_name'
p247
Nsg89
g187
sS'extended_entities'
p248
g223
sS'retweeted'
p249
I00
sS'place'
p250
g0
(ctweepy.models
Place
p251
g2
Ntp252
Rp253
(dp254
S'full_name'
p255
g201
sg107
g202
sS'country'
p256
g204
sS'place_type'
p257
g206
sS'bounding_box'
p258
g0
(ctweepy.models
BoundingBox
p259
g2
Ntp260
Rp261
(dp262
S'type'
p263
g209
sg243
g210
sbsS'country_code'
p264
g217
sS'attributes'
p265
g219
sg24
g220
sg101
g221
sbsS'retweet_count'
p266
I0
sg108
g109
(S'\x07\xdf\x07\r\x0c\x1e \x00\x00\x00'
p267
tp268
Rp269
sS'in_reply_to_user_id'
p270
Nsb.