ccopy_reg
_reconstructor
p0
(ctweepy.models
Status
p1
c__builtin__
object
p2
Ntp3
Rp4
(dp5
S'favorited'
p6
I00
sS'contributors'
p7
NsS'truncated'
p8
I00
sS'text'
p9
VMeanwhile in Switzerland... http://t.co/gNKw0AbAmQ
p10
sS'source_url'
p11
Vhttp://twitter.com/download/iphone
p12
sS'possibly_sensitive'
p13
I00
sS'in_reply_to_status_id'
p14
NsS'user'
p15
g0
(ctweepy.models
User
p16
g2
Ntp17
Rp18
(dp19
S'follow_request_sent'
p20
NsS'profile_use_background_image'
p21
I01
sS'profile_sidebar_fill_color'
p22
V95E8EC
p23
sS'id'
p24
I69634559
sS'verified'
p25
I00
sS'profile_image_url_https'
p26
Vhttps://pbs.twimg.com/profile_images/1178705651/me_normal.jpg
p27
sS'_json'
p28
(dp29
Vfollow_request_sent
p30
NsVprofile_use_background_image
p31
I01
sVdefault_profile_image
p32
I00
sVid
p33
I69634559
sVverified
p34
I00
sVprofile_image_url_https
p35
g27
sVprofile_sidebar_fill_color
p36
g23
sVprofile_text_color
p37
V3C3940
p38
sVfollowers_count
p39
I193
sVprofile_sidebar_border_color
p40
V5ED4DC
p41
sVid_str
p42
V69634559
p43
sVprofile_background_color
p44
V0099B9
p45
sVlisted_count
p46
I8
sVprofile_background_image_url_https
p47
Vhttps://abs.twimg.com/images/themes/theme4/bg.gif
p48
sVutc_offset
p49
I3600
sVstatuses_count
p50
I7231
sVdescription
p51
VPutain de rosbif,
p52
sVfriends_count
p53
I767
sVlocation
p54
VNantes
p55
sVprofile_link_color
p56
V0099B9
p57
sVprofile_image_url
p58
Vhttp://pbs.twimg.com/profile_images/1178705651/me_normal.jpg
p59
sVfollowing
p60
NsVgeo_enabled
p61
I01
sVprofile_background_image_url
p62
Vhttp://abs.twimg.com/images/themes/theme4/bg.gif
p63
sVname
p64
VSimon Scutt
p65
sVlang
p66
Ven
p67
sVprofile_background_tile
p68
I00
sVfavourites_count
p69
I146
sVscreen_name
p70
Vsimonscutt
p71
sVnotifications
p72
NsVurl
p73
NsVcreated_at
p74
VFri Aug 28 16:50:13 +0000 2009
p75
sVcontributors_enabled
p76
I00
sVtime_zone
p77
VLondon
p78
sVprotected
p79
I00
sVdefault_profile
p80
I00
sVis_translator
p81
I00
ssS'contributors_enabled'
p82
I00
sS'profile_text_color'
p83
g38
sS'followers_count'
p84
I193
sS'profile_sidebar_border_color'
p85
g41
sS'location'
p86
g55
sS'default_profile_image'
p87
I00
sS'id_str'
p88
g43
sS'utc_offset'
p89
I3600
sS'statuses_count'
p90
I7231
sS'description'
p91
g52
sS'friends_count'
p92
I767
sS'profile_link_color'
p93
g57
sS'profile_image_url'
p94
g59
sS'notifications'
p95
NsS'geo_enabled'
p96
I01
sS'profile_background_color'
p97
g45
sS'profile_background_image_url'
p98
g63
sS'name'
p99
g65
sS'lang'
p100
g67
sS'following'
p101
I00
sS'profile_background_tile'
p102
I00
sS'favourites_count'
p103
I146
sS'screen_name'
p104
g71
sS'url'
p105
NsS'created_at'
p106
cdatetime
datetime
p107
(S'\x07\xd9\x08\x1c\x102\r\x00\x00\x00'
p108
tp109
Rp110
sS'profile_background_image_url_https'
p111
g48
sS'time_zone'
p112
g78
sS'protected'
p113
I00
sS'default_profile'
p114
I00
sS'is_translator'
p115
I00
sS'listed_count'
p116
I8
sbsS'filter_level'
p117
Vlow
p118
sS'geo'
p119
(dp120
Vtype
p121
VPoint
p122
sVcoordinates
p123
(lp124
F47.380544
aF8.537195
assg24
I618765365519237120
sS'favorite_count'
p125
I0
sS'source'
p126
VTwitter for iPhone
p127
sg100
Ven
p128
sS'author'
p129
g18
sS'in_reply_to_user_id_str'
p130
Nsg28
(dp131
Vcontributors
p132
NsVtruncated
p133
I00
sVtext
p134
g10
sVin_reply_to_status_id
p135
Nsg33
I618765365519237120
sVfavorite_count
p136
I0
sVsource
p137
V<a href="http://twitter.com/download/iphone" rel="nofollow">Twitter for iPhone</a>
p138
sVretweeted
p139
I00
sg123
(dp140
g121
VPoint
p141
sg123
(lp142
F8.537195
aF47.380544
assVtimestamp_ms
p143
V1436360133901
p144
sVentities
p145
(dp146
Vsymbols
p147
(lp148
sVmedia
p149
(lp150
(dp151
Vexpanded_url
p152
Vhttp://twitter.com/simonscutt/status/618765365519237120/photo/1
p153
sVdisplay_url
p154
Vpic.twitter.com/gNKw0AbAmQ
p155
sg73
Vhttp://t.co/gNKw0AbAmQ
p156
sVmedia_url_https
p157
Vhttps://pbs.twimg.com/media/CJZLzwaWgAAPZop.jpg
p158
sg42
V618765351350861824
p159
sVsizes
p160
(dp161
Vlarge
p162
(dp163
Vh
p164
I764
sVresize
p165
Vfit
p166
sVw
p167
I1024
ssVsmall
p168
(dp169
g164
I253
sg165
Vfit
p170
sg167
I340
ssVmedium
p171
(dp172
g164
I447
sg165
Vfit
p173
sg167
I600
ssVthumb
p174
(dp175
g164
I150
sg165
Vcrop
p176
sg167
I150
sssVindices
p177
(lp178
I28
aI50
asg121
Vphoto
p179
sg33
I618765351350861824
sVmedia_url
p180
Vhttp://pbs.twimg.com/media/CJZLzwaWgAAPZop.jpg
p181
sasVhashtags
p182
(lp183
sVuser_mentions
p184
(lp185
sVtrends
p186
(lp187
sVurls
p188
(lp189
ssVin_reply_to_screen_name
p190
Nsg42
V618765365519237120
p191
sVretweet_count
p192
I0
sVin_reply_to_user_id
p193
NsVfavorited
p194
I00
sVuser
p195
g29
sVgeo
p196
g120
sVin_reply_to_user_id_str
p197
NsVpossibly_sensitive
p198
I00
sg66
g128
sg74
VWed Jul 08 12:55:33 +0000 2015
p199
sVfilter_level
p200
g118
sVin_reply_to_status_id_str
p201
NsVplace
p202
(dp203
Vfull_name
p204
VZurich, Switzerland
p205
sg73
Vhttps://api.twitter.com/1.1/geo/id/3acb748d0f1e9265.json
p206
sVcountry
p207
VSchweiz
p208
sVplace_type
p209
Vcity
p210
sVbounding_box
p211
(dp212
g121
VPolygon
p213
sg123
(lp214
(lp215
(lp216
F8.448081
aF47.320183
aa(lp217
F8.448081
aF47.434721
aa(lp218
F8.625442
aF47.434721
aa(lp219
F8.625442
aF47.320183
aaassVcountry_code
p220
VCH
p221
sVattributes
p222
(dp223
sg33
V3acb748d0f1e9265
p224
sg64
VZurich
p225
ssVextended_entities
p226
(dp227
g149
(lp228
(dp229
g152
Vhttp://twitter.com/simonscutt/status/618765365519237120/photo/1
p230
sg154
Vpic.twitter.com/gNKw0AbAmQ
p231
sg73
Vhttp://t.co/gNKw0AbAmQ
p232
sg157
Vhttps://pbs.twimg.com/media/CJZLzwaWgAAPZop.jpg
p233
sg42
V618765351350861824
p234
sg160
(dp235
g162
(dp236
g164
I764
sg165
Vfit
p237
sg167
I1024
ssg168
(dp238
g164
I253
sg165
Vfit
p239
sg167
I340
ssg171
(dp240
g164
I447
sg165
Vfit
p241
sg167
I600
ssg174
(dp242
g164
I150
sg165
Vcrop
p243
sg167
I150
sssg177
(lp244
I28
aI50
asg121
Vphoto
p245
sg33
I618765351350861824
sg180
Vhttp://pbs.twimg.com/media/CJZLzwaWgAAPZop.jpg
p246
sasssS'coordinates'
p247
g140
sS'timestamp_ms'
p248
g144
sS'entities'
p249
g146
sS'in_reply_to_status_id_str'
p250
NsS'in_reply_to_screen_name'
p251
Nsg88
g191
sS'extended_entities'
p252
g227
sS'retweeted'
p253
I00
sS'place'
p254
g0
(ctweepy.models
Place
p255
g2
Ntp256
Rp257
(dp258
S'full_name'
p259
g205
sg105
g206
sS'country'
p260
g208
sS'place_type'
p261
g210
sS'bounding_box'
p262
g0
(ctweepy.models
BoundingBox
p263
g2
Ntp264
Rp265
(dp266
S'type'
p267
g213
sg247
g214
sbsS'country_code'
p268
g221
sS'attributes'
p269
g223
sg24
g224
sg99
g225
sbsS'retweet_count'
p270
I0
sg106
g107
(S'\x07\xdf\x07\x08\x0c7!\x00\x00\x00'
p271
tp272
Rp273
sS'in_reply_to_user_id'
p274
Nsb.