ccopy_reg
_reconstructor
p0
(ctweepy.models
Status
p1
c__builtin__
object
p2
Ntp3
Rp4
(dp5
S'favorited'
p6
I00
sS'contributors'
p7
NsS'truncated'
p8
I00
sS'text'
p9
V@selinalinder hoi wie geht's so was machs so http://t.co/YMymrhKmqK
p10
sS'source_url'
p11
Vhttp://twitter.com
p12
sS'possibly_sensitive'
p13
I00
sS'in_reply_to_status_id'
p14
NsS'user'
p15
g0
(ctweepy.models
User
p16
g2
Ntp17
Rp18
(dp19
S'follow_request_sent'
p20
NsS'profile_use_background_image'
p21
I01
sS'profile_sidebar_fill_color'
p22
VDDEEF6
p23
sS'id'
p24
I3360961990
sS'verified'
p25
I00
sS'profile_image_url_https'
p26
Vhttps://pbs.twimg.com/profile_images/617740160923529216/d6kN3gMH_normal.jpg
p27
sS'_json'
p28
(dp29
Vfollow_request_sent
p30
NsVprofile_use_background_image
p31
I01
sVdefault_profile_image
p32
I00
sVid
p33
I3360961990
sVverified
p34
I00
sVprofile_image_url_https
p35
g27
sVprofile_sidebar_fill_color
p36
g23
sVprofile_text_color
p37
V333333
p38
sVfollowers_count
p39
I18
sVprofile_sidebar_border_color
p40
VC0DEED
p41
sVid_str
p42
V3360961990
p43
sVprofile_background_color
p44
VC0DEED
p45
sVlisted_count
p46
I0
sVprofile_background_image_url_https
p47
Vhttps://abs.twimg.com/images/themes/theme1/bg.png
p48
sVutc_offset
p49
NsVstatuses_count
p50
I29
sVdescription
p51
NsVfriends_count
p52
I144
sVlocation
p53
V
p54
sVprofile_link_color
p55
V0084B4
p56
sVprofile_image_url
p57
Vhttp://pbs.twimg.com/profile_images/617740160923529216/d6kN3gMH_normal.jpg
p58
sVfollowing
p59
NsVgeo_enabled
p60
I01
sVprofile_background_image_url
p61
Vhttp://abs.twimg.com/images/themes/theme1/bg.png
p62
sVname
p63
Vgashi liridon 
p64
sVlang
p65
Vde
p66
sVprofile_background_tile
p67
I00
sVfavourites_count
p68
I0
sVscreen_name
p69
VUsa50Losangeles
p70
sVnotifications
p71
NsVurl
p72
NsVcreated_at
p73
VSun Jul 05 16:56:21 +0000 2015
p74
sVcontributors_enabled
p75
I00
sVtime_zone
p76
NsVprotected
p77
I00
sVdefault_profile
p78
I01
sVis_translator
p79
I00
ssS'contributors_enabled'
p80
I00
sS'profile_text_color'
p81
g38
sS'followers_count'
p82
I18
sS'profile_sidebar_border_color'
p83
g41
sS'location'
p84
g54
sS'default_profile_image'
p85
I00
sS'id_str'
p86
g43
sS'utc_offset'
p87
NsS'statuses_count'
p88
I29
sS'description'
p89
NsS'friends_count'
p90
I144
sS'profile_link_color'
p91
g56
sS'profile_image_url'
p92
g58
sS'notifications'
p93
NsS'geo_enabled'
p94
I01
sS'profile_background_color'
p95
g45
sS'profile_background_image_url'
p96
g62
sS'name'
p97
g64
sS'lang'
p98
g66
sS'following'
p99
I00
sS'profile_background_tile'
p100
I00
sS'favourites_count'
p101
I0
sS'screen_name'
p102
g70
sS'url'
p103
NsS'created_at'
p104
cdatetime
datetime
p105
(S'\x07\xdf\x07\x05\x108\x15\x00\x00\x00'
p106
tp107
Rp108
sS'profile_background_image_url_https'
p109
g48
sS'time_zone'
p110
NsS'protected'
p111
I00
sS'default_profile'
p112
I01
sS'is_translator'
p113
I00
sS'listed_count'
p114
I0
sbsS'filter_level'
p115
Vlow
p116
sS'geo'
p117
Nsg24
I621254115675480064
sS'favorite_count'
p118
I0
sS'source'
p119
VTwitter Web Client
p120
sg98
Vde
p121
sS'author'
p122
g18
sS'in_reply_to_user_id_str'
p123
V52969460
p124
sg28
(dp125
Vcontributors
p126
NsVtruncated
p127
I00
sVtext
p128
g10
sVin_reply_to_status_id
p129
Nsg33
I621254115675480064
sVfavorite_count
p130
I0
sVsource
p131
V<a href="http://twitter.com" rel="nofollow">Twitter Web Client</a>
p132
sVretweeted
p133
I00
sVcoordinates
p134
NsVtimestamp_ms
p135
V1436953498177
p136
sVentities
p137
(dp138
Vsymbols
p139
(lp140
sVmedia
p141
(lp142
(dp143
Vexpanded_url
p144
Vhttp://twitter.com/Usa50Losangeles/status/621254115675480064/photo/1
p145
sVdisplay_url
p146
Vpic.twitter.com/YMymrhKmqK
p147
sg72
Vhttp://t.co/YMymrhKmqK
p148
sVmedia_url_https
p149
Vhttps://pbs.twimg.com/media/CJ8jU13UcAAGcvK.png
p150
sg42
V621254114563878912
p151
sVsizes
p152
(dp153
Vlarge
p154
(dp155
Vh
p156
I250
sVresize
p157
Vfit
p158
sVw
p159
I250
ssVsmall
p160
(dp161
g156
I250
sg157
Vfit
p162
sg159
I250
ssVmedium
p163
(dp164
g156
I250
sg157
Vfit
p165
sg159
I250
ssVthumb
p166
(dp167
g156
I150
sg157
Vcrop
p168
sg159
I150
sssVindices
p169
(lp170
I45
aI67
asVtype
p171
Vphoto
p172
sg33
I621254114563878912
sVmedia_url
p173
Vhttp://pbs.twimg.com/media/CJ8jU13UcAAGcvK.png
p174
sasVhashtags
p175
(lp176
sVuser_mentions
p177
(lp178
(dp179
g33
I52969460
sg169
(lp180
I0
aI13
asg42
V52969460
p181
sg69
Vselinalinder
p182
sg63
Vselina linder
p183
sasVtrends
p184
(lp185
sVurls
p186
(lp187
ssVin_reply_to_screen_name
p188
Vselinalinder
p189
sg42
V621254115675480064
p190
sVretweet_count
p191
I0
sVin_reply_to_user_id
p192
I52969460
sVfavorited
p193
I00
sVuser
p194
g29
sVgeo
p195
NsVin_reply_to_user_id_str
p196
g124
sVpossibly_sensitive
p197
I00
sg65
g121
sg73
VWed Jul 15 09:44:58 +0000 2015
p198
sVfilter_level
p199
g116
sVin_reply_to_status_id_str
p200
NsVplace
p201
(dp202
Vfull_name
p203
VAargau, Schweiz
p204
sg72
Vhttps://api.twitter.com/1.1/geo/id/64c89c3f0e8b8b2e.json
p205
sVcountry
p206
VSchweiz
p207
sVplace_type
p208
Vadmin
p209
sVbounding_box
p210
(dp211
g171
VPolygon
p212
sg134
(lp213
(lp214
(lp215
F7.713449
aF47.137443
aa(lp216
F7.713449
aF47.621039
aa(lp217
F8.455222
aF47.621039
aa(lp218
F8.455222
aF47.137443
aaassVcountry_code
p219
VCH
p220
sVattributes
p221
(dp222
sg33
V64c89c3f0e8b8b2e
p223
sg63
VAargau
p224
ssVextended_entities
p225
(dp226
g141
(lp227
(dp228
g144
Vhttp://twitter.com/Usa50Losangeles/status/621254115675480064/photo/1
p229
sg146
Vpic.twitter.com/YMymrhKmqK
p230
sg72
Vhttp://t.co/YMymrhKmqK
p231
sg149
Vhttps://pbs.twimg.com/media/CJ8jU13UcAAGcvK.png
p232
sg42
V621254114563878912
p233
sg152
(dp234
g154
(dp235
g156
I250
sg157
Vfit
p236
sg159
I250
ssg160
(dp237
g156
I250
sg157
Vfit
p238
sg159
I250
ssg163
(dp239
g156
I250
sg157
Vfit
p240
sg159
I250
ssg166
(dp241
g156
I150
sg157
Vcrop
p242
sg159
I150
sssg169
(lp243
I45
aI67
asg171
Vphoto
p244
sg33
I621254114563878912
sg173
Vhttp://pbs.twimg.com/media/CJ8jU13UcAAGcvK.png
p245
sasssS'coordinates'
p246
NsS'timestamp_ms'
p247
g136
sS'entities'
p248
g138
sS'in_reply_to_status_id_str'
p249
NsS'in_reply_to_screen_name'
p250
g189
sg86
g190
sS'extended_entities'
p251
g226
sS'retweeted'
p252
I00
sS'place'
p253
g0
(ctweepy.models
Place
p254
g2
Ntp255
Rp256
(dp257
S'full_name'
p258
g204
sg103
g205
sS'country'
p259
g207
sS'place_type'
p260
g209
sS'bounding_box'
p261
g0
(ctweepy.models
BoundingBox
p262
g2
Ntp263
Rp264
(dp265
S'type'
p266
g212
sg246
g213
sbsS'country_code'
p267
g220
sS'attributes'
p268
g222
sg24
g223
sg97
g224
sbsS'retweet_count'
p269
I0
sg104
g105
(S'\x07\xdf\x07\x0f\t,:\x00\x00\x00'
p270
tp271
Rp272
sS'in_reply_to_user_id'
p273
I52969460
sb.