ccopy_reg
_reconstructor
p0
(ctweepy.models
Status
p1
c__builtin__
object
p2
Ntp3
Rp4
(dp5
S'favorited'
p6
I00
sS'contributors'
p7
NsS'truncated'
p8
I00
sS'text'
p9
V@TraceyLeeHolmes @Wimbledon \u000aExcellent idea Tracey. How about a silver plated iron or vacuum cleaner? Let's ask @SeppBlatter
p10
sS'source_url'
p11
Vhttp://twitter.com
p12
sS'possibly_sensitive'
p13
I00
sS'in_reply_to_status_id'
p14
I620366990746755072
sS'user'
p15
g0
(ctweepy.models
User
p16
g2
Ntp17
Rp18
(dp19
S'follow_request_sent'
p20
NsS'profile_use_background_image'
p21
I01
sS'profile_sidebar_fill_color'
p22
VDDEEF6
p23
sS'id'
p24
I31414269
sS'verified'
p25
I00
sS'profile_image_url_https'
p26
Vhttps://pbs.twimg.com/profile_images/605264145987084288/m5WD_wSi_normal.jpg
p27
sS'_json'
p28
(dp29
Vfollow_request_sent
p30
NsVprofile_use_background_image
p31
I01
sVdefault_profile_image
p32
I00
sVid
p33
I31414269
sVverified
p34
I00
sVprofile_image_url_https
p35
g27
sVprofile_sidebar_fill_color
p36
g23
sVprofile_text_color
p37
V333333
p38
sVfollowers_count
p39
I2561
sVprofile_sidebar_border_color
p40
VC0DEED
p41
sVid_str
p42
V31414269
p43
sVprofile_background_color
p44
VC0DEED
p45
sVlisted_count
p46
I76
sVprofile_background_image_url_https
p47
Vhttps://abs.twimg.com/images/themes/theme1/bg.png
p48
sVutc_offset
p49
I7200
sVstatuses_count
p50
I5324
sVdescription
p51
VI believe the grass is greener on the other side of the fence. RT's mostly ARE endorsements. Never go anywhere without a book. Never. jaimie.fuller@skins.net
p52
sVfriends_count
p53
I231
sVlocation
p54
Vall over the bloody place
p55
sVprofile_link_color
p56
V0084B4
p57
sVprofile_image_url
p58
Vhttp://pbs.twimg.com/profile_images/605264145987084288/m5WD_wSi_normal.jpg
p59
sVfollowing
p60
NsVgeo_enabled
p61
I01
sVprofile_banner_url
p62
Vhttps://pbs.twimg.com/profile_banners/31414269/1433436925
p63
sVprofile_background_image_url
p64
Vhttp://abs.twimg.com/images/themes/theme1/bg.png
p65
sVname
p66
VSKINS Chairman
p67
sVlang
p68
Ven
p69
sVprofile_background_tile
p70
I00
sVfavourites_count
p71
I865
sVscreen_name
p72
Vjaimiefuller
p73
sVnotifications
p74
NsVurl
p75
Vhttp://watercooler.skins.net/blog/
p76
sVcreated_at
p77
VWed Apr 15 14:06:04 +0000 2009
p78
sVcontributors_enabled
p79
I00
sVtime_zone
p80
VParis
p81
sVprotected
p82
I00
sVdefault_profile
p83
I01
sVis_translator
p84
I00
ssS'contributors_enabled'
p85
I00
sS'profile_text_color'
p86
g38
sS'followers_count'
p87
I2561
sS'profile_sidebar_border_color'
p88
g41
sS'location'
p89
g55
sS'default_profile_image'
p90
I00
sS'id_str'
p91
g43
sS'utc_offset'
p92
I7200
sS'statuses_count'
p93
I5324
sS'description'
p94
g52
sS'friends_count'
p95
I231
sS'profile_link_color'
p96
g57
sS'profile_image_url'
p97
g59
sS'notifications'
p98
NsS'geo_enabled'
p99
I01
sS'profile_background_color'
p100
g45
sS'profile_banner_url'
p101
g63
sS'profile_background_image_url'
p102
g65
sS'name'
p103
g67
sS'lang'
p104
g69
sS'following'
p105
I00
sS'profile_background_tile'
p106
I00
sS'favourites_count'
p107
I865
sS'screen_name'
p108
g73
sS'url'
p109
g76
sS'created_at'
p110
cdatetime
datetime
p111
(S'\x07\xd9\x04\x0f\x0e\x06\x04\x00\x00\x00'
p112
tp113
Rp114
sS'profile_background_image_url_https'
p115
g48
sS'time_zone'
p116
g81
sS'protected'
p117
I00
sS'default_profile'
p118
I01
sS'is_translator'
p119
I00
sS'listed_count'
p120
I76
sbsS'filter_level'
p121
Vlow
p122
sS'geo'
p123
Nsg24
I620600090038812672
sS'favorite_count'
p124
I0
sS'source'
p125
VTwitter Web Client
p126
sg104
Ven
p127
sS'author'
p128
g18
sS'in_reply_to_user_id_str'
p129
V54958094
p130
sg28
(dp131
Vcontributors
p132
NsVtruncated
p133
I00
sVtext
p134
V@TraceyLeeHolmes @Wimbledon \u000aExcellent idea Tracey. How about a silver plated iron or vacuum cleaner? Let's ask @SeppBlatter
p135
sVin_reply_to_status_id
p136
I620366990746755072
sg33
I620600090038812672
sVfavorite_count
p137
I0
sVsource
p138
V<a href="http://twitter.com" rel="nofollow">Twitter Web Client</a>
p139
sVretweeted
p140
I00
sVcoordinates
p141
NsVtimestamp_ms
p142
V1436797566314
p143
sVentities
p144
(dp145
Vuser_mentions
p146
(lp147
(dp148
g33
I54958094
sVindices
p149
(lp150
I0
aI16
asg42
V54958094
p151
sg72
VTraceyLeeHolmes
p152
sg66
VTracey Holmes
p153
sa(dp154
g33
I14857290
sg149
(lp155
I17
aI27
asg42
V14857290
p156
sg72
VWimbledon
p157
sg66
VWimbledon
p158
sa(dp159
g33
I138388408
sg149
(lp160
I112
aI124
asg42
V138388408
p161
sg72
VSeppBlatter
p162
sg66
VJoseph S Blatter
p163
sasVsymbols
p164
(lp165
sVtrends
p166
(lp167
sVhashtags
p168
(lp169
sVurls
p170
(lp171
ssVin_reply_to_screen_name
p172
VTraceyLeeHolmes
p173
sg42
V620600090038812672
p174
sVretweet_count
p175
I0
sVin_reply_to_user_id
p176
I54958094
sVfavorited
p177
I00
sVuser
p178
g29
sVgeo
p179
NsVin_reply_to_user_id_str
p180
g130
sVpossibly_sensitive
p181
I00
sg68
g127
sg77
VMon Jul 13 14:26:06 +0000 2015
p182
sVfilter_level
p183
g122
sVin_reply_to_status_id_str
p184
V620366990746755072
p185
sVplace
p186
(dp187
Vfull_name
p188
VZurich, Switzerland
p189
sg75
Vhttps://api.twitter.com/1.1/geo/id/3acb748d0f1e9265.json
p190
sVcountry
p191
VSchweiz
p192
sVplace_type
p193
Vcity
p194
sVbounding_box
p195
(dp196
Vtype
p197
VPolygon
p198
sg141
(lp199
(lp200
(lp201
F8.448081
aF47.320183
aa(lp202
F8.448081
aF47.434721
aa(lp203
F8.625442
aF47.434721
aa(lp204
F8.625442
aF47.320183
aaassVcountry_code
p205
VCH
p206
sVattributes
p207
(dp208
sg33
V3acb748d0f1e9265
p209
sg66
VZurich
p210
sssS'coordinates'
p211
NsS'timestamp_ms'
p212
g143
sS'entities'
p213
g145
sS'in_reply_to_status_id_str'
p214
g185
sS'in_reply_to_screen_name'
p215
g173
sg91
g174
sS'retweeted'
p216
I00
sS'place'
p217
g0
(ctweepy.models
Place
p218
g2
Ntp219
Rp220
(dp221
S'full_name'
p222
g189
sg109
g190
sS'country'
p223
g192
sS'place_type'
p224
g194
sS'bounding_box'
p225
g0
(ctweepy.models
BoundingBox
p226
g2
Ntp227
Rp228
(dp229
S'type'
p230
g198
sg211
g199
sbsS'country_code'
p231
g206
sS'attributes'
p232
g208
sg24
g209
sg103
g210
sbsS'retweet_count'
p233
I0
sg110
g111
(S'\x07\xdf\x07\r\x0e\x1a\x06\x00\x00\x00'
p234
tp235
Rp236
sS'in_reply_to_user_id'
p237
I54958094
sb.