ccopy_reg
_reconstructor
p0
(ctweepy.models
Status
p1
c__builtin__
object
p2
Ntp3
Rp4
(dp5
S'favorited'
p6
I00
sS'contributors'
p7
NsS'truncated'
p8
I00
sS'text'
p9
VAre you #SoftwareEngineer? Jobs@SWITCH https://t.co/pTj91SONTT
p10
sS'source_url'
p11
Vhttp://twitter.com/download/iphone
p12
sS'possibly_sensitive'
p13
I01
sS'in_reply_to_status_id'
p14
NsS'user'
p15
g0
(ctweepy.models
User
p16
g2
Ntp17
Rp18
(dp19
S'follow_request_sent'
p20
NsS'profile_use_background_image'
p21
I00
sS'profile_sidebar_fill_color'
p22
VDDEEF6
p23
sS'id'
p24
I64404895
sS'verified'
p25
I00
sS'profile_image_url_https'
p26
Vhttps://pbs.twimg.com/profile_images/532304119596601345/NCceuQWC_normal.jpeg
p27
sS'_json'
p28
(dp29
Vfollow_request_sent
p30
NsVprofile_use_background_image
p31
I00
sVdefault_profile_image
p32
I00
sVid
p33
I64404895
sVverified
p34
I00
sVprofile_image_url_https
p35
g27
sVprofile_sidebar_fill_color
p36
g23
sVprofile_text_color
p37
V333333
p38
sVfollowers_count
p39
I1175
sVprofile_sidebar_border_color
p40
VFFFFFF
p41
sVid_str
p42
V64404895
p43
sVprofile_background_color
p44
VF7F7F7
p45
sVlisted_count
p46
I59
sVprofile_background_image_url_https
p47
Vhttps://pbs.twimg.com/profile_background_images/455393916062162944/jmENSek7.jpeg
p48
sVutc_offset
p49
I3600
sVstatuses_count
p50
I2682
sVdescription
p51
VConnecting dots to advance Swiss Higher Education @switch_ch ; #Internet Service #Innovation Researcher; Innovator; Passionate about Tech ; dogfather; O|||||||O
p52
sVfriends_count
p53
I1993
sVlocation
p54
VZurich, Switzerland
p55
sVprofile_link_color
p56
V3B94D9
p57
sVprofile_image_url
p58
Vhttp://pbs.twimg.com/profile_images/532304119596601345/NCceuQWC_normal.jpeg
p59
sVfollowing
p60
NsVgeo_enabled
p61
I01
sVprofile_banner_url
p62
Vhttps://pbs.twimg.com/profile_banners/64404895/1431541449
p63
sVprofile_background_image_url
p64
Vhttp://pbs.twimg.com/profile_background_images/455393916062162944/jmENSek7.jpeg
p65
sVname
p66
VSebastian Sigloch
p67
sVlang
p68
Ven
p69
sVprofile_background_tile
p70
I00
sVfavourites_count
p71
I1622
sVscreen_name
p72
VSebSigloch
p73
sVnotifications
p74
NsVurl
p75
NsVcreated_at
p76
VMon Aug 10 13:38:45 +0000 2009
p77
sVcontributors_enabled
p78
I00
sVtime_zone
p79
VLondon
p80
sVprotected
p81
I00
sVdefault_profile
p82
I00
sVis_translator
p83
I00
ssS'contributors_enabled'
p84
I00
sS'profile_text_color'
p85
g38
sS'followers_count'
p86
I1175
sS'profile_sidebar_border_color'
p87
g41
sS'location'
p88
g55
sS'default_profile_image'
p89
I00
sS'id_str'
p90
g43
sS'utc_offset'
p91
I3600
sS'statuses_count'
p92
I2682
sS'description'
p93
g52
sS'friends_count'
p94
I1993
sS'profile_link_color'
p95
g57
sS'profile_image_url'
p96
g59
sS'notifications'
p97
NsS'geo_enabled'
p98
I01
sS'profile_background_color'
p99
g45
sS'profile_banner_url'
p100
g63
sS'profile_background_image_url'
p101
g65
sS'name'
p102
g67
sS'lang'
p103
g69
sS'following'
p104
I00
sS'profile_background_tile'
p105
I00
sS'favourites_count'
p106
I1622
sS'screen_name'
p107
g73
sS'url'
p108
NsS'created_at'
p109
cdatetime
datetime
p110
(S'\x07\xd9\x08\n\r&-\x00\x00\x00'
p111
tp112
Rp113
sS'profile_background_image_url_https'
p114
g48
sS'time_zone'
p115
g80
sS'protected'
p116
I00
sS'default_profile'
p117
I00
sS'is_translator'
p118
I00
sS'listed_count'
p119
I59
sbsS'filter_level'
p120
Vlow
p121
sS'geo'
p122
Nsg24
I620347669895102464
sS'favorite_count'
p123
I0
sS'source'
p124
VTwitter for iPhone
p125
sg103
Ven
p126
sS'author'
p127
g18
sS'in_reply_to_user_id_str'
p128
Nsg28
(dp129
Vcontributors
p130
NsVtruncated
p131
I00
sVtext
p132
g10
sVin_reply_to_status_id
p133
Nsg33
I620347669895102464
sVfavorite_count
p134
I0
sVsource
p135
V<a href="http://twitter.com/download/iphone" rel="nofollow">Twitter for iPhone</a>
p136
sVretweeted
p137
I00
sVcoordinates
p138
NsVtimestamp_ms
p139
V1436737384662
p140
sVentities
p141
(dp142
Vuser_mentions
p143
(lp144
sVsymbols
p145
(lp146
sVtrends
p147
(lp148
sVhashtags
p149
(lp150
(dp151
Vindices
p152
(lp153
I8
aI25
asg132
VSoftwareEngineer
p154
sasVurls
p155
(lp156
(dp157
g75
Vhttps://t.co/pTj91SONTT
p158
sg152
(lp159
I39
aI62
asVexpanded_url
p160
Vhttps://recruitingapp-2563.umantis.com/Vacancies/296/Description/1
p161
sVdisplay_url
p162
Vrecruitingapp-2563.umantis.com/Vacancies/296/\u2026
p163
sassVin_reply_to_screen_name
p164
Nsg42
V620347669895102464
p165
sVretweet_count
p166
I0
sVin_reply_to_user_id
p167
NsVfavorited
p168
I00
sVuser
p169
g29
sVgeo
p170
NsVin_reply_to_user_id_str
p171
NsVpossibly_sensitive
p172
I01
sg68
g126
sg76
VSun Jul 12 21:43:04 +0000 2015
p173
sVfilter_level
p174
g121
sVin_reply_to_status_id_str
p175
NsVplace
p176
(dp177
Vfull_name
p178
VZurich, Switzerland
p179
sg75
Vhttps://api.twitter.com/1.1/geo/id/db94c1cccc67c4f4.json
p180
sVcountry
p181
VSchweiz
p182
sVplace_type
p183
Vadmin
p184
sVbounding_box
p185
(dp186
Vtype
p187
VPolygon
p188
sg138
(lp189
(lp190
(lp191
F8.357749
aF47.159384
aa(lp192
F8.357749
aF47.694503
aa(lp193
F8.984445
aF47.694503
aa(lp194
F8.984445
aF47.159384
aaassVcountry_code
p195
VCH
p196
sVattributes
p197
(dp198
sg33
Vdb94c1cccc67c4f4
p199
sg66
VZurich
p200
sssS'coordinates'
p201
NsS'timestamp_ms'
p202
g140
sS'entities'
p203
g142
sS'in_reply_to_status_id_str'
p204
NsS'in_reply_to_screen_name'
p205
Nsg90
g165
sS'retweeted'
p206
I00
sS'place'
p207
g0
(ctweepy.models
Place
p208
g2
Ntp209
Rp210
(dp211
S'full_name'
p212
g179
sg108
g180
sS'country'
p213
g182
sS'place_type'
p214
g184
sS'bounding_box'
p215
g0
(ctweepy.models
BoundingBox
p216
g2
Ntp217
Rp218
(dp219
S'type'
p220
g188
sg201
g189
sbsS'country_code'
p221
g196
sS'attributes'
p222
g198
sg24
g199
sg102
g200
sbsS'retweet_count'
p223
I0
sg109
g110
(S'\x07\xdf\x07\x0c\x15+\x04\x00\x00\x00'
p224
tp225
Rp226
sS'in_reply_to_user_id'
p227
Nsb.