ccopy_reg
_reconstructor
p0
(ctweepy.models
Status
p1
c__builtin__
object
p2
Ntp3
Rp4
(dp5
S'favorited'
p6
I00
sS'contributors'
p7
NsS'truncated'
p8
I00
sS'text'
p9
VDie la die after so long then I realise didn't return something to the passenger!! Omg please don't complain to the company \U0001f630\U0001f630
p10
sS'source_url'
p11
Vhttp://twitter.com/download/android
p12
sS'possibly_sensitive'
p13
I00
sS'in_reply_to_status_id'
p14
NsS'user'
p15
g0
(ctweepy.models
User
p16
g2
Ntp17
Rp18
(dp19
S'follow_request_sent'
p20
NsS'profile_use_background_image'
p21
I01
sS'profile_sidebar_fill_color'
p22
VF2CED9
p23
sS'id'
p24
I50655601
sS'verified'
p25
I00
sS'profile_image_url_https'
p26
Vhttps://pbs.twimg.com/profile_images/617374082242248704/1CDWegki_normal.jpg
p27
sS'_json'
p28
(dp29
Vfollow_request_sent
p30
NsVprofile_use_background_image
p31
I01
sVdefault_profile_image
p32
I00
sVid
p33
I50655601
sVverified
p34
I00
sVprofile_image_url_https
p35
g27
sVprofile_sidebar_fill_color
p36
g23
sVprofile_text_color
p37
V362720
p38
sVfollowers_count
p39
I138
sVprofile_sidebar_border_color
p40
VFFFFFF
p41
sVid_str
p42
V50655601
p43
sVprofile_background_color
p44
VFF6699
p45
sVlisted_count
p46
I0
sVprofile_background_image_url_https
p47
Vhttps://pbs.twimg.com/profile_background_images/406691749/pink.png
p48
sVutc_offset
p49
I28800
sVstatuses_count
p50
I5518
sVdescription
p51
NsVfriends_count
p52
I104
sVlocation
p53
VSingapore
p54
sVprofile_link_color
p55
VFC246C
p56
sVprofile_image_url
p57
Vhttp://pbs.twimg.com/profile_images/617374082242248704/1CDWegki_normal.jpg
p58
sVfollowing
p59
NsVgeo_enabled
p60
I01
sVprofile_banner_url
p61
Vhttps://pbs.twimg.com/profile_banners/50655601/1428079928
p62
sVprofile_background_image_url
p63
Vhttp://pbs.twimg.com/profile_background_images/406691749/pink.png
p64
sVname
p65
VIsabelle Chng
p66
sVlang
p67
Ven
p68
sVprofile_background_tile
p69
I01
sVfavourites_count
p70
I110
sVscreen_name
p71
Visabelleebean
p72
sVnotifications
p73
NsVurl
p74
NsVcreated_at
p75
VThu Jun 25 14:12:11 +0000 2009
p76
sVcontributors_enabled
p77
I00
sVtime_zone
p78
VSingapore
p79
sVprotected
p80
I00
sVdefault_profile
p81
I00
sVis_translator
p82
I00
ssS'contributors_enabled'
p83
I00
sS'profile_text_color'
p84
g38
sS'followers_count'
p85
I138
sS'profile_sidebar_border_color'
p86
g41
sS'location'
p87
g54
sS'default_profile_image'
p88
I00
sS'id_str'
p89
g43
sS'utc_offset'
p90
I28800
sS'statuses_count'
p91
I5518
sS'description'
p92
NsS'friends_count'
p93
I104
sS'profile_link_color'
p94
g56
sS'profile_image_url'
p95
g58
sS'notifications'
p96
NsS'geo_enabled'
p97
I01
sS'profile_background_color'
p98
g45
sS'profile_banner_url'
p99
g62
sS'profile_background_image_url'
p100
g64
sS'name'
p101
g66
sS'lang'
p102
g68
sS'following'
p103
I00
sS'profile_background_tile'
p104
I01
sS'favourites_count'
p105
I110
sS'screen_name'
p106
g72
sS'url'
p107
NsS'created_at'
p108
cdatetime
datetime
p109
(S'\x07\xd9\x06\x19\x0e\x0c\x0b\x00\x00\x00'
p110
tp111
Rp112
sS'profile_background_image_url_https'
p113
g48
sS'time_zone'
p114
g79
sS'protected'
p115
I00
sS'default_profile'
p116
I00
sS'is_translator'
p117
I00
sS'listed_count'
p118
I0
sbsS'filter_level'
p119
Vlow
p120
sS'geo'
p121
Nsg24
I619211462238728192
sS'favorite_count'
p122
I0
sS'source'
p123
VTwitter for Android
p124
sg102
Ven
p125
sS'author'
p126
g18
sS'in_reply_to_user_id_str'
p127
Nsg28
(dp128
Vcontributors
p129
NsVtruncated
p130
I00
sVtext
p131
g10
sVin_reply_to_status_id
p132
Nsg33
I619211462238728192
sVfavorite_count
p133
I0
sVsource
p134
V<a href="http://twitter.com/download/android" rel="nofollow">Twitter for Android</a>
p135
sVretweeted
p136
I00
sVcoordinates
p137
NsVtimestamp_ms
p138
V1436466491647
p139
sVentities
p140
(dp141
Vuser_mentions
p142
(lp143
sVsymbols
p144
(lp145
sVtrends
p146
(lp147
sVhashtags
p148
(lp149
sVurls
p150
(lp151
ssVin_reply_to_screen_name
p152
Nsg42
V619211462238728192
p153
sVretweet_count
p154
I0
sVin_reply_to_user_id
p155
NsVfavorited
p156
I00
sVuser
p157
g29
sVgeo
p158
NsVin_reply_to_user_id_str
p159
NsVpossibly_sensitive
p160
I00
sg67
g125
sg75
VThu Jul 09 18:28:11 +0000 2015
p161
sVfilter_level
p162
g120
sVin_reply_to_status_id_str
p163
NsVplace
p164
(dp165
Vfull_name
p166
VZurich, Switzerland
p167
sg74
Vhttps://api.twitter.com/1.1/geo/id/3acb748d0f1e9265.json
p168
sVcountry
p169
VSchweiz
p170
sVplace_type
p171
Vcity
p172
sVbounding_box
p173
(dp174
Vtype
p175
VPolygon
p176
sg137
(lp177
(lp178
(lp179
F8.448081
aF47.320183
aa(lp180
F8.448081
aF47.434721
aa(lp181
F8.625442
aF47.434721
aa(lp182
F8.625442
aF47.320183
aaassVcountry_code
p183
VCH
p184
sVattributes
p185
(dp186
sg33
V3acb748d0f1e9265
p187
sg65
VZurich
p188
sssS'coordinates'
p189
NsS'timestamp_ms'
p190
g139
sS'entities'
p191
g141
sS'in_reply_to_status_id_str'
p192
NsS'in_reply_to_screen_name'
p193
Nsg89
g153
sS'retweeted'
p194
I00
sS'place'
p195
g0
(ctweepy.models
Place
p196
g2
Ntp197
Rp198
(dp199
S'full_name'
p200
g167
sg107
g168
sS'country'
p201
g170
sS'place_type'
p202
g172
sS'bounding_box'
p203
g0
(ctweepy.models
BoundingBox
p204
g2
Ntp205
Rp206
(dp207
S'type'
p208
g176
sg189
g177
sbsS'country_code'
p209
g184
sS'attributes'
p210
g186
sg24
g187
sg101
g188
sbsS'retweet_count'
p211
I0
sg108
g109
(S'\x07\xdf\x07\t\x12\x1c\x0b\x00\x00\x00'
p212
tp213
Rp214
sS'in_reply_to_user_id'
p215
Nsb.