ccopy_reg
_reconstructor
p0
(ctweepy.models
Status
p1
c__builtin__
object
p2
Ntp3
Rp4
(dp5
S'favorited'
p6
I00
sS'contributors'
p7
NsS'truncated'
p8
I00
sS'text'
p9
V@h0ers @mirahwood @JulietteIsabell @SenSanders &lt;----#GREENMARXIST BERNIE.\u000aHAHAHAHAHAHAHAHAHA GLOBAL WARMING. HAHAHAHAHAHAHAHA #GREENMARXIST!
p10
sS'source_url'
p11
Vhttp://twitter.com
p12
sS'possibly_sensitive'
p13
I00
sS'in_reply_to_status_id'
p14
I620062510918471680
sS'user'
p15
g0
(ctweepy.models
User
p16
g2
Ntp17
Rp18
(dp19
S'follow_request_sent'
p20
NsS'profile_use_background_image'
p21
I00
sS'profile_sidebar_fill_color'
p22
V000000
p23
sS'id'
p24
I2879569993
sS'verified'
p25
I00
sS'profile_image_url_https'
p26
Vhttps://pbs.twimg.com/profile_images/610874208827146241/voSDsKk8_normal.png
p27
sS'_json'
p28
(dp29
Vfollow_request_sent
p30
NsVprofile_use_background_image
p31
I00
sVdefault_profile_image
p32
I00
sVid
p33
I2879569993
sVverified
p34
I00
sVprofile_image_url_https
p35
g27
sVprofile_sidebar_fill_color
p36
g23
sVprofile_text_color
p37
V000000
p38
sVfollowers_count
p39
I252
sVprofile_sidebar_border_color
p40
V000000
p41
sVid_str
p42
V2879569993
p43
sVprofile_background_color
p44
V000000
p45
sVlisted_count
p46
I3
sVprofile_background_image_url_https
p47
Vhttps://abs.twimg.com/images/themes/theme14/bg.gif
p48
sVutc_offset
p49
NsVstatuses_count
p50
I1305
sVdescription
p51
VNEVER COULD HIDE WHO I AM. \u000a.http://ish.re/JJRT -not me.
p52
sVfriends_count
p53
I277
sVlocation
p54
VRepublic of Mozambique
p55
sVprofile_link_color
p56
VDD2E44
p57
sVprofile_image_url
p58
Vhttp://pbs.twimg.com/profile_images/610874208827146241/voSDsKk8_normal.png
p59
sVfollowing
p60
NsVgeo_enabled
p61
I01
sVprofile_banner_url
p62
Vhttps://pbs.twimg.com/profile_banners/2879569993/1434478513
p63
sVprofile_background_image_url
p64
Vhttp://abs.twimg.com/images/themes/theme14/bg.gif
p65
sVname
p66
VD\u2200MN\u2200L\u308bX 
p67
sVlang
p68
Ven
p69
sVprofile_background_tile
p70
I00
sVfavourites_count
p71
I29
sVscreen_name
p72
VDd0xblack1
p73
sVnotifications
p74
NsVurl
p75
NsVcreated_at
p76
VMon Oct 27 13:04:37 +0000 2014
p77
sVcontributors_enabled
p78
I00
sVtime_zone
p79
NsVprotected
p80
I00
sVdefault_profile
p81
I00
sVis_translator
p82
I00
ssS'contributors_enabled'
p83
I00
sS'profile_text_color'
p84
g38
sS'followers_count'
p85
I252
sS'profile_sidebar_border_color'
p86
g41
sS'location'
p87
g55
sS'default_profile_image'
p88
I00
sS'id_str'
p89
g43
sS'utc_offset'
p90
NsS'statuses_count'
p91
I1305
sS'description'
p92
VNEVER COULD HIDE WHO I AM. \u000a.http://ish.re/JJRT -not me.
p93
sS'friends_count'
p94
I277
sS'profile_link_color'
p95
g57
sS'profile_image_url'
p96
g59
sS'notifications'
p97
NsS'geo_enabled'
p98
I01
sS'profile_background_color'
p99
g45
sS'profile_banner_url'
p100
g63
sS'profile_background_image_url'
p101
g65
sS'name'
p102
g67
sS'lang'
p103
g69
sS'following'
p104
I00
sS'profile_background_tile'
p105
I00
sS'favourites_count'
p106
I29
sS'screen_name'
p107
g73
sS'url'
p108
NsS'created_at'
p109
cdatetime
datetime
p110
(S'\x07\xde\n\x1b\r\x04%\x00\x00\x00'
p111
tp112
Rp113
sS'profile_background_image_url_https'
p114
g48
sS'time_zone'
p115
NsS'protected'
p116
I00
sS'default_profile'
p117
I00
sS'is_translator'
p118
I00
sS'listed_count'
p119
I3
sbsS'filter_level'
p120
Vlow
p121
sS'geo'
p122
Nsg24
I620062927123562501
sS'favorite_count'
p123
I0
sS'source'
p124
VTwitter Web Client
p125
sg103
Vtl
p126
sS'author'
p127
g18
sS'in_reply_to_user_id_str'
p128
V3192567474
p129
sg28
(dp130
Vcontributors
p131
NsVtruncated
p132
I00
sVtext
p133
V@h0ers @mirahwood @JulietteIsabell @SenSanders &lt;----#GREENMARXIST BERNIE.\u000aHAHAHAHAHAHAHAHAHA GLOBAL WARMING. HAHAHAHAHAHAHAHA #GREENMARXIST!
p134
sVin_reply_to_status_id
p135
I620062510918471680
sg33
I620062927123562501
sVfavorite_count
p136
I0
sVsource
p137
V<a href="http://twitter.com" rel="nofollow">Twitter Web Client</a>
p138
sVretweeted
p139
I00
sVcoordinates
p140
NsVtimestamp_ms
p141
V1436669496695
p142
sVentities
p143
(dp144
Vuser_mentions
p145
(lp146
(dp147
g33
I3192567474
sVindices
p148
(lp149
I0
aI6
asg42
V3192567474
p150
sg72
Vh0ers
p151
sg66
Vendiapered hoers
p152
sa(dp153
g33
I48278272
sg148
(lp154
I7
aI17
asg42
V48278272
p155
sg72
Vmirahwood
p156
sg66
VMirah Atabaki
p157
sa(dp158
g33
I457448375
sg148
(lp159
I18
aI34
asg42
V457448375
p160
sg72
VJulietteIsabell
p161
sg66
VJuliette Isabella
p162
sa(dp163
g33
I29442313
sg148
(lp164
I35
aI46
asg42
V29442313
p165
sg72
VSenSanders
p166
sg66
VBernie Sanders
p167
sasVsymbols
p168
(lp169
sVtrends
p170
(lp171
sVhashtags
p172
(lp173
(dp174
g148
(lp175
I55
aI68
asg133
VGREENMARXIST
p176
sa(dp177
g148
(lp178
I129
aI142
asg133
VGREENMARXIST
p179
sasVurls
p180
(lp181
ssVin_reply_to_screen_name
p182
Vh0ers
p183
sg42
V620062927123562501
p184
sVretweet_count
p185
I0
sVin_reply_to_user_id
p186
I3192567474
sVfavorited
p187
I00
sVuser
p188
g29
sVgeo
p189
NsVin_reply_to_user_id_str
p190
g129
sVpossibly_sensitive
p191
I00
sg68
g126
sg76
VSun Jul 12 02:51:36 +0000 2015
p192
sVfilter_level
p193
g121
sVin_reply_to_status_id_str
p194
V620062510918471680
p195
sVplace
p196
(dp197
Vfull_name
p198
VBerne, Switzerland
p199
sg75
Vhttps://api.twitter.com/1.1/geo/id/5868d0e0749c9c47.json
p200
sVcountry
p201
VSchweiz
p202
sVplace_type
p203
Vadmin
p204
sVbounding_box
p205
(dp206
Vtype
p207
VPolygon
p208
sg140
(lp209
(lp210
(lp211
F6.861601
aF46.326441
aa(lp212
F6.861601
aF47.34528
aa(lp213
F8.455051
aF47.34528
aa(lp214
F8.455051
aF46.326441
aaassVcountry_code
p215
VCH
p216
sVattributes
p217
(dp218
sg33
V5868d0e0749c9c47
p219
sg66
VBern
p220
sssS'coordinates'
p221
NsS'timestamp_ms'
p222
g142
sS'entities'
p223
g144
sS'in_reply_to_status_id_str'
p224
g195
sS'in_reply_to_screen_name'
p225
g183
sg89
g184
sS'retweeted'
p226
I00
sS'place'
p227
g0
(ctweepy.models
Place
p228
g2
Ntp229
Rp230
(dp231
S'full_name'
p232
g199
sg108
g200
sS'country'
p233
g202
sS'place_type'
p234
g204
sS'bounding_box'
p235
g0
(ctweepy.models
BoundingBox
p236
g2
Ntp237
Rp238
(dp239
S'type'
p240
g208
sg221
g209
sbsS'country_code'
p241
g216
sS'attributes'
p242
g218
sg24
g219
sg102
g220
sbsS'retweet_count'
p243
I0
sg109
g110
(S'\x07\xdf\x07\x0c\x023$\x00\x00\x00'
p244
tp245
Rp246
sS'in_reply_to_user_id'
p247
I3192567474
sb.