ccopy_reg
_reconstructor
p0
(ctweepy.models
Status
p1
c__builtin__
object
p2
Ntp3
Rp4
(dp5
S'favorited'
p6
I00
sS'contributors'
p7
NsS'truncated'
p8
I00
sS'text'
p9
VI'm checking the dictionary to find out the meaning of "solidarity". I must be confusing the word with something else. #ThisIsACoup
p10
sS'source_url'
p11
Vhttp://twitter.com/download/iphone
p12
sS'possibly_sensitive'
p13
I00
sS'in_reply_to_status_id'
p14
NsS'user'
p15
g0
(ctweepy.models
User
p16
g2
Ntp17
Rp18
(dp19
S'follow_request_sent'
p20
NsS'profile_use_background_image'
p21
I01
sS'profile_sidebar_fill_color'
p22
VDDEEF6
p23
sS'id'
p24
I2388609714
sS'verified'
p25
I00
sS'profile_image_url_https'
p26
Vhttps://pbs.twimg.com/profile_images/444375542666493952/LK8Rgm0n_normal.jpeg
p27
sS'_json'
p28
(dp29
Vfollow_request_sent
p30
NsVprofile_use_background_image
p31
I01
sVdefault_profile_image
p32
I00
sVid
p33
I2388609714
sVverified
p34
I00
sVprofile_image_url_https
p35
g27
sVprofile_sidebar_fill_color
p36
g23
sVprofile_text_color
p37
V333333
p38
sVfollowers_count
p39
I21
sVprofile_sidebar_border_color
p40
VC0DEED
p41
sVid_str
p42
V2388609714
p43
sVprofile_background_color
p44
VC0DEED
p45
sVlisted_count
p46
I0
sVprofile_background_image_url_https
p47
Vhttps://abs.twimg.com/images/themes/theme1/bg.png
p48
sVutc_offset
p49
NsVstatuses_count
p50
I8
sVdescription
p51
NsVfriends_count
p52
I70
sVlocation
p53
V
p54
sVprofile_link_color
p55
V0084B4
p56
sVprofile_image_url
p57
Vhttp://pbs.twimg.com/profile_images/444375542666493952/LK8Rgm0n_normal.jpeg
p58
sVfollowing
p59
NsVgeo_enabled
p60
I01
sVprofile_background_image_url
p61
Vhttp://abs.twimg.com/images/themes/theme1/bg.png
p62
sVname
p63
VStavroula Vlachou
p64
sVlang
p65
Ven
p66
sVprofile_background_tile
p67
I00
sVfavourites_count
p68
I7
sVscreen_name
p69
VStavroulavl24
p70
sVnotifications
p71
NsVurl
p72
NsVcreated_at
p73
VFri Mar 14 07:17:44 +0000 2014
p74
sVcontributors_enabled
p75
I00
sVtime_zone
p76
NsVprotected
p77
I00
sVdefault_profile
p78
I01
sVis_translator
p79
I00
ssS'contributors_enabled'
p80
I00
sS'profile_text_color'
p81
g38
sS'followers_count'
p82
I21
sS'profile_sidebar_border_color'
p83
g41
sS'location'
p84
g54
sS'default_profile_image'
p85
I00
sS'id_str'
p86
g43
sS'utc_offset'
p87
NsS'statuses_count'
p88
I8
sS'description'
p89
NsS'friends_count'
p90
I70
sS'profile_link_color'
p91
g56
sS'profile_image_url'
p92
g58
sS'notifications'
p93
NsS'geo_enabled'
p94
I01
sS'profile_background_color'
p95
g45
sS'profile_background_image_url'
p96
g62
sS'name'
p97
g64
sS'lang'
p98
g66
sS'following'
p99
I00
sS'profile_background_tile'
p100
I00
sS'favourites_count'
p101
I7
sS'screen_name'
p102
g70
sS'url'
p103
NsS'created_at'
p104
cdatetime
datetime
p105
(S'\x07\xde\x03\x0e\x07\x11,\x00\x00\x00'
p106
tp107
Rp108
sS'profile_background_image_url_https'
p109
g48
sS'time_zone'
p110
NsS'protected'
p111
I00
sS'default_profile'
p112
I01
sS'is_translator'
p113
I00
sS'listed_count'
p114
I0
sbsS'filter_level'
p115
Vlow
p116
sS'geo'
p117
Nsg24
I620630295319052288
sS'favorite_count'
p118
I0
sS'source'
p119
VTwitter for iPhone
p120
sg98
Ven
p121
sS'author'
p122
g18
sS'in_reply_to_user_id_str'
p123
Nsg28
(dp124
Vcontributors
p125
NsVtruncated
p126
I00
sVtext
p127
g10
sVin_reply_to_status_id
p128
Nsg33
I620630295319052288
sVfavorite_count
p129
I0
sVsource
p130
V<a href="http://twitter.com/download/iphone" rel="nofollow">Twitter for iPhone</a>
p131
sVretweeted
p132
I00
sVcoordinates
p133
NsVtimestamp_ms
p134
V1436804767814
p135
sVentities
p136
(dp137
Vuser_mentions
p138
(lp139
sVsymbols
p140
(lp141
sVtrends
p142
(lp143
sVhashtags
p144
(lp145
(dp146
Vindices
p147
(lp148
I119
aI131
asg127
VThisIsACoup
p149
sasVurls
p150
(lp151
ssVin_reply_to_screen_name
p152
Nsg42
V620630295319052288
p153
sVretweet_count
p154
I0
sVin_reply_to_user_id
p155
NsVfavorited
p156
I00
sVuser
p157
g29
sVgeo
p158
NsVin_reply_to_user_id_str
p159
NsVpossibly_sensitive
p160
I00
sg65
g121
sg73
VMon Jul 13 16:26:07 +0000 2015
p161
sVfilter_level
p162
g116
sVin_reply_to_status_id_str
p163
NsVplace
p164
(dp165
Vfull_name
p166
VZurich, Switzerland
p167
sg72
Vhttps://api.twitter.com/1.1/geo/id/3acb748d0f1e9265.json
p168
sVcountry
p169
VSchweiz
p170
sVplace_type
p171
Vcity
p172
sVbounding_box
p173
(dp174
Vtype
p175
VPolygon
p176
sg133
(lp177
(lp178
(lp179
F8.448081
aF47.320183
aa(lp180
F8.448081
aF47.434721
aa(lp181
F8.625442
aF47.434721
aa(lp182
F8.625442
aF47.320183
aaassVcountry_code
p183
VCH
p184
sVattributes
p185
(dp186
sg33
V3acb748d0f1e9265
p187
sg63
VZurich
p188
sssS'coordinates'
p189
NsS'timestamp_ms'
p190
g135
sS'entities'
p191
g137
sS'in_reply_to_status_id_str'
p192
NsS'in_reply_to_screen_name'
p193
Nsg86
g153
sS'retweeted'
p194
I00
sS'place'
p195
g0
(ctweepy.models
Place
p196
g2
Ntp197
Rp198
(dp199
S'full_name'
p200
g167
sg103
g168
sS'country'
p201
g170
sS'place_type'
p202
g172
sS'bounding_box'
p203
g0
(ctweepy.models
BoundingBox
p204
g2
Ntp205
Rp206
(dp207
S'type'
p208
g176
sg189
g177
sbsS'country_code'
p209
g184
sS'attributes'
p210
g186
sg24
g187
sg97
g188
sbsS'retweet_count'
p211
I0
sg104
g105
(S'\x07\xdf\x07\r\x10\x1a\x07\x00\x00\x00'
p212
tp213
Rp214
sS'in_reply_to_user_id'
p215
Nsb.