ccopy_reg
_reconstructor
p0
(ctweepy.models
Status
p1
c__builtin__
object
p2
Ntp3
Rp4
(dp5
S'favorited'
p6
I00
sS'contributors'
p7
NsS'truncated'
p8
I00
sS'text'
p9
V@KenRoth \u000aWithout the intervention of Sissi, Egypt would be there for a long time that Syria worse!\u000a \u000aNo blackmail! http://t.co/u1Zp1gEVT0
p10
sS'source_url'
p11
Vhttp://twitter.com
p12
sS'possibly_sensitive'
p13
I00
sS'in_reply_to_status_id'
p14
I618946163950141440
sS'user'
p15
g0
(ctweepy.models
User
p16
g2
Ntp17
Rp18
(dp19
S'follow_request_sent'
p20
NsS'profile_use_background_image'
p21
I01
sS'profile_sidebar_fill_color'
p22
VDDEEF6
p23
sS'id'
p24
I2661333835
sS'verified'
p25
I00
sS'profile_image_url_https'
p26
Vhttps://pbs.twimg.com/profile_images/618820259982630912/AwP3crJk_normal.jpg
p27
sS'_json'
p28
(dp29
Vfollow_request_sent
p30
NsVprofile_use_background_image
p31
I01
sVdefault_profile_image
p32
I00
sVid
p33
I2661333835
sVverified
p34
I00
sVprofile_image_url_https
p35
g27
sVprofile_sidebar_fill_color
p36
g23
sVprofile_text_color
p37
V333333
p38
sVfollowers_count
p39
I4
sVprofile_sidebar_border_color
p40
VC0DEED
p41
sVid_str
p42
V2661333835
p43
sVprofile_background_color
p44
VC0DEED
p45
sVlisted_count
p46
I0
sVprofile_background_image_url_https
p47
Vhttps://abs.twimg.com/images/themes/theme1/bg.png
p48
sVutc_offset
p49
NsVstatuses_count
p50
I189
sVdescription
p51
NsVfriends_count
p52
I16
sVlocation
p53
V
p54
sVprofile_link_color
p55
V0084B4
p56
sVprofile_image_url
p57
Vhttp://pbs.twimg.com/profile_images/618820259982630912/AwP3crJk_normal.jpg
p58
sVfollowing
p59
NsVgeo_enabled
p60
I01
sVprofile_banner_url
p61
Vhttps://pbs.twimg.com/profile_banners/2661333835/1436373197
p62
sVprofile_background_image_url
p63
Vhttp://abs.twimg.com/images/themes/theme1/bg.png
p64
sVname
p65
VHosni Guermassi
p66
sVlang
p67
Vfr
p68
sVprofile_background_tile
p69
I00
sVfavourites_count
p70
I1
sVscreen_name
p71
Vzohramoud
p72
sVnotifications
p73
NsVurl
p74
NsVcreated_at
p75
VSun Jul 20 02:10:18 +0000 2014
p76
sVcontributors_enabled
p77
I00
sVtime_zone
p78
NsVprotected
p79
I00
sVdefault_profile
p80
I01
sVis_translator
p81
I00
ssS'contributors_enabled'
p82
I00
sS'profile_text_color'
p83
g38
sS'followers_count'
p84
I4
sS'profile_sidebar_border_color'
p85
g41
sS'location'
p86
g54
sS'default_profile_image'
p87
I00
sS'id_str'
p88
g43
sS'utc_offset'
p89
NsS'statuses_count'
p90
I189
sS'description'
p91
NsS'friends_count'
p92
I16
sS'profile_link_color'
p93
g56
sS'profile_image_url'
p94
g58
sS'notifications'
p95
NsS'geo_enabled'
p96
I01
sS'profile_background_color'
p97
g45
sS'profile_banner_url'
p98
g62
sS'profile_background_image_url'
p99
g64
sS'name'
p100
g66
sS'lang'
p101
g68
sS'following'
p102
I00
sS'profile_background_tile'
p103
I00
sS'favourites_count'
p104
I1
sS'screen_name'
p105
g72
sS'url'
p106
NsS'created_at'
p107
cdatetime
datetime
p108
(S'\x07\xde\x07\x14\x02\n\x12\x00\x00\x00'
p109
tp110
Rp111
sS'profile_background_image_url_https'
p112
g48
sS'time_zone'
p113
NsS'protected'
p114
I00
sS'default_profile'
p115
I01
sS'is_translator'
p116
I00
sS'listed_count'
p117
I0
sbsS'filter_level'
p118
Vlow
p119
sS'geo'
p120
Nsg24
I618958820329566208
sS'favorite_count'
p121
I0
sS'source'
p122
VTwitter Web Client
p123
sg101
Ven
p124
sS'author'
p125
g18
sS'in_reply_to_user_id_str'
p126
V17839398
p127
sg28
(dp128
Vcontributors
p129
NsVtruncated
p130
I00
sVtext
p131
V@KenRoth \u000aWithout the intervention of Sissi, Egypt would be there for a long time that Syria worse!\u000a \u000aNo blackmail! http://t.co/u1Zp1gEVT0
p132
sVin_reply_to_status_id
p133
I618946163950141440
sg33
I618958820329566208
sVfavorite_count
p134
I0
sVsource
p135
V<a href="http://twitter.com" rel="nofollow">Twitter Web Client</a>
p136
sVretweeted
p137
I00
sVcoordinates
p138
NsVtimestamp_ms
p139
V1436406257122
p140
sVentities
p141
(dp142
Vsymbols
p143
(lp144
sVmedia
p145
(lp146
(dp147
Vexpanded_url
p148
Vhttp://twitter.com/zohramoud/status/618958820329566208/photo/1
p149
sVdisplay_url
p150
Vpic.twitter.com/u1Zp1gEVT0
p151
sg74
Vhttp://t.co/u1Zp1gEVT0
p152
sVmedia_url_https
p153
Vhttps://pbs.twimg.com/media/CJb7xEKUAAA63gs.jpg
p154
sg42
V618958819159179264
p155
sVsizes
p156
(dp157
Vlarge
p158
(dp159
Vh
p160
I524
sVresize
p161
Vfit
p162
sVw
p163
I763
ssVsmall
p164
(dp165
g160
I233
sg161
Vfit
p166
sg163
I340
ssVmedium
p167
(dp168
g160
I412
sg161
Vfit
p169
sg163
I600
ssVthumb
p170
(dp171
g160
I150
sg161
Vcrop
p172
sg163
I150
sssVindices
p173
(lp174
I116
aI138
asVtype
p175
Vphoto
p176
sg33
I618958819159179264
sVmedia_url
p177
Vhttp://pbs.twimg.com/media/CJb7xEKUAAA63gs.jpg
p178
sasVhashtags
p179
(lp180
sVuser_mentions
p181
(lp182
(dp183
g33
I17839398
sg173
(lp184
I0
aI8
asg42
V17839398
p185
sg71
VKenRoth
p186
sg65
VKenneth Roth
p187
sasVtrends
p188
(lp189
sVurls
p190
(lp191
ssVin_reply_to_screen_name
p192
VKenRoth
p193
sg42
V618958820329566208
p194
sVretweet_count
p195
I0
sVin_reply_to_user_id
p196
I17839398
sVfavorited
p197
I00
sVuser
p198
g29
sVgeo
p199
NsVin_reply_to_user_id_str
p200
g127
sVpossibly_sensitive
p201
I00
sg67
g124
sg75
VThu Jul 09 01:44:17 +0000 2015
p202
sVfilter_level
p203
g119
sVin_reply_to_status_id_str
p204
V618946163950141440
p205
sVplace
p206
(dp207
Vfull_name
p208
VArgovie, Suisse
p209
sg74
Vhttps://api.twitter.com/1.1/geo/id/64c89c3f0e8b8b2e.json
p210
sVcountry
p211
VSchweiz
p212
sVplace_type
p213
Vadmin
p214
sVbounding_box
p215
(dp216
g175
VPolygon
p217
sg138
(lp218
(lp219
(lp220
F7.713449
aF47.137443
aa(lp221
F7.713449
aF47.621039
aa(lp222
F8.455222
aF47.621039
aa(lp223
F8.455222
aF47.137443
aaassVcountry_code
p224
VCH
p225
sVattributes
p226
(dp227
sg33
V64c89c3f0e8b8b2e
p228
sg65
VArgovie
p229
ssVextended_entities
p230
(dp231
g145
(lp232
(dp233
g148
Vhttp://twitter.com/zohramoud/status/618958820329566208/photo/1
p234
sg150
Vpic.twitter.com/u1Zp1gEVT0
p235
sg74
Vhttp://t.co/u1Zp1gEVT0
p236
sg153
Vhttps://pbs.twimg.com/media/CJb7xEKUAAA63gs.jpg
p237
sg42
V618958819159179264
p238
sg156
(dp239
g158
(dp240
g160
I524
sg161
Vfit
p241
sg163
I763
ssg164
(dp242
g160
I233
sg161
Vfit
p243
sg163
I340
ssg167
(dp244
g160
I412
sg161
Vfit
p245
sg163
I600
ssg170
(dp246
g160
I150
sg161
Vcrop
p247
sg163
I150
sssg173
(lp248
I116
aI138
asg175
Vphoto
p249
sg33
I618958819159179264
sg177
Vhttp://pbs.twimg.com/media/CJb7xEKUAAA63gs.jpg
p250
sasssS'coordinates'
p251
NsS'timestamp_ms'
p252
g140
sS'entities'
p253
g142
sS'in_reply_to_status_id_str'
p254
g205
sS'in_reply_to_screen_name'
p255
g193
sg88
g194
sS'extended_entities'
p256
g231
sS'retweeted'
p257
I00
sS'place'
p258
g0
(ctweepy.models
Place
p259
g2
Ntp260
Rp261
(dp262
S'full_name'
p263
g209
sg106
g210
sS'country'
p264
g212
sS'place_type'
p265
g214
sS'bounding_box'
p266
g0
(ctweepy.models
BoundingBox
p267
g2
Ntp268
Rp269
(dp270
S'type'
p271
g217
sg251
g218
sbsS'country_code'
p272
g225
sS'attributes'
p273
g227
sg24
g228
sg100
g229
sbsS'retweet_count'
p274
I0
sg107
g108
(S'\x07\xdf\x07\t\x01,\x11\x00\x00\x00'
p275
tp276
Rp277
sS'in_reply_to_user_id'
p278
I17839398
sb.