ccopy_reg
_reconstructor
p0
(ctweepy.models
Status
p1
c__builtin__
object
p2
Ntp3
Rp4
(dp5
S'favorited'
p6
I00
sS'contributors'
p7
NsS'truncated'
p8
I00
sS'text'
p9
VWhat does #JaquetDroz #Lady8 watch &amp; a #Chapel have in common?#AlexLeuzinger new article for #GMTMagazine is out now. http://t.co/MXvpin3lEP
p10
sS'source_url'
p11
Vhttp://twitter.com
p12
sS'possibly_sensitive'
p13
I00
sS'in_reply_to_status_id'
p14
NsS'user'
p15
g0
(ctweepy.models
User
p16
g2
Ntp17
Rp18
(dp19
S'follow_request_sent'
p20
NsS'profile_use_background_image'
p21
I00
sS'profile_sidebar_fill_color'
p22
VEFEFEF
p23
sS'id'
p24
I1472111922
sS'verified'
p25
I00
sS'profile_image_url_https'
p26
Vhttps://pbs.twimg.com/profile_images/554668878710579201/HL-XSfjP_normal.jpeg
p27
sS'_json'
p28
(dp29
Vfollow_request_sent
p30
NsVprofile_use_background_image
p31
I00
sVdefault_profile_image
p32
I00
sVid
p33
I1472111922
sVverified
p34
I00
sVprofile_image_url_https
p35
g27
sVprofile_sidebar_fill_color
p36
g23
sVprofile_text_color
p37
V333333
p38
sVfollowers_count
p39
I161
sVprofile_sidebar_border_color
p40
VFFFFFF
p41
sVid_str
p42
V1472111922
p43
sVprofile_background_color
p44
V000000
p45
sVlisted_count
p46
I15
sVprofile_background_image_url_https
p47
Vhttps://abs.twimg.com/images/themes/theme14/bg.gif
p48
sVutc_offset
p49
I7200
sVstatuses_count
p50
I816
sVdescription
p51
VSTUDIOFORMA ARCHITECTS is a premium architecture & interior design company with representative offices in Zurich, Paris and Hamburg.
p52
sVfriends_count
p53
I448
sVlocation
p54
VZurich, Switzerland
p55
sVprofile_link_color
p56
V000000
p57
sVprofile_image_url
p58
Vhttp://pbs.twimg.com/profile_images/554668878710579201/HL-XSfjP_normal.jpeg
p59
sVfollowing
p60
NsVgeo_enabled
p61
I01
sVprofile_banner_url
p62
Vhttps://pbs.twimg.com/profile_banners/1472111922/1415108929
p63
sVprofile_background_image_url
p64
Vhttp://abs.twimg.com/images/themes/theme14/bg.gif
p65
sVname
p66
VSTUDIOFORMA
p67
sVlang
p68
Ven
p69
sVprofile_background_tile
p70
I01
sVfavourites_count
p71
I203
sVscreen_name
p72
Vstudioforma_arc
p73
sVnotifications
p74
NsVurl
p75
Vhttp://www.studioforma.ch
p76
sVcreated_at
p77
VFri May 31 13:16:17 +0000 2013
p78
sVcontributors_enabled
p79
I00
sVtime_zone
p80
VBern
p81
sVprotected
p82
I00
sVdefault_profile
p83
I00
sVis_translator
p84
I00
ssS'contributors_enabled'
p85
I00
sS'profile_text_color'
p86
g38
sS'followers_count'
p87
I161
sS'profile_sidebar_border_color'
p88
g41
sS'location'
p89
g55
sS'default_profile_image'
p90
I00
sS'id_str'
p91
g43
sS'utc_offset'
p92
I7200
sS'statuses_count'
p93
I816
sS'description'
p94
g52
sS'friends_count'
p95
I448
sS'profile_link_color'
p96
g57
sS'profile_image_url'
p97
g59
sS'notifications'
p98
NsS'geo_enabled'
p99
I01
sS'profile_background_color'
p100
g45
sS'profile_banner_url'
p101
g63
sS'profile_background_image_url'
p102
g65
sS'name'
p103
g67
sS'lang'
p104
g69
sS'following'
p105
I00
sS'profile_background_tile'
p106
I01
sS'favourites_count'
p107
I203
sS'screen_name'
p108
g73
sS'url'
p109
g76
sS'created_at'
p110
cdatetime
datetime
p111
(S'\x07\xdd\x05\x1f\r\x10\x11\x00\x00\x00'
p112
tp113
Rp114
sS'profile_background_image_url_https'
p115
g48
sS'time_zone'
p116
g81
sS'protected'
p117
I00
sS'default_profile'
p118
I00
sS'is_translator'
p119
I00
sS'listed_count'
p120
I15
sbsS'filter_level'
p121
Vlow
p122
sS'geo'
p123
Nsg24
I620866320616267778
sS'favorite_count'
p124
I0
sS'source'
p125
VTwitter Web Client
p126
sg104
Ven
p127
sS'author'
p128
g18
sS'in_reply_to_user_id_str'
p129
Nsg28
(dp130
Vcontributors
p131
NsVtruncated
p132
I00
sVtext
p133
g10
sVin_reply_to_status_id
p134
Nsg33
I620866320616267778
sVfavorite_count
p135
I0
sVsource
p136
V<a href="http://twitter.com" rel="nofollow">Twitter Web Client</a>
p137
sVretweeted
p138
I00
sVcoordinates
p139
NsVtimestamp_ms
p140
V1436861040630
p141
sVentities
p142
(dp143
Vsymbols
p144
(lp145
sVmedia
p146
(lp147
(dp148
Vexpanded_url
p149
Vhttp://twitter.com/studioforma_arc/status/620866320616267778/photo/1
p150
sVdisplay_url
p151
Vpic.twitter.com/MXvpin3lEP
p152
sg75
Vhttp://t.co/MXvpin3lEP
p153
sVmedia_url_https
p154
Vhttps://pbs.twimg.com/media/CJ3CghiUEAAfza3.jpg
p155
sg42
V620866187660890112
p156
sVsizes
p157
(dp158
Vlarge
p159
(dp160
Vh
p161
I1438
sVresize
p162
Vfit
p163
sVw
p164
I915
ssVsmall
p165
(dp166
g161
I534
sg162
Vfit
p167
sg164
I340
ssVmedium
p168
(dp169
g161
I942
sg162
Vfit
p170
sg164
I600
ssVthumb
p171
(dp172
g161
I150
sg162
Vcrop
p173
sg164
I150
sssVindices
p174
(lp175
I122
aI144
asVtype
p176
Vphoto
p177
sg33
I620866187660890112
sVmedia_url
p178
Vhttp://pbs.twimg.com/media/CJ3CghiUEAAfza3.jpg
p179
sasVhashtags
p180
(lp181
(dp182
g174
(lp183
I10
aI21
asg133
VJaquetDroz
p184
sa(dp185
g174
(lp186
I22
aI28
asg133
VLady8
p187
sa(dp188
g174
(lp189
I43
aI50
asg133
VChapel
p190
sa(dp191
g174
(lp192
I66
aI80
asg133
VAlexLeuzinger
p193
sa(dp194
g174
(lp195
I97
aI109
asg133
VGMTMagazine
p196
sasVuser_mentions
p197
(lp198
sVtrends
p199
(lp200
sVurls
p201
(lp202
ssVin_reply_to_screen_name
p203
Nsg42
V620866320616267778
p204
sVretweet_count
p205
I0
sVin_reply_to_user_id
p206
NsVfavorited
p207
I00
sVuser
p208
g29
sVgeo
p209
NsVin_reply_to_user_id_str
p210
NsVpossibly_sensitive
p211
I00
sg68
g127
sg77
VTue Jul 14 08:04:00 +0000 2015
p212
sVfilter_level
p213
g122
sVin_reply_to_status_id_str
p214
NsVplace
p215
(dp216
Vfull_name
p217
VZurich, Switzerland
p218
sg75
Vhttps://api.twitter.com/1.1/geo/id/3acb748d0f1e9265.json
p219
sVcountry
p220
VSchweiz
p221
sVplace_type
p222
Vcity
p223
sVbounding_box
p224
(dp225
g176
VPolygon
p226
sg139
(lp227
(lp228
(lp229
F8.448081
aF47.320183
aa(lp230
F8.448081
aF47.434721
aa(lp231
F8.625442
aF47.434721
aa(lp232
F8.625442
aF47.320183
aaassVcountry_code
p233
VCH
p234
sVattributes
p235
(dp236
sg33
V3acb748d0f1e9265
p237
sg66
VZurich
p238
ssVextended_entities
p239
(dp240
g146
(lp241
(dp242
g149
Vhttp://twitter.com/studioforma_arc/status/620866320616267778/photo/1
p243
sg151
Vpic.twitter.com/MXvpin3lEP
p244
sg75
Vhttp://t.co/MXvpin3lEP
p245
sg154
Vhttps://pbs.twimg.com/media/CJ3CghiUEAAfza3.jpg
p246
sg42
V620866187660890112
p247
sg157
(dp248
g159
(dp249
g161
I1438
sg162
Vfit
p250
sg164
I915
ssg165
(dp251
g161
I534
sg162
Vfit
p252
sg164
I340
ssg168
(dp253
g161
I942
sg162
Vfit
p254
sg164
I600
ssg171
(dp255
g161
I150
sg162
Vcrop
p256
sg164
I150
sssg174
(lp257
I122
aI144
asg176
Vphoto
p258
sg33
I620866187660890112
sg178
Vhttp://pbs.twimg.com/media/CJ3CghiUEAAfza3.jpg
p259
sa(dp260
g149
Vhttp://twitter.com/studioforma_arc/status/620866320616267778/photo/1
p261
sg151
Vpic.twitter.com/MXvpin3lEP
p262
sg75
Vhttp://t.co/MXvpin3lEP
p263
sg154
Vhttps://pbs.twimg.com/media/CJ3CfVvUkAAJib6.jpg
p264
sg42
V620866167314354176
p265
sg157
(dp266
g159
(dp267
g161
I443
sg162
Vfit
p268
sg164
I789
ssg165
(dp269
g161
I190
sg162
Vfit
p270
sg164
I340
ssg168
(dp271
g161
I336
sg162
Vfit
p272
sg164
I600
ssg171
(dp273
g161
I150
sg162
Vcrop
p274
sg164
I150
sssg174
(lp275
I122
aI144
asg176
Vphoto
p276
sg33
I620866167314354176
sg178
Vhttp://pbs.twimg.com/media/CJ3CfVvUkAAJib6.jpg
p277
sa(dp278
g149
Vhttp://twitter.com/studioforma_arc/status/620866320616267778/photo/1
p279
sg151
Vpic.twitter.com/MXvpin3lEP
p280
sg75
Vhttp://t.co/MXvpin3lEP
p281
sg154
Vhttps://pbs.twimg.com/media/CJ3CoLIVAAAFf7Q.jpg
p282
sg42
V620866319085273088
p283
sg157
(dp284
g165
(dp285
g161
I480
sg162
Vfit
p286
sg164
I340
ssg159
(dp287
g161
I1448
sg162
Vfit
p288
sg164
I1024
ssg168
(dp289
g161
I848
sg162
Vfit
p290
sg164
I600
ssg171
(dp291
g161
I150
sg162
Vcrop
p292
sg164
I150
sssg174
(lp293
I122
aI144
asg176
Vphoto
p294
sg33
I620866319085273088
sg178
Vhttp://pbs.twimg.com/media/CJ3CoLIVAAAFf7Q.jpg
p295
sa(dp296
g149
Vhttp://twitter.com/studioforma_arc/status/620866320616267778/photo/1
p297
sg151
Vpic.twitter.com/MXvpin3lEP
p298
sg75
Vhttp://t.co/MXvpin3lEP
p299
sg154
Vhttps://pbs.twimg.com/media/CJ3CnSgUkAABI56.jpg
p300
sg42
V620866303885086720
p301
sg157
(dp302
g165
(dp303
g161
I480
sg162
Vfit
p304
sg164
I340
ssg159
(dp305
g161
I1448
sg162
Vfit
p306
sg164
I1024
ssg168
(dp307
g161
I848
sg162
Vfit
p308
sg164
I600
ssg171
(dp309
g161
I150
sg162
Vcrop
p310
sg164
I150
sssg174
(lp311
I122
aI144
asg176
Vphoto
p312
sg33
I620866303885086720
sg178
Vhttp://pbs.twimg.com/media/CJ3CnSgUkAABI56.jpg
p313
sasssS'coordinates'
p314
NsS'timestamp_ms'
p315
g141
sS'entities'
p316
g143
sS'in_reply_to_status_id_str'
p317
NsS'in_reply_to_screen_name'
p318
Nsg91
g204
sS'extended_entities'
p319
g240
sS'retweeted'
p320
I00
sS'place'
p321
g0
(ctweepy.models
Place
p322
g2
Ntp323
Rp324
(dp325
S'full_name'
p326
g218
sg109
g219
sS'country'
p327
g221
sS'place_type'
p328
g223
sS'bounding_box'
p329
g0
(ctweepy.models
BoundingBox
p330
g2
Ntp331
Rp332
(dp333
S'type'
p334
g226
sg314
g227
sbsS'country_code'
p335
g234
sS'attributes'
p336
g236
sg24
g237
sg103
g238
sbsS'retweet_count'
p337
I0
sg110
g111
(S'\x07\xdf\x07\x0e\x08\x04\x00\x00\x00\x00'
p338
tp339
Rp340
sS'in_reply_to_user_id'
p341
Nsb.