ccopy_reg
_reconstructor
p0
(ctweepy.models
Status
p1
c__builtin__
object
p2
Ntp3
Rp4
(dp5
S'contributors'
p6
NsS'truncated'
p7
I00
sS'text'
p8
VAsyikk yahh begini., https://t.co/90jRFkYRZF
p9
sS'in_reply_to_status_id'
p10
NsS'id'
p11
I621133834369802240
sS'favorite_count'
p12
I0
sS'entities'
p13
(dp14
Vuser_mentions
p15
(lp16
sVsymbols
p17
(lp18
sVtrends
p19
(lp20
sVhashtags
p21
(lp22
sVurls
p23
(lp24
(dp25
Vurl
p26
Vhttps://t.co/90jRFkYRZF
p27
sVindices
p28
(lp29
I21
aI44
asVexpanded_url
p30
Vhttps://twitter.com/theworldstories/status/621132936293646336
p31
sVdisplay_url
p32
Vtwitter.com/theworldstorie\u2026
p33
sassS'quoted_status_id'
p34
I621132936293646336
sS'_json'
p35
(dp36
Vcontributors
p37
NsVtruncated
p38
I00
sVtext
p39
g9
sVin_reply_to_status_id
p40
NsVid
p41
I621133834369802240
sVfavorite_count
p42
I0
sVsource
p43
V<a href="http://twitter.com/download/iphone" rel="nofollow">Twitter for iPhone</a>
p44
sVquoted_status_id
p45
I621132936293646336
sVretweeted
p46
I00
sVcoordinates
p47
NsVtimestamp_ms
p48
V1436924820879
p49
sVquoted_status
p50
(dp51
g37
Nsg38
I00
sg39
Vwishing this was you and me http://t.co/Jb6RWWaNXj
p52
sg40
Nsg41
I621132936293646336
sg42
I0
sg43
V<a href="https://about.twitter.com/products/tweetdeck" rel="nofollow">TweetDeck</a>
p53
sg46
I00
sg47
NsVentities
p54
(dp55
g17
(lp56
sVmedia
p57
(lp58
(dp59
g30
Vhttp://twitter.com/TheWorldStories/status/621132936293646336/photo/1
p60
sg32
Vpic.twitter.com/Jb6RWWaNXj
p61
sg26
Vhttp://t.co/Jb6RWWaNXj
p62
sVmedia_url_https
p63
Vhttps://pbs.twimg.com/media/CJ61GvhUMAA3P67.jpg
p64
sVid_str
p65
V621132926063751168
p66
sVsizes
p67
(dp68
Vsmall
p69
(dp70
Vh
p71
I246
sVresize
p72
Vfit
p73
sVw
p74
I340
ssVlarge
p75
(dp76
g71
I363
sg72
Vfit
p77
sg74
I500
ssVmedium
p78
(dp79
g71
I363
sg72
Vfit
p80
sg74
I500
ssVthumb
p81
(dp82
g71
I150
sg72
Vcrop
p83
sg74
I150
sssg28
(lp84
I28
aI50
asVtype
p85
Vphoto
p86
sg41
I621132926063751168
sVmedia_url
p87
Vhttp://pbs.twimg.com/media/CJ61GvhUMAA3P67.jpg
p88
sasg21
(lp89
sg15
(lp90
sg19
(lp91
sg23
(lp92
ssVin_reply_to_screen_name
p93
Nsg65
V621132936293646336
p94
sVretweet_count
p95
I0
sVin_reply_to_user_id
p96
NsVfavorited
p97
I00
sVuser
p98
(dp99
Vfollow_request_sent
p100
NsVprofile_use_background_image
p101
I01
sVdefault_profile_image
p102
I00
sg41
I284441324
sVverified
p103
I00
sVprofile_image_url_https
p104
Vhttps://pbs.twimg.com/profile_images/613713749447307269/NTJyc1Oi_normal.jpg
p105
sVprofile_sidebar_fill_color
p106
VE3E2DE
p107
sVprofile_text_color
p108
V634047
p109
sVfollowers_count
p110
I2168753
sVprofile_sidebar_border_color
p111
VD3D2CF
p112
sg65
V284441324
p113
sVprofile_background_color
p114
VEDECE9
p115
sVlisted_count
p116
I4663
sVprofile_background_image_url_https
p117
Vhttps://abs.twimg.com/images/themes/theme3/bg.gif
p118
sVutc_offset
p119
I19800
sVstatuses_count
p120
I56552
sVdescription
p121
VFor those who travel, explore and enjoy the world!\u270c\ufe0f I'm not affiliated or claim to own any of the picture!  ,for removal  & #Bus: @ABHIlSHEK ,see email below:
p122
sVfriends_count
p123
I688
sVlocation
p124
Vsupport@theworldstories.com
p125
sVprofile_link_color
p126
V088253
p127
sVprofile_image_url
p128
Vhttp://pbs.twimg.com/profile_images/613713749447307269/NTJyc1Oi_normal.jpg
p129
sVfollowing
p130
NsVgeo_enabled
p131
I00
sVprofile_banner_url
p132
Vhttps://pbs.twimg.com/profile_banners/284441324/1435156077
p133
sVprofile_background_image_url
p134
Vhttp://abs.twimg.com/images/themes/theme3/bg.gif
p135
sVname
p136
VTravel Vibes\u27b9
p137
sVlang
p138
Ven
p139
sVprofile_background_tile
p140
I00
sVfavourites_count
p141
I125
sVscreen_name
p142
VTheWorldStories
p143
sVnotifications
p144
Nsg26
NsVcreated_at
p145
VTue Apr 19 08:44:53 +0000 2011
p146
sVcontributors_enabled
p147
I00
sVtime_zone
p148
VNew Delhi
p149
sVprotected
p150
I00
sVdefault_profile
p151
I00
sVis_translator
p152
I00
ssVgeo
p153
NsVin_reply_to_user_id_str
p154
NsVpossibly_sensitive
p155
I00
sg138
Ven
p156
sg145
VWed Jul 15 01:43:26 +0000 2015
p157
sVfilter_level
p158
Vlow
p159
sVin_reply_to_status_id_str
p160
NsVplace
p161
NsVextended_entities
p162
(dp163
g57
(lp164
(dp165
g30
Vhttp://twitter.com/TheWorldStories/status/621132936293646336/photo/1
p166
sg32
Vpic.twitter.com/Jb6RWWaNXj
p167
sg26
Vhttp://t.co/Jb6RWWaNXj
p168
sg63
Vhttps://pbs.twimg.com/media/CJ61GvhUMAA3P67.jpg
p169
sg65
V621132926063751168
p170
sg67
(dp171
g69
(dp172
g71
I246
sg72
Vfit
p173
sg74
I340
ssg75
(dp174
g71
I363
sg72
Vfit
p175
sg74
I500
ssg78
(dp176
g71
I363
sg72
Vfit
p177
sg74
I500
ssg81
(dp178
g71
I150
sg72
Vcrop
p179
sg74
I150
sssg28
(lp180
I28
aI50
asg85
Vphoto
p181
sg41
I621132926063751168
sg87
Vhttp://pbs.twimg.com/media/CJ61GvhUMAA3P67.jpg
p182
sa(dp183
g30
Vhttp://twitter.com/TheWorldStories/status/621132936293646336/photo/1
p184
sg32
Vpic.twitter.com/Jb6RWWaNXj
p185
sg26
Vhttp://t.co/Jb6RWWaNXj
p186
sg63
Vhttps://pbs.twimg.com/media/CJ61GumUwAAgFWF.jpg
p187
sg65
V621132925816324096
p188
sg67
(dp189
g69
(dp190
g71
I333
sg72
Vfit
p191
sg74
I250
ssg75
(dp192
g71
I333
sg72
Vfit
p193
sg74
I250
ssg78
(dp194
g71
I333
sg72
Vfit
p195
sg74
I250
ssg81
(dp196
g71
I150
sg72
Vcrop
p197
sg74
I150
sssg28
(lp198
I28
aI50
asg85
Vphoto
p199
sg41
I621132925816324096
sg87
Vhttp://pbs.twimg.com/media/CJ61GumUwAAgFWF.jpg
p200
sa(dp201
g30
Vhttp://twitter.com/TheWorldStories/status/621132936293646336/photo/1
p202
sg32
Vpic.twitter.com/Jb6RWWaNXj
p203
sg26
Vhttp://t.co/Jb6RWWaNXj
p204
sg63
Vhttps://pbs.twimg.com/media/CJ61G9SVEAEJ-b7.jpg
p205
sg65
V621132929758990337
p206
sg67
(dp207
g75
(dp208
g71
I750
sg72
Vfit
p209
sg74
I500
ssg69
(dp210
g71
I510
sg72
Vfit
p211
sg74
I340
ssg78
(dp212
g71
I750
sg72
Vfit
p213
sg74
I500
ssg81
(dp214
g71
I150
sg72
Vcrop
p215
sg74
I150
sssg28
(lp216
I28
aI50
asg85
Vphoto
p217
sg41
I621132929758990337
sg87
Vhttp://pbs.twimg.com/media/CJ61G9SVEAEJ-b7.jpg
p218
sa(dp219
g30
Vhttp://twitter.com/TheWorldStories/status/621132936293646336/photo/1
p220
sg32
Vpic.twitter.com/Jb6RWWaNXj
p221
sg26
Vhttp://t.co/Jb6RWWaNXj
p222
sg63
Vhttps://pbs.twimg.com/media/CJ61HLSUcAAcM62.jpg
p223
sg65
V621132933517045760
p224
sg67
(dp225
g75
(dp226
g71
I711
sg72
Vfit
p227
sg74
I500
ssg69
(dp228
g71
I483
sg72
Vfit
p229
sg74
I340
ssg78
(dp230
g71
I711
sg72
Vfit
p231
sg74
I500
ssg81
(dp232
g71
I150
sg72
Vcrop
p233
sg74
I150
sssg28
(lp234
I28
aI50
asg85
Vphoto
p235
sg41
I621132933517045760
sg87
Vhttp://pbs.twimg.com/media/CJ61HLSUcAAcM62.jpg
p236
sasssg54
g14
sg93
Nsg65
V621133834369802240
p237
sg95
I0
sg96
Nsg97
I00
sg98
(dp238
g100
Nsg101
I01
sg102
I00
sg41
I2861615840
sg103
I00
sg104
Vhttps://pbs.twimg.com/profile_images/564852475593637888/r1x5RkNq_normal.jpeg
p239
sg106
VDDEEF6
p240
sg108
V333333
p241
sg110
I429
sg111
VC0DEED
p242
sg65
V2861615840
p243
sg114
VC0DEED
p244
sg116
I1
sg117
Vhttps://abs.twimg.com/images/themes/theme1/bg.png
p245
sg119
I25200
sg120
I6180
sg121
VLaki dewasa. Telat nakal. Calon #gadun. check my fav.
p246
sg123
I796
sg124
VJakarta. Borneo.
p247
sg126
V0084B4
p248
sg128
Vhttp://pbs.twimg.com/profile_images/564852475593637888/r1x5RkNq_normal.jpeg
p249
sg130
Nsg131
I01
sg132
Vhttps://pbs.twimg.com/profile_banners/2861615840/1436920404
p250
sg134
Vhttp://abs.twimg.com/images/themes/theme1/bg.png
p251
sg136
VA Lover
p252
sg138
Ven
p253
sg140
I00
sg141
I263
sg142
Vhemanperth
p254
sg144
Nsg26
Nsg145
VSat Oct 18 01:29:11 +0000 2014
p255
sg147
I00
sg148
VKrasnoyarsk
p256
sg150
I00
sg151
I01
sg152
I00
ssg153
Nsg154
Nsg155
I00
sg138
Vin
p257
sg145
VWed Jul 15 01:47:00 +0000 2015
p258
sVquoted_status_id_str
p259
V621132936293646336
p260
sg158
Vlow
p261
sg160
Nsg161
(dp262
Vfull_name
p263
VZurich, Switzerland
p264
sg26
Vhttps://api.twitter.com/1.1/geo/id/db94c1cccc67c4f4.json
p265
sVcountry
p266
VSchweiz
p267
sVplace_type
p268
Vadmin
p269
sVbounding_box
p270
(dp271
g85
VPolygon
p272
sg47
(lp273
(lp274
(lp275
F8.357749
aF47.159384
aa(lp276
F8.357749
aF47.694503
aa(lp277
F8.984445
aF47.694503
aa(lp278
F8.984445
aF47.159384
aaassVcountry_code
p279
VCH
p280
sVattributes
p281
(dp282
sg41
Vdb94c1cccc67c4f4
p283
sg136
VZurich
p284
sssS'coordinates'
p285
NsS'timestamp_ms'
p286
g49
sS'quoted_status'
p287
g51
sS'source'
p288
VTwitter for iPhone
p289
sS'in_reply_to_screen_name'
p290
NsS'id_str'
p291
g237
sS'retweet_count'
p292
I0
sS'in_reply_to_user_id'
p293
NsS'favorited'
p294
I00
sS'source_url'
p295
Vhttp://twitter.com/download/iphone
p296
sS'user'
p297
g0
(ctweepy.models
User
p298
g2
Ntp299
Rp300
(dp301
S'follow_request_sent'
p302
NsS'profile_use_background_image'
p303
I01
sS'profile_sidebar_fill_color'
p304
g240
sg11
I2861615840
sS'verified'
p305
I00
sS'profile_image_url_https'
p306
g239
sg35
g238
sS'contributors_enabled'
p307
I00
sS'profile_text_color'
p308
g241
sS'followers_count'
p309
I429
sS'profile_sidebar_border_color'
p310
g242
sS'location'
p311
g247
sS'default_profile_image'
p312
I00
sg291
g243
sS'utc_offset'
p313
I25200
sS'statuses_count'
p314
I6180
sS'description'
p315
g246
sS'friends_count'
p316
I796
sS'profile_link_color'
p317
g248
sS'profile_image_url'
p318
g249
sS'notifications'
p319
NsS'geo_enabled'
p320
I01
sS'profile_background_color'
p321
g244
sS'profile_banner_url'
p322
g250
sS'profile_background_image_url'
p323
g251
sS'name'
p324
g252
sS'lang'
p325
g253
sS'following'
p326
I00
sS'profile_background_tile'
p327
I00
sS'favourites_count'
p328
I263
sS'screen_name'
p329
g254
sS'url'
p330
NsS'created_at'
p331
cdatetime
datetime
p332
(S'\x07\xde\n\x12\x01\x1d\x0b\x00\x00\x00'
p333
tp334
Rp335
sS'profile_background_image_url_https'
p336
g245
sS'time_zone'
p337
g256
sS'protected'
p338
I00
sS'default_profile'
p339
I01
sS'is_translator'
p340
I00
sS'listed_count'
p341
I1
sbsS'geo'
p342
NsS'in_reply_to_user_id_str'
p343
NsS'possibly_sensitive'
p344
I00
sg325
g257
sg331
g332
(S'\x07\xdf\x07\x0f\x01/\x00\x00\x00\x00'
p345
tp346
Rp347
sS'author'
p348
g300
sS'quoted_status_id_str'
p349
g260
sS'filter_level'
p350
g261
sS'in_reply_to_status_id_str'
p351
NsS'place'
p352
g0
(ctweepy.models
Place
p353
g2
Ntp354
Rp355
(dp356
S'full_name'
p357
g264
sg330
g265
sS'country'
p358
g267
sS'place_type'
p359
g269
sS'bounding_box'
p360
g0
(ctweepy.models
BoundingBox
p361
g2
Ntp362
Rp363
(dp364
S'type'
p365
g272
sg285
g273
sbsS'country_code'
p366
g280
sS'attributes'
p367
g282
sg11
g283
sg324
g284
sbsS'retweeted'
p368
I00
sb.