ccopy_reg
_reconstructor
p0
(ctweepy.models
Status
p1
c__builtin__
object
p2
Ntp3
Rp4
(dp5
S'favorited'
p6
I00
sS'contributors'
p7
NsS'truncated'
p8
I00
sS'text'
p9
V#Polder Q&amp;A of the cast &amp; crew (Jul. 7, 2015) #NIFFF2015 More photos coming soon on http://t.co/2kRQS4DFl6 @nifff http://t.co/kDF8CBj3XL
p10
sS'source_url'
p11
Vhttp://twitter.com
p12
sS'possibly_sensitive'
p13
I00
sS'in_reply_to_status_id'
p14
NsS'user'
p15
g0
(ctweepy.models
User
p16
g2
Ntp17
Rp18
(dp19
S'follow_request_sent'
p20
NsS'profile_use_background_image'
p21
I01
sS'profile_sidebar_fill_color'
p22
VDDFFCC
p23
sS'id'
p24
I43875281
sS'verified'
p25
I00
sS'profile_image_url_https'
p26
Vhttps://pbs.twimg.com/profile_images/3744743326/5160b7969f2531ce20a897d8716fc8f8_normal.jpeg
p27
sS'_json'
p28
(dp29
Vfollow_request_sent
p30
NsVprofile_use_background_image
p31
I01
sVdefault_profile_image
p32
I00
sVid
p33
I43875281
sVverified
p34
I00
sVprofile_image_url_https
p35
g27
sVprofile_sidebar_fill_color
p36
g23
sVprofile_text_color
p37
V333333
p38
sVfollowers_count
p39
I594
sVprofile_sidebar_border_color
p40
VBDDCAD
p41
sVid_str
p42
V43875281
p43
sVprofile_background_color
p44
V9AE4E8
p45
sVlisted_count
p46
I22
sVprofile_background_image_url_https
p47
Vhttps://pbs.twimg.com/profile_background_images/31229838/myspaceback1280.jpg
p48
sVutc_offset
p49
I7200
sVstatuses_count
p50
I4229
sVdescription
p51
VHonest Films
p52
sVfriends_count
p53
I219
sVlocation
p54
VFrance
p55
sVprofile_link_color
p56
V2452C7
p57
sVprofile_image_url
p58
Vhttp://pbs.twimg.com/profile_images/3744743326/5160b7969f2531ce20a897d8716fc8f8_normal.jpeg
p59
sVfollowing
p60
NsVgeo_enabled
p61
I01
sVprofile_banner_url
p62
Vhttps://pbs.twimg.com/profile_banners/43875281/1408446442
p63
sVprofile_background_image_url
p64
Vhttp://pbs.twimg.com/profile_background_images/31229838/myspaceback1280.jpg
p65
sVname
p66
VFred Ambroisine
p67
sVlang
p68
Ven
p69
sVprofile_background_tile
p70
I00
sVfavourites_count
p71
I598
sVscreen_name
p72
Vfredambroisine
p73
sVnotifications
p74
NsVurl
p75
Vhttp://fredambroisine.com/
p76
sVcreated_at
p77
VMon Jun 01 12:25:50 +0000 2009
p78
sVcontributors_enabled
p79
I00
sVtime_zone
p80
VParis
p81
sVprotected
p82
I00
sVdefault_profile
p83
I00
sVis_translator
p84
I00
ssS'contributors_enabled'
p85
I00
sS'profile_text_color'
p86
g38
sS'followers_count'
p87
I594
sS'profile_sidebar_border_color'
p88
g41
sS'location'
p89
g55
sS'default_profile_image'
p90
I00
sS'id_str'
p91
g43
sS'utc_offset'
p92
I7200
sS'statuses_count'
p93
I4229
sS'description'
p94
g52
sS'friends_count'
p95
I219
sS'profile_link_color'
p96
g57
sS'profile_image_url'
p97
g59
sS'notifications'
p98
NsS'geo_enabled'
p99
I01
sS'profile_background_color'
p100
g45
sS'profile_banner_url'
p101
g63
sS'profile_background_image_url'
p102
g65
sS'name'
p103
g67
sS'lang'
p104
g69
sS'following'
p105
I00
sS'profile_background_tile'
p106
I00
sS'favourites_count'
p107
I598
sS'screen_name'
p108
g73
sS'url'
p109
g76
sS'created_at'
p110
cdatetime
datetime
p111
(S'\x07\xd9\x06\x01\x0c\x192\x00\x00\x00'
p112
tp113
Rp114
sS'profile_background_image_url_https'
p115
g48
sS'time_zone'
p116
g81
sS'protected'
p117
I00
sS'default_profile'
p118
I00
sS'is_translator'
p119
I00
sS'listed_count'
p120
I22
sbsS'filter_level'
p121
Vlow
p122
sS'geo'
p123
Nsg24
I618710470392967172
sS'favorite_count'
p124
I0
sS'source'
p125
VTwitter Web Client
p126
sg104
Ven
p127
sS'author'
p128
g18
sS'in_reply_to_user_id_str'
p129
Nsg28
(dp130
Vcontributors
p131
NsVtruncated
p132
I00
sVtext
p133
g10
sVin_reply_to_status_id
p134
Nsg33
I618710470392967172
sVfavorite_count
p135
I0
sVsource
p136
V<a href="http://twitter.com" rel="nofollow">Twitter Web Client</a>
p137
sVretweeted
p138
I00
sVcoordinates
p139
NsVtimestamp_ms
p140
V1436347045883
p141
sVentities
p142
(dp143
Vsymbols
p144
(lp145
sVmedia
p146
(lp147
(dp148
Vexpanded_url
p149
Vhttp://twitter.com/fredambroisine/status/618710470392967172/photo/1
p150
sVdisplay_url
p151
Vpic.twitter.com/kDF8CBj3XL
p152
sg75
Vhttp://t.co/kDF8CBj3XL
p153
sVmedia_url_https
p154
Vhttps://pbs.twimg.com/media/CJYZ5KCUwAA74cq.jpg
p155
sg42
V618710468547362816
p156
sVsizes
p157
(dp158
Vlarge
p159
(dp160
Vh
p161
I1536
sVresize
p162
Vfit
p163
sVw
p164
I1024
ssVsmall
p165
(dp166
g161
I510
sg162
Vfit
p167
sg164
I340
ssVmedium
p168
(dp169
g161
I900
sg162
Vfit
p170
sg164
I600
ssVthumb
p171
(dp172
g161
I150
sg162
Vcrop
p173
sg164
I150
sssVindices
p174
(lp175
I122
aI144
asVtype
p176
Vphoto
p177
sg33
I618710468547362816
sVmedia_url
p178
Vhttp://pbs.twimg.com/media/CJYZ5KCUwAA74cq.jpg
p179
sasVhashtags
p180
(lp181
(dp182
g174
(lp183
I0
aI7
asg133
VPolder
p184
sa(dp185
g174
(lp186
I54
aI64
asg133
VNIFFF2015
p187
sasVuser_mentions
p188
(lp189
(dp190
g33
I23792749
sg174
(lp191
I115
aI121
asg42
V23792749
p192
sg72
Vnifff
p193
sg66
VNIFFF
p194
sasVtrends
p195
(lp196
sVurls
p197
(lp198
(dp199
g75
Vhttp://t.co/2kRQS4DFl6
p200
sg174
(lp201
I92
aI114
asg149
Vhttp://www.nifff.ch
p202
sg151
Vnifff.ch
p203
sassVin_reply_to_screen_name
p204
Nsg42
V618710470392967172
p205
sVretweet_count
p206
I0
sVin_reply_to_user_id
p207
NsVfavorited
p208
I00
sVuser
p209
g29
sVgeo
p210
NsVin_reply_to_user_id_str
p211
NsVpossibly_sensitive
p212
I00
sg68
g127
sg77
VWed Jul 08 09:17:25 +0000 2015
p213
sVfilter_level
p214
g122
sVin_reply_to_status_id_str
p215
NsVplace
p216
(dp217
Vfull_name
p218
VZurich, Switzerland
p219
sg75
Vhttps://api.twitter.com/1.1/geo/id/3acb748d0f1e9265.json
p220
sVcountry
p221
VSchweiz
p222
sVplace_type
p223
Vcity
p224
sVbounding_box
p225
(dp226
g176
VPolygon
p227
sg139
(lp228
(lp229
(lp230
F8.448081
aF47.320183
aa(lp231
F8.448081
aF47.434721
aa(lp232
F8.625442
aF47.434721
aa(lp233
F8.625442
aF47.320183
aaassVcountry_code
p234
VCH
p235
sVattributes
p236
(dp237
sg33
V3acb748d0f1e9265
p238
sg66
VZurich
p239
ssVextended_entities
p240
(dp241
g146
(lp242
(dp243
g149
Vhttp://twitter.com/fredambroisine/status/618710470392967172/photo/1
p244
sg151
Vpic.twitter.com/kDF8CBj3XL
p245
sg75
Vhttp://t.co/kDF8CBj3XL
p246
sg154
Vhttps://pbs.twimg.com/media/CJYZ5KCUwAA74cq.jpg
p247
sg42
V618710468547362816
p248
sg157
(dp249
g159
(dp250
g161
I1536
sg162
Vfit
p251
sg164
I1024
ssg165
(dp252
g161
I510
sg162
Vfit
p253
sg164
I340
ssg168
(dp254
g161
I900
sg162
Vfit
p255
sg164
I600
ssg171
(dp256
g161
I150
sg162
Vcrop
p257
sg164
I150
sssg174
(lp258
I122
aI144
asg176
Vphoto
p259
sg33
I618710468547362816
sg178
Vhttp://pbs.twimg.com/media/CJYZ5KCUwAA74cq.jpg
p260
sasssS'coordinates'
p261
NsS'timestamp_ms'
p262
g141
sS'entities'
p263
g143
sS'in_reply_to_status_id_str'
p264
NsS'in_reply_to_screen_name'
p265
Nsg91
g205
sS'extended_entities'
p266
g241
sS'retweeted'
p267
I00
sS'place'
p268
g0
(ctweepy.models
Place
p269
g2
Ntp270
Rp271
(dp272
S'full_name'
p273
g219
sg109
g220
sS'country'
p274
g222
sS'place_type'
p275
g224
sS'bounding_box'
p276
g0
(ctweepy.models
BoundingBox
p277
g2
Ntp278
Rp279
(dp280
S'type'
p281
g227
sg261
g228
sbsS'country_code'
p282
g235
sS'attributes'
p283
g237
sg24
g238
sg103
g239
sbsS'retweet_count'
p284
I0
sg110
g111
(S'\x07\xdf\x07\x08\t\x11\x19\x00\x00\x00'
p285
tp286
Rp287
sS'in_reply_to_user_id'
p288
Nsb.