ccopy_reg
_reconstructor
p0
(ctweepy.models
Status
p1
c__builtin__
object
p2
Ntp3
Rp4
(dp5
S'favorited'
p6
I00
sS'contributors'
p7
NsS'truncated'
p8
I00
sS'text'
p9
VIf the world is serious about the health-related SDG targets, it needs to make serious investments @WHO #uhc #ihr http://t.co/fH2S1kOAnZ
p10
sS'source_url'
p11
Vhttp://twitter.com/download/iphone
p12
sS'possibly_sensitive'
p13
I00
sS'in_reply_to_status_id'
p14
NsS'user'
p15
g0
(ctweepy.models
User
p16
g2
Ntp17
Rp18
(dp19
S'follow_request_sent'
p20
NsS'profile_use_background_image'
p21
I01
sS'profile_sidebar_fill_color'
p22
VDDEEF6
p23
sS'id'
p24
I833820320
sS'verified'
p25
I00
sS'profile_image_url_https'
p26
Vhttps://pbs.twimg.com/profile_images/2627430313/blogger-profile-large-016_normal.jpeg
p27
sS'_json'
p28
(dp29
Vfollow_request_sent
p30
NsVprofile_use_background_image
p31
I01
sVdefault_profile_image
p32
I00
sVid
p33
I833820320
sVverified
p34
I00
sVprofile_image_url_https
p35
g27
sVprofile_sidebar_fill_color
p36
g23
sVprofile_text_color
p37
V333333
p38
sVfollowers_count
p39
I4771
sVprofile_sidebar_border_color
p40
VC0DEED
p41
sVid_str
p42
V833820320
p43
sVprofile_background_color
p44
VC0DEED
p45
sVlisted_count
p46
I258
sVprofile_background_image_url_https
p47
Vhttps://abs.twimg.com/images/themes/theme1/bg.png
p48
sVutc_offset
p49
I7200
sVstatuses_count
p50
I27352
sVdescription
p51
VProfessor Ilona Kickbusch PhD is known for her contributions to innovation in public health, health promotion, global health and health diplomacy.
p52
sVfriends_count
p53
I716
sVlocation
p54
VBern, Switzerland.
p55
sVprofile_link_color
p56
V0084B4
p57
sVprofile_image_url
p58
Vhttp://pbs.twimg.com/profile_images/2627430313/blogger-profile-large-016_normal.jpeg
p59
sVfollowing
p60
NsVgeo_enabled
p61
I01
sVprofile_background_image_url
p62
Vhttp://abs.twimg.com/images/themes/theme1/bg.png
p63
sVname
p64
VIlona Kickbusch
p65
sVlang
p66
Ven
p67
sVprofile_background_tile
p68
I00
sVfavourites_count
p69
I2150
sVscreen_name
p70
VIlonaKickbusch
p71
sVnotifications
p72
NsVurl
p73
Vhttp://www.ilonakickbusch.com/kickbusch/index.php
p74
sVcreated_at
p75
VWed Sep 19 17:48:05 +0000 2012
p76
sVcontributors_enabled
p77
I00
sVtime_zone
p78
VBern
p79
sVprotected
p80
I00
sVdefault_profile
p81
I01
sVis_translator
p82
I00
ssS'contributors_enabled'
p83
I00
sS'profile_text_color'
p84
g38
sS'followers_count'
p85
I4771
sS'profile_sidebar_border_color'
p86
g41
sS'location'
p87
g55
sS'default_profile_image'
p88
I00
sS'id_str'
p89
g43
sS'utc_offset'
p90
I7200
sS'statuses_count'
p91
I27352
sS'description'
p92
g52
sS'friends_count'
p93
I716
sS'profile_link_color'
p94
g57
sS'profile_image_url'
p95
g59
sS'notifications'
p96
NsS'geo_enabled'
p97
I01
sS'profile_background_color'
p98
g45
sS'profile_background_image_url'
p99
g63
sS'name'
p100
g65
sS'lang'
p101
g67
sS'following'
p102
I00
sS'profile_background_tile'
p103
I00
sS'favourites_count'
p104
I2150
sS'screen_name'
p105
g71
sS'url'
p106
g74
sS'created_at'
p107
cdatetime
datetime
p108
(S'\x07\xdc\t\x13\x110\x05\x00\x00\x00'
p109
tp110
Rp111
sS'profile_background_image_url_https'
p112
g48
sS'time_zone'
p113
g79
sS'protected'
p114
I00
sS'default_profile'
p115
I01
sS'is_translator'
p116
I00
sS'listed_count'
p117
I258
sbsS'filter_level'
p118
Vlow
p119
sS'geo'
p120
Nsg24
I619433665362325504
sS'favorite_count'
p121
I0
sS'source'
p122
VTwitter for iPhone
p123
sg101
Ven
p124
sS'author'
p125
g18
sS'in_reply_to_user_id_str'
p126
Nsg28
(dp127
Vcontributors
p128
NsVtruncated
p129
I00
sVtext
p130
g10
sVin_reply_to_status_id
p131
Nsg33
I619433665362325504
sVfavorite_count
p132
I0
sVsource
p133
V<a href="http://twitter.com/download/iphone" rel="nofollow">Twitter for iPhone</a>
p134
sVretweeted
p135
I00
sVcoordinates
p136
NsVtimestamp_ms
p137
V1436519469000
p138
sVentities
p139
(dp140
Vuser_mentions
p141
(lp142
(dp143
g33
I14499829
sVindices
p144
(lp145
I99
aI103
asg42
V14499829
p146
sg70
VWHO
p147
sg64
VWHO
p148
sasVsymbols
p149
(lp150
sVtrends
p151
(lp152
sVhashtags
p153
(lp154
(dp155
g144
(lp156
I104
aI108
asg130
Vuhc
p157
sa(dp158
g144
(lp159
I109
aI113
asg130
Vihr
p160
sasVurls
p161
(lp162
(dp163
g73
Vhttp://t.co/fH2S1kOAnZ
p164
sg144
(lp165
I114
aI136
asVexpanded_url
p166
Vhttp://www.who.int/mediacentre/news/releases/2015/health-financing/en/#.VZ-IZepeNvA.twitter
p167
sVdisplay_url
p168
Vwho.int/mediacentre/ne\u2026
p169
sassVin_reply_to_screen_name
p170
Nsg42
V619433665362325504
p171
sVretweet_count
p172
I0
sVin_reply_to_user_id
p173
NsVfavorited
p174
I00
sVuser
p175
g29
sVgeo
p176
NsVin_reply_to_user_id_str
p177
NsVpossibly_sensitive
p178
I00
sg66
g124
sg75
VFri Jul 10 09:11:09 +0000 2015
p179
sVfilter_level
p180
g119
sVin_reply_to_status_id_str
p181
NsVplace
p182
(dp183
Vfull_name
p184
VZurich, Switzerland
p185
sg73
Vhttps://api.twitter.com/1.1/geo/id/3acb748d0f1e9265.json
p186
sVcountry
p187
VSchweiz
p188
sVplace_type
p189
Vcity
p190
sVbounding_box
p191
(dp192
Vtype
p193
VPolygon
p194
sg136
(lp195
(lp196
(lp197
F8.448081
aF47.320183
aa(lp198
F8.448081
aF47.434721
aa(lp199
F8.625442
aF47.434721
aa(lp200
F8.625442
aF47.320183
aaassVcountry_code
p201
VCH
p202
sVattributes
p203
(dp204
sg33
V3acb748d0f1e9265
p205
sg64
VZurich
p206
sssS'coordinates'
p207
NsS'timestamp_ms'
p208
g138
sS'entities'
p209
g140
sS'in_reply_to_status_id_str'
p210
NsS'in_reply_to_screen_name'
p211
Nsg89
g171
sS'retweeted'
p212
I00
sS'place'
p213
g0
(ctweepy.models
Place
p214
g2
Ntp215
Rp216
(dp217
S'full_name'
p218
g185
sg106
g186
sS'country'
p219
g188
sS'place_type'
p220
g190
sS'bounding_box'
p221
g0
(ctweepy.models
BoundingBox
p222
g2
Ntp223
Rp224
(dp225
S'type'
p226
g194
sg207
g195
sbsS'country_code'
p227
g202
sS'attributes'
p228
g204
sg24
g205
sg100
g206
sbsS'retweet_count'
p229
I0
sg107
g108
(S'\x07\xdf\x07\n\t\x0b\t\x00\x00\x00'
p230
tp231
Rp232
sS'in_reply_to_user_id'
p233
Nsb.