ccopy_reg
_reconstructor
p0
(ctweepy.models
Status
p1
c__builtin__
object
p2
Ntp3
Rp4
(dp5
S'favorited'
p6
I00
sS'contributors'
p7
NsS'truncated'
p8
I00
sS'text'
p9
VSixty and Me offers a series of videos for \u000aolder women-beauty, fashion gentle and chair yoga https://t.co/7uec7jpBvu http://t.co/WAVC9YjXNW
p10
sS'source_url'
p11
Vhttp://twitter.com
p12
sS'possibly_sensitive'
p13
I00
sS'in_reply_to_status_id'
p14
NsS'user'
p15
g0
(ctweepy.models
User
p16
g2
Ntp17
Rp18
(dp19
S'follow_request_sent'
p20
NsS'profile_use_background_image'
p21
I01
sS'profile_sidebar_fill_color'
p22
VF3F3F3
p23
sS'id'
p24
I955350608
sS'verified'
p25
I00
sS'profile_image_url_https'
p26
Vhttps://pbs.twimg.com/profile_images/564447504066818048/t1W1zL6G_normal.png
p27
sS'_json'
p28
(dp29
Vfollow_request_sent
p30
NsVprofile_use_background_image
p31
I01
sVdefault_profile_image
p32
I00
sVid
p33
I955350608
sVverified
p34
I00
sVprofile_image_url_https
p35
g27
sVprofile_sidebar_fill_color
p36
g23
sVprofile_text_color
p37
V333333
p38
sVfollowers_count
p39
I3611
sVprofile_sidebar_border_color
p40
VDFDFDF
p41
sVid_str
p42
V955350608
p43
sVprofile_background_color
p44
VEBEBEB
p45
sVlisted_count
p46
I112
sVprofile_background_image_url_https
p47
Vhttps://abs.twimg.com/images/themes/theme7/bg.gif
p48
sVutc_offset
p49
NsVstatuses_count
p50
I12127
sVdescription
p51
VSixty and Me is a global community of 100,000 women over 60. Helping boomer women to live healthy, independent and financially secure lives. By Margaret Manning
p52
sVfriends_count
p53
I1779
sVlocation
p54
VSwitzerland 
p55
sVprofile_link_color
p56
V990000
p57
sVprofile_image_url
p58
Vhttp://pbs.twimg.com/profile_images/564447504066818048/t1W1zL6G_normal.png
p59
sVfollowing
p60
NsVgeo_enabled
p61
I01
sVprofile_banner_url
p62
Vhttps://pbs.twimg.com/profile_banners/955350608/1423417866
p63
sVprofile_background_image_url
p64
Vhttp://abs.twimg.com/images/themes/theme7/bg.gif
p65
sVname
p66
VSixty and Me 
p67
sVlang
p68
Ven
p69
sVprofile_background_tile
p70
I00
sVfavourites_count
p71
I253
sVscreen_name
p72
Vsixtyandme
p73
sVnotifications
p74
NsVurl
p75
Vhttp://sixtyandme.com
p76
sVcreated_at
p77
VSun Nov 18 11:54:24 +0000 2012
p78
sVcontributors_enabled
p79
I00
sVtime_zone
p80
NsVprotected
p81
I00
sVdefault_profile
p82
I00
sVis_translator
p83
I00
ssS'contributors_enabled'
p84
I00
sS'profile_text_color'
p85
g38
sS'followers_count'
p86
I3611
sS'profile_sidebar_border_color'
p87
g41
sS'location'
p88
g55
sS'default_profile_image'
p89
I00
sS'id_str'
p90
g43
sS'utc_offset'
p91
NsS'statuses_count'
p92
I12127
sS'description'
p93
g52
sS'friends_count'
p94
I1779
sS'profile_link_color'
p95
g57
sS'profile_image_url'
p96
g59
sS'notifications'
p97
NsS'geo_enabled'
p98
I01
sS'profile_background_color'
p99
g45
sS'profile_banner_url'
p100
g63
sS'profile_background_image_url'
p101
g65
sS'name'
p102
g67
sS'lang'
p103
g69
sS'following'
p104
I00
sS'profile_background_tile'
p105
I00
sS'favourites_count'
p106
I253
sS'screen_name'
p107
g73
sS'url'
p108
g76
sS'created_at'
p109
cdatetime
datetime
p110
(S'\x07\xdc\x0b\x12\x0b6\x18\x00\x00\x00'
p111
tp112
Rp113
sS'profile_background_image_url_https'
p114
g48
sS'time_zone'
p115
NsS'protected'
p116
I00
sS'default_profile'
p117
I00
sS'is_translator'
p118
I00
sS'listed_count'
p119
I112
sbsS'filter_level'
p120
Vlow
p121
sS'geo'
p122
Nsg24
I620516618242793472
sS'favorite_count'
p123
I0
sS'source'
p124
VTwitter Web Client
p125
sg103
Ven
p126
sS'author'
p127
g18
sS'in_reply_to_user_id_str'
p128
Nsg28
(dp129
Vcontributors
p130
NsVtruncated
p131
I00
sVtext
p132
VSixty and Me offers a series of videos for \u000aolder women-beauty, fashion gentle and chair yoga https://t.co/7uec7jpBvu http://t.co/WAVC9YjXNW
p133
sVin_reply_to_status_id
p134
Nsg33
I620516618242793472
sVfavorite_count
p135
I0
sVsource
p136
V<a href="http://twitter.com" rel="nofollow">Twitter Web Client</a>
p137
sVretweeted
p138
I00
sVcoordinates
p139
NsVtimestamp_ms
p140
V1436777665087
p141
sVentities
p142
(dp143
Vsymbols
p144
(lp145
sVmedia
p146
(lp147
(dp148
Vexpanded_url
p149
Vhttp://twitter.com/sixtyandme/status/620516618242793472/photo/1
p150
sVdisplay_url
p151
Vpic.twitter.com/WAVC9YjXNW
p152
sg75
Vhttp://t.co/WAVC9YjXNW
p153
sVmedia_url_https
p154
Vhttps://pbs.twimg.com/media/CJyEkxEXAAA64zc.jpg
p155
sg42
V620516615852064768
p156
sVsizes
p157
(dp158
Vsmall
p159
(dp160
Vh
p161
I533
sVresize
p162
Vfit
p163
sVw
p164
I340
ssVlarge
p165
(dp166
g161
I631
sg162
Vfit
p167
sg164
I402
ssVmedium
p168
(dp169
g161
I631
sg162
Vfit
p170
sg164
I402
ssVthumb
p171
(dp172
g161
I150
sg162
Vcrop
p173
sg164
I150
sssVindices
p174
(lp175
I118
aI140
asVtype
p176
Vphoto
p177
sg33
I620516615852064768
sVmedia_url
p178
Vhttp://pbs.twimg.com/media/CJyEkxEXAAA64zc.jpg
p179
sasVhashtags
p180
(lp181
sVuser_mentions
p182
(lp183
sVtrends
p184
(lp185
sVurls
p186
(lp187
(dp188
g75
Vhttps://t.co/7uec7jpBvu
p189
sg174
(lp190
I94
aI117
asg149
Vhttps://iu161.infusionsoft.com/app/storeFront/showCategoryPage?categoryId=16
p191
sg151
Viu161.infusionsoft.com/app/storeFront\u2026
p192
sassVin_reply_to_screen_name
p193
Nsg42
V620516618242793472
p194
sVretweet_count
p195
I0
sVin_reply_to_user_id
p196
NsVfavorited
p197
I00
sVuser
p198
g29
sVgeo
p199
NsVin_reply_to_user_id_str
p200
NsVpossibly_sensitive
p201
I00
sg68
g126
sg77
VMon Jul 13 08:54:25 +0000 2015
p202
sVfilter_level
p203
g121
sVin_reply_to_status_id_str
p204
NsVplace
p205
(dp206
Vfull_name
p207
VZurich, Switzerland
p208
sg75
Vhttps://api.twitter.com/1.1/geo/id/3acb748d0f1e9265.json
p209
sVcountry
p210
VSchweiz
p211
sVplace_type
p212
Vcity
p213
sVbounding_box
p214
(dp215
g176
VPolygon
p216
sg139
(lp217
(lp218
(lp219
F8.448081
aF47.320183
aa(lp220
F8.448081
aF47.434721
aa(lp221
F8.625442
aF47.434721
aa(lp222
F8.625442
aF47.320183
aaassVcountry_code
p223
VCH
p224
sVattributes
p225
(dp226
sg33
V3acb748d0f1e9265
p227
sg66
VZurich
p228
ssVextended_entities
p229
(dp230
g146
(lp231
(dp232
g149
Vhttp://twitter.com/sixtyandme/status/620516618242793472/photo/1
p233
sg151
Vpic.twitter.com/WAVC9YjXNW
p234
sg75
Vhttp://t.co/WAVC9YjXNW
p235
sg154
Vhttps://pbs.twimg.com/media/CJyEkxEXAAA64zc.jpg
p236
sg42
V620516615852064768
p237
sg157
(dp238
g159
(dp239
g161
I533
sg162
Vfit
p240
sg164
I340
ssg165
(dp241
g161
I631
sg162
Vfit
p242
sg164
I402
ssg168
(dp243
g161
I631
sg162
Vfit
p244
sg164
I402
ssg171
(dp245
g161
I150
sg162
Vcrop
p246
sg164
I150
sssg174
(lp247
I118
aI140
asg176
Vphoto
p248
sg33
I620516615852064768
sg178
Vhttp://pbs.twimg.com/media/CJyEkxEXAAA64zc.jpg
p249
sasssS'coordinates'
p250
NsS'timestamp_ms'
p251
g141
sS'entities'
p252
g143
sS'in_reply_to_status_id_str'
p253
NsS'in_reply_to_screen_name'
p254
Nsg90
g194
sS'extended_entities'
p255
g230
sS'retweeted'
p256
I00
sS'place'
p257
g0
(ctweepy.models
Place
p258
g2
Ntp259
Rp260
(dp261
S'full_name'
p262
g208
sg108
g209
sS'country'
p263
g211
sS'place_type'
p264
g213
sS'bounding_box'
p265
g0
(ctweepy.models
BoundingBox
p266
g2
Ntp267
Rp268
(dp269
S'type'
p270
g216
sg250
g217
sbsS'country_code'
p271
g224
sS'attributes'
p272
g226
sg24
g227
sg102
g228
sbsS'retweet_count'
p273
I0
sg109
g110
(S'\x07\xdf\x07\r\x086\x19\x00\x00\x00'
p274
tp275
Rp276
sS'in_reply_to_user_id'
p277
Nsb.