ccopy_reg
_reconstructor
p0
(ctweepy.models
Status
p1
c__builtin__
object
p2
Ntp3
Rp4
(dp5
S'contributors'
p6
NsS'truncated'
p7
I00
sS'text'
p8
VJack is still wearing that hat you know.  https://t.co/mnEdjFF8mF
p9
sS'in_reply_to_status_id'
p10
NsS'id'
p11
I620298569216589824
sS'favorite_count'
p12
I0
sS'entities'
p13
(dp14
Vuser_mentions
p15
(lp16
sVsymbols
p17
(lp18
sVtrends
p19
(lp20
sVhashtags
p21
(lp22
sVurls
p23
(lp24
(dp25
Vurl
p26
Vhttps://t.co/mnEdjFF8mF
p27
sVindices
p28
(lp29
I42
aI65
asVexpanded_url
p30
Vhttps://twitter.com/jackwilshere/status/620297912656994304
p31
sVdisplay_url
p32
Vtwitter.com/jackwilshere/s\u2026
p33
sassS'quoted_status_id'
p34
I620297912656994304
sS'_json'
p35
(dp36
Vcontributors
p37
NsVtruncated
p38
I00
sVtext
p39
g9
sVin_reply_to_status_id
p40
NsVid
p41
I620298569216589824
sVfavorite_count
p42
I0
sVsource
p43
V<a href="http://twitter.com/download/iphone" rel="nofollow">Twitter for iPhone</a>
p44
sVquoted_status_id
p45
I620297912656994304
sVretweeted
p46
I00
sVcoordinates
p47
NsVtimestamp_ms
p48
V1436725678148
p49
sVquoted_status
p50
(dp51
g37
Nsg38
I00
sg39
VSee you soon Singapore.....you ready for us!? \U0001f61d\U0001f61d\u26bd\ufe0f\u26bd\ufe0f http://t.co/dXzxFgs5qz
p52
sg40
Nsg41
I620297912656994304
sg42
I0
sg43
V<a href="http://ifttt.com" rel="nofollow">IFTTT</a>
p53
sg46
I00
sg47
NsVentities
p54
(dp55
g17
(lp56
sVmedia
p57
(lp58
(dp59
g30
Vhttp://twitter.com/JackWilshere/status/620297912656994304/photo/1
p60
sg32
Vpic.twitter.com/dXzxFgs5qz
p61
sg26
Vhttp://t.co/dXzxFgs5qz
p62
sVmedia_url_https
p63
Vhttps://pbs.twimg.com/media/CJu9qj3WcAAZ7nq.jpg
p64
sVid_str
p65
V620297912573128704
p66
sVsizes
p67
(dp68
Vsmall
p69
(dp70
Vh
p71
I340
sVresize
p72
Vfit
p73
sVw
p74
I340
ssVlarge
p75
(dp76
g71
I640
sg72
Vfit
p77
sg74
I640
ssVmedium
p78
(dp79
g71
I600
sg72
Vfit
p80
sg74
I600
ssVthumb
p81
(dp82
g71
I150
sg72
Vcrop
p83
sg74
I150
sssg28
(lp84
I53
aI75
asVtype
p85
Vphoto
p86
sg41
I620297912573128704
sVmedia_url
p87
Vhttp://pbs.twimg.com/media/CJu9qj3WcAAZ7nq.jpg
p88
sasg21
(lp89
sg15
(lp90
sg19
(lp91
sg23
(lp92
ssVin_reply_to_screen_name
p93
Nsg65
V620297912656994304
p94
sVretweet_count
p95
I0
sVin_reply_to_user_id
p96
NsVfavorited
p97
I00
sVuser
p98
(dp99
Vfollow_request_sent
p100
NsVprofile_use_background_image
p101
I01
sVdefault_profile_image
p102
I00
sg41
I745002644
sVverified
p103
I01
sVprofile_image_url_https
p104
Vhttps://pbs.twimg.com/profile_images/580745436291559424/JHte2K_Q_normal.jpg
p105
sVprofile_sidebar_fill_color
p106
VDDEEF6
p107
sVprofile_text_color
p108
V333333
p109
sVfollowers_count
p110
I1865486
sVprofile_sidebar_border_color
p111
VFFFFFF
p112
sg65
V745002644
p113
sVprofile_background_color
p114
V3D4254
p115
sVlisted_count
p116
I5249
sVprofile_background_image_url_https
p117
Vhttps://pbs.twimg.com/profile_background_images/378800000019492600/e355c1739a225833762b4c9de9181195.jpeg
p118
sVutc_offset
p119
I3600
sVstatuses_count
p120
I1081
sVdescription
p121
VProfessional footballer for @Arsenal and @England. @NikeUK athlete. Proud father to son Archie and daughter Delilah. Instagram: JackWilshere
p122
sVfriends_count
p123
I300
sVlocation
p124
V
p125
sVprofile_link_color
p126
VE11F22
p127
sVprofile_image_url
p128
Vhttp://pbs.twimg.com/profile_images/580745436291559424/JHte2K_Q_normal.jpg
p129
sVfollowing
p130
NsVgeo_enabled
p131
I00
sVprofile_banner_url
p132
Vhttps://pbs.twimg.com/profile_banners/745002644/1427985788
p133
sVprofile_background_image_url
p134
Vhttp://pbs.twimg.com/profile_background_images/378800000019492600/e355c1739a225833762b4c9de9181195.jpeg
p135
sVname
p136
VJack Wilshere
p137
sVlang
p138
Ven
p139
sVprofile_background_tile
p140
I00
sVfavourites_count
p141
I32
sVscreen_name
p142
VJackWilshere
p143
sVnotifications
p144
Nsg26
Vhttps://www.facebook.com/jackwilshere
p145
sVcreated_at
p146
VWed Aug 08 11:19:37 +0000 2012
p147
sVcontributors_enabled
p148
I00
sVtime_zone
p149
VLondon
p150
sVprotected
p151
I00
sVdefault_profile
p152
I00
sVis_translator
p153
I00
ssVgeo
p154
NsVin_reply_to_user_id_str
p155
NsVpossibly_sensitive
p156
I00
sg138
Ven
p157
sg146
VSun Jul 12 18:25:21 +0000 2015
p158
sVfilter_level
p159
Vlow
p160
sVin_reply_to_status_id_str
p161
NsVplace
p162
NsVextended_entities
p163
(dp164
g57
(lp165
(dp166
g30
Vhttp://twitter.com/JackWilshere/status/620297912656994304/photo/1
p167
sg32
Vpic.twitter.com/dXzxFgs5qz
p168
sg26
Vhttp://t.co/dXzxFgs5qz
p169
sg63
Vhttps://pbs.twimg.com/media/CJu9qj3WcAAZ7nq.jpg
p170
sg65
V620297912573128704
p171
sg67
(dp172
g69
(dp173
g71
I340
sg72
Vfit
p174
sg74
I340
ssg75
(dp175
g71
I640
sg72
Vfit
p176
sg74
I640
ssg78
(dp177
g71
I600
sg72
Vfit
p178
sg74
I600
ssg81
(dp179
g71
I150
sg72
Vcrop
p180
sg74
I150
sssg28
(lp181
I53
aI75
asg85
Vphoto
p182
sg41
I620297912573128704
sg87
Vhttp://pbs.twimg.com/media/CJu9qj3WcAAZ7nq.jpg
p183
sasssg54
g14
sg93
Nsg65
V620298569216589824
p184
sg95
I0
sg96
Nsg97
I00
sg98
(dp185
g100
Nsg101
I01
sg102
I00
sg41
I64705133
sg103
I00
sg104
Vhttps://pbs.twimg.com/profile_images/617627144294924288/ZPqm4FdA_normal.jpg
p186
sg106
VDDEEF6
p187
sg108
V333333
p188
sg110
I322
sg111
VFFFFFF
p189
sg65
V64705133
p190
sg114
VC0DEED
p191
sg116
I6
sg117
Vhttps://pbs.twimg.com/profile_background_images/504228120535130112/sTxzGJV3.jpeg
p192
sg119
Nsg120
I20622
sg121
VLondon & Zurich \u2708 Mgmt Consultant - Gooner - Views are my own. Out to offend.
p193
sg123
I603
sg124
VLondon
p194
sg126
V9266CC
p195
sg128
Vhttp://pbs.twimg.com/profile_images/617627144294924288/ZPqm4FdA_normal.jpg
p196
sg130
Nsg131
I01
sg132
Vhttps://pbs.twimg.com/profile_banners/64705133/1435566088
p197
sg134
Vhttp://pbs.twimg.com/profile_background_images/504228120535130112/sTxzGJV3.jpeg
p198
sg136
VKoni 
p199
sg138
Ven
p200
sg140
I01
sg141
I3263
sg142
Vknlsoni
p201
sg144
Nsg26
Nsg146
VTue Aug 11 12:55:44 +0000 2009
p202
sg148
I00
sg149
Nsg151
I00
sg152
I00
sg153
I00
ssg154
Nsg155
Nsg156
I00
sg138
Ven
p203
sg146
VSun Jul 12 18:27:58 +0000 2015
p204
sVquoted_status_id_str
p205
V620297912656994304
p206
sg159
Vlow
p207
sg161
Nsg162
(dp208
Vfull_name
p209
VZurich, Switzerland
p210
sg26
Vhttps://api.twitter.com/1.1/geo/id/3acb748d0f1e9265.json
p211
sVcountry
p212
VSchweiz
p213
sVplace_type
p214
Vcity
p215
sVbounding_box
p216
(dp217
g85
VPolygon
p218
sg47
(lp219
(lp220
(lp221
F8.448081
aF47.320183
aa(lp222
F8.448081
aF47.434721
aa(lp223
F8.625442
aF47.434721
aa(lp224
F8.625442
aF47.320183
aaassVcountry_code
p225
VCH
p226
sVattributes
p227
(dp228
sg41
V3acb748d0f1e9265
p229
sg136
VZurich
p230
sssS'coordinates'
p231
NsS'timestamp_ms'
p232
g49
sS'quoted_status'
p233
g51
sS'source'
p234
VTwitter for iPhone
p235
sS'in_reply_to_screen_name'
p236
NsS'id_str'
p237
g184
sS'retweet_count'
p238
I0
sS'in_reply_to_user_id'
p239
NsS'favorited'
p240
I00
sS'source_url'
p241
Vhttp://twitter.com/download/iphone
p242
sS'user'
p243
g0
(ctweepy.models
User
p244
g2
Ntp245
Rp246
(dp247
S'follow_request_sent'
p248
NsS'profile_use_background_image'
p249
I01
sS'profile_sidebar_fill_color'
p250
g187
sg11
I64705133
sS'verified'
p251
I00
sS'profile_image_url_https'
p252
g186
sg35
g185
sS'contributors_enabled'
p253
I00
sS'profile_text_color'
p254
g188
sS'followers_count'
p255
I322
sS'profile_sidebar_border_color'
p256
g189
sS'location'
p257
g194
sS'default_profile_image'
p258
I00
sg237
g190
sS'utc_offset'
p259
NsS'statuses_count'
p260
I20622
sS'description'
p261
g193
sS'friends_count'
p262
I603
sS'profile_link_color'
p263
g195
sS'profile_image_url'
p264
g196
sS'notifications'
p265
NsS'geo_enabled'
p266
I01
sS'profile_background_color'
p267
g191
sS'profile_banner_url'
p268
g197
sS'profile_background_image_url'
p269
g198
sS'name'
p270
g199
sS'lang'
p271
g200
sS'following'
p272
I00
sS'profile_background_tile'
p273
I01
sS'favourites_count'
p274
I3263
sS'screen_name'
p275
g201
sS'url'
p276
NsS'created_at'
p277
cdatetime
datetime
p278
(S'\x07\xd9\x08\x0b\x0c7,\x00\x00\x00'
p279
tp280
Rp281
sS'profile_background_image_url_https'
p282
g192
sS'time_zone'
p283
NsS'protected'
p284
I00
sS'default_profile'
p285
I00
sS'is_translator'
p286
I00
sS'listed_count'
p287
I6
sbsS'geo'
p288
NsS'in_reply_to_user_id_str'
p289
NsS'possibly_sensitive'
p290
I00
sg271
g203
sg277
g278
(S'\x07\xdf\x07\x0c\x12\x1b:\x00\x00\x00'
p291
tp292
Rp293
sS'author'
p294
g246
sS'quoted_status_id_str'
p295
g206
sS'filter_level'
p296
g207
sS'in_reply_to_status_id_str'
p297
NsS'place'
p298
g0
(ctweepy.models
Place
p299
g2
Ntp300
Rp301
(dp302
S'full_name'
p303
g210
sg276
g211
sS'country'
p304
g213
sS'place_type'
p305
g215
sS'bounding_box'
p306
g0
(ctweepy.models
BoundingBox
p307
g2
Ntp308
Rp309
(dp310
S'type'
p311
g218
sg231
g219
sbsS'country_code'
p312
g226
sS'attributes'
p313
g228
sg11
g229
sg270
g230
sbsS'retweeted'
p314
I00
sb.