ccopy_reg
_reconstructor
p0
(ctweepy.models
Status
p1
c__builtin__
object
p2
Ntp3
Rp4
(dp5
S'favorited'
p6
I00
sS'contributors'
p7
NsS'truncated'
p8
I00
sS'text'
p9
V#pharma joins #wearable craze- #novartis leverages #applewatch tech to build an #app for #visuallyimpaired http://t.co/hr6FviIukW
p10
sS'source_url'
p11
Vhttp://twitter.com
p12
sS'possibly_sensitive'
p13
I00
sS'in_reply_to_status_id'
p14
NsS'user'
p15
g0
(ctweepy.models
User
p16
g2
Ntp17
Rp18
(dp19
S'follow_request_sent'
p20
NsS'profile_use_background_image'
p21
I00
sS'profile_sidebar_fill_color'
p22
V000000
p23
sS'id'
p24
I27445900
sS'verified'
p25
I00
sS'profile_image_url_https'
p26
Vhttps://pbs.twimg.com/profile_images/511850580839374849/kjYTMlZk_normal.jpeg
p27
sS'_json'
p28
(dp29
Vfollow_request_sent
p30
NsVprofile_use_background_image
p31
I00
sVdefault_profile_image
p32
I00
sVid
p33
I27445900
sVverified
p34
I00
sVprofile_image_url_https
p35
g27
sVprofile_sidebar_fill_color
p36
g23
sVprofile_text_color
p37
V000000
p38
sVfollowers_count
p39
I126
sVprofile_sidebar_border_color
p40
V000000
p41
sVid_str
p42
V27445900
p43
sVprofile_background_color
p44
V000000
p45
sVlisted_count
p46
I14
sVprofile_background_image_url_https
p47
Vhttps://abs.twimg.com/images/themes/theme7/bg.gif
p48
sVutc_offset
p49
I-14400
sVstatuses_count
p50
I78
sVdescription
p51
VTech & data geek and travel junkie trying to change the healthcare world
p52
sVfriends_count
p53
I372
sVlocation
p54
VZurich, Switzerland
p55
sVprofile_link_color
p56
V94D487
p57
sVprofile_image_url
p58
Vhttp://pbs.twimg.com/profile_images/511850580839374849/kjYTMlZk_normal.jpeg
p59
sVfollowing
p60
NsVgeo_enabled
p61
I01
sVprofile_banner_url
p62
Vhttps://pbs.twimg.com/profile_banners/27445900/1410869507
p63
sVprofile_background_image_url
p64
Vhttp://abs.twimg.com/images/themes/theme7/bg.gif
p65
sVname
p66
VDanielle Ralic
p67
sVlang
p68
Ven
p69
sVprofile_background_tile
p70
I00
sVfavourites_count
p71
I115
sVscreen_name
p72
Vdanielleralic
p73
sVnotifications
p74
NsVurl
p75
NsVcreated_at
p76
VSun Mar 29 15:48:35 +0000 2009
p77
sVcontributors_enabled
p78
I00
sVtime_zone
p79
VEastern Time (US & Canada)
p80
sVprotected
p81
I00
sVdefault_profile
p82
I00
sVis_translator
p83
I00
ssS'contributors_enabled'
p84
I00
sS'profile_text_color'
p85
g38
sS'followers_count'
p86
I126
sS'profile_sidebar_border_color'
p87
g41
sS'location'
p88
g55
sS'default_profile_image'
p89
I00
sS'id_str'
p90
g43
sS'utc_offset'
p91
I-14400
sS'statuses_count'
p92
I78
sS'description'
p93
g52
sS'friends_count'
p94
I372
sS'profile_link_color'
p95
g57
sS'profile_image_url'
p96
g59
sS'notifications'
p97
NsS'geo_enabled'
p98
I01
sS'profile_background_color'
p99
g45
sS'profile_banner_url'
p100
g63
sS'profile_background_image_url'
p101
g65
sS'name'
p102
g67
sS'lang'
p103
g69
sS'following'
p104
I00
sS'profile_background_tile'
p105
I00
sS'favourites_count'
p106
I115
sS'screen_name'
p107
g73
sS'url'
p108
NsS'created_at'
p109
cdatetime
datetime
p110
(S'\x07\xd9\x03\x1d\x0f0#\x00\x00\x00'
p111
tp112
Rp113
sS'profile_background_image_url_https'
p114
g48
sS'time_zone'
p115
g80
sS'protected'
p116
I00
sS'default_profile'
p117
I00
sS'is_translator'
p118
I00
sS'listed_count'
p119
I14
sbsS'filter_level'
p120
Vlow
p121
sS'geo'
p122
Nsg24
I619516112300937217
sS'favorite_count'
p123
I0
sS'source'
p124
VTwitter Web Client
p125
sg103
Ven
p126
sS'author'
p127
g18
sS'in_reply_to_user_id_str'
p128
Nsg28
(dp129
Vcontributors
p130
NsVtruncated
p131
I00
sVtext
p132
g10
sVin_reply_to_status_id
p133
Nsg33
I619516112300937217
sVfavorite_count
p134
I0
sVsource
p135
V<a href="http://twitter.com" rel="nofollow">Twitter Web Client</a>
p136
sVretweeted
p137
I00
sVcoordinates
p138
NsVtimestamp_ms
p139
V1436539125882
p140
sVentities
p141
(dp142
Vuser_mentions
p143
(lp144
sVsymbols
p145
(lp146
sVtrends
p147
(lp148
sVhashtags
p149
(lp150
(dp151
Vindices
p152
(lp153
I0
aI7
asg132
Vpharma
p154
sa(dp155
g152
(lp156
I14
aI23
asg132
Vwearable
p157
sa(dp158
g152
(lp159
I31
aI40
asg132
Vnovartis
p160
sa(dp161
g152
(lp162
I51
aI62
asg132
Vapplewatch
p163
sa(dp164
g152
(lp165
I80
aI84
asg132
Vapp
p166
sa(dp167
g152
(lp168
I89
aI106
asg132
Vvisuallyimpaired
p169
sasVurls
p170
(lp171
(dp172
g75
Vhttp://t.co/hr6FviIukW
p173
sg152
(lp174
I107
aI129
asVexpanded_url
p175
Vhttp://bit.ly/1LWbLjv
p176
sVdisplay_url
p177
Vbit.ly/1LWbLjv
p178
sassVin_reply_to_screen_name
p179
Nsg42
V619516112300937217
p180
sVretweet_count
p181
I0
sVin_reply_to_user_id
p182
NsVfavorited
p183
I00
sVuser
p184
g29
sVgeo
p185
NsVin_reply_to_user_id_str
p186
NsVpossibly_sensitive
p187
I00
sg68
g126
sg76
VFri Jul 10 14:38:45 +0000 2015
p188
sVfilter_level
p189
g121
sVin_reply_to_status_id_str
p190
NsVplace
p191
(dp192
Vfull_name
p193
VZurich, Switzerland
p194
sg75
Vhttps://api.twitter.com/1.1/geo/id/3acb748d0f1e9265.json
p195
sVcountry
p196
VSchweiz
p197
sVplace_type
p198
Vcity
p199
sVbounding_box
p200
(dp201
Vtype
p202
VPolygon
p203
sg138
(lp204
(lp205
(lp206
F8.448081
aF47.320183
aa(lp207
F8.448081
aF47.434721
aa(lp208
F8.625442
aF47.434721
aa(lp209
F8.625442
aF47.320183
aaassVcountry_code
p210
VCH
p211
sVattributes
p212
(dp213
sg33
V3acb748d0f1e9265
p214
sg66
VZurich
p215
sssS'coordinates'
p216
NsS'timestamp_ms'
p217
g140
sS'entities'
p218
g142
sS'in_reply_to_status_id_str'
p219
NsS'in_reply_to_screen_name'
p220
Nsg90
g180
sS'retweeted'
p221
I00
sS'place'
p222
g0
(ctweepy.models
Place
p223
g2
Ntp224
Rp225
(dp226
S'full_name'
p227
g194
sg108
g195
sS'country'
p228
g197
sS'place_type'
p229
g199
sS'bounding_box'
p230
g0
(ctweepy.models
BoundingBox
p231
g2
Ntp232
Rp233
(dp234
S'type'
p235
g203
sg216
g204
sbsS'country_code'
p236
g211
sS'attributes'
p237
g213
sg24
g214
sg102
g215
sbsS'retweet_count'
p238
I0
sg109
g110
(S'\x07\xdf\x07\n\x0e&-\x00\x00\x00'
p239
tp240
Rp241
sS'in_reply_to_user_id'
p242
Nsb.