ccopy_reg
_reconstructor
p0
(ctweepy.models
Status
p1
c__builtin__
object
p2
Ntp3
Rp4
(dp5
S'favorited'
p6
I00
sS'contributors'
p7
NsS'truncated'
p8
I00
sS'text'
p9
V@akari_oozora Source: http://t.co/J742XeKzlw via http://t.co/QgYRLTUWF8
p10
sS'source_url'
p11
Vhttp://twitter.com/akari_oozora
p12
sS'possibly_sensitive'
p13
I00
sS'in_reply_to_status_id'
p14
I619325368042917888
sS'user'
p15
g0
(ctweepy.models
User
p16
g2
Ntp17
Rp18
(dp19
S'follow_request_sent'
p20
NsS'profile_use_background_image'
p21
I01
sS'profile_sidebar_fill_color'
p22
VDDEEF6
p23
sS'id'
p24
I3146790737
sS'verified'
p25
I00
sS'profile_image_url_https'
p26
Vhttps://pbs.twimg.com/profile_images/585686109486768128/ZD9_FoaH_normal.png
p27
sS'_json'
p28
(dp29
Vfollow_request_sent
p30
NsVprofile_use_background_image
p31
I01
sVdefault_profile_image
p32
I00
sVid
p33
I3146790737
sVverified
p34
I00
sVprofile_image_url_https
p35
g27
sVprofile_sidebar_fill_color
p36
g23
sVprofile_text_color
p37
V333333
p38
sVfollowers_count
p39
I163
sVprofile_sidebar_border_color
p40
VC0DEED
p41
sVid_str
p42
V3146790737
p43
sVprofile_background_color
p44
VC0DEED
p45
sVlisted_count
p46
I42
sVprofile_background_image_url_https
p47
Vhttps://abs.twimg.com/images/themes/theme1/bg.png
p48
sVutc_offset
p49
I-14400
sVstatuses_count
p50
I6497
sVdescription
p51
VImage sources for @akari_oozora
p52
sVfriends_count
p53
I1
sVlocation
p54
V
p55
sVprofile_link_color
p56
V0084B4
p57
sVprofile_image_url
p58
Vhttp://pbs.twimg.com/profile_images/585686109486768128/ZD9_FoaH_normal.png
p59
sVfollowing
p60
NsVgeo_enabled
p61
I01
sVprofile_background_image_url
p62
Vhttp://abs.twimg.com/images/themes/theme1/bg.png
p63
sVname
p64
V\u5927\u7a7a\u304a\u5929\u6c17sources
p65
sVlang
p66
Ven
p67
sVprofile_background_tile
p68
I00
sVfavourites_count
p69
I0
sVscreen_name
p70
Voozorakko
p71
sVnotifications
p72
NsVurl
p73
Vhttp://creativecommons.org/licenses/by/4.0/
p74
sVcreated_at
p75
VWed Apr 08 06:08:28 +0000 2015
p76
sVcontributors_enabled
p77
I00
sVtime_zone
p78
VEastern Time (US & Canada)
p79
sVprotected
p80
I00
sVdefault_profile
p81
I01
sVis_translator
p82
I00
ssS'contributors_enabled'
p83
I00
sS'profile_text_color'
p84
g38
sS'followers_count'
p85
I163
sS'profile_sidebar_border_color'
p86
g41
sS'location'
p87
g55
sS'default_profile_image'
p88
I00
sS'id_str'
p89
g43
sS'utc_offset'
p90
I-14400
sS'statuses_count'
p91
I6497
sS'description'
p92
g52
sS'friends_count'
p93
I1
sS'profile_link_color'
p94
g57
sS'profile_image_url'
p95
g59
sS'notifications'
p96
NsS'geo_enabled'
p97
I01
sS'profile_background_color'
p98
g45
sS'profile_background_image_url'
p99
g63
sS'name'
p100
g65
sS'lang'
p101
g67
sS'following'
p102
I00
sS'profile_background_tile'
p103
I00
sS'favourites_count'
p104
I0
sS'screen_name'
p105
g71
sS'url'
p106
g74
sS'created_at'
p107
cdatetime
datetime
p108
(S'\x07\xdf\x04\x08\x06\x08\x1c\x00\x00\x00'
p109
tp110
Rp111
sS'profile_background_image_url_https'
p112
g48
sS'time_zone'
p113
g79
sS'protected'
p114
I00
sS'default_profile'
p115
I01
sS'is_translator'
p116
I00
sS'listed_count'
p117
I42
sbsS'filter_level'
p118
Vlow
p119
sS'geo'
p120
(dp121
Vtype
p122
VPoint
p123
sVcoordinates
p124
(lp125
F47.380001
aF8.57
assg24
I619325369640951808
sS'favorite_count'
p126
I0
sS'source'
p127
V\u5927\u7a7a\u304a\u5929\u6c17
p128
sg101
Ven
p129
sS'author'
p130
g18
sS'in_reply_to_user_id_str'
p131
V3132259671
p132
sg28
(dp133
Vcontributors
p134
NsVtruncated
p135
I00
sVtext
p136
g10
sVin_reply_to_status_id
p137
I619325368042917888
sg33
I619325369640951808
sVfavorite_count
p138
I0
sVsource
p139
V<a href="http://twitter.com/akari_oozora" rel="nofollow">\u5927\u7a7a\u304a\u5929\u6c17</a>
p140
sVretweeted
p141
I00
sg124
(dp142
g122
VPoint
p143
sg124
(lp144
F8.57
aF47.380001
assVtimestamp_ms
p145
V1436493649288
p146
sVentities
p147
(dp148
Vuser_mentions
p149
(lp150
(dp151
g33
I3132259671
sVindices
p152
(lp153
I0
aI13
asg42
V3132259671
p154
sg70
Vakari_oozora
p155
sg64
V\u5927\u7a7a\u304a\u5929\u6c17bot
p156
sasVsymbols
p157
(lp158
sVtrends
p159
(lp160
sVhashtags
p161
(lp162
sVurls
p163
(lp164
(dp165
g73
Vhttp://t.co/J742XeKzlw
p166
sg152
(lp167
I22
aI44
asVexpanded_url
p168
Vhttp://us.123rf.com/450wm/elec/elec1407/elec140700107/29707240-old-town-of-zurich-at-night--switzerland.jpg
p169
sVdisplay_url
p170
Vus.123rf.com/450wm/elec/ele\u2026
p171
sa(dp172
g73
Vhttp://t.co/QgYRLTUWF8
p173
sg152
(lp174
I49
aI71
asg168
Vhttp://www.123rf.com/photo_3011582_view-of-zurich-town-center-and-river-limmat-switzerland.html
p175
sg170
V123rf.com/photo_3011582_\u2026
p176
sassVin_reply_to_screen_name
p177
Vakari_oozora
p178
sg42
V619325369640951808
p179
sVretweet_count
p180
I0
sVin_reply_to_user_id
p181
I3132259671
sVfavorited
p182
I00
sVuser
p183
g29
sVgeo
p184
g121
sVin_reply_to_user_id_str
p185
g132
sVpossibly_sensitive
p186
I00
sg66
g129
sg75
VFri Jul 10 02:00:49 +0000 2015
p187
sVfilter_level
p188
g119
sVin_reply_to_status_id_str
p189
V619325368042917888
p190
sVplace
p191
(dp192
Vfull_name
p193
VZurich, Switzerland
p194
sg73
Vhttps://api.twitter.com/1.1/geo/id/3acb748d0f1e9265.json
p195
sVcountry
p196
VSchweiz
p197
sVplace_type
p198
Vcity
p199
sVbounding_box
p200
(dp201
g122
VPolygon
p202
sg124
(lp203
(lp204
(lp205
F8.448081
aF47.320183
aa(lp206
F8.448081
aF47.434721
aa(lp207
F8.625442
aF47.434721
aa(lp208
F8.625442
aF47.320183
aaassVcountry_code
p209
VCH
p210
sVattributes
p211
(dp212
sg33
V3acb748d0f1e9265
p213
sg64
VZurich
p214
sssS'coordinates'
p215
g142
sS'timestamp_ms'
p216
g146
sS'entities'
p217
g148
sS'in_reply_to_status_id_str'
p218
g190
sS'in_reply_to_screen_name'
p219
g178
sg89
g179
sS'retweeted'
p220
I00
sS'place'
p221
g0
(ctweepy.models
Place
p222
g2
Ntp223
Rp224
(dp225
S'full_name'
p226
g194
sg106
g195
sS'country'
p227
g197
sS'place_type'
p228
g199
sS'bounding_box'
p229
g0
(ctweepy.models
BoundingBox
p230
g2
Ntp231
Rp232
(dp233
S'type'
p234
g202
sg215
g203
sbsS'country_code'
p235
g210
sS'attributes'
p236
g212
sg24
g213
sg100
g214
sbsS'retweet_count'
p237
I0
sg107
g108
(S'\x07\xdf\x07\n\x02\x001\x00\x00\x00'
p238
tp239
Rp240
sS'in_reply_to_user_id'
p241
I3132259671
sb.