ccopy_reg
_reconstructor
p0
(ctweepy.models
Status
p1
c__builtin__
object
p2
Ntp3
Rp4
(dp5
S'favorited'
p6
I00
sS'contributors'
p7
NsS'truncated'
p8
I00
sS'text'
p9
VTHANK YOU GUY FOR MAKING @VaronaCollectiv OVER THE 10K MARK https://t.co/6gZIUNunu3 \u2026 \u2026 http://t.co/nRlqvJQNU3
p10
sS'source_url'
p11
Vhttp://twitter.com
p12
sS'possibly_sensitive'
p13
I00
sS'in_reply_to_status_id'
p14
NsS'user'
p15
g0
(ctweepy.models
User
p16
g2
Ntp17
Rp18
(dp19
S'follow_request_sent'
p20
NsS'profile_use_background_image'
p21
I01
sS'profile_sidebar_fill_color'
p22
V080808
p23
sS'id'
p24
I85995928
sS'verified'
p25
I00
sS'profile_image_url_https'
p26
Vhttps://pbs.twimg.com/profile_images/1603376259/D_LYFE_PHOTO_NO_LOGO_.10_new_normal.png
p27
sS'_json'
p28
(dp29
Vfollow_request_sent
p30
NsVprofile_use_background_image
p31
I01
sVdefault_profile_image
p32
I00
sVid
p33
I85995928
sVverified
p34
I00
sVprofile_image_url_https
p35
g27
sVprofile_sidebar_fill_color
p36
g23
sVprofile_text_color
p37
VE36B1C
p38
sVfollowers_count
p39
I30559
sVprofile_sidebar_border_color
p40
VFFFFFF
p41
sVid_str
p42
V85995928
p43
sVprofile_background_color
p44
V0A0A0A
p45
sVlisted_count
p46
I47
sVprofile_background_image_url_https
p47
Vhttps://pbs.twimg.com/profile_background_images/446520507819495424/jgm-A73X.png
p48
sVutc_offset
p49
I-18000
sVstatuses_count
p50
I18225
sVdescription
p51
VCelebrity DJ of the Stars and Co-CEO of Grindin Entertainment //  Monster Products International\u000aAmbassador
p52
sVfriends_count
p53
I12879
sVlocation
p54
Vhttp://www.grindinent.com
p55
sVprofile_link_color
p56
VB31B00
p57
sVprofile_image_url
p58
Vhttp://pbs.twimg.com/profile_images/1603376259/D_LYFE_PHOTO_NO_LOGO_.10_new_normal.png
p59
sVfollowing
p60
NsVgeo_enabled
p61
I01
sVprofile_banner_url
p62
Vhttps://pbs.twimg.com/profile_banners/85995928/1400741017
p63
sVprofile_background_image_url
p64
Vhttp://pbs.twimg.com/profile_background_images/446520507819495424/jgm-A73X.png
p65
sVname
p66
VD-LYFE
p67
sVlang
p68
Ven
p69
sVprofile_background_tile
p70
I01
sVfavourites_count
p71
I15
sVscreen_name
p72
VtheDLYFEshow
p73
sVnotifications
p74
NsVurl
p75
Vhttp://www.monsterproducts.com/artistroster/artist.asp?artistid=209
p76
sVcreated_at
p77
VThu Oct 29 04:48:00 +0000 2009
p78
sVcontributors_enabled
p79
I00
sVtime_zone
p80
VQuito
p81
sVprotected
p82
I00
sVdefault_profile
p83
I00
sVis_translator
p84
I00
ssS'contributors_enabled'
p85
I00
sS'profile_text_color'
p86
g38
sS'followers_count'
p87
I30559
sS'profile_sidebar_border_color'
p88
g41
sS'location'
p89
g55
sS'default_profile_image'
p90
I00
sS'id_str'
p91
g43
sS'utc_offset'
p92
I-18000
sS'statuses_count'
p93
I18225
sS'description'
p94
VCelebrity DJ of the Stars and Co-CEO of Grindin Entertainment //  Monster Products International\u000aAmbassador
p95
sS'friends_count'
p96
I12879
sS'profile_link_color'
p97
g57
sS'profile_image_url'
p98
g59
sS'notifications'
p99
NsS'geo_enabled'
p100
I01
sS'profile_background_color'
p101
g45
sS'profile_banner_url'
p102
g63
sS'profile_background_image_url'
p103
g65
sS'name'
p104
g67
sS'lang'
p105
g69
sS'following'
p106
I00
sS'profile_background_tile'
p107
I01
sS'favourites_count'
p108
I15
sS'screen_name'
p109
g73
sS'url'
p110
g76
sS'created_at'
p111
cdatetime
datetime
p112
(S'\x07\xd9\n\x1d\x040\x00\x00\x00\x00'
p113
tp114
Rp115
sS'profile_background_image_url_https'
p116
g48
sS'time_zone'
p117
g81
sS'protected'
p118
I00
sS'default_profile'
p119
I00
sS'is_translator'
p120
I00
sS'listed_count'
p121
I47
sbsS'filter_level'
p122
Vlow
p123
sS'geo'
p124
Nsg24
I620534111292256256
sS'favorite_count'
p125
I0
sS'source'
p126
VTwitter Web Client
p127
sg105
Ven
p128
sS'author'
p129
g18
sS'in_reply_to_user_id_str'
p130
Nsg28
(dp131
Vcontributors
p132
NsVtruncated
p133
I00
sVtext
p134
g10
sVin_reply_to_status_id
p135
Nsg33
I620534111292256256
sVfavorite_count
p136
I0
sVsource
p137
V<a href="http://twitter.com" rel="nofollow">Twitter Web Client</a>
p138
sVretweeted
p139
I00
sVcoordinates
p140
NsVtimestamp_ms
p141
V1436781835755
p142
sVentities
p143
(dp144
Vsymbols
p145
(lp146
sVmedia
p147
(lp148
(dp149
Vexpanded_url
p150
Vhttp://twitter.com/theDLYFEshow/status/620534111292256256/photo/1
p151
sVdisplay_url
p152
Vpic.twitter.com/nRlqvJQNU3
p153
sg75
Vhttp://t.co/nRlqvJQNU3
p154
sVmedia_url_https
p155
Vhttps://pbs.twimg.com/media/CJyUfFBUMAEBL2P.jpg
p156
sg42
V620534110314835969
p157
sVsizes
p158
(dp159
Vlarge
p160
(dp161
Vh
p162
I590
sVresize
p163
Vfit
p164
sVw
p165
I1024
ssVsmall
p166
(dp167
g162
I195
sg163
Vfit
p168
sg165
I340
ssVmedium
p169
(dp170
g162
I345
sg163
Vfit
p171
sg165
I600
ssVthumb
p172
(dp173
g162
I150
sg163
Vcrop
p174
sg165
I150
sssVindices
p175
(lp176
I88
aI110
asVtype
p177
Vphoto
p178
sg33
I620534110314835969
sVmedia_url
p179
Vhttp://pbs.twimg.com/media/CJyUfFBUMAEBL2P.jpg
p180
sasVhashtags
p181
(lp182
sVuser_mentions
p183
(lp184
(dp185
g33
I2238794191
sg175
(lp186
I25
aI41
asg42
V2238794191
p187
sg72
VVaronaCollectiv
p188
sg66
VTVC
p189
sasVtrends
p190
(lp191
sVurls
p192
(lp193
(dp194
g75
Vhttps://t.co/6gZIUNunu3
p195
sg175
(lp196
I60
aI83
asg150
Vhttps://www.youtube.com/watch?v=H9CGc2INp88
p197
sg152
Vyoutube.com/watch?v=H9CGc2\u2026
p198
sassVin_reply_to_screen_name
p199
Nsg42
V620534111292256256
p200
sVretweet_count
p201
I0
sVin_reply_to_user_id
p202
NsVfavorited
p203
I00
sVuser
p204
g29
sVgeo
p205
NsVin_reply_to_user_id_str
p206
NsVpossibly_sensitive
p207
I00
sg68
g128
sg77
VMon Jul 13 10:03:55 +0000 2015
p208
sVfilter_level
p209
g123
sVin_reply_to_status_id_str
p210
NsVplace
p211
(dp212
Vfull_name
p213
VZurich, Switzerland
p214
sg75
Vhttps://api.twitter.com/1.1/geo/id/3acb748d0f1e9265.json
p215
sVcountry
p216
VSchweiz
p217
sVplace_type
p218
Vcity
p219
sVbounding_box
p220
(dp221
g177
VPolygon
p222
sg140
(lp223
(lp224
(lp225
F8.448081
aF47.320183
aa(lp226
F8.448081
aF47.434721
aa(lp227
F8.625442
aF47.434721
aa(lp228
F8.625442
aF47.320183
aaassVcountry_code
p229
VCH
p230
sVattributes
p231
(dp232
sg33
V3acb748d0f1e9265
p233
sg66
VZurich
p234
ssVextended_entities
p235
(dp236
g147
(lp237
(dp238
g150
Vhttp://twitter.com/theDLYFEshow/status/620534111292256256/photo/1
p239
sg152
Vpic.twitter.com/nRlqvJQNU3
p240
sg75
Vhttp://t.co/nRlqvJQNU3
p241
sg155
Vhttps://pbs.twimg.com/media/CJyUfFBUMAEBL2P.jpg
p242
sg42
V620534110314835969
p243
sg158
(dp244
g160
(dp245
g162
I590
sg163
Vfit
p246
sg165
I1024
ssg166
(dp247
g162
I195
sg163
Vfit
p248
sg165
I340
ssg169
(dp249
g162
I345
sg163
Vfit
p250
sg165
I600
ssg172
(dp251
g162
I150
sg163
Vcrop
p252
sg165
I150
sssg175
(lp253
I88
aI110
asg177
Vphoto
p254
sg33
I620534110314835969
sg179
Vhttp://pbs.twimg.com/media/CJyUfFBUMAEBL2P.jpg
p255
sasssS'coordinates'
p256
NsS'timestamp_ms'
p257
g142
sS'entities'
p258
g144
sS'in_reply_to_status_id_str'
p259
NsS'in_reply_to_screen_name'
p260
Nsg91
g200
sS'extended_entities'
p261
g236
sS'retweeted'
p262
I00
sS'place'
p263
g0
(ctweepy.models
Place
p264
g2
Ntp265
Rp266
(dp267
S'full_name'
p268
g214
sg110
g215
sS'country'
p269
g217
sS'place_type'
p270
g219
sS'bounding_box'
p271
g0
(ctweepy.models
BoundingBox
p272
g2
Ntp273
Rp274
(dp275
S'type'
p276
g222
sg256
g223
sbsS'country_code'
p277
g230
sS'attributes'
p278
g232
sg24
g233
sg104
g234
sbsS'retweet_count'
p279
I0
sg111
g112
(S'\x07\xdf\x07\r\n\x037\x00\x00\x00'
p280
tp281
Rp282
sS'in_reply_to_user_id'
p283
Nsb.