ccopy_reg
_reconstructor
p0
(ctweepy.models
Status
p1
c__builtin__
object
p2
Ntp3
Rp4
(dp5
S'contributors'
p6
NsS'truncated'
p7
I00
sS'text'
p8
VDas Internet ist ein #Albtraum.  https://t.co/Mdq6lvPD0Y
p9
sS'in_reply_to_status_id'
p10
NsS'id'
p11
I618834061843410944
sS'favorite_count'
p12
I0
sS'entities'
p13
(dp14
Vuser_mentions
p15
(lp16
sVsymbols
p17
(lp18
sVtrends
p19
(lp20
sVhashtags
p21
(lp22
(dp23
Vindices
p24
(lp25
I21
aI30
asVtext
p26
VAlbtraum
p27
sasVurls
p28
(lp29
(dp30
Vurl
p31
Vhttps://t.co/Mdq6lvPD0Y
p32
sg24
(lp33
I33
aI56
asVexpanded_url
p34
Vhttps://twitter.com/nathanielpopper/status/618829332513955841
p35
sVdisplay_url
p36
Vtwitter.com/nathanielpoppe\u2026
p37
sassS'quoted_status_id'
p38
I618829332513955841
sS'_json'
p39
(dp40
Vcontributors
p41
NsVtruncated
p42
I00
sg26
g9
sVin_reply_to_status_id
p43
NsVid
p44
I618834061843410944
sVfavorite_count
p45
I0
sVsource
p46
V<a href="http://twitter.com/download/iphone" rel="nofollow">Twitter for iPhone</a>
p47
sVquoted_status_id
p48
I618829332513955841
sVretweeted
p49
I00
sVcoordinates
p50
NsVtimestamp_ms
p51
V1436376512381
p52
sVquoted_status
p53
(dp54
g41
Nsg42
I00
sg26
VNYSE told floor traders that problem is related to new software rolled out before trading opened, acc. to trader http://t.co/gPrKzlOWue
p55
sg43
Nsg44
I618829332513955841
sg45
I0
sg46
V<a href="http://twitter.com" rel="nofollow">Twitter Web Client</a>
p56
sg49
I00
sg50
NsVentities
p57
(dp58
g15
(lp59
sg17
(lp60
sg19
(lp61
sg21
(lp62
sg28
(lp63
(dp64
g31
Vhttp://t.co/gPrKzlOWue
p65
sg24
(lp66
I113
aI135
asg34
Vhttp://www.nytimes.com/2015/07/09/business/dealbook/new-york-stock-exchange-suspends-trading.html
p67
sg36
Vnytimes.com/2015/07/09/bus\u2026
p68
sassVin_reply_to_screen_name
p69
NsVid_str
p70
V618829332513955841
p71
sVretweet_count
p72
I0
sVin_reply_to_user_id
p73
NsVfavorited
p74
I00
sVuser
p75
(dp76
Vfollow_request_sent
p77
NsVprofile_use_background_image
p78
I00
sVdefault_profile_image
p79
I00
sg44
I52160722
sVverified
p80
I00
sVprofile_image_url_https
p81
Vhttps://pbs.twimg.com/profile_images/577849127297363969/Ng9VQeey_normal.jpeg
p82
sVprofile_sidebar_fill_color
p83
V000000
p84
sVprofile_text_color
p85
V000000
p86
sVfollowers_count
p87
I3927
sVprofile_sidebar_border_color
p88
V000000
p89
sg70
V52160722
p90
sVprofile_background_color
p91
V000000
p92
sVlisted_count
p93
I205
sVprofile_background_image_url_https
p94
Vhttps://abs.twimg.com/images/themes/theme1/bg.png
p95
sVutc_offset
p96
I-14400
sVstatuses_count
p97
I1291
sVdescription
p98
V@nytimes Wall Street reporter; author of Digital Gold, coming from @harpercollins on May 19; contact me at nathaniel.popper@nytimes.com
p99
sVfriends_count
p100
I164
sVlocation
p101
VNew York
p102
sVprofile_link_color
p103
VFFCC4D
p104
sVprofile_image_url
p105
Vhttp://pbs.twimg.com/profile_images/577849127297363969/Ng9VQeey_normal.jpeg
p106
sVfollowing
p107
NsVgeo_enabled
p108
I00
sVprofile_banner_url
p109
Vhttps://pbs.twimg.com/profile_banners/52160722/1433953240
p110
sVprofile_background_image_url
p111
Vhttp://abs.twimg.com/images/themes/theme1/bg.png
p112
sVname
p113
VNathaniel Popper
p114
sVlang
p115
Ven
p116
sVprofile_background_tile
p117
I00
sVfavourites_count
p118
I142
sVscreen_name
p119
Vnathanielpopper
p120
sVnotifications
p121
Nsg31
Vhttp://www.nathanielpopper.com
p122
sVcreated_at
p123
VMon Jun 29 19:32:08 +0000 2009
p124
sVcontributors_enabled
p125
I00
sVtime_zone
p126
VEastern Time (US & Canada)
p127
sVprotected
p128
I00
sVdefault_profile
p129
I00
sVis_translator
p130
I00
ssVgeo
p131
NsVin_reply_to_user_id_str
p132
NsVpossibly_sensitive
p133
I00
sg115
Ven
p134
sg123
VWed Jul 08 17:09:44 +0000 2015
p135
sVfilter_level
p136
Vlow
p137
sVin_reply_to_status_id_str
p138
NsVplace
p139
Nssg57
g14
sg69
Nsg70
V618834061843410944
p140
sg72
I0
sg73
Nsg74
I00
sg75
(dp141
g77
Nsg78
I01
sg79
I00
sg44
I86989481
sg80
I01
sg81
Vhttps://pbs.twimg.com/profile_images/412660310042890240/DyOYDb_p_normal.jpeg
p142
sg83
VDDEEF6
p143
sg85
V333333
p144
sg87
I2022
sg88
VC0DEED
p145
sg70
V86989481
p146
sg91
VC0DEED
p147
sg93
I90
sg94
Vhttps://abs.twimg.com/images/themes/theme1/bg.png
p148
sg96
I7200
sg97
I5014
sg98
VReporter
p149
sg100
I232
sg101
V
p150
sg103
V0084B4
p151
sg105
Vhttp://pbs.twimg.com/profile_images/412660310042890240/DyOYDb_p_normal.jpeg
p152
sg107
Nsg108
I01
sg109
Vhttps://pbs.twimg.com/profile_banners/86989481/1399878511
p153
sg111
Vhttp://abs.twimg.com/images/themes/theme1/bg.png
p154
sg113
VPeter Hossli
p155
sg115
Ven
p156
sg117
I00
sg118
I590
sg119
Vphossli
p157
sg121
Nsg31
Vhttp://www.hossli.com
p158
sg123
VMon Nov 02 17:44:49 +0000 2009
p159
sg125
I00
sg126
VBern
p160
sg128
I00
sg129
I01
sg130
I00
ssg131
Nsg132
Nsg133
I00
sg115
Vde
p161
sg123
VWed Jul 08 17:28:32 +0000 2015
p162
sVquoted_status_id_str
p163
V618829332513955841
p164
sg136
Vlow
p165
sg138
Nsg139
(dp166
Vfull_name
p167
VZurich, Switzerland
p168
sg31
Vhttps://api.twitter.com/1.1/geo/id/3acb748d0f1e9265.json
p169
sVcountry
p170
VSchweiz
p171
sVplace_type
p172
Vcity
p173
sVbounding_box
p174
(dp175
Vtype
p176
VPolygon
p177
sg50
(lp178
(lp179
(lp180
F8.448081
aF47.320183
aa(lp181
F8.448081
aF47.434721
aa(lp182
F8.625442
aF47.434721
aa(lp183
F8.625442
aF47.320183
aaassVcountry_code
p184
VCH
p185
sVattributes
p186
(dp187
sg44
V3acb748d0f1e9265
p188
sg113
VZurich
p189
sssS'coordinates'
p190
NsS'timestamp_ms'
p191
g52
sS'quoted_status'
p192
g54
sS'source'
p193
VTwitter for iPhone
p194
sS'in_reply_to_screen_name'
p195
NsS'id_str'
p196
g140
sS'retweet_count'
p197
I0
sS'in_reply_to_user_id'
p198
NsS'favorited'
p199
I00
sS'source_url'
p200
Vhttp://twitter.com/download/iphone
p201
sS'user'
p202
g0
(ctweepy.models
User
p203
g2
Ntp204
Rp205
(dp206
S'follow_request_sent'
p207
NsS'profile_use_background_image'
p208
I01
sS'profile_sidebar_fill_color'
p209
g143
sg11
I86989481
sS'verified'
p210
I01
sS'profile_image_url_https'
p211
g142
sg39
g141
sS'contributors_enabled'
p212
I00
sS'profile_text_color'
p213
g144
sS'followers_count'
p214
I2022
sS'profile_sidebar_border_color'
p215
g145
sS'location'
p216
g150
sS'default_profile_image'
p217
I00
sg196
g146
sS'utc_offset'
p218
I7200
sS'statuses_count'
p219
I5014
sS'description'
p220
g149
sS'friends_count'
p221
I232
sS'profile_link_color'
p222
g151
sS'profile_image_url'
p223
g152
sS'notifications'
p224
NsS'geo_enabled'
p225
I01
sS'profile_background_color'
p226
g147
sS'profile_banner_url'
p227
g153
sS'profile_background_image_url'
p228
g154
sS'name'
p229
g155
sS'lang'
p230
g156
sS'following'
p231
I00
sS'profile_background_tile'
p232
I00
sS'favourites_count'
p233
I590
sS'screen_name'
p234
g157
sS'url'
p235
g158
sS'created_at'
p236
cdatetime
datetime
p237
(S'\x07\xd9\x0b\x02\x11,1\x00\x00\x00'
p238
tp239
Rp240
sS'profile_background_image_url_https'
p241
g148
sS'time_zone'
p242
g160
sS'protected'
p243
I00
sS'default_profile'
p244
I01
sS'is_translator'
p245
I00
sS'listed_count'
p246
I90
sbsS'geo'
p247
NsS'in_reply_to_user_id_str'
p248
NsS'possibly_sensitive'
p249
I00
sg230
g161
sg236
g237
(S'\x07\xdf\x07\x08\x11\x1c \x00\x00\x00'
p250
tp251
Rp252
sS'author'
p253
g205
sS'quoted_status_id_str'
p254
g164
sS'filter_level'
p255
g165
sS'in_reply_to_status_id_str'
p256
NsS'place'
p257
g0
(ctweepy.models
Place
p258
g2
Ntp259
Rp260
(dp261
S'full_name'
p262
g168
sg235
g169
sS'country'
p263
g171
sS'place_type'
p264
g173
sS'bounding_box'
p265
g0
(ctweepy.models
BoundingBox
p266
g2
Ntp267
Rp268
(dp269
S'type'
p270
g177
sg190
g178
sbsS'country_code'
p271
g185
sS'attributes'
p272
g187
sg11
g188
sg229
g189
sbsS'retweeted'
p273
I00
sb.