ccopy_reg
_reconstructor
p0
(ctweepy.models
Status
p1
c__builtin__
object
p2
Ntp3
Rp4
(dp5
S'favorited'
p6
I00
sS'contributors'
p7
NsS'truncated'
p8
I00
sS'text'
p9
VNEBOSH has led safety qualifications for years. Here's a great review of its success http://t.co/VFy8ajQ79n @NEBOSHTweets @IOSH_tweets
p10
sS'source_url'
p11
Vhttp://twitter.com
p12
sS'possibly_sensitive'
p13
I00
sS'in_reply_to_status_id'
p14
NsS'user'
p15
g0
(ctweepy.models
User
p16
g2
Ntp17
Rp18
(dp19
S'follow_request_sent'
p20
NsS'profile_use_background_image'
p21
I00
sS'profile_sidebar_fill_color'
p22
VDDEEF6
p23
sS'id'
p24
I2976635116
sS'verified'
p25
I00
sS'profile_image_url_https'
p26
Vhttps://pbs.twimg.com/profile_images/563711775674073090/BQjECF6h_normal.png
p27
sS'_json'
p28
(dp29
Vfollow_request_sent
p30
NsVprofile_use_background_image
p31
I00
sVdefault_profile_image
p32
I00
sVid
p33
I2976635116
sVverified
p34
I00
sVprofile_image_url_https
p35
g27
sVprofile_sidebar_fill_color
p36
g23
sVprofile_text_color
p37
V333333
p38
sVfollowers_count
p39
I228
sVprofile_sidebar_border_color
p40
VC0DEED
p41
sVid_str
p42
V2976635116
p43
sVprofile_background_color
p44
VABB8C2
p45
sVlisted_count
p46
I8
sVprofile_background_image_url_https
p47
Vhttps://pbs.twimg.com/profile_background_images/555024456947478528/6gM3GH2P.jpeg
p48
sVutc_offset
p49
NsVstatuses_count
p50
I368
sVdescription
p51
VWe focus on safety culture and leadership, driving positive change through leading edge psychology to deliver a bespoke package for our clients around the globe
p52
sVfriends_count
p53
I294
sVlocation
p54
VUK, Switzerland, North America
p55
sVprofile_link_color
p56
V4A913C
p57
sVprofile_image_url
p58
Vhttp://pbs.twimg.com/profile_images/563711775674073090/BQjECF6h_normal.png
p59
sVfollowing
p60
NsVgeo_enabled
p61
I01
sVprofile_background_image_url
p62
Vhttp://pbs.twimg.com/profile_background_images/555024456947478528/6gM3GH2P.jpeg
p63
sVname
p64
VRyderMarshSharman
p65
sVlang
p66
Ven
p67
sVprofile_background_tile
p68
I00
sVfavourites_count
p69
I16
sVscreen_name
p70
VRMarshSharman
p71
sVnotifications
p72
NsVurl
p73
Vhttp://www.rydermarshsharman.com
p74
sVcreated_at
p75
VTue Jan 13 15:25:14 +0000 2015
p76
sVcontributors_enabled
p77
I00
sVtime_zone
p78
NsVprotected
p79
I00
sVdefault_profile
p80
I00
sVis_translator
p81
I00
ssS'contributors_enabled'
p82
I00
sS'profile_text_color'
p83
g38
sS'followers_count'
p84
I228
sS'profile_sidebar_border_color'
p85
g41
sS'location'
p86
g55
sS'default_profile_image'
p87
I00
sS'id_str'
p88
g43
sS'utc_offset'
p89
NsS'statuses_count'
p90
I368
sS'description'
p91
g52
sS'friends_count'
p92
I294
sS'profile_link_color'
p93
g57
sS'profile_image_url'
p94
g59
sS'notifications'
p95
NsS'geo_enabled'
p96
I01
sS'profile_background_color'
p97
g45
sS'profile_background_image_url'
p98
g63
sS'name'
p99
g65
sS'lang'
p100
g67
sS'following'
p101
I00
sS'profile_background_tile'
p102
I00
sS'favourites_count'
p103
I16
sS'screen_name'
p104
g71
sS'url'
p105
g74
sS'created_at'
p106
cdatetime
datetime
p107
(S'\x07\xdf\x01\r\x0f\x19\x0e\x00\x00\x00'
p108
tp109
Rp110
sS'profile_background_image_url_https'
p111
g48
sS'time_zone'
p112
NsS'protected'
p113
I00
sS'default_profile'
p114
I00
sS'is_translator'
p115
I00
sS'listed_count'
p116
I8
sbsS'filter_level'
p117
Vlow
p118
sS'geo'
p119
Nsg24
I620639848744009729
sS'favorite_count'
p120
I0
sS'source'
p121
VTwitter Web Client
p122
sg100
Ven
p123
sS'author'
p124
g18
sS'in_reply_to_user_id_str'
p125
Nsg28
(dp126
Vcontributors
p127
NsVtruncated
p128
I00
sVtext
p129
g10
sVin_reply_to_status_id
p130
Nsg33
I620639848744009729
sVfavorite_count
p131
I0
sVsource
p132
V<a href="http://twitter.com" rel="nofollow">Twitter Web Client</a>
p133
sVretweeted
p134
I00
sVcoordinates
p135
NsVtimestamp_ms
p136
V1436807045528
p137
sVentities
p138
(dp139
Vuser_mentions
p140
(lp141
(dp142
g33
I76669921
sVindices
p143
(lp144
I108
aI121
asg42
V76669921
p145
sg70
VNEBOSHTweets
p146
sg64
VNEBOSH
p147
sa(dp148
g33
I52698813
sg143
(lp149
I122
aI134
asg42
V52698813
p150
sg70
VIOSH_tweets
p151
sg64
VIOSH
p152
sasVsymbols
p153
(lp154
sVtrends
p155
(lp156
sVhashtags
p157
(lp158
sVurls
p159
(lp160
(dp161
g73
Vhttp://t.co/VFy8ajQ79n
p162
sg143
(lp163
I85
aI107
asVexpanded_url
p164
Vhttp://www.historyofnebosh.org.uk
p165
sVdisplay_url
p166
Vhistoryofnebosh.org.uk
p167
sassVin_reply_to_screen_name
p168
Nsg42
V620639848744009729
p169
sVretweet_count
p170
I0
sVin_reply_to_user_id
p171
NsVfavorited
p172
I00
sVuser
p173
g29
sVgeo
p174
NsVin_reply_to_user_id_str
p175
NsVpossibly_sensitive
p176
I00
sg66
g123
sg75
VMon Jul 13 17:04:05 +0000 2015
p177
sVfilter_level
p178
g118
sVin_reply_to_status_id_str
p179
NsVplace
p180
(dp181
Vfull_name
p182
VZurich, Switzerland
p183
sg73
Vhttps://api.twitter.com/1.1/geo/id/3acb748d0f1e9265.json
p184
sVcountry
p185
VSchweiz
p186
sVplace_type
p187
Vcity
p188
sVbounding_box
p189
(dp190
Vtype
p191
VPolygon
p192
sg135
(lp193
(lp194
(lp195
F8.448081
aF47.320183
aa(lp196
F8.448081
aF47.434721
aa(lp197
F8.625442
aF47.434721
aa(lp198
F8.625442
aF47.320183
aaassVcountry_code
p199
VCH
p200
sVattributes
p201
(dp202
sg33
V3acb748d0f1e9265
p203
sg64
VZurich
p204
sssS'coordinates'
p205
NsS'timestamp_ms'
p206
g137
sS'entities'
p207
g139
sS'in_reply_to_status_id_str'
p208
NsS'in_reply_to_screen_name'
p209
Nsg88
g169
sS'retweeted'
p210
I00
sS'place'
p211
g0
(ctweepy.models
Place
p212
g2
Ntp213
Rp214
(dp215
S'full_name'
p216
g183
sg105
g184
sS'country'
p217
g186
sS'place_type'
p218
g188
sS'bounding_box'
p219
g0
(ctweepy.models
BoundingBox
p220
g2
Ntp221
Rp222
(dp223
S'type'
p224
g192
sg205
g193
sbsS'country_code'
p225
g200
sS'attributes'
p226
g202
sg24
g203
sg99
g204
sbsS'retweet_count'
p227
I0
sg106
g107
(S'\x07\xdf\x07\r\x11\x04\x05\x00\x00\x00'
p228
tp229
Rp230
sS'in_reply_to_user_id'
p231
Nsb.