ccopy_reg
_reconstructor
p0
(ctweepy.models
Status
p1
c__builtin__
object
p2
Ntp3
Rp4
(dp5
S'favorited'
p6
I00
sS'contributors'
p7
NsS'truncated'
p8
I00
sS'text'
p9
VIt's a late post but never late to say, dass diese pancakes sind was von lecker! \U0001f60b \u000a\u000a#BananaPancakes http://t.co/6njIhSfpvc
p10
sS'source_url'
p11
Vhttp://twitter.com/download/android
p12
sS'possibly_sensitive'
p13
I00
sS'in_reply_to_status_id'
p14
NsS'user'
p15
g0
(ctweepy.models
User
p16
g2
Ntp17
Rp18
(dp19
S'follow_request_sent'
p20
NsS'profile_use_background_image'
p21
I01
sS'profile_sidebar_fill_color'
p22
VE84F17
p23
sS'id'
p24
I22408286
sS'verified'
p25
I00
sS'profile_image_url_https'
p26
Vhttps://pbs.twimg.com/profile_images/593778267313688578/kQM7mHjl_normal.jpg
p27
sS'_json'
p28
(dp29
Vfollow_request_sent
p30
NsVprofile_use_background_image
p31
I01
sVdefault_profile_image
p32
I00
sVid
p33
I22408286
sVverified
p34
I00
sVprofile_image_url_https
p35
g27
sVprofile_sidebar_fill_color
p36
g23
sVprofile_text_color
p37
V030301
p38
sVfollowers_count
p39
I612
sVprofile_sidebar_border_color
p40
VFFFFFF
p41
sVid_str
p42
V22408286
p43
sVprofile_background_color
p44
V1A12FF
p45
sVlisted_count
p46
I14
sVprofile_background_image_url_https
p47
Vhttps://pbs.twimg.com/profile_background_images/26936294/a.JPG
p48
sVutc_offset
p49
I7200
sVstatuses_count
p50
I8267
sVdescription
p51
V* Ghelo is my nickname * I'm #DJ #BongAguinaldo @ http://www.pinasmusiczone.com * #Blogger @ http://bubong.blogspot.com *#Poet * #Lambily *
p52
sVfriends_count
p53
I852
sVlocation
p54
VZurich, Switzerland
p55
sVprofile_link_color
p56
V4A913C
p57
sVprofile_image_url
p58
Vhttp://pbs.twimg.com/profile_images/593778267313688578/kQM7mHjl_normal.jpg
p59
sVfollowing
p60
NsVgeo_enabled
p61
I01
sVprofile_banner_url
p62
Vhttps://pbs.twimg.com/profile_banners/22408286/1430402720
p63
sVprofile_background_image_url
p64
Vhttp://pbs.twimg.com/profile_background_images/26936294/a.JPG
p65
sVname
p66
VAngelo Zantua
p67
sVlang
p68
Ven
p69
sVprofile_background_tile
p70
I00
sVfavourites_count
p71
I16
sVscreen_name
p72
Vbubong
p73
sVnotifications
p74
NsVurl
p75
Vhttp://instagram.com/bubong
p76
sVcreated_at
p77
VSun Mar 01 21:21:00 +0000 2009
p78
sVcontributors_enabled
p79
I00
sVtime_zone
p80
VBern
p81
sVprotected
p82
I00
sVdefault_profile
p83
I00
sVis_translator
p84
I00
ssS'contributors_enabled'
p85
I00
sS'profile_text_color'
p86
g38
sS'followers_count'
p87
I612
sS'profile_sidebar_border_color'
p88
g41
sS'location'
p89
g55
sS'default_profile_image'
p90
I00
sS'id_str'
p91
g43
sS'utc_offset'
p92
I7200
sS'statuses_count'
p93
I8267
sS'description'
p94
g52
sS'friends_count'
p95
I852
sS'profile_link_color'
p96
g57
sS'profile_image_url'
p97
g59
sS'notifications'
p98
NsS'geo_enabled'
p99
I01
sS'profile_background_color'
p100
g45
sS'profile_banner_url'
p101
g63
sS'profile_background_image_url'
p102
g65
sS'name'
p103
g67
sS'lang'
p104
g69
sS'following'
p105
I00
sS'profile_background_tile'
p106
I00
sS'favourites_count'
p107
I16
sS'screen_name'
p108
g73
sS'url'
p109
g76
sS'created_at'
p110
cdatetime
datetime
p111
(S'\x07\xd9\x03\x01\x15\x15\x00\x00\x00\x00'
p112
tp113
Rp114
sS'profile_background_image_url_https'
p115
g48
sS'time_zone'
p116
g81
sS'protected'
p117
I00
sS'default_profile'
p118
I00
sS'is_translator'
p119
I00
sS'listed_count'
p120
I14
sbsS'filter_level'
p121
Vlow
p122
sS'geo'
p123
Nsg24
I620326156282265600
sS'favorite_count'
p124
I0
sS'source'
p125
VTwitter for Android
p126
sg104
Ven
p127
sS'author'
p128
g18
sS'in_reply_to_user_id_str'
p129
Nsg28
(dp130
Vcontributors
p131
NsVtruncated
p132
I00
sVtext
p133
VIt's a late post but never late to say, dass diese pancakes sind was von lecker! \U0001f60b \u000a\u000a#BananaPancakes http://t.co/6njIhSfpvc
p134
sVin_reply_to_status_id
p135
Nsg33
I620326156282265600
sVfavorite_count
p136
I0
sVsource
p137
V<a href="http://twitter.com/download/android" rel="nofollow">Twitter for Android</a>
p138
sVretweeted
p139
I00
sVcoordinates
p140
NsVtimestamp_ms
p141
V1436732255417
p142
sVentities
p143
(dp144
Vsymbols
p145
(lp146
sVmedia
p147
(lp148
(dp149
Vexpanded_url
p150
Vhttp://twitter.com/bubong/status/620326156282265600/photo/1
p151
sVdisplay_url
p152
Vpic.twitter.com/6njIhSfpvc
p153
sg75
Vhttp://t.co/6njIhSfpvc
p154
sVmedia_url_https
p155
Vhttps://pbs.twimg.com/media/CJvXUN5WoAUkm9s.jpg
p156
sg42
V620326116021149701
p157
sVsizes
p158
(dp159
Vsmall
p160
(dp161
Vh
p162
I340
sVresize
p163
Vfit
p164
sVw
p165
I340
ssVlarge
p166
(dp167
g162
I984
sg163
Vfit
p168
sg165
I984
ssVmedium
p169
(dp170
g162
I600
sg163
Vfit
p171
sg165
I600
ssVthumb
p172
(dp173
g162
I150
sg163
Vcrop
p174
sg165
I150
sssVindices
p175
(lp176
I101
aI123
asVtype
p177
Vphoto
p178
sg33
I620326116021149701
sVmedia_url
p179
Vhttp://pbs.twimg.com/media/CJvXUN5WoAUkm9s.jpg
p180
sasVhashtags
p181
(lp182
(dp183
g175
(lp184
I85
aI100
asg133
VBananaPancakes
p185
sasVuser_mentions
p186
(lp187
sVtrends
p188
(lp189
sVurls
p190
(lp191
ssVin_reply_to_screen_name
p192
Nsg42
V620326156282265600
p193
sVretweet_count
p194
I0
sVin_reply_to_user_id
p195
NsVfavorited
p196
I00
sVuser
p197
g29
sVgeo
p198
NsVin_reply_to_user_id_str
p199
NsVpossibly_sensitive
p200
I00
sg68
g127
sg77
VSun Jul 12 20:17:35 +0000 2015
p201
sVfilter_level
p202
g122
sVin_reply_to_status_id_str
p203
NsVplace
p204
(dp205
Vfull_name
p206
VZurich, Switzerland
p207
sg75
Vhttps://api.twitter.com/1.1/geo/id/3acb748d0f1e9265.json
p208
sVcountry
p209
VSchweiz
p210
sVplace_type
p211
Vcity
p212
sVbounding_box
p213
(dp214
g177
VPolygon
p215
sg140
(lp216
(lp217
(lp218
F8.448081
aF47.320183
aa(lp219
F8.448081
aF47.434721
aa(lp220
F8.625442
aF47.434721
aa(lp221
F8.625442
aF47.320183
aaassVcountry_code
p222
VCH
p223
sVattributes
p224
(dp225
sg33
V3acb748d0f1e9265
p226
sg66
VZurich
p227
ssVextended_entities
p228
(dp229
g147
(lp230
(dp231
g150
Vhttp://twitter.com/bubong/status/620326156282265600/photo/1
p232
sg152
Vpic.twitter.com/6njIhSfpvc
p233
sg75
Vhttp://t.co/6njIhSfpvc
p234
sg155
Vhttps://pbs.twimg.com/media/CJvXUN5WoAUkm9s.jpg
p235
sg42
V620326116021149701
p236
sg158
(dp237
g160
(dp238
g162
I340
sg163
Vfit
p239
sg165
I340
ssg166
(dp240
g162
I984
sg163
Vfit
p241
sg165
I984
ssg169
(dp242
g162
I600
sg163
Vfit
p243
sg165
I600
ssg172
(dp244
g162
I150
sg163
Vcrop
p245
sg165
I150
sssg175
(lp246
I101
aI123
asg177
Vphoto
p247
sg33
I620326116021149701
sg179
Vhttp://pbs.twimg.com/media/CJvXUN5WoAUkm9s.jpg
p248
sasssS'coordinates'
p249
NsS'timestamp_ms'
p250
g142
sS'entities'
p251
g144
sS'in_reply_to_status_id_str'
p252
NsS'in_reply_to_screen_name'
p253
Nsg91
g193
sS'extended_entities'
p254
g229
sS'retweeted'
p255
I00
sS'place'
p256
g0
(ctweepy.models
Place
p257
g2
Ntp258
Rp259
(dp260
S'full_name'
p261
g207
sg109
g208
sS'country'
p262
g210
sS'place_type'
p263
g212
sS'bounding_box'
p264
g0
(ctweepy.models
BoundingBox
p265
g2
Ntp266
Rp267
(dp268
S'type'
p269
g215
sg249
g216
sbsS'country_code'
p270
g223
sS'attributes'
p271
g225
sg24
g226
sg103
g227
sbsS'retweet_count'
p272
I0
sg110
g111
(S'\x07\xdf\x07\x0c\x14\x11#\x00\x00\x00'
p273
tp274
Rp275
sS'in_reply_to_user_id'
p276
Nsb.