ccopy_reg
_reconstructor
p0
(ctweepy.models
Status
p1
c__builtin__
object
p2
Ntp3
Rp4
(dp5
S'favorited'
p6
I00
sS'contributors'
p7
NsS'truncated'
p8
I00
sS'text'
p9
V@diannewade18 @MariaGuenza @elyesabaran @EuniceMarques10 @FaeBooks http://t.co/PcFvgDybF6
p10
sS'source_url'
p11
Vhttp://twitter.com
p12
sS'possibly_sensitive'
p13
I00
sS'in_reply_to_status_id'
p14
I620169173956722688
sS'user'
p15
g0
(ctweepy.models
User
p16
g2
Ntp17
Rp18
(dp19
S'follow_request_sent'
p20
NsS'profile_use_background_image'
p21
I01
sS'profile_sidebar_fill_color'
p22
VDDEEF6
p23
sS'id'
p24
I1019050309
sS'verified'
p25
I00
sS'profile_image_url_https'
p26
Vhttps://pbs.twimg.com/profile_images/3254658310/8d221623a14c71660029cd1bde0cbd82_normal.jpeg
p27
sS'_json'
p28
(dp29
Vfollow_request_sent
p30
NsVprofile_use_background_image
p31
I01
sVdefault_profile_image
p32
I00
sVid
p33
I1019050309
sVverified
p34
I00
sVprofile_image_url_https
p35
g27
sVprofile_sidebar_fill_color
p36
g23
sVprofile_text_color
p37
V0084B4
p38
sVfollowers_count
p39
I8345
sVprofile_sidebar_border_color
p40
VFFFFFF
p41
sVid_str
p42
V1019050309
p43
sVprofile_background_color
p44
V3B94D9
p45
sVlisted_count
p46
I82
sVprofile_background_image_url_https
p47
Vhttps://pbs.twimg.com/profile_background_images/857865871/dea496523dddefe03f5d4d310d72e47c.jpeg
p48
sVutc_offset
p49
I7200
sVstatuses_count
p50
I31539
sVdescription
p51
VDONNEZ MAINTENANT ENFIN LE MONDE AUX ENFANTS! PEACESEEKER.ACTING.#PEACE_FUELER  #EARTH IS FOR WOMEN  AND OUR CHILDREN TO INHERIT!!!
p52
sVfriends_count
p53
I9130
sVlocation
p54
VNot In Stagram.
p55
sVprofile_link_color
p56
V2F2FEB
p57
sVprofile_image_url
p58
Vhttp://pbs.twimg.com/profile_images/3254658310/8d221623a14c71660029cd1bde0cbd82_normal.jpeg
p59
sVfollowing
p60
NsVgeo_enabled
p61
I01
sVprofile_banner_url
p62
Vhttps://pbs.twimg.com/profile_banners/1019050309/1422773906
p63
sVprofile_background_image_url
p64
Vhttp://pbs.twimg.com/profile_background_images/857865871/dea496523dddefe03f5d4d310d72e47c.jpeg
p65
sVname
p66
Vpaul 
p67
sVlang
p68
Ven
p69
sVprofile_background_tile
p70
I00
sVfavourites_count
p71
I5869
sVscreen_name
p72
VJusticeforHall
p73
sVnotifications
p74
NsVurl
p75
Vhttp://about.me/Pauliticker
p76
sVcreated_at
p77
VTue Dec 18 05:09:41 +0000 2012
p78
sVcontributors_enabled
p79
I00
sVtime_zone
p80
VBerlin
p81
sVprotected
p82
I00
sVdefault_profile
p83
I00
sVis_translator
p84
I00
ssS'contributors_enabled'
p85
I00
sS'profile_text_color'
p86
g38
sS'followers_count'
p87
I8345
sS'profile_sidebar_border_color'
p88
g41
sS'location'
p89
g55
sS'default_profile_image'
p90
I00
sS'id_str'
p91
g43
sS'utc_offset'
p92
I7200
sS'statuses_count'
p93
I31539
sS'description'
p94
g52
sS'friends_count'
p95
I9130
sS'profile_link_color'
p96
g57
sS'profile_image_url'
p97
g59
sS'notifications'
p98
NsS'geo_enabled'
p99
I01
sS'profile_background_color'
p100
g45
sS'profile_banner_url'
p101
g63
sS'profile_background_image_url'
p102
g65
sS'name'
p103
g67
sS'lang'
p104
g69
sS'following'
p105
I00
sS'profile_background_tile'
p106
I00
sS'favourites_count'
p107
I5869
sS'screen_name'
p108
g73
sS'url'
p109
g76
sS'created_at'
p110
cdatetime
datetime
p111
(S'\x07\xdc\x0c\x12\x05\t)\x00\x00\x00'
p112
tp113
Rp114
sS'profile_background_image_url_https'
p115
g48
sS'time_zone'
p116
g81
sS'protected'
p117
I00
sS'default_profile'
p118
I00
sS'is_translator'
p119
I00
sS'listed_count'
p120
I82
sbsS'filter_level'
p121
Vlow
p122
sS'geo'
p123
Nsg24
I620178097925713920
sS'favorite_count'
p124
I0
sS'source'
p125
VTwitter Web Client
p126
sg104
Vund
p127
sS'author'
p128
g18
sS'in_reply_to_user_id_str'
p129
V1182397682
p130
sg28
(dp131
Vcontributors
p132
NsVtruncated
p133
I00
sVtext
p134
g10
sVin_reply_to_status_id
p135
I620169173956722688
sg33
I620178097925713920
sVfavorite_count
p136
I0
sVsource
p137
V<a href="http://twitter.com" rel="nofollow">Twitter Web Client</a>
p138
sVretweeted
p139
I00
sVcoordinates
p140
NsVtimestamp_ms
p141
V1436696955554
p142
sVentities
p143
(dp144
Vsymbols
p145
(lp146
sVmedia
p147
(lp148
(dp149
Vexpanded_url
p150
Vhttp://twitter.com/JusticeforHall/status/620178097925713920/photo/1
p151
sVdisplay_url
p152
Vpic.twitter.com/PcFvgDybF6
p153
sg75
Vhttp://t.co/PcFvgDybF6
p154
sVmedia_url_https
p155
Vhttps://pbs.twimg.com/media/CJtQsXyUkAAkdZP.jpg
p156
sg42
V620178096923119616
p157
sVsizes
p158
(dp159
Vlarge
p160
(dp161
Vh
p162
I213
sVresize
p163
Vfit
p164
sVw
p165
I160
ssVsmall
p166
(dp167
g162
I213
sg163
Vfit
p168
sg165
I160
ssVmedium
p169
(dp170
g162
I213
sg163
Vfit
p171
sg165
I160
ssVthumb
p172
(dp173
g162
I150
sg163
Vcrop
p174
sg165
I150
sssVindices
p175
(lp176
I67
aI89
asVtype
p177
Vphoto
p178
sg33
I620178096923119616
sVmedia_url
p179
Vhttp://pbs.twimg.com/media/CJtQsXyUkAAkdZP.jpg
p180
sasVhashtags
p181
(lp182
sVuser_mentions
p183
(lp184
(dp185
g33
I1182397682
sg175
(lp186
I0
aI13
asg42
V1182397682
p187
sg72
Vdiannewade18
p188
sg66
Vdianne wade
p189
sa(dp190
g33
I3116738361
sg175
(lp191
I14
aI26
asg42
V3116738361
p192
sg72
VMariaGuenza
p193
sg66
VMaria celeste Guenza
p194
sa(dp195
g33
I2164768983
sg175
(lp196
I27
aI39
asg42
V2164768983
p197
sg72
Velyesabaran
p198
sg66
VCevat Baran
p199
sa(dp200
g33
I2175938484
sg175
(lp201
I40
aI56
asg42
V2175938484
p202
sg72
VEuniceMarques10
p203
sg66
V\u2665\u2606Eunice\u2606\u2665TIM BETA\u2764
p204
sa(dp205
g33
I1039382912
sg175
(lp206
I57
aI66
asg42
V1039382912
p207
sg72
VFaeBooks
p208
sg66
VFae Beauty & Books
p209
sasVtrends
p210
(lp211
sVurls
p212
(lp213
ssVin_reply_to_screen_name
p214
Vdiannewade18
p215
sg42
V620178097925713920
p216
sVretweet_count
p217
I0
sVin_reply_to_user_id
p218
I1182397682
sVfavorited
p219
I00
sVuser
p220
g29
sVgeo
p221
NsVin_reply_to_user_id_str
p222
g130
sVpossibly_sensitive
p223
I00
sg68
g127
sg77
VSun Jul 12 10:29:15 +0000 2015
p224
sVfilter_level
p225
g122
sVin_reply_to_status_id_str
p226
V620169173956722688
p227
sVplace
p228
(dp229
Vfull_name
p230
VZurich, Switzerland
p231
sg75
Vhttps://api.twitter.com/1.1/geo/id/3acb748d0f1e9265.json
p232
sVcountry
p233
VSchweiz
p234
sVplace_type
p235
Vcity
p236
sVbounding_box
p237
(dp238
g177
VPolygon
p239
sg140
(lp240
(lp241
(lp242
F8.448081
aF47.320183
aa(lp243
F8.448081
aF47.434721
aa(lp244
F8.625442
aF47.434721
aa(lp245
F8.625442
aF47.320183
aaassVcountry_code
p246
VCH
p247
sVattributes
p248
(dp249
sg33
V3acb748d0f1e9265
p250
sg66
VZurich
p251
ssVextended_entities
p252
(dp253
g147
(lp254
(dp255
g150
Vhttp://twitter.com/JusticeforHall/status/620178097925713920/photo/1
p256
sg152
Vpic.twitter.com/PcFvgDybF6
p257
sg75
Vhttp://t.co/PcFvgDybF6
p258
sg155
Vhttps://pbs.twimg.com/media/CJtQsXyUkAAkdZP.jpg
p259
sg42
V620178096923119616
p260
sg158
(dp261
g160
(dp262
g162
I213
sg163
Vfit
p263
sg165
I160
ssg166
(dp264
g162
I213
sg163
Vfit
p265
sg165
I160
ssg169
(dp266
g162
I213
sg163
Vfit
p267
sg165
I160
ssg172
(dp268
g162
I150
sg163
Vcrop
p269
sg165
I150
sssg175
(lp270
I67
aI89
asg177
Vphoto
p271
sg33
I620178096923119616
sg179
Vhttp://pbs.twimg.com/media/CJtQsXyUkAAkdZP.jpg
p272
sasssS'coordinates'
p273
NsS'timestamp_ms'
p274
g142
sS'entities'
p275
g144
sS'in_reply_to_status_id_str'
p276
g227
sS'in_reply_to_screen_name'
p277
g215
sg91
g216
sS'extended_entities'
p278
g253
sS'retweeted'
p279
I00
sS'place'
p280
g0
(ctweepy.models
Place
p281
g2
Ntp282
Rp283
(dp284
S'full_name'
p285
g231
sg109
g232
sS'country'
p286
g234
sS'place_type'
p287
g236
sS'bounding_box'
p288
g0
(ctweepy.models
BoundingBox
p289
g2
Ntp290
Rp291
(dp292
S'type'
p293
g239
sg273
g240
sbsS'country_code'
p294
g247
sS'attributes'
p295
g249
sg24
g250
sg103
g251
sbsS'retweet_count'
p296
I0
sg110
g111
(S'\x07\xdf\x07\x0c\n\x1d\x0f\x00\x00\x00'
p297
tp298
Rp299
sS'in_reply_to_user_id'
p300
I1182397682
sb.