ccopy_reg
_reconstructor
p0
(ctweepy.models
Status
p1
c__builtin__
object
p2
Ntp3
Rp4
(dp5
S'favorited'
p6
I00
sS'contributors'
p7
NsS'truncated'
p8
I00
sS'text'
p9
V@JoyceDiDonato #Romeolaybleeding &amp; I sat crying\U0001f622Exquisite singing endless applause + standing ovation BRAVI a tutti \U0001f44f http://t.co/MNgFhup9r3
p10
sS'source_url'
p11
Vhttp://twitter.com/download/android
p12
sS'possibly_sensitive'
p13
I00
sS'in_reply_to_status_id'
p14
NsS'user'
p15
g0
(ctweepy.models
User
p16
g2
Ntp17
Rp18
(dp19
S'follow_request_sent'
p20
NsS'profile_use_background_image'
p21
I01
sS'profile_sidebar_fill_color'
p22
VDDEEF6
p23
sS'id'
p24
I2941344333
sS'verified'
p25
I00
sS'profile_image_url_https'
p26
Vhttps://abs.twimg.com/sticky/default_profile_images/default_profile_4_normal.png
p27
sS'_json'
p28
(dp29
Vfollow_request_sent
p30
NsVprofile_use_background_image
p31
I01
sVdefault_profile_image
p32
I01
sVid
p33
I2941344333
sVverified
p34
I00
sVprofile_image_url_https
p35
g27
sVprofile_sidebar_fill_color
p36
g23
sVprofile_text_color
p37
V333333
p38
sVfollowers_count
p39
I16
sVprofile_sidebar_border_color
p40
VC0DEED
p41
sVid_str
p42
V2941344333
p43
sVprofile_background_color
p44
VC0DEED
p45
sVlisted_count
p46
I2
sVprofile_background_image_url_https
p47
Vhttps://abs.twimg.com/images/themes/theme1/bg.png
p48
sVutc_offset
p49
NsVstatuses_count
p50
I419
sVdescription
p51
VLuxury villa agent, frustrated opera diva & by default devoted classical fan.Also of truffles & donkeys, tolerance peace  beauty & la dolce vita.
p52
sVfriends_count
p53
I22
sVlocation
p54
V
p55
sVprofile_link_color
p56
V0084B4
p57
sVprofile_image_url
p58
Vhttp://abs.twimg.com/sticky/default_profile_images/default_profile_4_normal.png
p59
sVfollowing
p60
NsVgeo_enabled
p61
I01
sVprofile_background_image_url
p62
Vhttp://abs.twimg.com/images/themes/theme1/bg.png
p63
sVname
p64
Vmarina gratsos
p65
sVlang
p66
Ven
p67
sVprofile_background_tile
p68
I00
sVfavourites_count
p69
I993
sVscreen_name
p70
Vmarinaiki123
p71
sVnotifications
p72
NsVurl
p73
Vhttp://www.carpediemtravel.co.uk
p74
sVcreated_at
p75
VThu Dec 25 22:22:15 +0000 2014
p76
sVcontributors_enabled
p77
I00
sVtime_zone
p78
NsVprotected
p79
I00
sVdefault_profile
p80
I01
sVis_translator
p81
I00
ssS'contributors_enabled'
p82
I00
sS'profile_text_color'
p83
g38
sS'followers_count'
p84
I16
sS'profile_sidebar_border_color'
p85
g41
sS'location'
p86
g55
sS'default_profile_image'
p87
I01
sS'id_str'
p88
g43
sS'utc_offset'
p89
NsS'statuses_count'
p90
I419
sS'description'
p91
g52
sS'friends_count'
p92
I22
sS'profile_link_color'
p93
g57
sS'profile_image_url'
p94
g59
sS'notifications'
p95
NsS'geo_enabled'
p96
I01
sS'profile_background_color'
p97
g45
sS'profile_background_image_url'
p98
g63
sS'name'
p99
g65
sS'lang'
p100
g67
sS'following'
p101
I00
sS'profile_background_tile'
p102
I00
sS'favourites_count'
p103
I993
sS'screen_name'
p104
g71
sS'url'
p105
g74
sS'created_at'
p106
cdatetime
datetime
p107
(S'\x07\xde\x0c\x19\x16\x16\x0f\x00\x00\x00'
p108
tp109
Rp110
sS'profile_background_image_url_https'
p111
g48
sS'time_zone'
p112
NsS'protected'
p113
I00
sS'default_profile'
p114
I01
sS'is_translator'
p115
I00
sS'listed_count'
p116
I2
sbsS'filter_level'
p117
Vlow
p118
sS'geo'
p119
Nsg24
I620277219143872512
sS'favorite_count'
p120
I0
sS'source'
p121
VTwitter for Android
p122
sg100
Ven
p123
sS'author'
p124
g18
sS'in_reply_to_user_id_str'
p125
V174010189
p126
sg28
(dp127
Vcontributors
p128
NsVtruncated
p129
I00
sVtext
p130
g10
sVin_reply_to_status_id
p131
Nsg33
I620277219143872512
sVfavorite_count
p132
I0
sVsource
p133
V<a href="http://twitter.com/download/android" rel="nofollow">Twitter for Android</a>
p134
sVretweeted
p135
I00
sVcoordinates
p136
NsVtimestamp_ms
p137
V1436720587894
p138
sVentities
p139
(dp140
Vsymbols
p141
(lp142
sVmedia
p143
(lp144
(dp145
Vexpanded_url
p146
Vhttp://twitter.com/marinaiki123/status/620277219143872512/photo/1
p147
sVdisplay_url
p148
Vpic.twitter.com/MNgFhup9r3
p149
sg73
Vhttp://t.co/MNgFhup9r3
p150
sVmedia_url_https
p151
Vhttps://pbs.twimg.com/media/CJuq1ieUsAAsoSc.jpg
p152
sg42
V620277210457354240
p153
sVsizes
p154
(dp155
Vsmall
p156
(dp157
Vh
p158
I191
sVresize
p159
Vfit
p160
sVw
p161
I340
ssVlarge
p162
(dp163
g158
I576
sg159
Vfit
p164
sg161
I1024
ssVmedium
p165
(dp166
g158
I337
sg159
Vfit
p167
sg161
I600
ssVthumb
p168
(dp169
g158
I150
sg159
Vcrop
p170
sg161
I150
sssVindices
p171
(lp172
I122
aI144
asVtype
p173
Vphoto
p174
sg33
I620277210457354240
sVmedia_url
p175
Vhttp://pbs.twimg.com/media/CJuq1ieUsAAsoSc.jpg
p176
sasVhashtags
p177
(lp178
(dp179
g171
(lp180
I15
aI32
asg130
VRomeolaybleeding
p181
sasVuser_mentions
p182
(lp183
(dp184
g33
I174010189
sg171
(lp185
I0
aI14
asg42
V174010189
p186
sg70
VJoyceDiDonato
p187
sg64
VJoyce DiDonato
p188
sasVtrends
p189
(lp190
sVurls
p191
(lp192
ssVin_reply_to_screen_name
p193
VJoyceDiDonato
p194
sg42
V620277219143872512
p195
sVretweet_count
p196
I0
sVin_reply_to_user_id
p197
I174010189
sVfavorited
p198
I00
sVuser
p199
g29
sVgeo
p200
NsVin_reply_to_user_id_str
p201
g126
sVpossibly_sensitive
p202
I00
sg66
g123
sg75
VSun Jul 12 17:03:07 +0000 2015
p203
sVfilter_level
p204
g118
sVin_reply_to_status_id_str
p205
NsVplace
p206
(dp207
Vfull_name
p208
VZurich, Switzerland
p209
sg73
Vhttps://api.twitter.com/1.1/geo/id/3acb748d0f1e9265.json
p210
sVcountry
p211
VSchweiz
p212
sVplace_type
p213
Vcity
p214
sVbounding_box
p215
(dp216
g173
VPolygon
p217
sg136
(lp218
(lp219
(lp220
F8.448081
aF47.320183
aa(lp221
F8.448081
aF47.434721
aa(lp222
F8.625442
aF47.434721
aa(lp223
F8.625442
aF47.320183
aaassVcountry_code
p224
VCH
p225
sVattributes
p226
(dp227
sg33
V3acb748d0f1e9265
p228
sg64
VZurich
p229
ssVextended_entities
p230
(dp231
g143
(lp232
(dp233
g146
Vhttp://twitter.com/marinaiki123/status/620277219143872512/photo/1
p234
sg148
Vpic.twitter.com/MNgFhup9r3
p235
sg73
Vhttp://t.co/MNgFhup9r3
p236
sg151
Vhttps://pbs.twimg.com/media/CJuq1ieUsAAsoSc.jpg
p237
sg42
V620277210457354240
p238
sg154
(dp239
g156
(dp240
g158
I191
sg159
Vfit
p241
sg161
I340
ssg162
(dp242
g158
I576
sg159
Vfit
p243
sg161
I1024
ssg165
(dp244
g158
I337
sg159
Vfit
p245
sg161
I600
ssg168
(dp246
g158
I150
sg159
Vcrop
p247
sg161
I150
sssg171
(lp248
I122
aI144
asg173
Vphoto
p249
sg33
I620277210457354240
sg175
Vhttp://pbs.twimg.com/media/CJuq1ieUsAAsoSc.jpg
p250
sasssS'coordinates'
p251
NsS'timestamp_ms'
p252
g138
sS'entities'
p253
g140
sS'in_reply_to_status_id_str'
p254
NsS'in_reply_to_screen_name'
p255
g194
sg88
g195
sS'extended_entities'
p256
g231
sS'retweeted'
p257
I00
sS'place'
p258
g0
(ctweepy.models
Place
p259
g2
Ntp260
Rp261
(dp262
S'full_name'
p263
g209
sg105
g210
sS'country'
p264
g212
sS'place_type'
p265
g214
sS'bounding_box'
p266
g0
(ctweepy.models
BoundingBox
p267
g2
Ntp268
Rp269
(dp270
S'type'
p271
g217
sg251
g218
sbsS'country_code'
p272
g225
sS'attributes'
p273
g227
sg24
g228
sg99
g229
sbsS'retweet_count'
p274
I0
sg106
g107
(S'\x07\xdf\x07\x0c\x11\x03\x07\x00\x00\x00'
p275
tp276
Rp277
sS'in_reply_to_user_id'
p278
I174010189
sb.