ccopy_reg
_reconstructor
p0
(ctweepy.models
Status
p1
c__builtin__
object
p2
Ntp3
Rp4
(dp5
S'favorited'
p6
I00
sS'contributors'
p7
NsS'truncated'
p8
I00
sS'text'
p9
Vnero_beril_films on the set for the video with @theofficial_rob @swissivory &amp; royceda59 #musicvideo\u2026 https://t.co/DSARGtTAZi
p10
sS'source_url'
p11
Vhttp://instagram.com
p12
sS'possibly_sensitive'
p13
I00
sS'in_reply_to_status_id'
p14
NsS'user'
p15
g0
(ctweepy.models
User
p16
g2
Ntp17
Rp18
(dp19
S'follow_request_sent'
p20
NsS'profile_use_background_image'
p21
I01
sS'profile_sidebar_fill_color'
p22
VEFEFEF
p23
sS'id'
p24
I20757018
sS'verified'
p25
I00
sS'profile_image_url_https'
p26
Vhttps://pbs.twimg.com/profile_images/566159465049620480/Ut4z6Y_t_normal.jpeg
p27
sS'_json'
p28
(dp29
Vfollow_request_sent
p30
NsVprofile_use_background_image
p31
I01
sVdefault_profile_image
p32
I00
sVid
p33
I20757018
sVverified
p34
I00
sVprofile_image_url_https
p35
g27
sVprofile_sidebar_fill_color
p36
g23
sVprofile_text_color
p37
V333333
p38
sVfollowers_count
p39
I6830
sVprofile_sidebar_border_color
p40
VEEEEEE
p41
sVid_str
p42
V20757018
p43
sVprofile_background_color
p44
V131516
p45
sVlisted_count
p46
I28
sVprofile_background_image_url_https
p47
Vhttps://abs.twimg.com/images/themes/theme14/bg.gif
p48
sVutc_offset
p49
I7200
sVstatuses_count
p50
I1361
sVdescription
p51
VDJ - Producer - Entertainer
p52
sVfriends_count
p53
I2054
sVlocation
p54
VReal Dreams the Album
p55
sVprofile_link_color
p56
V009999
p57
sVprofile_image_url
p58
Vhttp://pbs.twimg.com/profile_images/566159465049620480/Ut4z6Y_t_normal.jpeg
p59
sVfollowing
p60
NsVgeo_enabled
p61
I01
sVprofile_banner_url
p62
Vhttps://pbs.twimg.com/profile_banners/20757018/1423817932
p63
sVprofile_background_image_url
p64
Vhttp://abs.twimg.com/images/themes/theme14/bg.gif
p65
sVname
p66
VSWISSIVORY
p67
sVlang
p68
Ven
p69
sVprofile_background_tile
p70
I01
sVfavourites_count
p71
I978
sVscreen_name
p72
VSwissivory
p73
sVnotifications
p74
NsVurl
p75
Vhttp://swissivorymusic.com/products/real-dreams-album-pre-order
p76
sVcreated_at
p77
VFri Feb 13 08:37:48 +0000 2009
p78
sVcontributors_enabled
p79
I00
sVtime_zone
p80
VBern
p81
sVprotected
p82
I00
sVdefault_profile
p83
I00
sVis_translator
p84
I00
ssS'contributors_enabled'
p85
I00
sS'profile_text_color'
p86
g38
sS'followers_count'
p87
I6830
sS'profile_sidebar_border_color'
p88
g41
sS'location'
p89
g55
sS'default_profile_image'
p90
I00
sS'id_str'
p91
g43
sS'utc_offset'
p92
I7200
sS'statuses_count'
p93
I1361
sS'description'
p94
g52
sS'friends_count'
p95
I2054
sS'profile_link_color'
p96
g57
sS'profile_image_url'
p97
g59
sS'notifications'
p98
NsS'geo_enabled'
p99
I01
sS'profile_background_color'
p100
g45
sS'profile_banner_url'
p101
g63
sS'profile_background_image_url'
p102
g65
sS'name'
p103
g67
sS'lang'
p104
g69
sS'following'
p105
I00
sS'profile_background_tile'
p106
I01
sS'favourites_count'
p107
I978
sS'screen_name'
p108
g73
sS'url'
p109
g76
sS'created_at'
p110
cdatetime
datetime
p111
(S'\x07\xd9\x02\r\x08%0\x00\x00\x00'
p112
tp113
Rp114
sS'profile_background_image_url_https'
p115
g48
sS'time_zone'
p116
g81
sS'protected'
p117
I00
sS'default_profile'
p118
I00
sS'is_translator'
p119
I00
sS'listed_count'
p120
I28
sbsS'filter_level'
p121
Vlow
p122
sS'geo'
p123
(dp124
Vtype
p125
VPoint
p126
sVcoordinates
p127
(lp128
F47.377962
aF8.541044
assg24
I618823176198455296
sS'favorite_count'
p129
I0
sS'source'
p130
VInstagram
p131
sg104
Ven
p132
sS'author'
p133
g18
sS'in_reply_to_user_id_str'
p134
Nsg28
(dp135
Vcontributors
p136
NsVtruncated
p137
I00
sVtext
p138
g10
sVin_reply_to_status_id
p139
Nsg33
I618823176198455296
sVfavorite_count
p140
I0
sVsource
p141
V<a href="http://instagram.com" rel="nofollow">Instagram</a>
p142
sVretweeted
p143
I00
sg127
(dp144
g125
VPoint
p145
sg127
(lp146
F8.541044
aF47.377962
assVtimestamp_ms
p147
V1436373917041
p148
sVentities
p149
(dp150
Vuser_mentions
p151
(lp152
(dp153
g33
I153530428
sVindices
p154
(lp155
I47
aI63
asg42
V153530428
p156
sg72
Vtheofficial_rob
p157
sg66
VROB
p158
sa(dp159
g33
I20757018
sg154
(lp160
I64
aI75
asg42
V20757018
p161
sg72
VSwissivory
p162
sg66
VSWISSIVORY
p163
sasVsymbols
p164
(lp165
sVtrends
p166
(lp167
sVhashtags
p168
(lp169
(dp170
g154
(lp171
I92
aI103
asg138
Vmusicvideo
p172
sasVurls
p173
(lp174
(dp175
g75
Vhttps://t.co/DSARGtTAZi
p176
sg154
(lp177
I105
aI128
asVexpanded_url
p178
Vhttps://instagram.com/p/44eD3NA_FA/
p179
sVdisplay_url
p180
Vinstagram.com/p/44eD3NA_FA/
p181
sassVin_reply_to_screen_name
p182
Nsg42
V618823176198455296
p183
sVretweet_count
p184
I0
sVin_reply_to_user_id
p185
NsVfavorited
p186
I00
sVuser
p187
g29
sVgeo
p188
g124
sVin_reply_to_user_id_str
p189
NsVpossibly_sensitive
p190
I00
sg68
g132
sg77
VWed Jul 08 16:45:17 +0000 2015
p191
sVfilter_level
p192
g122
sVin_reply_to_status_id_str
p193
NsVplace
p194
(dp195
Vfull_name
p196
VZurich, Switzerland
p197
sg75
Vhttps://api.twitter.com/1.1/geo/id/3acb748d0f1e9265.json
p198
sVcountry
p199
VSchweiz
p200
sVplace_type
p201
Vcity
p202
sVbounding_box
p203
(dp204
g125
VPolygon
p205
sg127
(lp206
(lp207
(lp208
F8.448081
aF47.320183
aa(lp209
F8.448081
aF47.434721
aa(lp210
F8.625442
aF47.434721
aa(lp211
F8.625442
aF47.320183
aaassVcountry_code
p212
VCH
p213
sVattributes
p214
(dp215
sg33
V3acb748d0f1e9265
p216
sg66
VZurich
p217
sssS'coordinates'
p218
g144
sS'timestamp_ms'
p219
g148
sS'entities'
p220
g150
sS'in_reply_to_status_id_str'
p221
NsS'in_reply_to_screen_name'
p222
Nsg91
g183
sS'retweeted'
p223
I00
sS'place'
p224
g0
(ctweepy.models
Place
p225
g2
Ntp226
Rp227
(dp228
S'full_name'
p229
g197
sg109
g198
sS'country'
p230
g200
sS'place_type'
p231
g202
sS'bounding_box'
p232
g0
(ctweepy.models
BoundingBox
p233
g2
Ntp234
Rp235
(dp236
S'type'
p237
g205
sg218
g206
sbsS'country_code'
p238
g213
sS'attributes'
p239
g215
sg24
g216
sg103
g217
sbsS'retweet_count'
p240
I0
sg110
g111
(S'\x07\xdf\x07\x08\x10-\x11\x00\x00\x00'
p241
tp242
Rp243
sS'in_reply_to_user_id'
p244
Nsb.