ccopy_reg
_reconstructor
p0
(ctweepy.models
Status
p1
c__builtin__
object
p2
Ntp3
Rp4
(dp5
S'favorited'
p6
I00
sS'contributors'
p7
NsS'truncated'
p8
I00
sS'text'
p9
V@SWFCBABES1 @robstaton http://t.co/PNj2bvuOXL
p10
sS'source_url'
p11
Vhttp://twitter.com
p12
sS'possibly_sensitive'
p13
I00
sS'in_reply_to_status_id'
p14
I620582524574670848
sS'user'
p15
g0
(ctweepy.models
User
p16
g2
Ntp17
Rp18
(dp19
S'follow_request_sent'
p20
NsS'profile_use_background_image'
p21
I01
sS'profile_sidebar_fill_color'
p22
VDDEEF6
p23
sS'id'
p24
I74424395
sS'verified'
p25
I00
sS'profile_image_url_https'
p26
Vhttps://pbs.twimg.com/profile_images/378800000034592130/47927e1ba62076a19094366074e52aa5_normal.jpeg
p27
sS'_json'
p28
(dp29
Vfollow_request_sent
p30
NsVprofile_use_background_image
p31
I01
sVdefault_profile_image
p32
I00
sVid
p33
I74424395
sVverified
p34
I00
sVprofile_image_url_https
p35
g27
sVprofile_sidebar_fill_color
p36
g23
sVprofile_text_color
p37
V333333
p38
sVfollowers_count
p39
I1087
sVprofile_sidebar_border_color
p40
VC0DEED
p41
sVid_str
p42
V74424395
p43
sVprofile_background_color
p44
VC0DEED
p45
sVlisted_count
p46
I7
sVprofile_background_image_url_https
p47
Vhttps://abs.twimg.com/images/themes/theme1/bg.png
p48
sVutc_offset
p49
I7200
sVstatuses_count
p50
I12404
sVdescription
p51
VDonny lad dragged to Switzerland 14 years ago, still loving the owls from afar. Massive back where they belong soon rather than later wawaw
p52
sVfriends_count
p53
I1181
sVlocation
p54
VSwitzerland
p55
sVprofile_link_color
p56
V0084B4
p57
sVprofile_image_url
p58
Vhttp://pbs.twimg.com/profile_images/378800000034592130/47927e1ba62076a19094366074e52aa5_normal.jpeg
p59
sVfollowing
p60
NsVgeo_enabled
p61
I01
sVprofile_banner_url
p62
Vhttps://pbs.twimg.com/profile_banners/74424395/1397376932
p63
sVprofile_background_image_url
p64
Vhttp://abs.twimg.com/images/themes/theme1/bg.png
p65
sVname
p66
VSwissowls
p67
sVlang
p68
Ven
p69
sVprofile_background_tile
p70
I00
sVfavourites_count
p71
I11973
sVscreen_name
p72
Vbadendido
p73
sVnotifications
p74
NsVurl
p75
NsVcreated_at
p76
VTue Sep 15 11:30:41 +0000 2009
p77
sVcontributors_enabled
p78
I00
sVtime_zone
p79
VBern
p80
sVprotected
p81
I00
sVdefault_profile
p82
I01
sVis_translator
p83
I00
ssS'contributors_enabled'
p84
I00
sS'profile_text_color'
p85
g38
sS'followers_count'
p86
I1087
sS'profile_sidebar_border_color'
p87
g41
sS'location'
p88
g55
sS'default_profile_image'
p89
I00
sS'id_str'
p90
g43
sS'utc_offset'
p91
I7200
sS'statuses_count'
p92
I12404
sS'description'
p93
g52
sS'friends_count'
p94
I1181
sS'profile_link_color'
p95
g57
sS'profile_image_url'
p96
g59
sS'notifications'
p97
NsS'geo_enabled'
p98
I01
sS'profile_background_color'
p99
g45
sS'profile_banner_url'
p100
g63
sS'profile_background_image_url'
p101
g65
sS'name'
p102
g67
sS'lang'
p103
g69
sS'following'
p104
I00
sS'profile_background_tile'
p105
I00
sS'favourites_count'
p106
I11973
sS'screen_name'
p107
g73
sS'url'
p108
NsS'created_at'
p109
cdatetime
datetime
p110
(S'\x07\xd9\t\x0f\x0b\x1e)\x00\x00\x00'
p111
tp112
Rp113
sS'profile_background_image_url_https'
p114
g48
sS'time_zone'
p115
g80
sS'protected'
p116
I00
sS'default_profile'
p117
I01
sS'is_translator'
p118
I00
sS'listed_count'
p119
I7
sbsS'filter_level'
p120
Vlow
p121
sS'geo'
p122
Nsg24
I620582683719151617
sS'favorite_count'
p123
I0
sS'source'
p124
VTwitter Web Client
p125
sg103
Vund
p126
sS'author'
p127
g18
sS'in_reply_to_user_id_str'
p128
V1183507561
p129
sg28
(dp130
Vcontributors
p131
NsVtruncated
p132
I00
sVtext
p133
g10
sVin_reply_to_status_id
p134
I620582524574670848
sg33
I620582683719151617
sVfavorite_count
p135
I0
sVsource
p136
V<a href="http://twitter.com" rel="nofollow">Twitter Web Client</a>
p137
sVretweeted
p138
I00
sVcoordinates
p139
NsVtimestamp_ms
p140
V1436793416324
p141
sVentities
p142
(dp143
Vsymbols
p144
(lp145
sVmedia
p146
(lp147
(dp148
Vexpanded_url
p149
Vhttp://twitter.com/badendido/status/620582683719151617/photo/1
p150
sVdisplay_url
p151
Vpic.twitter.com/PNj2bvuOXL
p152
sg75
Vhttp://t.co/PNj2bvuOXL
p153
sVmedia_url_https
p154
Vhttps://pbs.twimg.com/media/CJzAqXhWoAE8YMH.jpg
p155
sg42
V620582682771234817
p156
sVsizes
p157
(dp158
Vsmall
p159
(dp160
Vh
p161
I259
sVresize
p162
Vfit
p163
sVw
p164
I194
ssVlarge
p165
(dp166
g161
I259
sg162
Vfit
p167
sg164
I194
ssVmedium
p168
(dp169
g161
I259
sg162
Vfit
p170
sg164
I194
ssVthumb
p171
(dp172
g161
I150
sg162
Vcrop
p173
sg164
I150
sssVindices
p174
(lp175
I23
aI45
asVtype
p176
Vphoto
p177
sg33
I620582682771234817
sVmedia_url
p178
Vhttp://pbs.twimg.com/media/CJzAqXhWoAE8YMH.jpg
p179
sasVhashtags
p180
(lp181
sVuser_mentions
p182
(lp183
(dp184
g33
I1183507561
sg174
(lp185
I0
aI11
asg42
V1183507561
p186
sg72
VSWFCBABES1
p187
sg66
V SWFC Babe
p188
sa(dp189
g33
I24683490
sg174
(lp190
I12
aI22
asg42
V24683490
p191
sg72
Vrobstaton
p192
sg66
VRob Staton
p193
sasVtrends
p194
(lp195
sVurls
p196
(lp197
ssVin_reply_to_screen_name
p198
VSWFCBABES1
p199
sg42
V620582683719151617
p200
sVretweet_count
p201
I0
sVin_reply_to_user_id
p202
I1183507561
sVfavorited
p203
I00
sVuser
p204
g29
sVgeo
p205
NsVin_reply_to_user_id_str
p206
g129
sVpossibly_sensitive
p207
I00
sg68
g126
sg76
VMon Jul 13 13:16:56 +0000 2015
p208
sVfilter_level
p209
g121
sVin_reply_to_status_id_str
p210
V620582524574670848
p211
sVplace
p212
(dp213
Vfull_name
p214
VZurich, Switzerland
p215
sg75
Vhttps://api.twitter.com/1.1/geo/id/3acb748d0f1e9265.json
p216
sVcountry
p217
VSchweiz
p218
sVplace_type
p219
Vcity
p220
sVbounding_box
p221
(dp222
g176
VPolygon
p223
sg139
(lp224
(lp225
(lp226
F8.448081
aF47.320183
aa(lp227
F8.448081
aF47.434721
aa(lp228
F8.625442
aF47.434721
aa(lp229
F8.625442
aF47.320183
aaassVcountry_code
p230
VCH
p231
sVattributes
p232
(dp233
sg33
V3acb748d0f1e9265
p234
sg66
VZurich
p235
ssVextended_entities
p236
(dp237
g146
(lp238
(dp239
g149
Vhttp://twitter.com/badendido/status/620582683719151617/photo/1
p240
sg151
Vpic.twitter.com/PNj2bvuOXL
p241
sg75
Vhttp://t.co/PNj2bvuOXL
p242
sg154
Vhttps://pbs.twimg.com/media/CJzAqXhWoAE8YMH.jpg
p243
sg42
V620582682771234817
p244
sg157
(dp245
g159
(dp246
g161
I259
sg162
Vfit
p247
sg164
I194
ssg165
(dp248
g161
I259
sg162
Vfit
p249
sg164
I194
ssg168
(dp250
g161
I259
sg162
Vfit
p251
sg164
I194
ssg171
(dp252
g161
I150
sg162
Vcrop
p253
sg164
I150
sssg174
(lp254
I23
aI45
asg176
Vphoto
p255
sg33
I620582682771234817
sg178
Vhttp://pbs.twimg.com/media/CJzAqXhWoAE8YMH.jpg
p256
sasssS'coordinates'
p257
NsS'timestamp_ms'
p258
g141
sS'entities'
p259
g143
sS'in_reply_to_status_id_str'
p260
g211
sS'in_reply_to_screen_name'
p261
g199
sg90
g200
sS'extended_entities'
p262
g237
sS'retweeted'
p263
I00
sS'place'
p264
g0
(ctweepy.models
Place
p265
g2
Ntp266
Rp267
(dp268
S'full_name'
p269
g215
sg108
g216
sS'country'
p270
g218
sS'place_type'
p271
g220
sS'bounding_box'
p272
g0
(ctweepy.models
BoundingBox
p273
g2
Ntp274
Rp275
(dp276
S'type'
p277
g223
sg257
g224
sbsS'country_code'
p278
g231
sS'attributes'
p279
g233
sg24
g234
sg102
g235
sbsS'retweet_count'
p280
I0
sg109
g110
(S'\x07\xdf\x07\r\r\x108\x00\x00\x00'
p281
tp282
Rp283
sS'in_reply_to_user_id'
p284
I1183507561
sb.