ccopy_reg
_reconstructor
p0
(ctweepy.models
Status
p1
c__builtin__
object
p2
Ntp3
Rp4
(dp5
S'favorited'
p6
I00
sS'contributors'
p7
NsS'truncated'
p8
I00
sS'text'
p9
V@cransmontana @CransMontanaApp \u000aTODAY \u000aFASHION SHOW AT THE @Casino_Valais,\u000aat 10 PM!\u000a\u000aWe want you!
p10
sS'source_url'
p11
Vhttp://twitter.com
p12
sS'possibly_sensitive'
p13
I00
sS'in_reply_to_status_id'
p14
NsS'user'
p15
g0
(ctweepy.models
User
p16
g2
Ntp17
Rp18
(dp19
S'follow_request_sent'
p20
NsS'profile_use_background_image'
p21
I01
sS'profile_sidebar_fill_color'
p22
V000000
p23
sS'id'
p24
I3369340659
sS'verified'
p25
I00
sS'profile_image_url_https'
p26
Vhttps://pbs.twimg.com/profile_images/619533247265902592/1oiEXO1W_normal.jpg
p27
sS'_json'
p28
(dp29
Vfollow_request_sent
p30
NsVprofile_use_background_image
p31
I01
sVdefault_profile_image
p32
I00
sVid
p33
I3369340659
sVverified
p34
I00
sVprofile_image_url_https
p35
g27
sVprofile_sidebar_fill_color
p36
g23
sVprofile_text_color
p37
V000000
p38
sVfollowers_count
p39
I6
sVprofile_sidebar_border_color
p40
V000000
p41
sVid_str
p42
V3369340659
p43
sVprofile_background_color
p44
V3B94D9
p45
sVlisted_count
p46
I0
sVprofile_background_image_url_https
p47
Vhttps://pbs.twimg.com/profile_background_images/619544952880635904/A361mfzv.png
p48
sVutc_offset
p49
NsVstatuses_count
p50
I3
sVdescription
p51
NsVfriends_count
p52
I179
sVlocation
p53
V
p54
sVprofile_link_color
p55
V0084B4
p56
sVprofile_image_url
p57
Vhttp://pbs.twimg.com/profile_images/619533247265902592/1oiEXO1W_normal.jpg
p58
sVfollowing
p59
NsVgeo_enabled
p60
I01
sVprofile_background_image_url
p61
Vhttp://pbs.twimg.com/profile_background_images/619544952880635904/A361mfzv.png
p62
sVname
p63
VCasino Crans-Montana
p64
sVlang
p65
Vit
p66
sVprofile_background_tile
p67
I00
sVfavourites_count
p68
I0
sVscreen_name
p69
VCasino_Valais
p70
sVnotifications
p71
NsVurl
p72
NsVcreated_at
p73
VFri Jul 10 15:44:55 +0000 2015
p74
sVcontributors_enabled
p75
I00
sVtime_zone
p76
NsVprotected
p77
I00
sVdefault_profile
p78
I00
sVis_translator
p79
I00
ssS'contributors_enabled'
p80
I00
sS'profile_text_color'
p81
g38
sS'followers_count'
p82
I6
sS'profile_sidebar_border_color'
p83
g41
sS'location'
p84
g54
sS'default_profile_image'
p85
I00
sS'id_str'
p86
g43
sS'utc_offset'
p87
NsS'statuses_count'
p88
I3
sS'description'
p89
NsS'friends_count'
p90
I179
sS'profile_link_color'
p91
g56
sS'profile_image_url'
p92
g58
sS'notifications'
p93
NsS'geo_enabled'
p94
I01
sS'profile_background_color'
p95
g45
sS'profile_background_image_url'
p96
g62
sS'name'
p97
g64
sS'lang'
p98
g66
sS'following'
p99
I00
sS'profile_background_tile'
p100
I00
sS'favourites_count'
p101
I0
sS'screen_name'
p102
g70
sS'url'
p103
NsS'created_at'
p104
cdatetime
datetime
p105
(S'\x07\xdf\x07\n\x0f,7\x00\x00\x00'
p106
tp107
Rp108
sS'profile_background_image_url_https'
p109
g48
sS'time_zone'
p110
NsS'protected'
p111
I00
sS'default_profile'
p112
I00
sS'is_translator'
p113
I00
sS'listed_count'
p114
I0
sbsS'filter_level'
p115
Vlow
p116
sS'geo'
p117
Nsg24
I619790054609842176
sS'favorite_count'
p118
I0
sS'source'
p119
VTwitter Web Client
p120
sg98
Ven
p121
sS'author'
p122
g18
sS'in_reply_to_user_id_str'
p123
V21858496
p124
sg28
(dp125
Vcontributors
p126
NsVtruncated
p127
I00
sVtext
p128
V@cransmontana @CransMontanaApp \u000aTODAY \u000aFASHION SHOW AT THE @Casino_Valais,\u000aat 10 PM!\u000a\u000aWe want you!
p129
sVin_reply_to_status_id
p130
Nsg33
I619790054609842176
sVfavorite_count
p131
I0
sVsource
p132
V<a href="http://twitter.com" rel="nofollow">Twitter Web Client</a>
p133
sVretweeted
p134
I00
sVcoordinates
p135
NsVtimestamp_ms
p136
V1436604438818
p137
sVentities
p138
(dp139
Vuser_mentions
p140
(lp141
(dp142
g33
I21858496
sVindices
p143
(lp144
I0
aI13
asg42
V21858496
p145
sg69
Vcransmontana
p146
sg63
VCrans-Montana
p147
sa(dp148
g33
I478909511
sg143
(lp149
I14
aI30
asg42
V478909511
p150
sg69
VCransMontanaApp
p151
sg63
VCransMontanaApp
p152
sa(dp153
g33
I3369340659
sg143
(lp154
I59
aI73
asg42
V3369340659
p155
sg69
VCasino_Valais
p156
sg63
VCasino Crans-Montana
p157
sasVsymbols
p158
(lp159
sVtrends
p160
(lp161
sVhashtags
p162
(lp163
sVurls
p164
(lp165
ssVin_reply_to_screen_name
p166
Vcransmontana
p167
sg42
V619790054609842176
p168
sVretweet_count
p169
I0
sVin_reply_to_user_id
p170
I21858496
sVfavorited
p171
I00
sVuser
p172
g29
sVgeo
p173
NsVin_reply_to_user_id_str
p174
g124
sVpossibly_sensitive
p175
I00
sg65
g121
sg73
VSat Jul 11 08:47:18 +0000 2015
p176
sVfilter_level
p177
g116
sVin_reply_to_status_id_str
p178
NsVplace
p179
(dp180
Vfull_name
p181
VZurigo, Svizzera
p182
sg72
Vhttps://api.twitter.com/1.1/geo/id/3acb748d0f1e9265.json
p183
sVcountry
p184
VSchweiz
p185
sVplace_type
p186
Vcity
p187
sVbounding_box
p188
(dp189
Vtype
p190
VPolygon
p191
sg135
(lp192
(lp193
(lp194
F8.448081
aF47.320183
aa(lp195
F8.448081
aF47.434721
aa(lp196
F8.625442
aF47.434721
aa(lp197
F8.625442
aF47.320183
aaassVcountry_code
p198
VCH
p199
sVattributes
p200
(dp201
sg33
V3acb748d0f1e9265
p202
sg63
VZurigo
p203
sssS'coordinates'
p204
NsS'timestamp_ms'
p205
g137
sS'entities'
p206
g139
sS'in_reply_to_status_id_str'
p207
NsS'in_reply_to_screen_name'
p208
g167
sg86
g168
sS'retweeted'
p209
I00
sS'place'
p210
g0
(ctweepy.models
Place
p211
g2
Ntp212
Rp213
(dp214
S'full_name'
p215
g182
sg103
g183
sS'country'
p216
g185
sS'place_type'
p217
g187
sS'bounding_box'
p218
g0
(ctweepy.models
BoundingBox
p219
g2
Ntp220
Rp221
(dp222
S'type'
p223
g191
sg204
g192
sbsS'country_code'
p224
g199
sS'attributes'
p225
g201
sg24
g202
sg97
g203
sbsS'retweet_count'
p226
I0
sg104
g105
(S'\x07\xdf\x07\x0b\x08/\x12\x00\x00\x00'
p227
tp228
Rp229
sS'in_reply_to_user_id'
p230
I21858496
sb.