ccopy_reg
_reconstructor
p0
(ctweepy.models
Status
p1
c__builtin__
object
p2
Ntp3
Rp4
(dp5
S'favorited'
p6
I00
sS'contributors'
p7
NsS'truncated'
p8
I00
sS'text'
p9
VCan you recommend anyone for this #job? Senior Business Development Manager - http://t.co/2Tg6kUA3Ki #Zurich http://t.co/sTXvqTJrrw
p10
sS'source_url'
p11
Vhttp://tweetmyjobs.com
p12
sS'possibly_sensitive'
p13
I00
sS'in_reply_to_status_id'
p14
NsS'user'
p15
g0
(ctweepy.models
User
p16
g2
Ntp17
Rp18
(dp19
S'follow_request_sent'
p20
NsS'profile_use_background_image'
p21
I00
sS'profile_sidebar_fill_color'
p22
VDDEEF6
p23
sS'id'
p24
I2409511728
sS'verified'
p25
I00
sS'profile_image_url_https'
p26
Vhttps://pbs.twimg.com/profile_images/466934534835937280/YL3bWI5w_normal.png
p27
sS'_json'
p28
(dp29
Vfollow_request_sent
p30
NsVprofile_use_background_image
p31
I00
sVdefault_profile_image
p32
I00
sVid
p33
I2409511728
sVverified
p34
I00
sVprofile_image_url_https
p35
g27
sVprofile_sidebar_fill_color
p36
g23
sVprofile_text_color
p37
V333333
p38
sVfollowers_count
p39
I259
sVprofile_sidebar_border_color
p40
VFFFFFF
p41
sVid_str
p42
V2409511728
p43
sVprofile_background_color
p44
V3B94D9
p45
sVlisted_count
p46
I99
sVprofile_background_image_url_https
p47
Vhttps://pbs.twimg.com/profile_background_images/448199661874991104/nTWkkhaC.png
p48
sVutc_offset
p49
NsVstatuses_count
p50
I406
sVdescription
p51
VThis is the #jobs feed for #CEB - the world's leading member-based advisory company. Now #hiring across the globe. Follow @CEBCareers for more on #LifeatCEB.
p52
sVfriends_count
p53
I89
sVlocation
p54
VGlobal Offices
p55
sVprofile_link_color
p56
V0084B4
p57
sVprofile_image_url
p58
Vhttp://pbs.twimg.com/profile_images/466934534835937280/YL3bWI5w_normal.png
p59
sVfollowing
p60
NsVgeo_enabled
p61
I01
sVprofile_banner_url
p62
Vhttps://pbs.twimg.com/profile_banners/2409511728/1421098898
p63
sVprofile_background_image_url
p64
Vhttp://pbs.twimg.com/profile_background_images/448199661874991104/nTWkkhaC.png
p65
sVname
p66
VCEB Jobs
p67
sVlang
p68
Ven
p69
sVprofile_background_tile
p70
I00
sVfavourites_count
p71
I12
sVscreen_name
p72
VCEBJobs
p73
sVnotifications
p74
NsVurl
p75
Vhttp://cebcareers.com
p76
sVcreated_at
p77
VMon Mar 24 20:27:30 +0000 2014
p78
sVcontributors_enabled
p79
I00
sVtime_zone
p80
NsVprotected
p81
I00
sVdefault_profile
p82
I00
sVis_translator
p83
I00
ssS'contributors_enabled'
p84
I00
sS'profile_text_color'
p85
g38
sS'followers_count'
p86
I259
sS'profile_sidebar_border_color'
p87
g41
sS'location'
p88
g55
sS'default_profile_image'
p89
I00
sS'id_str'
p90
g43
sS'utc_offset'
p91
NsS'statuses_count'
p92
I406
sS'description'
p93
g52
sS'friends_count'
p94
I89
sS'profile_link_color'
p95
g57
sS'profile_image_url'
p96
g59
sS'notifications'
p97
NsS'geo_enabled'
p98
I01
sS'profile_background_color'
p99
g45
sS'profile_banner_url'
p100
g63
sS'profile_background_image_url'
p101
g65
sS'name'
p102
g67
sS'lang'
p103
g69
sS'following'
p104
I00
sS'profile_background_tile'
p105
I00
sS'favourites_count'
p106
I12
sS'screen_name'
p107
g73
sS'url'
p108
g76
sS'created_at'
p109
cdatetime
datetime
p110
(S'\x07\xde\x03\x18\x14\x1b\x1e\x00\x00\x00'
p111
tp112
Rp113
sS'profile_background_image_url_https'
p114
g48
sS'time_zone'
p115
NsS'protected'
p116
I00
sS'default_profile'
p117
I00
sS'is_translator'
p118
I00
sS'listed_count'
p119
I99
sbsS'filter_level'
p120
Vlow
p121
sS'geo'
p122
(dp123
Vtype
p124
VPoint
p125
sVcoordinates
p126
(lp127
F47.367347
aF8.550003
assg24
I618895471046582272
sS'favorite_count'
p128
I0
sS'source'
p129
VSafeTweet by TweetMyJOBS
p130
sg103
Ven
p131
sS'author'
p132
g18
sS'in_reply_to_user_id_str'
p133
Nsg28
(dp134
Vcontributors
p135
NsVtruncated
p136
I00
sVtext
p137
g10
sVin_reply_to_status_id
p138
Nsg33
I618895471046582272
sVfavorite_count
p139
I0
sVsource
p140
V<a href="http://tweetmyjobs.com" rel="nofollow">SafeTweet by TweetMyJOBS</a>
p141
sVretweeted
p142
I00
sg126
(dp143
g124
VPoint
p144
sg126
(lp145
F8.550003
aF47.367347
assVtimestamp_ms
p146
V1436391153476
p147
sVentities
p148
(dp149
Vsymbols
p150
(lp151
sVmedia
p152
(lp153
(dp154
Vexpanded_url
p155
Vhttp://twitter.com/CEBJobs/status/618895471046582272/photo/1
p156
sVdisplay_url
p157
Vpic.twitter.com/sTXvqTJrrw
p158
sg75
Vhttp://t.co/sTXvqTJrrw
p159
sVmedia_url_https
p160
Vhttps://pbs.twimg.com/media/CJbCJtzUYAApOi9.jpg
p161
sg42
V618895470979473408
p162
sVsizes
p163
(dp164
Vlarge
p165
(dp166
Vh
p167
I512
sVresize
p168
Vfit
p169
sVw
p170
I1024
ssVsmall
p171
(dp172
g167
I170
sg168
Vfit
p173
sg170
I340
ssVmedium
p174
(dp175
g167
I300
sg168
Vfit
p176
sg170
I600
ssVthumb
p177
(dp178
g167
I150
sg168
Vcrop
p179
sg170
I150
sssVindices
p180
(lp181
I109
aI131
asg124
Vphoto
p182
sg33
I618895470979473408
sVmedia_url
p183
Vhttp://pbs.twimg.com/media/CJbCJtzUYAApOi9.jpg
p184
sasVhashtags
p185
(lp186
(dp187
g180
(lp188
I34
aI38
asg137
Vjob
p189
sa(dp190
g180
(lp191
I101
aI108
asg137
VZurich
p192
sasVuser_mentions
p193
(lp194
sVtrends
p195
(lp196
sVurls
p197
(lp198
(dp199
g75
Vhttp://t.co/2Tg6kUA3Ki
p200
sg180
(lp201
I78
aI100
asg155
Vhttp://bit.ly/1IgFfb8
p202
sg157
Vbit.ly/1IgFfb8
p203
sassVin_reply_to_screen_name
p204
Nsg42
V618895471046582272
p205
sVretweet_count
p206
I0
sVin_reply_to_user_id
p207
NsVfavorited
p208
I00
sVuser
p209
g29
sVgeo
p210
g123
sVin_reply_to_user_id_str
p211
NsVpossibly_sensitive
p212
I00
sg68
g131
sg77
VWed Jul 08 21:32:33 +0000 2015
p213
sVfilter_level
p214
g121
sVin_reply_to_status_id_str
p215
NsVplace
p216
(dp217
Vfull_name
p218
VZurich, Switzerland
p219
sg75
Vhttps://api.twitter.com/1.1/geo/id/3acb748d0f1e9265.json
p220
sVcountry
p221
VSchweiz
p222
sVplace_type
p223
Vcity
p224
sVbounding_box
p225
(dp226
g124
VPolygon
p227
sg126
(lp228
(lp229
(lp230
F8.448081
aF47.320183
aa(lp231
F8.448081
aF47.434721
aa(lp232
F8.625442
aF47.434721
aa(lp233
F8.625442
aF47.320183
aaassVcountry_code
p234
VCH
p235
sVattributes
p236
(dp237
sg33
V3acb748d0f1e9265
p238
sg66
VZurich
p239
ssVextended_entities
p240
(dp241
g152
(lp242
(dp243
g155
Vhttp://twitter.com/CEBJobs/status/618895471046582272/photo/1
p244
sg157
Vpic.twitter.com/sTXvqTJrrw
p245
sg75
Vhttp://t.co/sTXvqTJrrw
p246
sg160
Vhttps://pbs.twimg.com/media/CJbCJtzUYAApOi9.jpg
p247
sg42
V618895470979473408
p248
sg163
(dp249
g165
(dp250
g167
I512
sg168
Vfit
p251
sg170
I1024
ssg171
(dp252
g167
I170
sg168
Vfit
p253
sg170
I340
ssg174
(dp254
g167
I300
sg168
Vfit
p255
sg170
I600
ssg177
(dp256
g167
I150
sg168
Vcrop
p257
sg170
I150
sssg180
(lp258
I109
aI131
asg124
Vphoto
p259
sg33
I618895470979473408
sg183
Vhttp://pbs.twimg.com/media/CJbCJtzUYAApOi9.jpg
p260
sasssS'coordinates'
p261
g143
sS'timestamp_ms'
p262
g147
sS'entities'
p263
g149
sS'in_reply_to_status_id_str'
p264
NsS'in_reply_to_screen_name'
p265
Nsg90
g205
sS'extended_entities'
p266
g241
sS'retweeted'
p267
I00
sS'place'
p268
g0
(ctweepy.models
Place
p269
g2
Ntp270
Rp271
(dp272
S'full_name'
p273
g219
sg108
g220
sS'country'
p274
g222
sS'place_type'
p275
g224
sS'bounding_box'
p276
g0
(ctweepy.models
BoundingBox
p277
g2
Ntp278
Rp279
(dp280
S'type'
p281
g227
sg261
g228
sbsS'country_code'
p282
g235
sS'attributes'
p283
g237
sg24
g238
sg102
g239
sbsS'retweet_count'
p284
I0
sg109
g110
(S'\x07\xdf\x07\x08\x15 !\x00\x00\x00'
p285
tp286
Rp287
sS'in_reply_to_user_id'
p288
Nsb.