ccopy_reg
_reconstructor
p0
(ctweepy.models
Status
p1
c__builtin__
object
p2
Ntp3
Rp4
(dp5
S'contributors'
p6
NsS'truncated'
p7
I00
sS'text'
p8
VGute statements vom #mbforum15  https://t.co/FmhkmxVodp
p9
sS'in_reply_to_status_id'
p10
NsS'id'
p11
I620902062855950336
sS'favorite_count'
p12
I0
sS'entities'
p13
(dp14
Vuser_mentions
p15
(lp16
sVsymbols
p17
(lp18
sVtrends
p19
(lp20
sVhashtags
p21
(lp22
(dp23
Vindices
p24
(lp25
I20
aI30
asVtext
p26
Vmbforum15
p27
sasVurls
p28
(lp29
(dp30
Vurl
p31
Vhttps://t.co/FmhkmxVodp
p32
sg24
(lp33
I32
aI55
asVexpanded_url
p34
Vhttps://twitter.com/rufch/status/620887449187799040
p35
sVdisplay_url
p36
Vtwitter.com/rufch/status/6\u2026
p37
sassS'quoted_status_id'
p38
I620887449187799040
sS'_json'
p39
(dp40
Vcontributors
p41
NsVtruncated
p42
I00
sg26
g9
sVin_reply_to_status_id
p43
NsVid
p44
I620902062855950336
sVfavorite_count
p45
I0
sVsource
p46
V<a href="http://twitter.com/download/iphone" rel="nofollow">Twitter for iPhone</a>
p47
sVquoted_status_id
p48
I620887449187799040
sVretweeted
p49
I00
sVcoordinates
p50
NsVtimestamp_ms
p51
V1436869562244
p52
sVquoted_status
p53
(dp54
g41
Nsg42
I00
sg26
V@JoeWaibel @signorellfilms @ipt_ch @PatrickMinder @barbarajosef @ChristofZogg  @GonzaloTudela Video MBF15 online :) https://t.co/ZlEt9pk1wF
p55
sg43
Nsg44
I620887449187799040
sg45
I0
sg46
V<a href="http://twitter.com" rel="nofollow">Twitter Web Client</a>
p56
sg48
I620877477901139968
sg49
I00
sg50
NsVentities
p57
(dp58
g15
(lp59
(dp60
g44
I15946778
sg24
(lp61
I0
aI10
asVid_str
p62
V15946778
p63
sVscreen_name
p64
VJoeWaibel
p65
sVname
p66
VJohannes Waibel
p67
sa(dp68
g44
I109272884
sg24
(lp69
I11
aI26
asg62
V109272884
p70
sg64
Vsignorellfilms
p71
sg66
Vsignorellfilms
p72
sa(dp73
g44
I181962219
sg24
(lp74
I27
aI34
asg62
V181962219
p75
sg64
Vipt_ch
p76
sg66
Vipt.ch
p77
sa(dp78
g44
I95314153
sg24
(lp79
I35
aI49
asg62
V95314153
p80
sg64
VPatrickMinder
p81
sg66
VPatrick Minder
p82
sa(dp83
g44
I50585140
sg24
(lp84
I50
aI63
asg62
V50585140
p85
sg64
Vbarbarajosef
p86
sg66
VBarbara Josef
p87
sa(dp88
g44
I81205840
sg24
(lp89
I64
aI77
asg62
V81205840
p90
sg64
VChristofZogg
p91
sg66
VChristof Zogg
p92
sa(dp93
g44
I1132097490
sg24
(lp94
I79
aI93
asg62
V1132097490
p95
sg64
VGonzaloTudela
p96
sg66
VGonzalo Tudela
p97
sasg17
(lp98
sg19
(lp99
sg21
(lp100
sg28
(lp101
(dp102
g31
Vhttps://t.co/ZlEt9pk1wF
p103
sg24
(lp104
I116
aI139
asg34
Vhttps://twitter.com/stadtnomadin/status/620877477901139968
p105
sg36
Vtwitter.com/stadtnomadin/s\u2026
p106
sassVin_reply_to_screen_name
p107
VJoeWaibel
p108
sg62
V620887449187799040
p109
sVretweet_count
p110
I0
sVin_reply_to_user_id
p111
I15946778
sVfavorited
p112
I00
sVuser
p113
(dp114
Vfollow_request_sent
p115
NsVprofile_use_background_image
p116
I00
sVdefault_profile_image
p117
I00
sg44
I871817138
sVverified
p118
I00
sVprofile_image_url_https
p119
Vhttps://pbs.twimg.com/profile_images/614358094815064065/KpCAU8E2_normal.png
p120
sVprofile_sidebar_fill_color
p121
VDDEEF6
p122
sVprofile_text_color
p123
V00802F
p124
sVfollowers_count
p125
I102
sVprofile_sidebar_border_color
p126
VFFFFFF
p127
sg62
V871817138
p128
sVprofile_background_color
p129
VFFFFFF
p130
sVlisted_count
p131
I11
sVprofile_background_image_url_https
p132
Vhttps://pbs.twimg.com/profile_background_images/378800000052694349/6507199e402d7718c87160ce7b241c69.png
p133
sVutc_offset
p134
NsVstatuses_count
p135
I163
sVdescription
p136
VMobile, Wearables, Sports, Biking and Quantified Self, Tracking, Ethusiast
p137
sVfriends_count
p138
I167
sVlocation
p139
VSt. Gallen
p140
sVprofile_link_color
p141
V00802F
p142
sVprofile_image_url
p143
Vhttp://pbs.twimg.com/profile_images/614358094815064065/KpCAU8E2_normal.png
p144
sVfollowing
p145
NsVgeo_enabled
p146
I01
sVprofile_banner_url
p147
Vhttps://pbs.twimg.com/profile_banners/871817138/1432820593
p148
sVprofile_background_image_url
p149
Vhttp://pbs.twimg.com/profile_background_images/378800000052694349/6507199e402d7718c87160ce7b241c69.png
p150
sg66
VChristian Ruf
p151
sVlang
p152
Vde
p153
sVprofile_background_tile
p154
I00
sVfavourites_count
p155
I134
sg64
Vrufch
p156
sVnotifications
p157
Nsg31
Vhttp://aback.iwi.unisg.ch
p158
sVcreated_at
p159
VWed Oct 10 13:46:42 +0000 2012
p160
sVcontributors_enabled
p161
I00
sVtime_zone
p162
NsVprotected
p163
I00
sVdefault_profile
p164
I00
sVis_translator
p165
I00
ssVgeo
p166
NsVin_reply_to_user_id_str
p167
V15946778
p168
sVpossibly_sensitive
p169
I00
sg152
Ven
p170
sg159
VTue Jul 14 09:27:58 +0000 2015
p171
sVquoted_status_id_str
p172
V620877477901139968
p173
sVfilter_level
p174
Vlow
p175
sVin_reply_to_status_id_str
p176
NsVplace
p177
Nssg57
g14
sg107
Nsg62
V620902062855950336
p178
sg110
I0
sg111
Nsg112
I00
sg113
(dp179
g115
Nsg116
I01
sg117
I00
sg44
I15946778
sg118
I00
sg119
Vhttps://pbs.twimg.com/profile_images/536945764736331776/OFi0WD2F_normal.jpeg
p180
sg121
VC0DFEC
p181
sg123
V333333
p182
sg125
I407
sg126
VA8C7F7
p183
sg62
V15946778
p184
sg129
V022330
p185
sg131
I29
sg132
Vhttps://abs.twimg.com/images/themes/theme15/bg.png
p186
sg134
I7200
sg135
I972
sg136
Vsenior manager at http://namics.com/mobile - mobile business solutions & ecommerce / economist / addicted to wintersport - editor of http://ideenstrom.com
p187
sg138
I338
sg139
VDigital Services
p188
sg141
V0084B4
p189
sg143
Vhttp://pbs.twimg.com/profile_images/536945764736331776/OFi0WD2F_normal.jpeg
p190
sg145
Nsg146
I01
sg149
Vhttp://abs.twimg.com/images/themes/theme15/bg.png
p191
sg66
VJohannes Waibel
p192
sg152
Ven
p193
sg154
I00
sg155
I85
sg64
VJoeWaibel
p194
sg157
Nsg31
Vhttp://www.ideenstrom.com
p195
sg159
VFri Aug 22 16:20:54 +0000 2008
p196
sg161
I00
sg162
VAmsterdam
p197
sg163
I00
sg164
I00
sg165
I00
ssg166
Nsg167
Nsg169
I00
sg152
Vde
p198
sg159
VTue Jul 14 10:26:02 +0000 2015
p199
sg172
V620887449187799040
p200
sg174
Vlow
p201
sg176
Nsg177
(dp202
Vfull_name
p203
VZurich, Switzerland
p204
sg31
Vhttps://api.twitter.com/1.1/geo/id/3acb748d0f1e9265.json
p205
sVcountry
p206
VSchweiz
p207
sVplace_type
p208
Vcity
p209
sVbounding_box
p210
(dp211
Vtype
p212
VPolygon
p213
sg50
(lp214
(lp215
(lp216
F8.448081
aF47.320183
aa(lp217
F8.448081
aF47.434721
aa(lp218
F8.625442
aF47.434721
aa(lp219
F8.625442
aF47.320183
aaassVcountry_code
p220
VCH
p221
sVattributes
p222
(dp223
sg44
V3acb748d0f1e9265
p224
sg66
VZurich
p225
sssS'coordinates'
p226
NsS'timestamp_ms'
p227
g52
sS'quoted_status'
p228
g54
sS'source'
p229
VTwitter for iPhone
p230
sS'in_reply_to_screen_name'
p231
NsS'id_str'
p232
g178
sS'retweet_count'
p233
I0
sS'in_reply_to_user_id'
p234
NsS'favorited'
p235
I00
sS'source_url'
p236
Vhttp://twitter.com/download/iphone
p237
sS'user'
p238
g0
(ctweepy.models
User
p239
g2
Ntp240
Rp241
(dp242
S'follow_request_sent'
p243
NsS'profile_use_background_image'
p244
I01
sS'profile_sidebar_fill_color'
p245
g181
sg11
I15946778
sS'verified'
p246
I00
sS'profile_image_url_https'
p247
g180
sg39
g179
sS'contributors_enabled'
p248
I00
sS'profile_text_color'
p249
g182
sS'followers_count'
p250
I407
sS'profile_sidebar_border_color'
p251
g183
sS'location'
p252
g188
sS'default_profile_image'
p253
I00
sg232
g184
sS'utc_offset'
p254
I7200
sS'statuses_count'
p255
I972
sS'description'
p256
g187
sS'friends_count'
p257
I338
sS'profile_link_color'
p258
g189
sS'profile_image_url'
p259
g190
sS'notifications'
p260
NsS'geo_enabled'
p261
I01
sS'profile_background_color'
p262
g185
sS'profile_background_image_url'
p263
g191
sS'name'
p264
g192
sS'lang'
p265
g193
sS'following'
p266
I00
sS'profile_background_tile'
p267
I00
sS'favourites_count'
p268
I85
sS'screen_name'
p269
g194
sS'url'
p270
g195
sS'created_at'
p271
cdatetime
datetime
p272
(S'\x07\xd8\x08\x16\x10\x146\x00\x00\x00'
p273
tp274
Rp275
sS'profile_background_image_url_https'
p276
g186
sS'time_zone'
p277
g197
sS'protected'
p278
I00
sS'default_profile'
p279
I00
sS'is_translator'
p280
I00
sS'listed_count'
p281
I29
sbsS'geo'
p282
NsS'in_reply_to_user_id_str'
p283
NsS'possibly_sensitive'
p284
I00
sg265
g198
sg271
g272
(S'\x07\xdf\x07\x0e\n\x1a\x02\x00\x00\x00'
p285
tp286
Rp287
sS'author'
p288
g241
sS'quoted_status_id_str'
p289
g200
sS'filter_level'
p290
g201
sS'in_reply_to_status_id_str'
p291
NsS'place'
p292
g0
(ctweepy.models
Place
p293
g2
Ntp294
Rp295
(dp296
S'full_name'
p297
g204
sg270
g205
sS'country'
p298
g207
sS'place_type'
p299
g209
sS'bounding_box'
p300
g0
(ctweepy.models
BoundingBox
p301
g2
Ntp302
Rp303
(dp304
S'type'
p305
g213
sg226
g214
sbsS'country_code'
p306
g221
sS'attributes'
p307
g223
sg11
g224
sg264
g225
sbsS'retweeted'
p308
I00
sb.