ccopy_reg
_reconstructor
p0
(ctweepy.models
Status
p1
c__builtin__
object
p2
Ntp3
Rp4
(dp5
S'favorited'
p6
I00
sS'contributors'
p7
NsS'truncated'
p8
I00
sS'text'
p9
V@SkyTG24 Aiutare ATENE a vivere in DEMOCRAZIA non di DEMOCRAZIA altrui!\u000aBerlusconi? cadavere politico emulo di FUJIMORI ..Ora CID CAMPEADOR
p10
sS'source_url'
p11
Vhttp://twitter.com
p12
sS'possibly_sensitive'
p13
I00
sS'in_reply_to_status_id'
p14
I619135553565523968
sS'user'
p15
g0
(ctweepy.models
User
p16
g2
Ntp17
Rp18
(dp19
S'follow_request_sent'
p20
NsS'profile_use_background_image'
p21
I01
sS'profile_sidebar_fill_color'
p22
VDDEEF6
p23
sS'id'
p24
I1128044090
sS'verified'
p25
I00
sS'profile_image_url_https'
p26
Vhttps://pbs.twimg.com/profile_images/468467588524015616/YYs0ZsRl_normal.jpeg
p27
sS'_json'
p28
(dp29
Vfollow_request_sent
p30
NsVprofile_use_background_image
p31
I01
sVdefault_profile_image
p32
I00
sVid
p33
I1128044090
sVverified
p34
I00
sVprofile_image_url_https
p35
g27
sVprofile_sidebar_fill_color
p36
g23
sVprofile_text_color
p37
V333333
p38
sVfollowers_count
p39
I38
sVprofile_sidebar_border_color
p40
VC0DEED
p41
sVid_str
p42
V1128044090
p43
sVprofile_background_color
p44
VC0DEED
p45
sVlisted_count
p46
I0
sVprofile_background_image_url_https
p47
Vhttps://abs.twimg.com/images/themes/theme1/bg.png
p48
sVutc_offset
p49
I10800
sVstatuses_count
p50
I9372
sVdescription
p51
NsVfriends_count
p52
I79
sVlocation
p53
V
p54
sVprofile_link_color
p55
V0084B4
p56
sVprofile_image_url
p57
Vhttp://pbs.twimg.com/profile_images/468467588524015616/YYs0ZsRl_normal.jpeg
p58
sVfollowing
p59
NsVgeo_enabled
p60
I01
sVprofile_background_image_url
p61
Vhttp://abs.twimg.com/images/themes/theme1/bg.png
p62
sVname
p63
Vfranco  de marco
p64
sVlang
p65
Vit
p66
sVprofile_background_tile
p67
I00
sVfavourites_count
p68
I6
sVscreen_name
p69
V_fdm1
p70
sVnotifications
p71
NsVurl
p72
NsVcreated_at
p73
VMon Jan 28 13:18:29 +0000 2013
p74
sVcontributors_enabled
p75
I00
sVtime_zone
p76
VAthens
p77
sVprotected
p78
I00
sVdefault_profile
p79
I01
sVis_translator
p80
I00
ssS'contributors_enabled'
p81
I00
sS'profile_text_color'
p82
g38
sS'followers_count'
p83
I38
sS'profile_sidebar_border_color'
p84
g41
sS'location'
p85
g54
sS'default_profile_image'
p86
I00
sS'id_str'
p87
g43
sS'utc_offset'
p88
I10800
sS'statuses_count'
p89
I9372
sS'description'
p90
NsS'friends_count'
p91
I79
sS'profile_link_color'
p92
g56
sS'profile_image_url'
p93
g58
sS'notifications'
p94
NsS'geo_enabled'
p95
I01
sS'profile_background_color'
p96
g45
sS'profile_background_image_url'
p97
g62
sS'name'
p98
g64
sS'lang'
p99
g66
sS'following'
p100
I00
sS'profile_background_tile'
p101
I00
sS'favourites_count'
p102
I6
sS'screen_name'
p103
g70
sS'url'
p104
NsS'created_at'
p105
cdatetime
datetime
p106
(S'\x07\xdd\x01\x1c\r\x12\x1d\x00\x00\x00'
p107
tp108
Rp109
sS'profile_background_image_url_https'
p110
g48
sS'time_zone'
p111
g77
sS'protected'
p112
I00
sS'default_profile'
p113
I01
sS'is_translator'
p114
I00
sS'listed_count'
p115
I0
sbsS'filter_level'
p116
Vlow
p117
sS'geo'
p118
Nsg24
I619139552880496640
sS'favorite_count'
p119
I0
sS'source'
p120
VTwitter Web Client
p121
sg99
Vit
p122
sS'author'
p123
g18
sS'in_reply_to_user_id_str'
p124
V5893702
p125
sg28
(dp126
Vcontributors
p127
NsVtruncated
p128
I00
sVtext
p129
V@SkyTG24 Aiutare ATENE a vivere in DEMOCRAZIA non di DEMOCRAZIA altrui!\u000aBerlusconi? cadavere politico emulo di FUJIMORI ..Ora CID CAMPEADOR
p130
sVin_reply_to_status_id
p131
I619135553565523968
sg33
I619139552880496640
sVfavorite_count
p132
I0
sVsource
p133
V<a href="http://twitter.com" rel="nofollow">Twitter Web Client</a>
p134
sVretweeted
p135
I00
sVcoordinates
p136
NsVtimestamp_ms
p137
V1436449347120
p138
sVentities
p139
(dp140
Vuser_mentions
p141
(lp142
(dp143
g33
I5893702
sVindices
p144
(lp145
I0
aI8
asg42
V5893702
p146
sg69
VSkyTG24
p147
sg63
VSky TG24
p148
sasVsymbols
p149
(lp150
sVtrends
p151
(lp152
sVhashtags
p153
(lp154
sVurls
p155
(lp156
ssVin_reply_to_screen_name
p157
VSkyTG24
p158
sg42
V619139552880496640
p159
sVretweet_count
p160
I0
sVin_reply_to_user_id
p161
I5893702
sVfavorited
p162
I00
sVuser
p163
g29
sVgeo
p164
NsVin_reply_to_user_id_str
p165
g125
sVpossibly_sensitive
p166
I00
sg65
g122
sg73
VThu Jul 09 13:42:27 +0000 2015
p167
sVfilter_level
p168
g117
sVin_reply_to_status_id_str
p169
V619135553565523968
p170
sVplace
p171
(dp172
Vfull_name
p173
VZurigo, Svizzera
p174
sg72
Vhttps://api.twitter.com/1.1/geo/id/3acb748d0f1e9265.json
p175
sVcountry
p176
VSchweiz
p177
sVplace_type
p178
Vcity
p179
sVbounding_box
p180
(dp181
Vtype
p182
VPolygon
p183
sg136
(lp184
(lp185
(lp186
F8.448081
aF47.320183
aa(lp187
F8.448081
aF47.434721
aa(lp188
F8.625442
aF47.434721
aa(lp189
F8.625442
aF47.320183
aaassVcountry_code
p190
VCH
p191
sVattributes
p192
(dp193
sg33
V3acb748d0f1e9265
p194
sg63
VZurigo
p195
sssS'coordinates'
p196
NsS'timestamp_ms'
p197
g138
sS'entities'
p198
g140
sS'in_reply_to_status_id_str'
p199
g170
sS'in_reply_to_screen_name'
p200
g158
sg87
g159
sS'retweeted'
p201
I00
sS'place'
p202
g0
(ctweepy.models
Place
p203
g2
Ntp204
Rp205
(dp206
S'full_name'
p207
g174
sg104
g175
sS'country'
p208
g177
sS'place_type'
p209
g179
sS'bounding_box'
p210
g0
(ctweepy.models
BoundingBox
p211
g2
Ntp212
Rp213
(dp214
S'type'
p215
g183
sg196
g184
sbsS'country_code'
p216
g191
sS'attributes'
p217
g193
sg24
g194
sg98
g195
sbsS'retweet_count'
p218
I0
sg105
g106
(S'\x07\xdf\x07\t\r*\x1b\x00\x00\x00'
p219
tp220
Rp221
sS'in_reply_to_user_id'
p222
I5893702
sb.