ccopy_reg
_reconstructor
p0
(ctweepy.models
Status
p1
c__builtin__
object
p2
Ntp3
Rp4
(dp5
S'favorited'
p6
I00
sS'contributors'
p7
NsS'truncated'
p8
I00
sS'text'
p9
V@Loxycylon @Resoundsound @docscott31 ... certainly one of my most anticipated ones :-(
p10
sS'source_url'
p11
Vhttp://twitter.com
p12
sS'possibly_sensitive'
p13
I00
sS'in_reply_to_status_id'
p14
I618900576093343744
sS'user'
p15
g0
(ctweepy.models
User
p16
g2
Ntp17
Rp18
(dp19
S'follow_request_sent'
p20
NsS'profile_use_background_image'
p21
I01
sS'profile_sidebar_fill_color'
p22
VDDEEF6
p23
sS'id'
p24
I277519704
sS'verified'
p25
I00
sS'profile_image_url_https'
p26
Vhttps://pbs.twimg.com/profile_images/1300877996/DR_symbol_logo_mono_300_normal.jpg
p27
sS'_json'
p28
(dp29
Vfollow_request_sent
p30
NsVprofile_use_background_image
p31
I01
sVdefault_profile_image
p32
I00
sVid
p33
I277519704
sVverified
p34
I00
sVprofile_image_url_https
p35
g27
sVprofile_sidebar_fill_color
p36
g23
sVprofile_text_color
p37
V333333
p38
sVfollowers_count
p39
I1077
sVprofile_sidebar_border_color
p40
VC0DEED
p41
sVid_str
p42
V277519704
p43
sVprofile_background_color
p44
VC0DEED
p45
sVlisted_count
p46
I14
sVprofile_background_image_url_https
p47
Vhttps://abs.twimg.com/images/themes/theme1/bg.png
p48
sVutc_offset
p49
I7200
sVstatuses_count
p50
I3431
sVdescription
p51
VDrum & Bass label
p52
sVfriends_count
p53
I429
sVlocation
p54
VZurich, Switzerland
p55
sVprofile_link_color
p56
V0084B4
p57
sVprofile_image_url
p58
Vhttp://pbs.twimg.com/profile_images/1300877996/DR_symbol_logo_mono_300_normal.jpg
p59
sVfollowing
p60
NsVgeo_enabled
p61
I01
sVprofile_banner_url
p62
Vhttps://pbs.twimg.com/profile_banners/277519704/1433363812
p63
sVprofile_background_image_url
p64
Vhttp://abs.twimg.com/images/themes/theme1/bg.png
p65
sVname
p66
VCarlos Demand
p67
sVlang
p68
Ven
p69
sVprofile_background_tile
p70
I00
sVfavourites_count
p71
I35
sVscreen_name
p72
Vdemandrecords
p73
sVnotifications
p74
NsVurl
p75
Vhttp://www.demandrecords.ch
p76
sVcreated_at
p77
VTue Apr 05 14:49:00 +0000 2011
p78
sVcontributors_enabled
p79
I00
sVtime_zone
p80
VBern
p81
sVprotected
p82
I00
sVdefault_profile
p83
I01
sVis_translator
p84
I00
ssS'contributors_enabled'
p85
I00
sS'profile_text_color'
p86
g38
sS'followers_count'
p87
I1077
sS'profile_sidebar_border_color'
p88
g41
sS'location'
p89
g55
sS'default_profile_image'
p90
I00
sS'id_str'
p91
g43
sS'utc_offset'
p92
I7200
sS'statuses_count'
p93
I3431
sS'description'
p94
g52
sS'friends_count'
p95
I429
sS'profile_link_color'
p96
g57
sS'profile_image_url'
p97
g59
sS'notifications'
p98
NsS'geo_enabled'
p99
I01
sS'profile_background_color'
p100
g45
sS'profile_banner_url'
p101
g63
sS'profile_background_image_url'
p102
g65
sS'name'
p103
g67
sS'lang'
p104
g69
sS'following'
p105
I00
sS'profile_background_tile'
p106
I00
sS'favourites_count'
p107
I35
sS'screen_name'
p108
g73
sS'url'
p109
g76
sS'created_at'
p110
cdatetime
datetime
p111
(S'\x07\xdb\x04\x05\x0e1\x00\x00\x00\x00'
p112
tp113
Rp114
sS'profile_background_image_url_https'
p115
g48
sS'time_zone'
p116
g81
sS'protected'
p117
I00
sS'default_profile'
p118
I01
sS'is_translator'
p119
I00
sS'listed_count'
p120
I14
sbsS'filter_level'
p121
Vlow
p122
sS'geo'
p123
Nsg24
I618900641260265472
sS'favorite_count'
p124
I0
sS'source'
p125
VTwitter Web Client
p126
sg104
Ven
p127
sS'author'
p128
g18
sS'in_reply_to_user_id_str'
p129
V277519704
p130
sg28
(dp131
Vcontributors
p132
NsVtruncated
p133
I00
sVtext
p134
g10
sVin_reply_to_status_id
p135
I618900576093343744
sg33
I618900641260265472
sVfavorite_count
p136
I0
sVsource
p137
V<a href="http://twitter.com" rel="nofollow">Twitter Web Client</a>
p138
sVretweeted
p139
I00
sVcoordinates
p140
NsVtimestamp_ms
p141
V1436392386151
p142
sVentities
p143
(dp144
Vuser_mentions
p145
(lp146
(dp147
g33
I36422841
sVindices
p148
(lp149
I0
aI10
asg42
V36422841
p150
sg72
VLoxycylon
p151
sg66
VLoxycylon
p152
sa(dp153
g33
I33523465
sg148
(lp154
I11
aI24
asg42
V33523465
p155
sg72
VResoundsound
p156
sg66
VIlpo Resound
p157
sa(dp158
g33
I41791153
sg148
(lp159
I25
aI36
asg42
V41791153
p160
sg72
Vdocscott31
p161
sg66
VDoc scott
p162
sasVsymbols
p163
(lp164
sVtrends
p165
(lp166
sVhashtags
p167
(lp168
sVurls
p169
(lp170
ssVin_reply_to_screen_name
p171
Vdemandrecords
p172
sg42
V618900641260265472
p173
sVretweet_count
p174
I0
sVin_reply_to_user_id
p175
I277519704
sVfavorited
p176
I00
sVuser
p177
g29
sVgeo
p178
NsVin_reply_to_user_id_str
p179
g130
sVpossibly_sensitive
p180
I00
sg68
g127
sg77
VWed Jul 08 21:53:06 +0000 2015
p181
sVfilter_level
p182
g122
sVin_reply_to_status_id_str
p183
V618900576093343744
p184
sVplace
p185
(dp186
Vfull_name
p187
VZurich, Switzerland
p188
sg75
Vhttps://api.twitter.com/1.1/geo/id/3acb748d0f1e9265.json
p189
sVcountry
p190
VSchweiz
p191
sVplace_type
p192
Vcity
p193
sVbounding_box
p194
(dp195
Vtype
p196
VPolygon
p197
sg140
(lp198
(lp199
(lp200
F8.448081
aF47.320183
aa(lp201
F8.448081
aF47.434721
aa(lp202
F8.625442
aF47.434721
aa(lp203
F8.625442
aF47.320183
aaassVcountry_code
p204
VCH
p205
sVattributes
p206
(dp207
sg33
V3acb748d0f1e9265
p208
sg66
VZurich
p209
sssS'coordinates'
p210
NsS'timestamp_ms'
p211
g142
sS'entities'
p212
g144
sS'in_reply_to_status_id_str'
p213
g184
sS'in_reply_to_screen_name'
p214
g172
sg91
g173
sS'retweeted'
p215
I00
sS'place'
p216
g0
(ctweepy.models
Place
p217
g2
Ntp218
Rp219
(dp220
S'full_name'
p221
g188
sg109
g189
sS'country'
p222
g191
sS'place_type'
p223
g193
sS'bounding_box'
p224
g0
(ctweepy.models
BoundingBox
p225
g2
Ntp226
Rp227
(dp228
S'type'
p229
g197
sg210
g198
sbsS'country_code'
p230
g205
sS'attributes'
p231
g207
sg24
g208
sg103
g209
sbsS'retweet_count'
p232
I0
sg110
g111
(S'\x07\xdf\x07\x08\x155\x06\x00\x00\x00'
p233
tp234
Rp235
sS'in_reply_to_user_id'
p236
I277519704
sb.