ccopy_reg
_reconstructor
p0
(ctweepy.models
Status
p1
c__builtin__
object
p2
Ntp3
Rp4
(dp5
S'favorited'
p6
I00
sS'contributors'
p7
NsS'truncated'
p8
I00
sS'text'
p9
VPost swim beer (@ Andorra) https://t.co/4W9faAjb0z
p10
sS'source_url'
p11
Vhttp://foursquare.com
p12
sS'possibly_sensitive'
p13
I00
sS'in_reply_to_status_id'
p14
NsS'user'
p15
g0
(ctweepy.models
User
p16
g2
Ntp17
Rp18
(dp19
S'follow_request_sent'
p20
NsS'profile_use_background_image'
p21
I01
sS'profile_sidebar_fill_color'
p22
VF6F6F6
p23
sS'id'
p24
I831914852
sS'verified'
p25
I00
sS'profile_image_url_https'
p26
Vhttps://pbs.twimg.com/profile_images/615033679929339904/JX-R_7az_normal.jpg
p27
sS'_json'
p28
(dp29
Vfollow_request_sent
p30
NsVprofile_use_background_image
p31
I01
sVdefault_profile_image
p32
I00
sVid
p33
I831914852
sVverified
p34
I00
sVprofile_image_url_https
p35
g27
sVprofile_sidebar_fill_color
p36
g23
sVprofile_text_color
p37
V333333
p38
sVfollowers_count
p39
I403
sVprofile_sidebar_border_color
p40
VEEEEEE
p41
sVid_str
p42
V831914852
p43
sVprofile_background_color
p44
VACDED6
p45
sVlisted_count
p46
I11
sVprofile_background_image_url_https
p47
Vhttps://abs.twimg.com/images/themes/theme18/bg.gif
p48
sVutc_offset
p49
I3600
sVstatuses_count
p50
I8809
sVdescription
p51
Vfear cannot touch you, it can only taunt you
p52
sVfriends_count
p53
I529
sVlocation
p54
VZurich
p55
sVprofile_link_color
p56
V038543
p57
sVprofile_image_url
p58
Vhttp://pbs.twimg.com/profile_images/615033679929339904/JX-R_7az_normal.jpg
p59
sVfollowing
p60
NsVgeo_enabled
p61
I01
sVprofile_banner_url
p62
Vhttps://pbs.twimg.com/profile_banners/831914852/1431978793
p63
sVprofile_background_image_url
p64
Vhttp://abs.twimg.com/images/themes/theme18/bg.gif
p65
sVname
p66
VR for Robert 
p67
sVlang
p68
Ven
p69
sVprofile_background_tile
p70
I00
sVfavourites_count
p71
I2048
sVscreen_name
p72
Vrobertb83
p73
sVnotifications
p74
NsVurl
p75
NsVcreated_at
p76
VTue Sep 18 21:27:36 +0000 2012
p77
sVcontributors_enabled
p78
I00
sVtime_zone
p79
VLondon
p80
sVprotected
p81
I00
sVdefault_profile
p82
I00
sVis_translator
p83
I00
ssS'contributors_enabled'
p84
I00
sS'profile_text_color'
p85
g38
sS'followers_count'
p86
I403
sS'profile_sidebar_border_color'
p87
g41
sS'location'
p88
g55
sS'default_profile_image'
p89
I00
sS'id_str'
p90
g43
sS'utc_offset'
p91
I3600
sS'statuses_count'
p92
I8809
sS'description'
p93
g52
sS'friends_count'
p94
I529
sS'profile_link_color'
p95
g57
sS'profile_image_url'
p96
g59
sS'notifications'
p97
NsS'geo_enabled'
p98
I01
sS'profile_background_color'
p99
g45
sS'profile_banner_url'
p100
g63
sS'profile_background_image_url'
p101
g65
sS'name'
p102
g67
sS'lang'
p103
g69
sS'following'
p104
I00
sS'profile_background_tile'
p105
I00
sS'favourites_count'
p106
I2048
sS'screen_name'
p107
g73
sS'url'
p108
NsS'created_at'
p109
cdatetime
datetime
p110
(S'\x07\xdc\t\x12\x15\x1b$\x00\x00\x00'
p111
tp112
Rp113
sS'profile_background_image_url_https'
p114
g48
sS'time_zone'
p115
g80
sS'protected'
p116
I00
sS'default_profile'
p117
I00
sS'is_translator'
p118
I00
sS'listed_count'
p119
I11
sbsS'filter_level'
p120
Vlow
p121
sS'geo'
p122
(dp123
Vtype
p124
VPoint
p125
sVcoordinates
p126
(lp127
F47.371348
aF8.544125
assg24
I620269659888197632
sS'favorite_count'
p128
I0
sS'source'
p129
VFoursquare
p130
sg103
Ven
p131
sS'author'
p132
g18
sS'in_reply_to_user_id_str'
p133
Nsg28
(dp134
Vcontributors
p135
NsVtruncated
p136
I00
sVtext
p137
g10
sVin_reply_to_status_id
p138
Nsg33
I620269659888197632
sVfavorite_count
p139
I0
sVsource
p140
V<a href="http://foursquare.com" rel="nofollow">Foursquare</a>
p141
sVretweeted
p142
I00
sg126
(dp143
g124
VPoint
p144
sg126
(lp145
F8.544125
aF47.371348
assVtimestamp_ms
p146
V1436718785627
p147
sVentities
p148
(dp149
Vuser_mentions
p150
(lp151
sVsymbols
p152
(lp153
sVtrends
p154
(lp155
sVhashtags
p156
(lp157
sVurls
p158
(lp159
(dp160
g75
Vhttps://t.co/4W9faAjb0z
p161
sVindices
p162
(lp163
I27
aI50
asVexpanded_url
p164
Vhttps://www.swarmapp.com/c/4gtz95ZsPXN
p165
sVdisplay_url
p166
Vswarmapp.com/c/4gtz95ZsPXN
p167
sassVin_reply_to_screen_name
p168
Nsg42
V620269659888197632
p169
sVretweet_count
p170
I0
sVin_reply_to_user_id
p171
NsVfavorited
p172
I00
sVuser
p173
g29
sVgeo
p174
g123
sVin_reply_to_user_id_str
p175
NsVpossibly_sensitive
p176
I00
sg68
g131
sg76
VSun Jul 12 16:33:05 +0000 2015
p177
sVfilter_level
p178
g121
sVin_reply_to_status_id_str
p179
NsVplace
p180
(dp181
Vfull_name
p182
VZurich, Switzerland
p183
sg75
Vhttps://api.twitter.com/1.1/geo/id/3acb748d0f1e9265.json
p184
sVcountry
p185
VSchweiz
p186
sVplace_type
p187
Vcity
p188
sVbounding_box
p189
(dp190
g124
VPolygon
p191
sg126
(lp192
(lp193
(lp194
F8.448081
aF47.320183
aa(lp195
F8.448081
aF47.434721
aa(lp196
F8.625442
aF47.434721
aa(lp197
F8.625442
aF47.320183
aaassVcountry_code
p198
VCH
p199
sVattributes
p200
(dp201
sg33
V3acb748d0f1e9265
p202
sg66
VZurich
p203
sssS'coordinates'
p204
g143
sS'timestamp_ms'
p205
g147
sS'entities'
p206
g149
sS'in_reply_to_status_id_str'
p207
NsS'in_reply_to_screen_name'
p208
Nsg90
g169
sS'retweeted'
p209
I00
sS'place'
p210
g0
(ctweepy.models
Place
p211
g2
Ntp212
Rp213
(dp214
S'full_name'
p215
g183
sg108
g184
sS'country'
p216
g186
sS'place_type'
p217
g188
sS'bounding_box'
p218
g0
(ctweepy.models
BoundingBox
p219
g2
Ntp220
Rp221
(dp222
S'type'
p223
g191
sg204
g192
sbsS'country_code'
p224
g199
sS'attributes'
p225
g201
sg24
g202
sg102
g203
sbsS'retweet_count'
p226
I0
sg109
g110
(S'\x07\xdf\x07\x0c\x10!\x05\x00\x00\x00'
p227
tp228
Rp229
sS'in_reply_to_user_id'
p230
Nsb.