ccopy_reg
_reconstructor
p0
(ctweepy.models
Status
p1
c__builtin__
object
p2
Ntp3
Rp4
(dp5
S'favorited'
p6
I00
sS'contributors'
p7
NsS'truncated'
p8
I00
sS'text'
p9
VWearing @CalvinKlein sweater, #COS pants and @Filippa_K slip-on's in the latest blog post on http://t.co/XkwMT8idsi. http://t.co/Vli7ngfjXZ
p10
sS'source_url'
p11
Vhttp://twitter.com
p12
sS'possibly_sensitive'
p13
I00
sS'in_reply_to_status_id'
p14
NsS'user'
p15
g0
(ctweepy.models
User
p16
g2
Ntp17
Rp18
(dp19
S'follow_request_sent'
p20
NsS'profile_use_background_image'
p21
I01
sS'profile_sidebar_fill_color'
p22
VF2EDF2
p23
sS'id'
p24
I46355358
sS'verified'
p25
I00
sS'profile_image_url_https'
p26
Vhttps://pbs.twimg.com/profile_images/546543583944134656/RmnnYaAp_normal.jpeg
p27
sS'_json'
p28
(dp29
Vfollow_request_sent
p30
NsVprofile_use_background_image
p31
I01
sVdefault_profile_image
p32
I00
sVid
p33
I46355358
sVverified
p34
I00
sVprofile_image_url_https
p35
g27
sVprofile_sidebar_fill_color
p36
g23
sVprofile_text_color
p37
V333333
p38
sVfollowers_count
p39
I696
sVprofile_sidebar_border_color
p40
VFFFFFF
p41
sVid_str
p42
V46355358
p43
sVprofile_background_color
p44
VFFFFFF
p45
sVlisted_count
p46
I27
sVprofile_background_image_url_https
p47
Vhttps://pbs.twimg.com/profile_background_images/378800000116572659/8c79c0fdb3394606b35c8a03f8f4023f.jpeg
p48
sVutc_offset
p49
I7200
sVstatuses_count
p50
I2585
sVdescription
p51
VLife is an adventure, so enjoy it! \u270c\ufe0f Blogger & Model | lips2lagerfeld@gmail.com | http://instagram.com/mroliverlips
p52
sVfriends_count
p53
I303
sVlocation
p54
VZurich
p55
sVprofile_link_color
p56
V990026
p57
sVprofile_image_url
p58
Vhttp://pbs.twimg.com/profile_images/546543583944134656/RmnnYaAp_normal.jpeg
p59
sVfollowing
p60
NsVgeo_enabled
p61
I01
sVprofile_banner_url
p62
Vhttps://pbs.twimg.com/profile_banners/46355358/1424256125
p63
sVprofile_background_image_url
p64
Vhttp://pbs.twimg.com/profile_background_images/378800000116572659/8c79c0fdb3394606b35c8a03f8f4023f.jpeg
p65
sVname
p66
VOliver Lips
p67
sVlang
p68
Ven
p69
sVprofile_background_tile
p70
I00
sVfavourites_count
p71
I1166
sVscreen_name
p72
VOliverLips
p73
sVnotifications
p74
NsVurl
p75
Vhttp://www.lips2lagerfeld.com
p76
sVcreated_at
p77
VThu Jun 11 09:51:29 +0000 2009
p78
sVcontributors_enabled
p79
I00
sVtime_zone
p80
VBern
p81
sVprotected
p82
I00
sVdefault_profile
p83
I00
sVis_translator
p84
I00
ssS'contributors_enabled'
p85
I00
sS'profile_text_color'
p86
g38
sS'followers_count'
p87
I696
sS'profile_sidebar_border_color'
p88
g41
sS'location'
p89
g55
sS'default_profile_image'
p90
I00
sS'id_str'
p91
g43
sS'utc_offset'
p92
I7200
sS'statuses_count'
p93
I2585
sS'description'
p94
g52
sS'friends_count'
p95
I303
sS'profile_link_color'
p96
g57
sS'profile_image_url'
p97
g59
sS'notifications'
p98
NsS'geo_enabled'
p99
I01
sS'profile_background_color'
p100
g45
sS'profile_banner_url'
p101
g63
sS'profile_background_image_url'
p102
g65
sS'name'
p103
g67
sS'lang'
p104
g69
sS'following'
p105
I00
sS'profile_background_tile'
p106
I00
sS'favourites_count'
p107
I1166
sS'screen_name'
p108
g73
sS'url'
p109
g76
sS'created_at'
p110
cdatetime
datetime
p111
(S'\x07\xd9\x06\x0b\t3\x1d\x00\x00\x00'
p112
tp113
Rp114
sS'profile_background_image_url_https'
p115
g48
sS'time_zone'
p116
g81
sS'protected'
p117
I00
sS'default_profile'
p118
I00
sS'is_translator'
p119
I00
sS'listed_count'
p120
I27
sbsS'filter_level'
p121
Vlow
p122
sS'geo'
p123
Nsg24
I620919028035530752
sS'favorite_count'
p124
I0
sS'source'
p125
VTwitter Web Client
p126
sg104
Ven
p127
sS'author'
p128
g18
sS'in_reply_to_user_id_str'
p129
Nsg28
(dp130
Vcontributors
p131
NsVtruncated
p132
I00
sVtext
p133
g10
sVin_reply_to_status_id
p134
Nsg33
I620919028035530752
sVfavorite_count
p135
I0
sVsource
p136
V<a href="http://twitter.com" rel="nofollow">Twitter Web Client</a>
p137
sVretweeted
p138
I00
sVcoordinates
p139
NsVtimestamp_ms
p140
V1436873607058
p141
sVentities
p142
(dp143
Vsymbols
p144
(lp145
sVmedia
p146
(lp147
(dp148
Vexpanded_url
p149
Vhttp://twitter.com/OliverLips/status/620919028035530752/photo/1
p150
sVdisplay_url
p151
Vpic.twitter.com/Vli7ngfjXZ
p152
sg75
Vhttp://t.co/Vli7ngfjXZ
p153
sVmedia_url_https
p154
Vhttps://pbs.twimg.com/media/CJ3ykKUWoAAuQLe.jpg
p155
sg42
V620919026705932288
p156
sVsizes
p157
(dp158
Vlarge
p159
(dp160
Vh
p161
I1536
sVresize
p162
Vfit
p163
sVw
p164
I1024
ssVsmall
p165
(dp166
g161
I510
sg162
Vfit
p167
sg164
I340
ssVmedium
p168
(dp169
g161
I900
sg162
Vfit
p170
sg164
I600
ssVthumb
p171
(dp172
g161
I150
sg162
Vcrop
p173
sg164
I150
sssVindices
p174
(lp175
I117
aI139
asVtype
p176
Vphoto
p177
sg33
I620919026705932288
sVmedia_url
p178
Vhttp://pbs.twimg.com/media/CJ3ykKUWoAAuQLe.jpg
p179
sasVhashtags
p180
(lp181
(dp182
g174
(lp183
I30
aI34
asg133
VCOS
p184
sasVuser_mentions
p185
(lp186
(dp187
g33
I18647765
sg174
(lp188
I8
aI20
asg42
V18647765
p189
sg72
VCalvinKlein
p190
sg66
VCalvin Klein
p191
sa(dp192
g33
I21072040
sg174
(lp193
I45
aI55
asg42
V21072040
p194
sg72
VFilippa_K
p195
sg66
VFilippa K
p196
sasVtrends
p197
(lp198
sVurls
p199
(lp200
(dp201
g75
Vhttp://t.co/XkwMT8idsi
p202
sg174
(lp203
I93
aI115
asg149
Vhttp://www.lips2lagerfeld.com
p204
sg151
Vlips2lagerfeld.com
p205
sassVin_reply_to_screen_name
p206
Nsg42
V620919028035530752
p207
sVretweet_count
p208
I0
sVin_reply_to_user_id
p209
NsVfavorited
p210
I00
sVuser
p211
g29
sVgeo
p212
NsVin_reply_to_user_id_str
p213
NsVpossibly_sensitive
p214
I00
sg68
g127
sg77
VTue Jul 14 11:33:27 +0000 2015
p215
sVfilter_level
p216
g122
sVin_reply_to_status_id_str
p217
NsVplace
p218
(dp219
Vfull_name
p220
VZurich, Switzerland
p221
sg75
Vhttps://api.twitter.com/1.1/geo/id/3acb748d0f1e9265.json
p222
sVcountry
p223
VSchweiz
p224
sVplace_type
p225
Vcity
p226
sVbounding_box
p227
(dp228
g176
VPolygon
p229
sg139
(lp230
(lp231
(lp232
F8.448081
aF47.320183
aa(lp233
F8.448081
aF47.434721
aa(lp234
F8.625442
aF47.434721
aa(lp235
F8.625442
aF47.320183
aaassVcountry_code
p236
VCH
p237
sVattributes
p238
(dp239
sg33
V3acb748d0f1e9265
p240
sg66
VZurich
p241
ssVextended_entities
p242
(dp243
g146
(lp244
(dp245
g149
Vhttp://twitter.com/OliverLips/status/620919028035530752/photo/1
p246
sg151
Vpic.twitter.com/Vli7ngfjXZ
p247
sg75
Vhttp://t.co/Vli7ngfjXZ
p248
sg154
Vhttps://pbs.twimg.com/media/CJ3ykKUWoAAuQLe.jpg
p249
sg42
V620919026705932288
p250
sg157
(dp251
g159
(dp252
g161
I1536
sg162
Vfit
p253
sg164
I1024
ssg165
(dp254
g161
I510
sg162
Vfit
p255
sg164
I340
ssg168
(dp256
g161
I900
sg162
Vfit
p257
sg164
I600
ssg171
(dp258
g161
I150
sg162
Vcrop
p259
sg164
I150
sssg174
(lp260
I117
aI139
asg176
Vphoto
p261
sg33
I620919026705932288
sg178
Vhttp://pbs.twimg.com/media/CJ3ykKUWoAAuQLe.jpg
p262
sasssS'coordinates'
p263
NsS'timestamp_ms'
p264
g141
sS'entities'
p265
g143
sS'in_reply_to_status_id_str'
p266
NsS'in_reply_to_screen_name'
p267
Nsg91
g207
sS'extended_entities'
p268
g243
sS'retweeted'
p269
I00
sS'place'
p270
g0
(ctweepy.models
Place
p271
g2
Ntp272
Rp273
(dp274
S'full_name'
p275
g221
sg109
g222
sS'country'
p276
g224
sS'place_type'
p277
g226
sS'bounding_box'
p278
g0
(ctweepy.models
BoundingBox
p279
g2
Ntp280
Rp281
(dp282
S'type'
p283
g229
sg263
g230
sbsS'country_code'
p284
g237
sS'attributes'
p285
g239
sg24
g240
sg103
g241
sbsS'retweet_count'
p286
I0
sg110
g111
(S'\x07\xdf\x07\x0e\x0b!\x1b\x00\x00\x00'
p287
tp288
Rp289
sS'in_reply_to_user_id'
p290
Nsb.