ccopy_reg
_reconstructor
p0
(ctweepy.models
Status
p1
c__builtin__
object
p2
Ntp3
Rp4
(dp5
S'favorited'
p6
I00
sS'contributors'
p7
NsS'truncated'
p8
I00
sS'text'
p9
V#roadtrip #lakezurich #zurich #switzerland @ Lake Zurich https://t.co/rO0r8q6kKX
p10
sS'source_url'
p11
Vhttp://instagram.com
p12
sS'possibly_sensitive'
p13
I00
sS'in_reply_to_status_id'
p14
NsS'user'
p15
g0
(ctweepy.models
User
p16
g2
Ntp17
Rp18
(dp19
S'follow_request_sent'
p20
NsS'profile_use_background_image'
p21
I01
sS'profile_sidebar_fill_color'
p22
VDDEEF6
p23
sS'id'
p24
I81740649
sS'verified'
p25
I00
sS'profile_image_url_https'
p26
Vhttps://pbs.twimg.com/profile_images/512454303668113408/t0b61LV6_normal.jpeg
p27
sS'_json'
p28
(dp29
Vfollow_request_sent
p30
NsVprofile_use_background_image
p31
I01
sVdefault_profile_image
p32
I00
sVid
p33
I81740649
sVverified
p34
I00
sVprofile_image_url_https
p35
g27
sVprofile_sidebar_fill_color
p36
g23
sVprofile_text_color
p37
V333333
p38
sVfollowers_count
p39
I50
sVprofile_sidebar_border_color
p40
VC0DEED
p41
sVid_str
p42
V81740649
p43
sVprofile_background_color
p44
VC0DEED
p45
sVlisted_count
p46
I4
sVprofile_background_image_url_https
p47
Vhttps://abs.twimg.com/images/themes/theme1/bg.png
p48
sVutc_offset
p49
I32400
sVstatuses_count
p50
I246
sVdescription
p51
VKEEP CALM and LOVE YOUR PETS!!! (currently working in Animal & Plant Quarantine Agency behalf of my military duty)
p52
sVfriends_count
p53
I107
sVlocation
p54
VCheonan, South Korea
p55
sVprofile_link_color
p56
V0084B4
p57
sVprofile_image_url
p58
Vhttp://pbs.twimg.com/profile_images/512454303668113408/t0b61LV6_normal.jpeg
p59
sVfollowing
p60
NsVgeo_enabled
p61
I01
sVprofile_background_image_url
p62
Vhttp://abs.twimg.com/images/themes/theme1/bg.png
p63
sVname
p64
VVincent HJ Yoon, DVM
p65
sVlang
p66
Ven
p67
sVprofile_background_tile
p68
I00
sVfavourites_count
p69
I49
sVscreen_name
p70
VVincentHJ
p71
sVnotifications
p72
NsVurl
p73
Vhttp://www.facebook.com/HajeongYoon
p74
sVcreated_at
p75
VMon Oct 12 02:25:47 +0000 2009
p76
sVcontributors_enabled
p77
I00
sVtime_zone
p78
VSeoul
p79
sVprotected
p80
I00
sVdefault_profile
p81
I01
sVis_translator
p82
I00
ssS'contributors_enabled'
p83
I00
sS'profile_text_color'
p84
g38
sS'followers_count'
p85
I50
sS'profile_sidebar_border_color'
p86
g41
sS'location'
p87
g55
sS'default_profile_image'
p88
I00
sS'id_str'
p89
g43
sS'utc_offset'
p90
I32400
sS'statuses_count'
p91
I246
sS'description'
p92
g52
sS'friends_count'
p93
I107
sS'profile_link_color'
p94
g57
sS'profile_image_url'
p95
g59
sS'notifications'
p96
NsS'geo_enabled'
p97
I01
sS'profile_background_color'
p98
g45
sS'profile_background_image_url'
p99
g63
sS'name'
p100
g65
sS'lang'
p101
g67
sS'following'
p102
I00
sS'profile_background_tile'
p103
I00
sS'favourites_count'
p104
I49
sS'screen_name'
p105
g71
sS'url'
p106
g74
sS'created_at'
p107
cdatetime
datetime
p108
(S'\x07\xd9\n\x0c\x02\x19/\x00\x00\x00'
p109
tp110
Rp111
sS'profile_background_image_url_https'
p112
g48
sS'time_zone'
p113
g79
sS'protected'
p114
I00
sS'default_profile'
p115
I01
sS'is_translator'
p116
I00
sS'listed_count'
p117
I4
sbsS'filter_level'
p118
Vlow
p119
sS'geo'
p120
(dp121
Vtype
p122
VPoint
p123
sVcoordinates
p124
(lp125
F47.366276
aF8.540757
assg24
I618890259619794945
sS'favorite_count'
p126
I0
sS'source'
p127
VInstagram
p128
sg101
Vde
p129
sS'author'
p130
g18
sS'in_reply_to_user_id_str'
p131
Nsg28
(dp132
Vcontributors
p133
NsVtruncated
p134
I00
sVtext
p135
g10
sVin_reply_to_status_id
p136
Nsg33
I618890259619794945
sVfavorite_count
p137
I0
sVsource
p138
V<a href="http://instagram.com" rel="nofollow">Instagram</a>
p139
sVretweeted
p140
I00
sg124
(dp141
g122
VPoint
p142
sg124
(lp143
F8.540757
aF47.366276
assVtimestamp_ms
p144
V1436389910975
p145
sVentities
p146
(dp147
Vuser_mentions
p148
(lp149
sVsymbols
p150
(lp151
sVtrends
p152
(lp153
sVhashtags
p154
(lp155
(dp156
Vindices
p157
(lp158
I0
aI9
asg135
Vroadtrip
p159
sa(dp160
g157
(lp161
I10
aI21
asg135
Vlakezurich
p162
sa(dp163
g157
(lp164
I22
aI29
asg135
Vzurich
p165
sa(dp166
g157
(lp167
I30
aI42
asg135
Vswitzerland
p168
sasVurls
p169
(lp170
(dp171
g73
Vhttps://t.co/rO0r8q6kKX
p172
sg157
(lp173
I57
aI80
asVexpanded_url
p174
Vhttps://instagram.com/p/448kfWwbcG/
p175
sVdisplay_url
p176
Vinstagram.com/p/448kfWwbcG/
p177
sassVin_reply_to_screen_name
p178
Nsg42
V618890259619794945
p179
sVretweet_count
p180
I0
sVin_reply_to_user_id
p181
NsVfavorited
p182
I00
sVuser
p183
g29
sVgeo
p184
g121
sVin_reply_to_user_id_str
p185
NsVpossibly_sensitive
p186
I00
sg66
g129
sg75
VWed Jul 08 21:11:50 +0000 2015
p187
sVfilter_level
p188
g119
sVin_reply_to_status_id_str
p189
NsVplace
p190
(dp191
Vfull_name
p192
VZurich, Switzerland
p193
sg73
Vhttps://api.twitter.com/1.1/geo/id/3acb748d0f1e9265.json
p194
sVcountry
p195
VSchweiz
p196
sVplace_type
p197
Vcity
p198
sVbounding_box
p199
(dp200
g122
VPolygon
p201
sg124
(lp202
(lp203
(lp204
F8.448081
aF47.320183
aa(lp205
F8.448081
aF47.434721
aa(lp206
F8.625442
aF47.434721
aa(lp207
F8.625442
aF47.320183
aaassVcountry_code
p208
VCH
p209
sVattributes
p210
(dp211
sg33
V3acb748d0f1e9265
p212
sg64
VZurich
p213
sssS'coordinates'
p214
g141
sS'timestamp_ms'
p215
g145
sS'entities'
p216
g147
sS'in_reply_to_status_id_str'
p217
NsS'in_reply_to_screen_name'
p218
Nsg89
g179
sS'retweeted'
p219
I00
sS'place'
p220
g0
(ctweepy.models
Place
p221
g2
Ntp222
Rp223
(dp224
S'full_name'
p225
g193
sg106
g194
sS'country'
p226
g196
sS'place_type'
p227
g198
sS'bounding_box'
p228
g0
(ctweepy.models
BoundingBox
p229
g2
Ntp230
Rp231
(dp232
S'type'
p233
g201
sg214
g202
sbsS'country_code'
p234
g209
sS'attributes'
p235
g211
sg24
g212
sg100
g213
sbsS'retweet_count'
p236
I0
sg107
g108
(S'\x07\xdf\x07\x08\x15\x0b2\x00\x00\x00'
p237
tp238
Rp239
sS'in_reply_to_user_id'
p240
Nsb.