ccopy_reg
_reconstructor
p0
(ctweepy.models
Status
p1
c__builtin__
object
p2
Ntp3
Rp4
(dp5
S'favorited'
p6
I00
sS'contributors'
p7
NsS'truncated'
p8
I00
sS'text'
p9
VWe're hiring! We are looking for an executive assistant at Zurich city! If you are interested in it, go apply here: https://t.co/qUq5RDGWDn
p10
sS'source_url'
p11
Vhttp://twitter.com
p12
sS'possibly_sensitive'
p13
I00
sS'in_reply_to_status_id'
p14
NsS'user'
p15
g0
(ctweepy.models
User
p16
g2
Ntp17
Rp18
(dp19
S'follow_request_sent'
p20
NsS'profile_use_background_image'
p21
I00
sS'profile_sidebar_fill_color'
p22
VF6F6F6
p23
sS'id'
p24
I77173874
sS'verified'
p25
I00
sS'profile_image_url_https'
p26
Vhttps://pbs.twimg.com/profile_images/605755017312772096/-TDNomDn_normal.jpg
p27
sS'_json'
p28
(dp29
Vfollow_request_sent
p30
NsVprofile_use_background_image
p31
I00
sVdefault_profile_image
p32
I00
sVid
p33
I77173874
sVverified
p34
I00
sVprofile_image_url_https
p35
g27
sVprofile_sidebar_fill_color
p36
g23
sVprofile_text_color
p37
V333333
p38
sVfollowers_count
p39
I786
sVprofile_sidebar_border_color
p40
VEEEEEE
p41
sVid_str
p42
V77173874
p43
sVprofile_background_color
p44
V575357
p45
sVlisted_count
p46
I29
sVprofile_background_image_url_https
p47
Vhttps://pbs.twimg.com/profile_background_images/336781009/logo_TALENTORY_Twitter.jpg
p48
sVutc_offset
p49
I7200
sVstatuses_count
p50
I740
sVdescription
p51
VTALENTORY the leading European B2B recruiting marketplace where Employers meet fast and quality-minded Recruiters.\u000aLike us on Facebook https://t.co/gMmeC8HDLo
p52
sVfriends_count
p53
I1997
sVlocation
p54
VZurich
p55
sVprofile_link_color
p56
V038543
p57
sVprofile_image_url
p58
Vhttp://pbs.twimg.com/profile_images/605755017312772096/-TDNomDn_normal.jpg
p59
sVfollowing
p60
NsVgeo_enabled
p61
I01
sVprofile_banner_url
p62
Vhttps://pbs.twimg.com/profile_banners/77173874/1433258208
p63
sVprofile_background_image_url
p64
Vhttp://pbs.twimg.com/profile_background_images/336781009/logo_TALENTORY_Twitter.jpg
p65
sVname
p66
VTalentory 
p67
sVlang
p68
Ven
p69
sVprofile_background_tile
p70
I00
sVfavourites_count
p71
I77
sVscreen_name
p72
VTalentory
p73
sVnotifications
p74
NsVurl
p75
Vhttps://www.talentory.com
p76
sVcreated_at
p77
VFri Sep 25 09:16:35 +0000 2009
p78
sVcontributors_enabled
p79
I00
sVtime_zone
p80
VBern
p81
sVprotected
p82
I00
sVdefault_profile
p83
I00
sVis_translator
p84
I00
ssS'contributors_enabled'
p85
I00
sS'profile_text_color'
p86
g38
sS'followers_count'
p87
I786
sS'profile_sidebar_border_color'
p88
g41
sS'location'
p89
g55
sS'default_profile_image'
p90
I00
sS'id_str'
p91
g43
sS'utc_offset'
p92
I7200
sS'statuses_count'
p93
I740
sS'description'
p94
VTALENTORY the leading European B2B recruiting marketplace where Employers meet fast and quality-minded Recruiters.\u000aLike us on Facebook https://t.co/gMmeC8HDLo
p95
sS'friends_count'
p96
I1997
sS'profile_link_color'
p97
g57
sS'profile_image_url'
p98
g59
sS'notifications'
p99
NsS'geo_enabled'
p100
I01
sS'profile_background_color'
p101
g45
sS'profile_banner_url'
p102
g63
sS'profile_background_image_url'
p103
g65
sS'name'
p104
g67
sS'lang'
p105
g69
sS'following'
p106
I00
sS'profile_background_tile'
p107
I00
sS'favourites_count'
p108
I77
sS'screen_name'
p109
g73
sS'url'
p110
g76
sS'created_at'
p111
cdatetime
datetime
p112
(S'\x07\xd9\t\x19\t\x10#\x00\x00\x00'
p113
tp114
Rp115
sS'profile_background_image_url_https'
p116
g48
sS'time_zone'
p117
g81
sS'protected'
p118
I00
sS'default_profile'
p119
I00
sS'is_translator'
p120
I00
sS'listed_count'
p121
I29
sbsS'filter_level'
p122
Vlow
p123
sS'geo'
p124
Nsg24
I620937286700650496
sS'favorite_count'
p125
I0
sS'source'
p126
VTwitter Web Client
p127
sg105
Ven
p128
sS'author'
p129
g18
sS'in_reply_to_user_id_str'
p130
Nsg28
(dp131
Vcontributors
p132
NsVtruncated
p133
I00
sVtext
p134
g10
sVin_reply_to_status_id
p135
Nsg33
I620937286700650496
sVfavorite_count
p136
I0
sVsource
p137
V<a href="http://twitter.com" rel="nofollow">Twitter Web Client</a>
p138
sVretweeted
p139
I00
sVcoordinates
p140
NsVtimestamp_ms
p141
V1436877960263
p142
sVentities
p143
(dp144
Vuser_mentions
p145
(lp146
sVsymbols
p147
(lp148
sVtrends
p149
(lp150
sVhashtags
p151
(lp152
sVurls
p153
(lp154
(dp155
g75
Vhttps://t.co/qUq5RDGWDn
p156
sVindices
p157
(lp158
I116
aI139
asVexpanded_url
p159
Vhttps://www.linkedin.com/jobs2/view/62325820
p160
sVdisplay_url
p161
Vlinkedin.com/jobs2/view/623\u2026
p162
sassVin_reply_to_screen_name
p163
Nsg42
V620937286700650496
p164
sVretweet_count
p165
I0
sVin_reply_to_user_id
p166
NsVfavorited
p167
I00
sVuser
p168
g29
sVgeo
p169
NsVin_reply_to_user_id_str
p170
NsVpossibly_sensitive
p171
I00
sg68
g128
sg77
VTue Jul 14 12:46:00 +0000 2015
p172
sVfilter_level
p173
g123
sVin_reply_to_status_id_str
p174
NsVplace
p175
(dp176
Vfull_name
p177
VZurich, Switzerland
p178
sg75
Vhttps://api.twitter.com/1.1/geo/id/3acb748d0f1e9265.json
p179
sVcountry
p180
VSchweiz
p181
sVplace_type
p182
Vcity
p183
sVbounding_box
p184
(dp185
Vtype
p186
VPolygon
p187
sg140
(lp188
(lp189
(lp190
F8.448081
aF47.320183
aa(lp191
F8.448081
aF47.434721
aa(lp192
F8.625442
aF47.434721
aa(lp193
F8.625442
aF47.320183
aaassVcountry_code
p194
VCH
p195
sVattributes
p196
(dp197
sg33
V3acb748d0f1e9265
p198
sg66
VZurich
p199
sssS'coordinates'
p200
NsS'timestamp_ms'
p201
g142
sS'entities'
p202
g144
sS'in_reply_to_status_id_str'
p203
NsS'in_reply_to_screen_name'
p204
Nsg91
g164
sS'retweeted'
p205
I00
sS'place'
p206
g0
(ctweepy.models
Place
p207
g2
Ntp208
Rp209
(dp210
S'full_name'
p211
g178
sg110
g179
sS'country'
p212
g181
sS'place_type'
p213
g183
sS'bounding_box'
p214
g0
(ctweepy.models
BoundingBox
p215
g2
Ntp216
Rp217
(dp218
S'type'
p219
g187
sg200
g188
sbsS'country_code'
p220
g195
sS'attributes'
p221
g197
sg24
g198
sg104
g199
sbsS'retweet_count'
p222
I0
sg111
g112
(S'\x07\xdf\x07\x0e\x0c.\x00\x00\x00\x00'
p223
tp224
Rp225
sS'in_reply_to_user_id'
p226
Nsb.