ccopy_reg
_reconstructor
p0
(ctweepy.models
Status
p1
c__builtin__
object
p2
Ntp3
Rp4
(dp5
S'favorited'
p6
I00
sS'contributors'
p7
NsS'truncated'
p8
I00
sS'text'
p9
V#zurich #Switzerland #swiss http://t.co/lkDzfounnO
p10
sS'source_url'
p11
Vhttp://twitter.com
p12
sS'possibly_sensitive'
p13
I00
sS'in_reply_to_status_id'
p14
NsS'user'
p15
g0
(ctweepy.models
User
p16
g2
Ntp17
Rp18
(dp19
S'follow_request_sent'
p20
NsS'profile_use_background_image'
p21
I01
sS'profile_sidebar_fill_color'
p22
VDDEEF6
p23
sS'id'
p24
I1079884782
sS'verified'
p25
I00
sS'profile_image_url_https'
p26
Vhttps://pbs.twimg.com/profile_images/613108636231929856/Umi2nM99_normal.jpg
p27
sS'_json'
p28
(dp29
Vfollow_request_sent
p30
NsVprofile_use_background_image
p31
I01
sVdefault_profile_image
p32
I00
sVid
p33
I1079884782
sVverified
p34
I00
sVprofile_image_url_https
p35
g27
sVprofile_sidebar_fill_color
p36
g23
sVprofile_text_color
p37
V333333
p38
sVfollowers_count
p39
I30
sVprofile_sidebar_border_color
p40
VC0DEED
p41
sVid_str
p42
V1079884782
p43
sVprofile_background_color
p44
VC0DEED
p45
sVlisted_count
p46
I1
sVprofile_background_image_url_https
p47
Vhttps://abs.twimg.com/images/themes/theme1/bg.png
p48
sVutc_offset
p49
NsVstatuses_count
p50
I17
sVdescription
p51
NsVfriends_count
p52
I240
sVlocation
p53
VLas Vegas
p54
sVprofile_link_color
p55
V0084B4
p56
sVprofile_image_url
p57
Vhttp://pbs.twimg.com/profile_images/613108636231929856/Umi2nM99_normal.jpg
p58
sVfollowing
p59
NsVgeo_enabled
p60
I01
sVprofile_banner_url
p61
Vhttps://pbs.twimg.com/profile_banners/1079884782/1435648001
p62
sVprofile_background_image_url
p63
Vhttp://abs.twimg.com/images/themes/theme1/bg.png
p64
sVname
p65
VPrabahs Kumra
p66
sVlang
p67
Ven
p68
sVprofile_background_tile
p69
I00
sVfavourites_count
p70
I3
sVscreen_name
p71
Vprabhas1998
p72
sVnotifications
p73
NsVurl
p74
NsVcreated_at
p75
VFri Jan 11 14:40:02 +0000 2013
p76
sVcontributors_enabled
p77
I00
sVtime_zone
p78
NsVprotected
p79
I00
sVdefault_profile
p80
I01
sVis_translator
p81
I00
ssS'contributors_enabled'
p82
I00
sS'profile_text_color'
p83
g38
sS'followers_count'
p84
I30
sS'profile_sidebar_border_color'
p85
g41
sS'location'
p86
g54
sS'default_profile_image'
p87
I00
sS'id_str'
p88
g43
sS'utc_offset'
p89
NsS'statuses_count'
p90
I17
sS'description'
p91
NsS'friends_count'
p92
I240
sS'profile_link_color'
p93
g56
sS'profile_image_url'
p94
g58
sS'notifications'
p95
NsS'geo_enabled'
p96
I01
sS'profile_background_color'
p97
g45
sS'profile_banner_url'
p98
g62
sS'profile_background_image_url'
p99
g64
sS'name'
p100
g66
sS'lang'
p101
g68
sS'following'
p102
I00
sS'profile_background_tile'
p103
I00
sS'favourites_count'
p104
I3
sS'screen_name'
p105
g72
sS'url'
p106
NsS'created_at'
p107
cdatetime
datetime
p108
(S'\x07\xdd\x01\x0b\x0e(\x02\x00\x00\x00'
p109
tp110
Rp111
sS'profile_background_image_url_https'
p112
g48
sS'time_zone'
p113
NsS'protected'
p114
I00
sS'default_profile'
p115
I01
sS'is_translator'
p116
I00
sS'listed_count'
p117
I1
sbsS'filter_level'
p118
Vlow
p119
sS'geo'
p120
Nsg24
I621043468689735680
sS'favorite_count'
p121
I0
sS'source'
p122
VTwitter Web Client
p123
sg101
Vund
p124
sS'author'
p125
g18
sS'in_reply_to_user_id_str'
p126
Nsg28
(dp127
Vcontributors
p128
NsVtruncated
p129
I00
sVtext
p130
g10
sVin_reply_to_status_id
p131
Nsg33
I621043468689735680
sVfavorite_count
p132
I0
sVsource
p133
V<a href="http://twitter.com" rel="nofollow">Twitter Web Client</a>
p134
sVretweeted
p135
I00
sVcoordinates
p136
NsVtimestamp_ms
p137
V1436903276022
p138
sVentities
p139
(dp140
Vsymbols
p141
(lp142
sVmedia
p143
(lp144
(dp145
Vexpanded_url
p146
Vhttp://twitter.com/prabhas1998/status/621043468689735680/photo/1
p147
sVdisplay_url
p148
Vpic.twitter.com/lkDzfounnO
p149
sg74
Vhttp://t.co/lkDzfounnO
p150
sVmedia_url_https
p151
Vhttps://pbs.twimg.com/media/CJ5jvmXVAAAk8qp.jpg
p152
sg42
V621043468027101184
p153
sVsizes
p154
(dp155
Vsmall
p156
(dp157
Vh
p158
I340
sVresize
p159
Vfit
p160
sVw
p161
I340
ssVlarge
p162
(dp163
g158
I712
sg159
Vfit
p164
sg161
I712
ssVmedium
p165
(dp166
g158
I600
sg159
Vfit
p167
sg161
I600
ssVthumb
p168
(dp169
g158
I150
sg159
Vcrop
p170
sg161
I150
sssVindices
p171
(lp172
I28
aI50
asVtype
p173
Vphoto
p174
sg33
I621043468027101184
sVmedia_url
p175
Vhttp://pbs.twimg.com/media/CJ5jvmXVAAAk8qp.jpg
p176
sasVhashtags
p177
(lp178
(dp179
g171
(lp180
I0
aI7
asg130
Vzurich
p181
sa(dp182
g171
(lp183
I8
aI20
asg130
VSwitzerland
p184
sa(dp185
g171
(lp186
I21
aI27
asg130
Vswiss
p187
sasVuser_mentions
p188
(lp189
sVtrends
p190
(lp191
sVurls
p192
(lp193
ssVin_reply_to_screen_name
p194
Nsg42
V621043468689735680
p195
sVretweet_count
p196
I0
sVin_reply_to_user_id
p197
NsVfavorited
p198
I00
sVuser
p199
g29
sVgeo
p200
NsVin_reply_to_user_id_str
p201
NsVpossibly_sensitive
p202
I00
sg67
g124
sg75
VTue Jul 14 19:47:56 +0000 2015
p203
sVfilter_level
p204
g119
sVin_reply_to_status_id_str
p205
NsVplace
p206
(dp207
Vfull_name
p208
VZurich, Switzerland
p209
sg74
Vhttps://api.twitter.com/1.1/geo/id/3acb748d0f1e9265.json
p210
sVcountry
p211
VSchweiz
p212
sVplace_type
p213
Vcity
p214
sVbounding_box
p215
(dp216
g173
VPolygon
p217
sg136
(lp218
(lp219
(lp220
F8.448081
aF47.320183
aa(lp221
F8.448081
aF47.434721
aa(lp222
F8.625442
aF47.434721
aa(lp223
F8.625442
aF47.320183
aaassVcountry_code
p224
VCH
p225
sVattributes
p226
(dp227
sg33
V3acb748d0f1e9265
p228
sg65
VZurich
p229
ssVextended_entities
p230
(dp231
g143
(lp232
(dp233
g146
Vhttp://twitter.com/prabhas1998/status/621043468689735680/photo/1
p234
sg148
Vpic.twitter.com/lkDzfounnO
p235
sg74
Vhttp://t.co/lkDzfounnO
p236
sg151
Vhttps://pbs.twimg.com/media/CJ5jvmXVAAAk8qp.jpg
p237
sg42
V621043468027101184
p238
sg154
(dp239
g156
(dp240
g158
I340
sg159
Vfit
p241
sg161
I340
ssg162
(dp242
g158
I712
sg159
Vfit
p243
sg161
I712
ssg165
(dp244
g158
I600
sg159
Vfit
p245
sg161
I600
ssg168
(dp246
g158
I150
sg159
Vcrop
p247
sg161
I150
sssg171
(lp248
I28
aI50
asg173
Vphoto
p249
sg33
I621043468027101184
sg175
Vhttp://pbs.twimg.com/media/CJ5jvmXVAAAk8qp.jpg
p250
sasssS'coordinates'
p251
NsS'timestamp_ms'
p252
g138
sS'entities'
p253
g140
sS'in_reply_to_status_id_str'
p254
NsS'in_reply_to_screen_name'
p255
Nsg88
g195
sS'extended_entities'
p256
g231
sS'retweeted'
p257
I00
sS'place'
p258
g0
(ctweepy.models
Place
p259
g2
Ntp260
Rp261
(dp262
S'full_name'
p263
g209
sg106
g210
sS'country'
p264
g212
sS'place_type'
p265
g214
sS'bounding_box'
p266
g0
(ctweepy.models
BoundingBox
p267
g2
Ntp268
Rp269
(dp270
S'type'
p271
g217
sg251
g218
sbsS'country_code'
p272
g225
sS'attributes'
p273
g227
sg24
g228
sg100
g229
sbsS'retweet_count'
p274
I0
sg107
g108
(S'\x07\xdf\x07\x0e\x13/8\x00\x00\x00'
p275
tp276
Rp277
sS'in_reply_to_user_id'
p278
Nsb.