ccopy_reg
_reconstructor
p0
(ctweepy.models
Status
p1
c__builtin__
object
p2
Ntp3
Rp4
(dp5
S'favorited'
p6
I00
sS'contributors'
p7
NsS'truncated'
p8
I00
sS'text'
p9
VLausanne, Switzerland pedestrian street from St. Francois to the Le Gare is so long and steep a skate boarder might break the sound barrier.
p10
sS'source_url'
p11
Vhttp://twitter.com/download/android
p12
sS'possibly_sensitive'
p13
I00
sS'in_reply_to_status_id'
p14
NsS'user'
p15
g0
(ctweepy.models
User
p16
g2
Ntp17
Rp18
(dp19
S'follow_request_sent'
p20
NsS'profile_use_background_image'
p21
I01
sS'profile_sidebar_fill_color'
p22
VF6FFD1
p23
sS'id'
p24
I318817669
sS'verified'
p25
I00
sS'profile_image_url_https'
p26
Vhttps://pbs.twimg.com/profile_images/1407018646/MultiBill_normal.jpg
p27
sS'_json'
p28
(dp29
Vfollow_request_sent
p30
NsVprofile_use_background_image
p31
I01
sVdefault_profile_image
p32
I00
sVid
p33
I318817669
sVverified
p34
I00
sVprofile_image_url_https
p35
g27
sVprofile_sidebar_fill_color
p36
g23
sVprofile_text_color
p37
V333333
p38
sVfollowers_count
p39
I60
sVprofile_sidebar_border_color
p40
VFFF8AD
p41
sVid_str
p42
V318817669
p43
sVprofile_background_color
p44
VFFF04D
p45
sVlisted_count
p46
I1
sVprofile_background_image_url_https
p47
Vhttps://abs.twimg.com/images/themes/theme19/bg.gif
p48
sVutc_offset
p49
I-14400
sVstatuses_count
p50
I8290
sVdescription
p51
VAlways a complete thought, whether frivolous, sarcastic or hopefully sometimes deep, in proper English with correct spelling and using precisely 140 characters.
p52
sVfriends_count
p53
I14
sVlocation
p54
VNew York City area
p55
sVprofile_link_color
p56
V0099CC
p57
sVprofile_image_url
p58
Vhttp://pbs.twimg.com/profile_images/1407018646/MultiBill_normal.jpg
p59
sVfollowing
p60
NsVgeo_enabled
p61
I01
sVprofile_background_image_url
p62
Vhttp://abs.twimg.com/images/themes/theme19/bg.gif
p63
sVname
p64
VWilliam Ruh
p65
sVlang
p66
Ven
p67
sVprofile_background_tile
p68
I01
sVfavourites_count
p69
I477
sVscreen_name
p70
VWilliamRuh
p71
sVnotifications
p72
NsVurl
p73
NsVcreated_at
p74
VFri Jun 17 03:03:34 +0000 2011
p75
sVcontributors_enabled
p76
I00
sVtime_zone
p77
VEastern Time (US & Canada)
p78
sVprotected
p79
I00
sVdefault_profile
p80
I00
sVis_translator
p81
I00
ssS'contributors_enabled'
p82
I00
sS'profile_text_color'
p83
g38
sS'followers_count'
p84
I60
sS'profile_sidebar_border_color'
p85
g41
sS'location'
p86
g55
sS'default_profile_image'
p87
I00
sS'id_str'
p88
g43
sS'utc_offset'
p89
I-14400
sS'statuses_count'
p90
I8290
sS'description'
p91
g52
sS'friends_count'
p92
I14
sS'profile_link_color'
p93
g57
sS'profile_image_url'
p94
g59
sS'notifications'
p95
NsS'geo_enabled'
p96
I01
sS'profile_background_color'
p97
g45
sS'profile_background_image_url'
p98
g63
sS'name'
p99
g65
sS'lang'
p100
g67
sS'following'
p101
I00
sS'profile_background_tile'
p102
I01
sS'favourites_count'
p103
I477
sS'screen_name'
p104
g71
sS'url'
p105
NsS'created_at'
p106
cdatetime
datetime
p107
(S'\x07\xdb\x06\x11\x03\x03"\x00\x00\x00'
p108
tp109
Rp110
sS'profile_background_image_url_https'
p111
g48
sS'time_zone'
p112
g78
sS'protected'
p113
I00
sS'default_profile'
p114
I00
sS'is_translator'
p115
I00
sS'listed_count'
p116
I1
sbsS'filter_level'
p117
Vlow
p118
sS'geo'
p119
Nsg24
I620496326908870656
sS'favorite_count'
p120
I0
sS'source'
p121
VTwitter for Android
p122
sg100
Ven
p123
sS'author'
p124
g18
sS'in_reply_to_user_id_str'
p125
Nsg28
(dp126
Vcontributors
p127
NsVtruncated
p128
I00
sVtext
p129
g10
sVin_reply_to_status_id
p130
Nsg33
I620496326908870656
sVfavorite_count
p131
I0
sVsource
p132
V<a href="http://twitter.com/download/android" rel="nofollow">Twitter for Android</a>
p133
sVretweeted
p134
I00
sVcoordinates
p135
NsVtimestamp_ms
p136
V1436772827256
p137
sVentities
p138
(dp139
Vuser_mentions
p140
(lp141
sVsymbols
p142
(lp143
sVtrends
p144
(lp145
sVhashtags
p146
(lp147
sVurls
p148
(lp149
ssVin_reply_to_screen_name
p150
Nsg42
V620496326908870656
p151
sVretweet_count
p152
I0
sVin_reply_to_user_id
p153
NsVfavorited
p154
I00
sVuser
p155
g29
sVgeo
p156
NsVin_reply_to_user_id_str
p157
NsVpossibly_sensitive
p158
I00
sg66
g123
sg74
VMon Jul 13 07:33:47 +0000 2015
p159
sVfilter_level
p160
g118
sVin_reply_to_status_id_str
p161
NsVplace
p162
(dp163
Vfull_name
p164
VZurich, Switzerland
p165
sg73
Vhttps://api.twitter.com/1.1/geo/id/3acb748d0f1e9265.json
p166
sVcountry
p167
VSchweiz
p168
sVplace_type
p169
Vcity
p170
sVbounding_box
p171
(dp172
Vtype
p173
VPolygon
p174
sg135
(lp175
(lp176
(lp177
F8.448081
aF47.320183
aa(lp178
F8.448081
aF47.434721
aa(lp179
F8.625442
aF47.434721
aa(lp180
F8.625442
aF47.320183
aaassVcountry_code
p181
VCH
p182
sVattributes
p183
(dp184
sg33
V3acb748d0f1e9265
p185
sg64
VZurich
p186
sssS'coordinates'
p187
NsS'timestamp_ms'
p188
g137
sS'entities'
p189
g139
sS'in_reply_to_status_id_str'
p190
NsS'in_reply_to_screen_name'
p191
Nsg88
g151
sS'retweeted'
p192
I00
sS'place'
p193
g0
(ctweepy.models
Place
p194
g2
Ntp195
Rp196
(dp197
S'full_name'
p198
g165
sg105
g166
sS'country'
p199
g168
sS'place_type'
p200
g170
sS'bounding_box'
p201
g0
(ctweepy.models
BoundingBox
p202
g2
Ntp203
Rp204
(dp205
S'type'
p206
g174
sg187
g175
sbsS'country_code'
p207
g182
sS'attributes'
p208
g184
sg24
g185
sg99
g186
sbsS'retweet_count'
p209
I0
sg106
g107
(S'\x07\xdf\x07\r\x07!/\x00\x00\x00'
p210
tp211
Rp212
sS'in_reply_to_user_id'
p213
Nsb.