ccopy_reg
_reconstructor
p0
(ctweepy.models
Status
p1
c__builtin__
object
p2
Ntp3
Rp4
(dp5
S'favorited'
p6
I00
sS'contributors'
p7
NsS'truncated'
p8
I00
sS'text'
p9
VAccenture #Finance #Job: Junior-Berater (m/w) Financial Services mit Schwerpunkt Distribution und... (#Zurich) http://t.co/2z1LQKqCku #Jobs
p10
sS'source_url'
p11
Vhttp://www.tweetmyjobs.com
p12
sS'possibly_sensitive'
p13
I00
sS'in_reply_to_status_id'
p14
NsS'user'
p15
g0
(ctweepy.models
User
p16
g2
Ntp17
Rp18
(dp19
S'follow_request_sent'
p20
NsS'profile_use_background_image'
p21
I01
sS'profile_sidebar_fill_color'
p22
V407DB0
p23
sS'id'
p24
I40150339
sS'verified'
p25
I00
sS'profile_image_url_https'
p26
Vhttps://pbs.twimg.com/profile_images/2303715808/Logo_tmj_new2b_normal.png
p27
sS'_json'
p28
(dp29
Vfollow_request_sent
p30
NsVprofile_use_background_image
p31
I01
sVdefault_profile_image
p32
I00
sVid
p33
I40150339
sVverified
p34
I00
sVprofile_image_url_https
p35
g27
sVprofile_sidebar_fill_color
p36
g23
sVprofile_text_color
p37
V000000
p38
sVfollowers_count
p39
I294
sVprofile_sidebar_border_color
p40
V000000
p41
sVid_str
p42
V40150339
p43
sVprofile_background_color
p44
V253956
p45
sVlisted_count
p46
I5
sVprofile_background_image_url_https
p47
Vhttps://pbs.twimg.com/profile_background_images/315455148/Twitter-BG_2_bg-image.jpg
p48
sVutc_offset
p49
I-14400
sVstatuses_count
p50
I17
sVdescription
p51
VFollow this account for geo-targeted Finance job tweets in Switzerland from TweetMyJobs. Need help? Tweet us at @TweetMyJobs!
p52
sVfriends_count
p53
I257
sVlocation
p54
VSwitzerland
p55
sVprofile_link_color
p56
V96BEDF
p57
sVprofile_image_url
p58
Vhttp://pbs.twimg.com/profile_images/2303715808/Logo_tmj_new2b_normal.png
p59
sVfollowing
p60
NsVgeo_enabled
p61
I01
sVprofile_banner_url
p62
Vhttps://pbs.twimg.com/profile_banners/40150339/1349360303
p63
sVprofile_background_image_url
p64
Vhttp://pbs.twimg.com/profile_background_images/315455148/Twitter-BG_2_bg-image.jpg
p65
sVname
p66
VTMJ-SWS Finance Jobs
p67
sVlang
p68
Ven
p69
sVprofile_background_tile
p70
I00
sVfavourites_count
p71
I0
sVscreen_name
p72
Vtmj_sws_finance
p73
sVnotifications
p74
NsVurl
p75
Vhttp://tweetmyjobs.com
p76
sVcreated_at
p77
VFri May 15 02:10:42 +0000 2009
p78
sVcontributors_enabled
p79
I00
sVtime_zone
p80
VEastern Time (US & Canada)
p81
sVprotected
p82
I00
sVdefault_profile
p83
I00
sVis_translator
p84
I00
ssS'contributors_enabled'
p85
I00
sS'profile_text_color'
p86
g38
sS'followers_count'
p87
I294
sS'profile_sidebar_border_color'
p88
g41
sS'location'
p89
g55
sS'default_profile_image'
p90
I00
sS'id_str'
p91
g43
sS'utc_offset'
p92
I-14400
sS'statuses_count'
p93
I17
sS'description'
p94
g52
sS'friends_count'
p95
I257
sS'profile_link_color'
p96
g57
sS'profile_image_url'
p97
g59
sS'notifications'
p98
NsS'geo_enabled'
p99
I01
sS'profile_background_color'
p100
g45
sS'profile_banner_url'
p101
g63
sS'profile_background_image_url'
p102
g65
sS'name'
p103
g67
sS'lang'
p104
g69
sS'following'
p105
I00
sS'profile_background_tile'
p106
I00
sS'favourites_count'
p107
I0
sS'screen_name'
p108
g73
sS'url'
p109
g76
sS'created_at'
p110
cdatetime
datetime
p111
(S'\x07\xd9\x05\x0f\x02\n*\x00\x00\x00'
p112
tp113
Rp114
sS'profile_background_image_url_https'
p115
g48
sS'time_zone'
p116
g81
sS'protected'
p117
I00
sS'default_profile'
p118
I00
sS'is_translator'
p119
I00
sS'listed_count'
p120
I5
sbsS'filter_level'
p121
Vlow
p122
sS'geo'
p123
(dp124
Vtype
p125
VPoint
p126
sVcoordinates
p127
(lp128
F47.367347
aF8.550003
assg24
I619747469727895552
sS'favorite_count'
p129
I0
sS'source'
p130
VTweetMyJOBS
p131
sg104
Ven
p132
sS'author'
p133
g18
sS'in_reply_to_user_id_str'
p134
Nsg28
(dp135
Vcontributors
p136
NsVtruncated
p137
I00
sVtext
p138
g10
sVin_reply_to_status_id
p139
Nsg33
I619747469727895552
sVfavorite_count
p140
I0
sVsource
p141
V<a href="http://www.tweetmyjobs.com" rel="nofollow">TweetMyJOBS</a>
p142
sVretweeted
p143
I00
sg127
(dp144
g125
VPoint
p145
sg127
(lp146
F8.550003
aF47.367347
assVtimestamp_ms
p147
V1436594285791
p148
sVentities
p149
(dp150
Vuser_mentions
p151
(lp152
sVsymbols
p153
(lp154
sVtrends
p155
(lp156
sVhashtags
p157
(lp158
(dp159
Vindices
p160
(lp161
I10
aI18
asg138
VFinance
p162
sa(dp163
g160
(lp164
I19
aI23
asg138
VJob
p165
sa(dp166
g160
(lp167
I102
aI109
asg138
VZurich
p168
sa(dp169
g160
(lp170
I134
aI139
asg138
VJobs
p171
sasVurls
p172
(lp173
(dp174
g75
Vhttp://t.co/2z1LQKqCku
p175
sg160
(lp176
I111
aI133
asVexpanded_url
p177
Vhttp://bit.ly/1GbYRsK
p178
sVdisplay_url
p179
Vbit.ly/1GbYRsK
p180
sassVin_reply_to_screen_name
p181
Nsg42
V619747469727895552
p182
sVretweet_count
p183
I0
sVin_reply_to_user_id
p184
NsVfavorited
p185
I00
sVuser
p186
g29
sVgeo
p187
g124
sVin_reply_to_user_id_str
p188
NsVpossibly_sensitive
p189
I00
sg68
g132
sg77
VSat Jul 11 05:58:05 +0000 2015
p190
sVfilter_level
p191
g122
sVin_reply_to_status_id_str
p192
NsVplace
p193
(dp194
Vfull_name
p195
VZurich, Switzerland
p196
sg75
Vhttps://api.twitter.com/1.1/geo/id/3acb748d0f1e9265.json
p197
sVcountry
p198
VSchweiz
p199
sVplace_type
p200
Vcity
p201
sVbounding_box
p202
(dp203
g125
VPolygon
p204
sg127
(lp205
(lp206
(lp207
F8.448081
aF47.320183
aa(lp208
F8.448081
aF47.434721
aa(lp209
F8.625442
aF47.434721
aa(lp210
F8.625442
aF47.320183
aaassVcountry_code
p211
VCH
p212
sVattributes
p213
(dp214
sg33
V3acb748d0f1e9265
p215
sg66
VZurich
p216
sssS'coordinates'
p217
g144
sS'timestamp_ms'
p218
g148
sS'entities'
p219
g150
sS'in_reply_to_status_id_str'
p220
NsS'in_reply_to_screen_name'
p221
Nsg91
g182
sS'retweeted'
p222
I00
sS'place'
p223
g0
(ctweepy.models
Place
p224
g2
Ntp225
Rp226
(dp227
S'full_name'
p228
g196
sg109
g197
sS'country'
p229
g199
sS'place_type'
p230
g201
sS'bounding_box'
p231
g0
(ctweepy.models
BoundingBox
p232
g2
Ntp233
Rp234
(dp235
S'type'
p236
g204
sg217
g205
sbsS'country_code'
p237
g212
sS'attributes'
p238
g214
sg24
g215
sg103
g216
sbsS'retweet_count'
p239
I0
sg110
g111
(S'\x07\xdf\x07\x0b\x05:\x05\x00\x00\x00'
p240
tp241
Rp242
sS'in_reply_to_user_id'
p243
Nsb.