ccopy_reg
_reconstructor
p0
(ctweepy.models
Status
p1
c__builtin__
object
p2
Ntp3
Rp4
(dp5
S'favorited'
p6
I00
sS'contributors'
p7
NsS'truncated'
p8
I00
sS'text'
p9
V@TaniaRashid9 My father had typhoid almost 70 yrs ago due to polluted water in India and it only seems to be getting worse.
p10
sS'source_url'
p11
Vhttp://tapbots.com/tweetbot
p12
sS'possibly_sensitive'
p13
I00
sS'in_reply_to_status_id'
p14
NsS'user'
p15
g0
(ctweepy.models
User
p16
g2
Ntp17
Rp18
(dp19
S'follow_request_sent'
p20
NsS'profile_use_background_image'
p21
I00
sS'profile_sidebar_fill_color'
p22
V595959
p23
sS'id'
p24
I30654634
sS'verified'
p25
I00
sS'profile_image_url_https'
p26
Vhttps://pbs.twimg.com/profile_images/865582371/me2square_normal.jpg
p27
sS'_json'
p28
(dp29
Vfollow_request_sent
p30
NsVprofile_use_background_image
p31
I00
sVdefault_profile_image
p32
I00
sVid
p33
I30654634
sVverified
p34
I00
sVprofile_image_url_https
p35
g27
sVprofile_sidebar_fill_color
p36
g23
sVprofile_text_color
p37
V333333
p38
sVfollowers_count
p39
I406
sVprofile_sidebar_border_color
p40
V262626
p41
sVid_str
p42
V30654634
p43
sVprofile_background_color
p44
V474747
p45
sVlisted_count
p46
I25
sVprofile_background_image_url_https
p47
Vhttps://abs.twimg.com/images/themes/theme8/bg.gif
p48
sVutc_offset
p49
I7200
sVstatuses_count
p50
I3450
sVdescription
p51
VEditor/Colorist
p52
sVfriends_count
p53
I632
sVlocation
p54
ViPhone: 47.370369,8.520642
p55
sVprofile_link_color
p56
V868686
p57
sVprofile_image_url
p58
Vhttp://pbs.twimg.com/profile_images/865582371/me2square_normal.jpg
p59
sVfollowing
p60
NsVgeo_enabled
p61
I01
sVprofile_background_image_url
p62
Vhttp://abs.twimg.com/images/themes/theme8/bg.gif
p63
sVname
p64
VShamol Majumder
p65
sVlang
p66
Ven
p67
sVprofile_background_tile
p68
I00
sVfavourites_count
p69
I49
sVscreen_name
p70
VShamol
p71
sVnotifications
p72
NsVurl
p73
NsVcreated_at
p74
VSun Apr 12 14:11:05 +0000 2009
p75
sVcontributors_enabled
p76
I00
sVtime_zone
p77
VBern
p78
sVprotected
p79
I00
sVdefault_profile
p80
I00
sVis_translator
p81
I00
ssS'contributors_enabled'
p82
I00
sS'profile_text_color'
p83
g38
sS'followers_count'
p84
I406
sS'profile_sidebar_border_color'
p85
g41
sS'location'
p86
g55
sS'default_profile_image'
p87
I00
sS'id_str'
p88
g43
sS'utc_offset'
p89
I7200
sS'statuses_count'
p90
I3450
sS'description'
p91
g52
sS'friends_count'
p92
I632
sS'profile_link_color'
p93
g57
sS'profile_image_url'
p94
g59
sS'notifications'
p95
NsS'geo_enabled'
p96
I01
sS'profile_background_color'
p97
g45
sS'profile_background_image_url'
p98
g63
sS'name'
p99
g65
sS'lang'
p100
g67
sS'following'
p101
I00
sS'profile_background_tile'
p102
I00
sS'favourites_count'
p103
I49
sS'screen_name'
p104
g71
sS'url'
p105
NsS'created_at'
p106
cdatetime
datetime
p107
(S'\x07\xd9\x04\x0c\x0e\x0b\x05\x00\x00\x00'
p108
tp109
Rp110
sS'profile_background_image_url_https'
p111
g48
sS'time_zone'
p112
g78
sS'protected'
p113
I00
sS'default_profile'
p114
I00
sS'is_translator'
p115
I00
sS'listed_count'
p116
I25
sbsS'filter_level'
p117
Vlow
p118
sS'geo'
p119
Nsg24
I620300777970663428
sS'favorite_count'
p120
I0
sS'source'
p121
VTweetbot for i\u039fS
p122
sg100
Ven
p123
sS'author'
p124
g18
sS'in_reply_to_user_id_str'
p125
V16264842
p126
sg28
(dp127
Vcontributors
p128
NsVtruncated
p129
I00
sVtext
p130
g10
sVin_reply_to_status_id
p131
Nsg33
I620300777970663428
sVfavorite_count
p132
I0
sVsource
p133
V<a href="http://tapbots.com/tweetbot" rel="nofollow">Tweetbot for i\u039fS</a>
p134
sVretweeted
p135
I00
sVcoordinates
p136
NsVtimestamp_ms
p137
V1436726204756
p138
sVentities
p139
(dp140
Vuser_mentions
p141
(lp142
(dp143
g33
I16264842
sVindices
p144
(lp145
I0
aI13
asg42
V16264842
p146
sg70
VTaniaRashid9
p147
sg64
VTania Rashid
p148
sasVsymbols
p149
(lp150
sVtrends
p151
(lp152
sVhashtags
p153
(lp154
sVurls
p155
(lp156
ssVin_reply_to_screen_name
p157
VTaniaRashid9
p158
sg42
V620300777970663428
p159
sVretweet_count
p160
I0
sVin_reply_to_user_id
p161
I16264842
sVfavorited
p162
I00
sVuser
p163
g29
sVgeo
p164
NsVin_reply_to_user_id_str
p165
g126
sVpossibly_sensitive
p166
I00
sg66
g123
sg74
VSun Jul 12 18:36:44 +0000 2015
p167
sVfilter_level
p168
g118
sVin_reply_to_status_id_str
p169
NsVplace
p170
(dp171
Vfull_name
p172
VZurich, Switzerland
p173
sg73
Vhttps://api.twitter.com/1.1/geo/id/3acb748d0f1e9265.json
p174
sVcountry
p175
VSchweiz
p176
sVplace_type
p177
Vcity
p178
sVbounding_box
p179
(dp180
Vtype
p181
VPolygon
p182
sg136
(lp183
(lp184
(lp185
F8.448081
aF47.320183
aa(lp186
F8.448081
aF47.434721
aa(lp187
F8.625442
aF47.434721
aa(lp188
F8.625442
aF47.320183
aaassVcountry_code
p189
VCH
p190
sVattributes
p191
(dp192
sg33
V3acb748d0f1e9265
p193
sg64
VZurich
p194
sssS'coordinates'
p195
NsS'timestamp_ms'
p196
g138
sS'entities'
p197
g140
sS'in_reply_to_status_id_str'
p198
NsS'in_reply_to_screen_name'
p199
g158
sg88
g159
sS'retweeted'
p200
I00
sS'place'
p201
g0
(ctweepy.models
Place
p202
g2
Ntp203
Rp204
(dp205
S'full_name'
p206
g173
sg105
g174
sS'country'
p207
g176
sS'place_type'
p208
g178
sS'bounding_box'
p209
g0
(ctweepy.models
BoundingBox
p210
g2
Ntp211
Rp212
(dp213
S'type'
p214
g182
sg195
g183
sbsS'country_code'
p215
g190
sS'attributes'
p216
g192
sg24
g193
sg99
g194
sbsS'retweet_count'
p217
I0
sg106
g107
(S'\x07\xdf\x07\x0c\x12$,\x00\x00\x00'
p218
tp219
Rp220
sS'in_reply_to_user_id'
p221
I16264842
sb.