ccopy_reg
_reconstructor
p0
(ctweepy.models
Status
p1
c__builtin__
object
p2
Ntp3
Rp4
(dp5
S'favorited'
p6
I00
sS'contributors'
p7
NsS'truncated'
p8
I00
sS'text'
p9
V#zurich#2015 #Switzerland @ The Dolder Grand https://t.co/mP8gbyxtrF
p10
sS'source_url'
p11
Vhttp://instagram.com
p12
sS'possibly_sensitive'
p13
I00
sS'in_reply_to_status_id'
p14
NsS'user'
p15
g0
(ctweepy.models
User
p16
g2
Ntp17
Rp18
(dp19
S'follow_request_sent'
p20
NsS'profile_use_background_image'
p21
I01
sS'profile_sidebar_fill_color'
p22
VDDEEF6
p23
sS'id'
p24
I508861696
sS'verified'
p25
I00
sS'profile_image_url_https'
p26
Vhttps://pbs.twimg.com/profile_images/610823507748851712/dKleDzz1_normal.jpg
p27
sS'_json'
p28
(dp29
Vfollow_request_sent
p30
NsVprofile_use_background_image
p31
I01
sVdefault_profile_image
p32
I00
sVid
p33
I508861696
sVverified
p34
I00
sVprofile_image_url_https
p35
g27
sVprofile_sidebar_fill_color
p36
g23
sVprofile_text_color
p37
V333333
p38
sVfollowers_count
p39
I532
sVprofile_sidebar_border_color
p40
VC0DEED
p41
sVid_str
p42
V508861696
p43
sVprofile_background_color
p44
VC0DEED
p45
sVlisted_count
p46
I6
sVprofile_background_image_url_https
p47
Vhttps://abs.twimg.com/images/themes/theme1/bg.png
p48
sVutc_offset
p49
NsVstatuses_count
p50
I281
sVdescription
p51
NsVfriends_count
p52
I106
sVlocation
p53
V
p54
sVprofile_link_color
p55
V0084B4
p56
sVprofile_image_url
p57
Vhttp://pbs.twimg.com/profile_images/610823507748851712/dKleDzz1_normal.jpg
p58
sVfollowing
p59
NsVgeo_enabled
p60
I01
sVprofile_background_image_url
p61
Vhttp://abs.twimg.com/images/themes/theme1/bg.png
p62
sVname
p63
VAntonio Hendricks
p64
sVlang
p65
Ven
p66
sVprofile_background_tile
p67
I00
sVfavourites_count
p68
I347
sVscreen_name
p69
Vahendr1234
p70
sVnotifications
p71
NsVurl
p72
NsVcreated_at
p73
VWed Feb 29 13:43:43 +0000 2012
p74
sVcontributors_enabled
p75
I00
sVtime_zone
p76
NsVprotected
p77
I00
sVdefault_profile
p78
I01
sVis_translator
p79
I00
ssS'contributors_enabled'
p80
I00
sS'profile_text_color'
p81
g38
sS'followers_count'
p82
I532
sS'profile_sidebar_border_color'
p83
g41
sS'location'
p84
g54
sS'default_profile_image'
p85
I00
sS'id_str'
p86
g43
sS'utc_offset'
p87
NsS'statuses_count'
p88
I281
sS'description'
p89
NsS'friends_count'
p90
I106
sS'profile_link_color'
p91
g56
sS'profile_image_url'
p92
g58
sS'notifications'
p93
NsS'geo_enabled'
p94
I01
sS'profile_background_color'
p95
g45
sS'profile_background_image_url'
p96
g62
sS'name'
p97
g64
sS'lang'
p98
g66
sS'following'
p99
I00
sS'profile_background_tile'
p100
I00
sS'favourites_count'
p101
I347
sS'screen_name'
p102
g70
sS'url'
p103
NsS'created_at'
p104
cdatetime
datetime
p105
(S'\x07\xdc\x02\x1d\r++\x00\x00\x00'
p106
tp107
Rp108
sS'profile_background_image_url_https'
p109
g48
sS'time_zone'
p110
NsS'protected'
p111
I00
sS'default_profile'
p112
I01
sS'is_translator'
p113
I00
sS'listed_count'
p114
I6
sbsS'filter_level'
p115
Vlow
p116
sS'geo'
p117
(dp118
Vtype
p119
VPoint
p120
sVcoordinates
p121
(lp122
F47.372696
aF8.573299
assg24
I618483542822096898
sS'favorite_count'
p123
I0
sS'source'
p124
VInstagram
p125
sg98
Ven
p126
sS'author'
p127
g18
sS'in_reply_to_user_id_str'
p128
Nsg28
(dp129
Vcontributors
p130
NsVtruncated
p131
I00
sVtext
p132
g10
sVin_reply_to_status_id
p133
Nsg33
I618483542822096898
sVfavorite_count
p134
I0
sVsource
p135
V<a href="http://instagram.com" rel="nofollow">Instagram</a>
p136
sVretweeted
p137
I00
sg121
(dp138
g119
VPoint
p139
sg121
(lp140
F8.573299
aF47.372696
assVtimestamp_ms
p141
V1436292942134
p142
sVentities
p143
(dp144
Vuser_mentions
p145
(lp146
sVsymbols
p147
(lp148
sVtrends
p149
(lp150
sVhashtags
p151
(lp152
(dp153
Vindices
p154
(lp155
I13
aI25
asg132
VSwitzerland
p156
sasVurls
p157
(lp158
(dp159
g72
Vhttps://t.co/mP8gbyxtrF
p160
sg154
(lp161
I45
aI68
asVexpanded_url
p162
Vhttps://instagram.com/p/42Dnehh7SZ/
p163
sVdisplay_url
p164
Vinstagram.com/p/42Dnehh7SZ/
p165
sassVin_reply_to_screen_name
p166
Nsg42
V618483542822096898
p167
sVretweet_count
p168
I0
sVin_reply_to_user_id
p169
NsVfavorited
p170
I00
sVuser
p171
g29
sVgeo
p172
g118
sVin_reply_to_user_id_str
p173
NsVpossibly_sensitive
p174
I00
sg65
g126
sg73
VTue Jul 07 18:15:42 +0000 2015
p175
sVfilter_level
p176
g116
sVin_reply_to_status_id_str
p177
NsVplace
p178
(dp179
Vfull_name
p180
VZurich, Switzerland
p181
sg72
Vhttps://api.twitter.com/1.1/geo/id/3acb748d0f1e9265.json
p182
sVcountry
p183
VSchweiz
p184
sVplace_type
p185
Vcity
p186
sVbounding_box
p187
(dp188
g119
VPolygon
p189
sg121
(lp190
(lp191
(lp192
F8.448081
aF47.320183
aa(lp193
F8.448081
aF47.434721
aa(lp194
F8.625442
aF47.434721
aa(lp195
F8.625442
aF47.320183
aaassVcountry_code
p196
VCH
p197
sVattributes
p198
(dp199
sg33
V3acb748d0f1e9265
p200
sg63
VZurich
p201
sssS'coordinates'
p202
g138
sS'timestamp_ms'
p203
g142
sS'entities'
p204
g144
sS'in_reply_to_status_id_str'
p205
NsS'in_reply_to_screen_name'
p206
Nsg86
g167
sS'retweeted'
p207
I00
sS'place'
p208
g0
(ctweepy.models
Place
p209
g2
Ntp210
Rp211
(dp212
S'full_name'
p213
g181
sg103
g182
sS'country'
p214
g184
sS'place_type'
p215
g186
sS'bounding_box'
p216
g0
(ctweepy.models
BoundingBox
p217
g2
Ntp218
Rp219
(dp220
S'type'
p221
g189
sg202
g190
sbsS'country_code'
p222
g197
sS'attributes'
p223
g199
sg24
g200
sg97
g201
sbsS'retweet_count'
p224
I0
sg104
g105
(S'\x07\xdf\x07\x07\x12\x0f*\x00\x00\x00'
p225
tp226
Rp227
sS'in_reply_to_user_id'
p228
Nsb.