ccopy_reg
_reconstructor
p0
(ctweepy.models
Status
p1
c__builtin__
object
p2
Ntp3
Rp4
(dp5
S'favorited'
p6
I00
sS'contributors'
p7
NsS'truncated'
p8
I00
sS'text'
p9
V@alexfcl86 @kicker_atr QUE http://t.co/fKubPeir82
p10
sS'source_url'
p11
Vhttp://twitter.com
p12
sS'possibly_sensitive'
p13
I00
sS'in_reply_to_status_id'
p14
NsS'user'
p15
g0
(ctweepy.models
User
p16
g2
Ntp17
Rp18
(dp19
S'follow_request_sent'
p20
NsS'profile_use_background_image'
p21
I01
sS'profile_sidebar_fill_color'
p22
VDDEEF6
p23
sS'id'
p24
I26727539
sS'verified'
p25
I00
sS'profile_image_url_https'
p26
Vhttps://pbs.twimg.com/profile_images/618152690112073728/AN0clhZL_normal.jpg
p27
sS'_json'
p28
(dp29
Vfollow_request_sent
p30
NsVprofile_use_background_image
p31
I01
sVdefault_profile_image
p32
I00
sVid
p33
I26727539
sVverified
p34
I00
sVprofile_image_url_https
p35
g27
sVprofile_sidebar_fill_color
p36
g23
sVprofile_text_color
p37
V333333
p38
sVfollowers_count
p39
I1385
sVprofile_sidebar_border_color
p40
VFFFFFF
p41
sVid_str
p42
V26727539
p43
sVprofile_background_color
p44
VC0DEED
p45
sVlisted_count
p46
I15
sVprofile_background_image_url_https
p47
Vhttps://pbs.twimg.com/profile_background_images/444457469222215682/1g2zc6eF.png
p48
sVutc_offset
p49
NsVstatuses_count
p50
I2881
sVdescription
p51
VChelsea FC, Hertha BSC Berlin, Vancouver Canucks, Dallas Cowboys, Dallas Mavericks, Texas Rangers, HC Lugano, WELTMEISTER 1954, 1974, 1990, 2014 DEUTSCHLAND
p52
sVfriends_count
p53
I2000
sVlocation
p54
VZurich, Switzerland
p55
sVprofile_link_color
p56
V0084B4
p57
sVprofile_image_url
p58
Vhttp://pbs.twimg.com/profile_images/618152690112073728/AN0clhZL_normal.jpg
p59
sVfollowing
p60
NsVgeo_enabled
p61
I01
sVprofile_banner_url
p62
Vhttps://pbs.twimg.com/profile_banners/26727539/1423015616
p63
sVprofile_background_image_url
p64
Vhttp://pbs.twimg.com/profile_background_images/444457469222215682/1g2zc6eF.png
p65
sVname
p66
VJoel
p67
sVlang
p68
Ven
p69
sVprofile_background_tile
p70
I01
sVfavourites_count
p71
I2788
sVscreen_name
p72
VJoelinho83
p73
sVnotifications
p74
NsVurl
p75
NsVcreated_at
p76
VThu Mar 26 11:22:21 +0000 2009
p77
sVcontributors_enabled
p78
I00
sVtime_zone
p79
NsVprotected
p80
I00
sVdefault_profile
p81
I00
sVis_translator
p82
I00
ssS'contributors_enabled'
p83
I00
sS'profile_text_color'
p84
g38
sS'followers_count'
p85
I1385
sS'profile_sidebar_border_color'
p86
g41
sS'location'
p87
g55
sS'default_profile_image'
p88
I00
sS'id_str'
p89
g43
sS'utc_offset'
p90
NsS'statuses_count'
p91
I2881
sS'description'
p92
g52
sS'friends_count'
p93
I2000
sS'profile_link_color'
p94
g57
sS'profile_image_url'
p95
g59
sS'notifications'
p96
NsS'geo_enabled'
p97
I01
sS'profile_background_color'
p98
g45
sS'profile_banner_url'
p99
g63
sS'profile_background_image_url'
p100
g65
sS'name'
p101
g67
sS'lang'
p102
g69
sS'following'
p103
I00
sS'profile_background_tile'
p104
I01
sS'favourites_count'
p105
I2788
sS'screen_name'
p106
g73
sS'url'
p107
NsS'created_at'
p108
cdatetime
datetime
p109
(S'\x07\xd9\x03\x1a\x0b\x16\x15\x00\x00\x00'
p110
tp111
Rp112
sS'profile_background_image_url_https'
p113
g48
sS'time_zone'
p114
NsS'protected'
p115
I00
sS'default_profile'
p116
I00
sS'is_translator'
p117
I00
sS'listed_count'
p118
I15
sbsS'filter_level'
p119
Vlow
p120
sS'geo'
p121
Nsg24
I620151132271300608
sS'favorite_count'
p122
I0
sS'source'
p123
VTwitter Web Client
p124
sg102
Vund
p125
sS'author'
p126
g18
sS'in_reply_to_user_id_str'
p127
V103960092
p128
sg28
(dp129
Vcontributors
p130
NsVtruncated
p131
I00
sVtext
p132
g10
sVin_reply_to_status_id
p133
Nsg33
I620151132271300608
sVfavorite_count
p134
I0
sVsource
p135
V<a href="http://twitter.com" rel="nofollow">Twitter Web Client</a>
p136
sVretweeted
p137
I00
sVcoordinates
p138
NsVtimestamp_ms
p139
V1436690526441
p140
sVentities
p141
(dp142
Vsymbols
p143
(lp144
sVmedia
p145
(lp146
(dp147
Vexpanded_url
p148
Vhttp://twitter.com/Joelinho83/status/620151132271300608/photo/1
p149
sVdisplay_url
p150
Vpic.twitter.com/fKubPeir82
p151
sg75
Vhttp://t.co/fKubPeir82
p152
sVmedia_url_https
p153
Vhttps://pbs.twimg.com/media/CJs4Kw6UEAEkHuP.jpg
p154
sg42
V620151131272908801
p155
sVsizes
p156
(dp157
Vlarge
p158
(dp159
Vh
p160
I540
sVresize
p161
Vfit
p162
sVw
p163
I960
ssVsmall
p164
(dp165
g160
I191
sg161
Vfit
p166
sg163
I340
ssVmedium
p167
(dp168
g160
I337
sg161
Vfit
p169
sg163
I600
ssVthumb
p170
(dp171
g160
I150
sg161
Vcrop
p172
sg163
I150
sssVindices
p173
(lp174
I27
aI49
asVtype
p175
Vphoto
p176
sg33
I620151131272908801
sVmedia_url
p177
Vhttp://pbs.twimg.com/media/CJs4Kw6UEAEkHuP.jpg
p178
sasVhashtags
p179
(lp180
sVuser_mentions
p181
(lp182
(dp183
g33
I103960092
sg173
(lp184
I0
aI10
asg42
V103960092
p185
sg72
Valexfcl86
p186
sg66
VAlex
p187
sa(dp188
g33
I72839966
sg173
(lp189
I11
aI22
asg42
V72839966
p190
sg72
Vkicker_atr
p191
sg66
VAlex Truica
p192
sasVtrends
p193
(lp194
sVurls
p195
(lp196
ssVin_reply_to_screen_name
p197
Valexfcl86
p198
sg42
V620151132271300608
p199
sVretweet_count
p200
I0
sVin_reply_to_user_id
p201
I103960092
sVfavorited
p202
I00
sVuser
p203
g29
sVgeo
p204
NsVin_reply_to_user_id_str
p205
g128
sVpossibly_sensitive
p206
I00
sg68
g125
sg76
VSun Jul 12 08:42:06 +0000 2015
p207
sVfilter_level
p208
g120
sVin_reply_to_status_id_str
p209
NsVplace
p210
(dp211
Vfull_name
p212
VZurich, Switzerland
p213
sg75
Vhttps://api.twitter.com/1.1/geo/id/3acb748d0f1e9265.json
p214
sVcountry
p215
VSchweiz
p216
sVplace_type
p217
Vcity
p218
sVbounding_box
p219
(dp220
g175
VPolygon
p221
sg138
(lp222
(lp223
(lp224
F8.448081
aF47.320183
aa(lp225
F8.448081
aF47.434721
aa(lp226
F8.625442
aF47.434721
aa(lp227
F8.625442
aF47.320183
aaassVcountry_code
p228
VCH
p229
sVattributes
p230
(dp231
sg33
V3acb748d0f1e9265
p232
sg66
VZurich
p233
ssVextended_entities
p234
(dp235
g145
(lp236
(dp237
g148
Vhttp://twitter.com/Joelinho83/status/620151132271300608/photo/1
p238
sg150
Vpic.twitter.com/fKubPeir82
p239
sg75
Vhttp://t.co/fKubPeir82
p240
sg153
Vhttps://pbs.twimg.com/media/CJs4Kw6UEAEkHuP.jpg
p241
sg42
V620151131272908801
p242
sg156
(dp243
g158
(dp244
g160
I540
sg161
Vfit
p245
sg163
I960
ssg164
(dp246
g160
I191
sg161
Vfit
p247
sg163
I340
ssg167
(dp248
g160
I337
sg161
Vfit
p249
sg163
I600
ssg170
(dp250
g160
I150
sg161
Vcrop
p251
sg163
I150
sssg173
(lp252
I27
aI49
asg175
Vphoto
p253
sg33
I620151131272908801
sg177
Vhttp://pbs.twimg.com/media/CJs4Kw6UEAEkHuP.jpg
p254
sasssS'coordinates'
p255
NsS'timestamp_ms'
p256
g140
sS'entities'
p257
g142
sS'in_reply_to_status_id_str'
p258
NsS'in_reply_to_screen_name'
p259
g198
sg89
g199
sS'extended_entities'
p260
g235
sS'retweeted'
p261
I00
sS'place'
p262
g0
(ctweepy.models
Place
p263
g2
Ntp264
Rp265
(dp266
S'full_name'
p267
g213
sg107
g214
sS'country'
p268
g216
sS'place_type'
p269
g218
sS'bounding_box'
p270
g0
(ctweepy.models
BoundingBox
p271
g2
Ntp272
Rp273
(dp274
S'type'
p275
g221
sg255
g222
sbsS'country_code'
p276
g229
sS'attributes'
p277
g231
sg24
g232
sg101
g233
sbsS'retweet_count'
p278
I0
sg108
g109
(S'\x07\xdf\x07\x0c\x08*\x06\x00\x00\x00'
p279
tp280
Rp281
sS'in_reply_to_user_id'
p282
I103960092
sb.