ccopy_reg
_reconstructor
p0
(ctweepy.models
Status
p1
c__builtin__
object
p2
Ntp3
Rp4
(dp5
S'favorited'
p6
I00
sS'contributors'
p7
NsS'truncated'
p8
I00
sS'text'
p9
V#whatsinyourfoodbasket #healthychoice #healthyeating #cleaneating #summer #fruits #vegetarian #homemade #cooking http://t.co/rnxa2Qda5q
p10
sS'source_url'
p11
Vhttp://twitter.com/download/iphone
p12
sS'possibly_sensitive'
p13
I00
sS'in_reply_to_status_id'
p14
NsS'user'
p15
g0
(ctweepy.models
User
p16
g2
Ntp17
Rp18
(dp19
S'follow_request_sent'
p20
NsS'profile_use_background_image'
p21
I00
sS'profile_sidebar_fill_color'
p22
V000000
p23
sS'id'
p24
I3137546289
sS'verified'
p25
I00
sS'profile_image_url_https'
p26
Vhttps://pbs.twimg.com/profile_images/589503038965952513/my3mj34u_normal.jpg
p27
sS'_json'
p28
(dp29
Vfollow_request_sent
p30
NsVprofile_use_background_image
p31
I00
sVdefault_profile_image
p32
I00
sVid
p33
I3137546289
sVverified
p34
I00
sVprofile_image_url_https
p35
g27
sVprofile_sidebar_fill_color
p36
g23
sVprofile_text_color
p37
V000000
p38
sVfollowers_count
p39
I18
sVprofile_sidebar_border_color
p40
V000000
p41
sVid_str
p42
V3137546289
p43
sVprofile_background_color
p44
V000000
p45
sVlisted_count
p46
I2
sVprofile_background_image_url_https
p47
Vhttps://abs.twimg.com/images/themes/theme1/bg.png
p48
sVutc_offset
p49
NsVstatuses_count
p50
I111
sVdescription
p51
VGet yourself energised through my daily tweets in a healthier and happier body and soul.
p52
sVfriends_count
p53
I33
sVlocation
p54
VZurich
p55
sVprofile_link_color
p56
VFFCC4D
p57
sVprofile_image_url
p58
Vhttp://pbs.twimg.com/profile_images/589503038965952513/my3mj34u_normal.jpg
p59
sVfollowing
p60
NsVgeo_enabled
p61
I01
sVprofile_background_image_url
p62
Vhttp://abs.twimg.com/images/themes/theme1/bg.png
p63
sVname
p64
VThe DesiredMe
p65
sVlang
p66
Ven
p67
sVprofile_background_tile
p68
I00
sVfavourites_count
p69
I21
sVscreen_name
p70
Vthedesiredme
p71
sVnotifications
p72
NsVurl
p73
Vhttp://www.thedesiredme.com
p74
sVcreated_at
p75
VSun Apr 05 16:34:01 +0000 2015
p76
sVcontributors_enabled
p77
I00
sVtime_zone
p78
NsVprotected
p79
I00
sVdefault_profile
p80
I00
sVis_translator
p81
I00
ssS'contributors_enabled'
p82
I00
sS'profile_text_color'
p83
g38
sS'followers_count'
p84
I18
sS'profile_sidebar_border_color'
p85
g41
sS'location'
p86
g55
sS'default_profile_image'
p87
I00
sS'id_str'
p88
g43
sS'utc_offset'
p89
NsS'statuses_count'
p90
I111
sS'description'
p91
g52
sS'friends_count'
p92
I33
sS'profile_link_color'
p93
g57
sS'profile_image_url'
p94
g59
sS'notifications'
p95
NsS'geo_enabled'
p96
I01
sS'profile_background_color'
p97
g45
sS'profile_background_image_url'
p98
g63
sS'name'
p99
g65
sS'lang'
p100
g67
sS'following'
p101
I00
sS'profile_background_tile'
p102
I00
sS'favourites_count'
p103
I21
sS'screen_name'
p104
g71
sS'url'
p105
g74
sS'created_at'
p106
cdatetime
datetime
p107
(S'\x07\xdf\x04\x05\x10"\x01\x00\x00\x00'
p108
tp109
Rp110
sS'profile_background_image_url_https'
p111
g48
sS'time_zone'
p112
NsS'protected'
p113
I00
sS'default_profile'
p114
I00
sS'is_translator'
p115
I00
sS'listed_count'
p116
I2
sbsS'filter_level'
p117
Vlow
p118
sS'geo'
p119
Nsg24
I619919058868285440
sS'favorite_count'
p120
I0
sS'source'
p121
VTwitter for iPhone
p122
sg100
Vund
p123
sS'author'
p124
g18
sS'in_reply_to_user_id_str'
p125
Nsg28
(dp126
Vcontributors
p127
NsVtruncated
p128
I00
sVtext
p129
g10
sVin_reply_to_status_id
p130
Nsg33
I619919058868285440
sVfavorite_count
p131
I0
sVsource
p132
V<a href="http://twitter.com/download/iphone" rel="nofollow">Twitter for iPhone</a>
p133
sVretweeted
p134
I00
sVcoordinates
p135
NsVtimestamp_ms
p136
V1436635195830
p137
sVentities
p138
(dp139
Vsymbols
p140
(lp141
sVmedia
p142
(lp143
(dp144
Vexpanded_url
p145
Vhttp://twitter.com/thedesiredme/status/619919058868285440/photo/1
p146
sVdisplay_url
p147
Vpic.twitter.com/rnxa2Qda5q
p148
sg73
Vhttp://t.co/rnxa2Qda5q
p149
sVmedia_url_https
p150
Vhttps://pbs.twimg.com/media/CJplFuDW8AE1j-c.jpg
p151
sg42
V619919047652732929
p152
sVsizes
p153
(dp154
Vlarge
p155
(dp156
Vh
p157
I1024
sVresize
p158
Vfit
p159
sVw
p160
I814
ssVsmall
p161
(dp162
g157
I427
sg158
Vfit
p163
sg160
I340
ssVmedium
p164
(dp165
g157
I754
sg158
Vfit
p166
sg160
I600
ssVthumb
p167
(dp168
g157
I150
sg158
Vcrop
p169
sg160
I150
sssVindices
p170
(lp171
I113
aI135
asVtype
p172
Vphoto
p173
sg33
I619919047652732929
sVmedia_url
p174
Vhttp://pbs.twimg.com/media/CJplFuDW8AE1j-c.jpg
p175
sasVhashtags
p176
(lp177
(dp178
g170
(lp179
I0
aI22
asg129
Vwhatsinyourfoodbasket
p180
sa(dp181
g170
(lp182
I23
aI37
asg129
Vhealthychoice
p183
sa(dp184
g170
(lp185
I38
aI52
asg129
Vhealthyeating
p186
sa(dp187
g170
(lp188
I53
aI65
asg129
Vcleaneating
p189
sa(dp190
g170
(lp191
I66
aI73
asg129
Vsummer
p192
sa(dp193
g170
(lp194
I74
aI81
asg129
Vfruits
p195
sa(dp196
g170
(lp197
I82
aI93
asg129
Vvegetarian
p198
sa(dp199
g170
(lp200
I94
aI103
asg129
Vhomemade
p201
sa(dp202
g170
(lp203
I104
aI112
asg129
Vcooking
p204
sasVuser_mentions
p205
(lp206
sVtrends
p207
(lp208
sVurls
p209
(lp210
ssVin_reply_to_screen_name
p211
Nsg42
V619919058868285440
p212
sVretweet_count
p213
I0
sVin_reply_to_user_id
p214
NsVfavorited
p215
I00
sVuser
p216
g29
sVgeo
p217
NsVin_reply_to_user_id_str
p218
NsVpossibly_sensitive
p219
I00
sg66
g123
sg75
VSat Jul 11 17:19:55 +0000 2015
p220
sVfilter_level
p221
g118
sVin_reply_to_status_id_str
p222
NsVplace
p223
(dp224
Vfull_name
p225
VZurich, Switzerland
p226
sg73
Vhttps://api.twitter.com/1.1/geo/id/3acb748d0f1e9265.json
p227
sVcountry
p228
VSchweiz
p229
sVplace_type
p230
Vcity
p231
sVbounding_box
p232
(dp233
g172
VPolygon
p234
sg135
(lp235
(lp236
(lp237
F8.448081
aF47.320183
aa(lp238
F8.448081
aF47.434721
aa(lp239
F8.625442
aF47.434721
aa(lp240
F8.625442
aF47.320183
aaassVcountry_code
p241
VCH
p242
sVattributes
p243
(dp244
sg33
V3acb748d0f1e9265
p245
sg64
VZurich
p246
ssVextended_entities
p247
(dp248
g142
(lp249
(dp250
g145
Vhttp://twitter.com/thedesiredme/status/619919058868285440/photo/1
p251
sg147
Vpic.twitter.com/rnxa2Qda5q
p252
sg73
Vhttp://t.co/rnxa2Qda5q
p253
sg150
Vhttps://pbs.twimg.com/media/CJplFuDW8AE1j-c.jpg
p254
sg42
V619919047652732929
p255
sg153
(dp256
g155
(dp257
g157
I1024
sg158
Vfit
p258
sg160
I814
ssg161
(dp259
g157
I427
sg158
Vfit
p260
sg160
I340
ssg164
(dp261
g157
I754
sg158
Vfit
p262
sg160
I600
ssg167
(dp263
g157
I150
sg158
Vcrop
p264
sg160
I150
sssg170
(lp265
I113
aI135
asg172
Vphoto
p266
sg33
I619919047652732929
sg174
Vhttp://pbs.twimg.com/media/CJplFuDW8AE1j-c.jpg
p267
sasssS'coordinates'
p268
NsS'timestamp_ms'
p269
g137
sS'entities'
p270
g139
sS'in_reply_to_status_id_str'
p271
NsS'in_reply_to_screen_name'
p272
Nsg88
g212
sS'extended_entities'
p273
g248
sS'retweeted'
p274
I00
sS'place'
p275
g0
(ctweepy.models
Place
p276
g2
Ntp277
Rp278
(dp279
S'full_name'
p280
g226
sg105
g227
sS'country'
p281
g229
sS'place_type'
p282
g231
sS'bounding_box'
p283
g0
(ctweepy.models
BoundingBox
p284
g2
Ntp285
Rp286
(dp287
S'type'
p288
g234
sg268
g235
sbsS'country_code'
p289
g242
sS'attributes'
p290
g244
sg24
g245
sg99
g246
sbsS'retweet_count'
p291
I0
sg106
g107
(S'\x07\xdf\x07\x0b\x11\x137\x00\x00\x00'
p292
tp293
Rp294
sS'in_reply_to_user_id'
p295
Nsb.