ccopy_reg
_reconstructor
p0
(ctweepy.models
Status
p1
c__builtin__
object
p2
Ntp3
Rp4
(dp5
S'favorited'
p6
I00
sS'contributors'
p7
NsS'truncated'
p8
I00
sS'text'
p9
VChocolate \U0001f60b\U0001f36b http://t.co/LERBkJP9U5
p10
sS'source_url'
p11
Vhttp://twitter.com/download/iphone
p12
sS'possibly_sensitive'
p13
I00
sS'in_reply_to_status_id'
p14
NsS'user'
p15
g0
(ctweepy.models
User
p16
g2
Ntp17
Rp18
(dp19
S'follow_request_sent'
p20
NsS'profile_use_background_image'
p21
I01
sS'profile_sidebar_fill_color'
p22
VDDEEF6
p23
sS'id'
p24
I1374863917
sS'verified'
p25
I00
sS'profile_image_url_https'
p26
Vhttps://pbs.twimg.com/profile_images/547525111298146304/a89l2VgB_normal.jpeg
p27
sS'_json'
p28
(dp29
Vfollow_request_sent
p30
NsVprofile_use_background_image
p31
I01
sVdefault_profile_image
p32
I00
sVid
p33
I1374863917
sVverified
p34
I00
sVprofile_image_url_https
p35
g27
sVprofile_sidebar_fill_color
p36
g23
sVprofile_text_color
p37
V333333
p38
sVfollowers_count
p39
I41
sVprofile_sidebar_border_color
p40
VC0DEED
p41
sVid_str
p42
V1374863917
p43
sVprofile_background_color
p44
VC0DEED
p45
sVlisted_count
p46
I0
sVprofile_background_image_url_https
p47
Vhttps://abs.twimg.com/images/themes/theme1/bg.png
p48
sVutc_offset
p49
I3600
sVstatuses_count
p50
I1238
sVdescription
p51
NsVfriends_count
p52
I144
sVlocation
p53
VUK
p54
sVprofile_link_color
p55
V0084B4
p56
sVprofile_image_url
p57
Vhttp://pbs.twimg.com/profile_images/547525111298146304/a89l2VgB_normal.jpeg
p58
sVfollowing
p59
NsVgeo_enabled
p60
I01
sVprofile_banner_url
p61
Vhttps://pbs.twimg.com/profile_banners/1374863917/1378505758
p62
sVprofile_background_image_url
p63
Vhttp://abs.twimg.com/images/themes/theme1/bg.png
p64
sVname
p65
VKarishma
p66
sVlang
p67
Ven
p68
sVprofile_background_tile
p69
I00
sVfavourites_count
p70
I554
sVscreen_name
p71
Vkarishma006
p72
sVnotifications
p73
NsVurl
p74
NsVcreated_at
p75
VTue Apr 23 15:50:59 +0000 2013
p76
sVcontributors_enabled
p77
I00
sVtime_zone
p78
VLondon
p79
sVprotected
p80
I00
sVdefault_profile
p81
I01
sVis_translator
p82
I00
ssS'contributors_enabled'
p83
I00
sS'profile_text_color'
p84
g38
sS'followers_count'
p85
I41
sS'profile_sidebar_border_color'
p86
g41
sS'location'
p87
g54
sS'default_profile_image'
p88
I00
sS'id_str'
p89
g43
sS'utc_offset'
p90
I3600
sS'statuses_count'
p91
I1238
sS'description'
p92
NsS'friends_count'
p93
I144
sS'profile_link_color'
p94
g56
sS'profile_image_url'
p95
g58
sS'notifications'
p96
NsS'geo_enabled'
p97
I01
sS'profile_background_color'
p98
g45
sS'profile_banner_url'
p99
g62
sS'profile_background_image_url'
p100
g64
sS'name'
p101
g66
sS'lang'
p102
g68
sS'following'
p103
I00
sS'profile_background_tile'
p104
I00
sS'favourites_count'
p105
I554
sS'screen_name'
p106
g72
sS'url'
p107
NsS'created_at'
p108
cdatetime
datetime
p109
(S'\x07\xdd\x04\x17\x0f2;\x00\x00\x00'
p110
tp111
Rp112
sS'profile_background_image_url_https'
p113
g48
sS'time_zone'
p114
g79
sS'protected'
p115
I00
sS'default_profile'
p116
I01
sS'is_translator'
p117
I00
sS'listed_count'
p118
I0
sbsS'filter_level'
p119
Vlow
p120
sS'geo'
p121
Nsg24
I619718101593157633
sS'favorite_count'
p122
I0
sS'source'
p123
VTwitter for iPhone
p124
sg102
Ves
p125
sS'author'
p126
g18
sS'in_reply_to_user_id_str'
p127
Nsg28
(dp128
Vcontributors
p129
NsVtruncated
p130
I00
sVtext
p131
g10
sVin_reply_to_status_id
p132
Nsg33
I619718101593157633
sVfavorite_count
p133
I0
sVsource
p134
V<a href="http://twitter.com/download/iphone" rel="nofollow">Twitter for iPhone</a>
p135
sVretweeted
p136
I00
sVcoordinates
p137
NsVtimestamp_ms
p138
V1436587283882
p139
sVentities
p140
(dp141
Vsymbols
p142
(lp143
sVmedia
p144
(lp145
(dp146
Vexpanded_url
p147
Vhttp://twitter.com/karishma006/status/619718101593157633/photo/1
p148
sVdisplay_url
p149
Vpic.twitter.com/LERBkJP9U5
p150
sg74
Vhttp://t.co/LERBkJP9U5
p151
sVmedia_url_https
p152
Vhttps://pbs.twimg.com/media/CJmuUFVXAAENm-t.jpg
p153
sg42
V619718083792535553
p154
sVsizes
p155
(dp156
Vsmall
p157
(dp158
Vh
p159
I453
sVresize
p160
Vfit
p161
sVw
p162
I340
ssVlarge
p163
(dp164
g159
I1024
sg160
Vfit
p165
sg162
I768
ssVmedium
p166
(dp167
g159
I800
sg160
Vfit
p168
sg162
I600
ssVthumb
p169
(dp170
g159
I150
sg160
Vcrop
p171
sg162
I150
sssVindices
p172
(lp173
I13
aI35
asVtype
p174
Vphoto
p175
sg33
I619718083792535553
sVmedia_url
p176
Vhttp://pbs.twimg.com/media/CJmuUFVXAAENm-t.jpg
p177
sasVhashtags
p178
(lp179
sVuser_mentions
p180
(lp181
sVtrends
p182
(lp183
sVurls
p184
(lp185
ssVin_reply_to_screen_name
p186
Nsg42
V619718101593157633
p187
sVretweet_count
p188
I0
sVin_reply_to_user_id
p189
NsVfavorited
p190
I00
sVuser
p191
g29
sVgeo
p192
NsVin_reply_to_user_id_str
p193
NsVpossibly_sensitive
p194
I00
sg67
g125
sg75
VSat Jul 11 04:01:23 +0000 2015
p195
sVfilter_level
p196
g120
sVin_reply_to_status_id_str
p197
NsVplace
p198
(dp199
Vfull_name
p200
VZurich, Switzerland
p201
sg74
Vhttps://api.twitter.com/1.1/geo/id/db94c1cccc67c4f4.json
p202
sVcountry
p203
VSchweiz
p204
sVplace_type
p205
Vadmin
p206
sVbounding_box
p207
(dp208
g174
VPolygon
p209
sg137
(lp210
(lp211
(lp212
F8.357749
aF47.159384
aa(lp213
F8.357749
aF47.694503
aa(lp214
F8.984445
aF47.694503
aa(lp215
F8.984445
aF47.159384
aaassVcountry_code
p216
VCH
p217
sVattributes
p218
(dp219
sg33
Vdb94c1cccc67c4f4
p220
sg65
VZurich
p221
ssVextended_entities
p222
(dp223
g144
(lp224
(dp225
g147
Vhttp://twitter.com/karishma006/status/619718101593157633/photo/1
p226
sg149
Vpic.twitter.com/LERBkJP9U5
p227
sg74
Vhttp://t.co/LERBkJP9U5
p228
sg152
Vhttps://pbs.twimg.com/media/CJmuUFVXAAENm-t.jpg
p229
sg42
V619718083792535553
p230
sg155
(dp231
g157
(dp232
g159
I453
sg160
Vfit
p233
sg162
I340
ssg163
(dp234
g159
I1024
sg160
Vfit
p235
sg162
I768
ssg166
(dp236
g159
I800
sg160
Vfit
p237
sg162
I600
ssg169
(dp238
g159
I150
sg160
Vcrop
p239
sg162
I150
sssg172
(lp240
I13
aI35
asg174
Vphoto
p241
sg33
I619718083792535553
sg176
Vhttp://pbs.twimg.com/media/CJmuUFVXAAENm-t.jpg
p242
sasssS'coordinates'
p243
NsS'timestamp_ms'
p244
g139
sS'entities'
p245
g141
sS'in_reply_to_status_id_str'
p246
NsS'in_reply_to_screen_name'
p247
Nsg89
g187
sS'extended_entities'
p248
g223
sS'retweeted'
p249
I00
sS'place'
p250
g0
(ctweepy.models
Place
p251
g2
Ntp252
Rp253
(dp254
S'full_name'
p255
g201
sg107
g202
sS'country'
p256
g204
sS'place_type'
p257
g206
sS'bounding_box'
p258
g0
(ctweepy.models
BoundingBox
p259
g2
Ntp260
Rp261
(dp262
S'type'
p263
g209
sg243
g210
sbsS'country_code'
p264
g217
sS'attributes'
p265
g219
sg24
g220
sg101
g221
sbsS'retweet_count'
p266
I0
sg108
g109
(S'\x07\xdf\x07\x0b\x04\x01\x17\x00\x00\x00'
p267
tp268
Rp269
sS'in_reply_to_user_id'
p270
Nsb.