ccopy_reg
_reconstructor
p0
(ctweepy.models
Status
p1
c__builtin__
object
p2
Ntp3
Rp4
(dp5
S'favorited'
p6
I00
sS'contributors'
p7
NsS'truncated'
p8
I00
sS'text'
p9
Vthis is what happens when u get marry\U0001f61c\U0001f61c\U0001f61c #Dolder #Hotel #Zurich; #private parking for #ladies ???\u2026 https://t.co/bJLClyldoY
p10
sS'source_url'
p11
Vhttp://instagram.com
p12
sS'possibly_sensitive'
p13
I00
sS'in_reply_to_status_id'
p14
NsS'user'
p15
g0
(ctweepy.models
User
p16
g2
Ntp17
Rp18
(dp19
S'follow_request_sent'
p20
NsS'profile_use_background_image'
p21
I01
sS'profile_sidebar_fill_color'
p22
VDDEEF6
p23
sS'id'
p24
I353011551
sS'verified'
p25
I00
sS'profile_image_url_https'
p26
Vhttps://pbs.twimg.com/profile_images/602894202532405249/K-VzfAZt_normal.jpg
p27
sS'_json'
p28
(dp29
Vfollow_request_sent
p30
NsVprofile_use_background_image
p31
I01
sVdefault_profile_image
p32
I00
sVid
p33
I353011551
sVverified
p34
I00
sVprofile_image_url_https
p35
g27
sVprofile_sidebar_fill_color
p36
g23
sVprofile_text_color
p37
V333333
p38
sVfollowers_count
p39
I647
sVprofile_sidebar_border_color
p40
VFFFFFF
p41
sVid_str
p42
V353011551
p43
sVprofile_background_color
p44
VC0DEED
p45
sVlisted_count
p46
I4
sVprofile_background_image_url_https
p47
Vhttps://pbs.twimg.com/profile_background_images/567111005155516416/a1x-Yktq.jpeg
p48
sVutc_offset
p49
I10800
sVstatuses_count
p50
I4303
sVdescription
p51
V#FreeSoul #HumanRights #AnimalRights \u000a#Fenerbahce #DonKafa #TAF #TurkishArabEconomicForum
p52
sVfriends_count
p53
I195
sVlocation
p54
V
p55
sVprofile_link_color
p56
V0084B4
p57
sVprofile_image_url
p58
Vhttp://pbs.twimg.com/profile_images/602894202532405249/K-VzfAZt_normal.jpg
p59
sVfollowing
p60
NsVgeo_enabled
p61
I01
sVprofile_banner_url
p62
Vhttps://pbs.twimg.com/profile_banners/353011551/1424043443
p63
sVprofile_background_image_url
p64
Vhttp://pbs.twimg.com/profile_background_images/567111005155516416/a1x-Yktq.jpeg
p65
sVname
p66
VMurat Efe
p67
sVlang
p68
Ven
p69
sVprofile_background_tile
p70
I01
sVfavourites_count
p71
I661
sVscreen_name
p72
VMurat_Efe_IE
p73
sVnotifications
p74
NsVurl
p75
NsVcreated_at
p76
VThu Aug 11 12:22:17 +0000 2011
p77
sVcontributors_enabled
p78
I00
sVtime_zone
p79
VIstanbul
p80
sVprotected
p81
I00
sVdefault_profile
p82
I00
sVis_translator
p83
I00
ssS'contributors_enabled'
p84
I00
sS'profile_text_color'
p85
g38
sS'followers_count'
p86
I647
sS'profile_sidebar_border_color'
p87
g41
sS'location'
p88
g55
sS'default_profile_image'
p89
I00
sS'id_str'
p90
g43
sS'utc_offset'
p91
I10800
sS'statuses_count'
p92
I4303
sS'description'
p93
V#FreeSoul #HumanRights #AnimalRights \u000a#Fenerbahce #DonKafa #TAF #TurkishArabEconomicForum
p94
sS'friends_count'
p95
I195
sS'profile_link_color'
p96
g57
sS'profile_image_url'
p97
g59
sS'notifications'
p98
NsS'geo_enabled'
p99
I01
sS'profile_background_color'
p100
g45
sS'profile_banner_url'
p101
g63
sS'profile_background_image_url'
p102
g65
sS'name'
p103
g67
sS'lang'
p104
g69
sS'following'
p105
I00
sS'profile_background_tile'
p106
I01
sS'favourites_count'
p107
I661
sS'screen_name'
p108
g73
sS'url'
p109
NsS'created_at'
p110
cdatetime
datetime
p111
(S'\x07\xdb\x08\x0b\x0c\x16\x11\x00\x00\x00'
p112
tp113
Rp114
sS'profile_background_image_url_https'
p115
g48
sS'time_zone'
p116
g80
sS'protected'
p117
I00
sS'default_profile'
p118
I00
sS'is_translator'
p119
I00
sS'listed_count'
p120
I4
sbsS'filter_level'
p121
Vlow
p122
sS'geo'
p123
(dp124
Vtype
p125
VPoint
p126
sVcoordinates
p127
(lp128
F47.373115
aF8.568889
assg24
I620929309704855552
sS'favorite_count'
p129
I0
sS'source'
p130
VInstagram
p131
sg104
Ven
p132
sS'author'
p133
g18
sS'in_reply_to_user_id_str'
p134
Nsg28
(dp135
Vcontributors
p136
NsVtruncated
p137
I00
sVtext
p138
g10
sVin_reply_to_status_id
p139
Nsg33
I620929309704855552
sVfavorite_count
p140
I0
sVsource
p141
V<a href="http://instagram.com" rel="nofollow">Instagram</a>
p142
sVretweeted
p143
I00
sg127
(dp144
g125
VPoint
p145
sg127
(lp146
F8.568889
aF47.373115
assVtimestamp_ms
p147
V1436876058399
p148
sVentities
p149
(dp150
Vuser_mentions
p151
(lp152
sVsymbols
p153
(lp154
sVtrends
p155
(lp156
sVhashtags
p157
(lp158
(dp159
Vindices
p160
(lp161
I41
aI48
asg138
VDolder
p162
sa(dp163
g160
(lp164
I49
aI55
asg138
VHotel
p165
sa(dp166
g160
(lp167
I56
aI63
asg138
VZurich
p168
sa(dp169
g160
(lp170
I65
aI73
asg138
Vprivate
p171
sa(dp172
g160
(lp173
I86
aI93
asg138
Vladies
p174
sasVurls
p175
(lp176
(dp177
g75
Vhttps://t.co/bJLClyldoY
p178
sg160
(lp179
I99
aI122
asVexpanded_url
p180
Vhttps://instagram.com/p/5Hb0pjHOUr/
p181
sVdisplay_url
p182
Vinstagram.com/p/5Hb0pjHOUr/
p183
sassVin_reply_to_screen_name
p184
Nsg42
V620929309704855552
p185
sVretweet_count
p186
I0
sVin_reply_to_user_id
p187
NsVfavorited
p188
I00
sVuser
p189
g29
sVgeo
p190
g124
sVin_reply_to_user_id_str
p191
NsVpossibly_sensitive
p192
I00
sg68
g132
sg76
VTue Jul 14 12:14:18 +0000 2015
p193
sVfilter_level
p194
g122
sVin_reply_to_status_id_str
p195
NsVplace
p196
(dp197
Vfull_name
p198
VZurich, Switzerland
p199
sg75
Vhttps://api.twitter.com/1.1/geo/id/3acb748d0f1e9265.json
p200
sVcountry
p201
VSchweiz
p202
sVplace_type
p203
Vcity
p204
sVbounding_box
p205
(dp206
g125
VPolygon
p207
sg127
(lp208
(lp209
(lp210
F8.448081
aF47.320183
aa(lp211
F8.448081
aF47.434721
aa(lp212
F8.625442
aF47.434721
aa(lp213
F8.625442
aF47.320183
aaassVcountry_code
p214
VCH
p215
sVattributes
p216
(dp217
sg33
V3acb748d0f1e9265
p218
sg66
VZurich
p219
sssS'coordinates'
p220
g144
sS'timestamp_ms'
p221
g148
sS'entities'
p222
g150
sS'in_reply_to_status_id_str'
p223
NsS'in_reply_to_screen_name'
p224
Nsg90
g185
sS'retweeted'
p225
I00
sS'place'
p226
g0
(ctweepy.models
Place
p227
g2
Ntp228
Rp229
(dp230
S'full_name'
p231
g199
sg109
g200
sS'country'
p232
g202
sS'place_type'
p233
g204
sS'bounding_box'
p234
g0
(ctweepy.models
BoundingBox
p235
g2
Ntp236
Rp237
(dp238
S'type'
p239
g207
sg220
g208
sbsS'country_code'
p240
g215
sS'attributes'
p241
g217
sg24
g218
sg103
g219
sbsS'retweet_count'
p242
I0
sg110
g111
(S'\x07\xdf\x07\x0e\x0c\x0e\x12\x00\x00\x00'
p243
tp244
Rp245
sS'in_reply_to_user_id'
p246
Nsb.