ccopy_reg
_reconstructor
p0
(ctweepy.models
Status
p1
c__builtin__
object
p2
Ntp3
Rp4
(dp5
S'favorited'
p6
I00
sS'contributors'
p7
NsS'truncated'
p8
I00
sS'text'
p9
Vcute shop-owner! #carhartt #zurich @ Carhartt https://t.co/0cHlYxK7gM
p10
sS'source_url'
p11
Vhttp://instagram.com
p12
sS'possibly_sensitive'
p13
I00
sS'in_reply_to_status_id'
p14
NsS'user'
p15
g0
(ctweepy.models
User
p16
g2
Ntp17
Rp18
(dp19
S'follow_request_sent'
p20
NsS'profile_use_background_image'
p21
I01
sS'profile_sidebar_fill_color'
p22
VDDEEF6
p23
sS'id'
p24
I144936208
sS'verified'
p25
I00
sS'profile_image_url_https'
p26
Vhttps://pbs.twimg.com/profile_images/3378272568/a1327fc327010b160057fc35d53f8e9d_normal.jpeg
p27
sS'_json'
p28
(dp29
Vfollow_request_sent
p30
NsVprofile_use_background_image
p31
I01
sVdefault_profile_image
p32
I00
sVid
p33
I144936208
sVverified
p34
I00
sVprofile_image_url_https
p35
g27
sVprofile_sidebar_fill_color
p36
g23
sVprofile_text_color
p37
V333333
p38
sVfollowers_count
p39
I553
sVprofile_sidebar_border_color
p40
VFFFFFF
p41
sVid_str
p42
V144936208
p43
sVprofile_background_color
p44
VC0DEED
p45
sVlisted_count
p46
I24
sVprofile_background_image_url_https
p47
Vhttps://pbs.twimg.com/profile_background_images/596234690060619776/DVsPP8ho.jpg
p48
sVutc_offset
p49
I7200
sVstatuses_count
p50
I4152
sVdescription
p51
NsVfriends_count
p52
I590
sVlocation
p53
Vzurich
p54
sVprofile_link_color
p55
VABB8C2
p56
sVprofile_image_url
p57
Vhttp://pbs.twimg.com/profile_images/3378272568/a1327fc327010b160057fc35d53f8e9d_normal.jpeg
p58
sVfollowing
p59
NsVgeo_enabled
p60
I01
sVprofile_banner_url
p61
Vhttps://pbs.twimg.com/profile_banners/144936208/1413457143
p62
sVprofile_background_image_url
p63
Vhttp://pbs.twimg.com/profile_background_images/596234690060619776/DVsPP8ho.jpg
p64
sVname
p65
Vfork and flower
p66
sVlang
p67
Ven
p68
sVprofile_background_tile
p69
I00
sVfavourites_count
p70
I91
sVscreen_name
p71
Vforkandflower
p72
sVnotifications
p73
NsVurl
p74
Vhttp://www.forkandflower.com/
p75
sVcreated_at
p76
VMon May 17 18:10:18 +0000 2010
p77
sVcontributors_enabled
p78
I00
sVtime_zone
p79
VBern
p80
sVprotected
p81
I00
sVdefault_profile
p82
I00
sVis_translator
p83
I00
ssS'contributors_enabled'
p84
I00
sS'profile_text_color'
p85
g38
sS'followers_count'
p86
I553
sS'profile_sidebar_border_color'
p87
g41
sS'location'
p88
g54
sS'default_profile_image'
p89
I00
sS'id_str'
p90
g43
sS'utc_offset'
p91
I7200
sS'statuses_count'
p92
I4152
sS'description'
p93
NsS'friends_count'
p94
I590
sS'profile_link_color'
p95
g56
sS'profile_image_url'
p96
g58
sS'notifications'
p97
NsS'geo_enabled'
p98
I01
sS'profile_background_color'
p99
g45
sS'profile_banner_url'
p100
g62
sS'profile_background_image_url'
p101
g64
sS'name'
p102
g66
sS'lang'
p103
g68
sS'following'
p104
I00
sS'profile_background_tile'
p105
I00
sS'favourites_count'
p106
I91
sS'screen_name'
p107
g72
sS'url'
p108
g75
sS'created_at'
p109
cdatetime
datetime
p110
(S'\x07\xda\x05\x11\x12\n\x12\x00\x00\x00'
p111
tp112
Rp113
sS'profile_background_image_url_https'
p114
g48
sS'time_zone'
p115
g80
sS'protected'
p116
I00
sS'default_profile'
p117
I00
sS'is_translator'
p118
I00
sS'listed_count'
p119
I24
sbsS'filter_level'
p120
Vlow
p121
sS'geo'
p122
(dp123
Vtype
p124
VPoint
p125
sVcoordinates
p126
(lp127
F47.374061
aF8.543738
assg24
I619785434693038080
sS'favorite_count'
p128
I0
sS'source'
p129
VInstagram
p130
sg103
Ven
p131
sS'author'
p132
g18
sS'in_reply_to_user_id_str'
p133
Nsg28
(dp134
Vcontributors
p135
NsVtruncated
p136
I00
sVtext
p137
g10
sVin_reply_to_status_id
p138
Nsg33
I619785434693038080
sVfavorite_count
p139
I0
sVsource
p140
V<a href="http://instagram.com" rel="nofollow">Instagram</a>
p141
sVretweeted
p142
I00
sg126
(dp143
g124
VPoint
p144
sg126
(lp145
F8.543738
aF47.374061
assVtimestamp_ms
p146
V1436603337344
p147
sVentities
p148
(dp149
Vuser_mentions
p150
(lp151
sVsymbols
p152
(lp153
sVtrends
p154
(lp155
sVhashtags
p156
(lp157
(dp158
Vindices
p159
(lp160
I17
aI26
asg137
Vcarhartt
p161
sa(dp162
g159
(lp163
I27
aI34
asg137
Vzurich
p164
sasVurls
p165
(lp166
(dp167
g74
Vhttps://t.co/0cHlYxK7gM
p168
sg159
(lp169
I46
aI69
asVexpanded_url
p170
Vhttps://instagram.com/p/4_TphpIJ8X/
p171
sVdisplay_url
p172
Vinstagram.com/p/4_TphpIJ8X/
p173
sassVin_reply_to_screen_name
p174
Nsg42
V619785434693038080
p175
sVretweet_count
p176
I0
sVin_reply_to_user_id
p177
NsVfavorited
p178
I00
sVuser
p179
g29
sVgeo
p180
g123
sVin_reply_to_user_id_str
p181
NsVpossibly_sensitive
p182
I00
sg67
g131
sg76
VSat Jul 11 08:28:57 +0000 2015
p183
sVfilter_level
p184
g121
sVin_reply_to_status_id_str
p185
NsVplace
p186
(dp187
Vfull_name
p188
VZurich, Switzerland
p189
sg74
Vhttps://api.twitter.com/1.1/geo/id/3acb748d0f1e9265.json
p190
sVcountry
p191
VSchweiz
p192
sVplace_type
p193
Vcity
p194
sVbounding_box
p195
(dp196
g124
VPolygon
p197
sg126
(lp198
(lp199
(lp200
F8.448081
aF47.320183
aa(lp201
F8.448081
aF47.434721
aa(lp202
F8.625442
aF47.434721
aa(lp203
F8.625442
aF47.320183
aaassVcountry_code
p204
VCH
p205
sVattributes
p206
(dp207
sg33
V3acb748d0f1e9265
p208
sg65
VZurich
p209
sssS'coordinates'
p210
g143
sS'timestamp_ms'
p211
g147
sS'entities'
p212
g149
sS'in_reply_to_status_id_str'
p213
NsS'in_reply_to_screen_name'
p214
Nsg90
g175
sS'retweeted'
p215
I00
sS'place'
p216
g0
(ctweepy.models
Place
p217
g2
Ntp218
Rp219
(dp220
S'full_name'
p221
g189
sg108
g190
sS'country'
p222
g192
sS'place_type'
p223
g194
sS'bounding_box'
p224
g0
(ctweepy.models
BoundingBox
p225
g2
Ntp226
Rp227
(dp228
S'type'
p229
g197
sg210
g198
sbsS'country_code'
p230
g205
sS'attributes'
p231
g207
sg24
g208
sg102
g209
sbsS'retweet_count'
p232
I0
sg109
g110
(S'\x07\xdf\x07\x0b\x08\x1c9\x00\x00\x00'
p233
tp234
Rp235
sS'in_reply_to_user_id'
p236
Nsb.