ccopy_reg
_reconstructor
p0
(ctweepy.models
Status
p1
c__builtin__
object
p2
Ntp3
Rp4
(dp5
S'favorited'
p6
I00
sS'contributors'
p7
NsS'truncated'
p8
I00
sS'text'
p9
V@trekkie1000 @TheKelliGiddish @nbcsvu @charitybuzz @VineyardArts You never know :)! Maybe you win!\U0001f618\U0001f618\U0001f60d
p10
sS'source_url'
p11
Vhttp://twitter.com/download/iphone
p12
sS'possibly_sensitive'
p13
I00
sS'in_reply_to_status_id'
p14
I618456916465860608
sS'user'
p15
g0
(ctweepy.models
User
p16
g2
Ntp17
Rp18
(dp19
S'follow_request_sent'
p20
NsS'profile_use_background_image'
p21
I01
sS'profile_sidebar_fill_color'
p22
V7AC4EE
p23
sS'id'
p24
I251341054
sS'verified'
p25
I00
sS'profile_image_url_https'
p26
Vhttps://pbs.twimg.com/profile_images/575425192190734336/6MTJ_Di5_normal.jpeg
p27
sS'_json'
p28
(dp29
Vfollow_request_sent
p30
NsVprofile_use_background_image
p31
I01
sVdefault_profile_image
p32
I00
sVid
p33
I251341054
sVverified
p34
I00
sVprofile_image_url_https
p35
g27
sVprofile_sidebar_fill_color
p36
g23
sVprofile_text_color
p37
V3D1957
p38
sVfollowers_count
p39
I923
sVprofile_sidebar_border_color
p40
V65B0DA
p41
sVid_str
p42
V251341054
p43
sVprofile_background_color
p44
V642D8B
p45
sVlisted_count
p46
I16
sVprofile_background_image_url_https
p47
Vhttps://pbs.twimg.com/profile_background_images/349011794/mariska-hargitay-set-02.jpg
p48
sVutc_offset
p49
I-14400
sVstatuses_count
p50
I14637
sVdescription
p51
VA survivor of Sexual Assault and Rape. 26 yrs of silence. @Mariska and @TheKelliGiddish inspired. NOMORE. Also a huge fan of @Diane_Keaton.
p52
sVfriends_count
p53
I1558
sVlocation
p54
V
p55
sVprofile_link_color
p56
VFF0000
p57
sVprofile_image_url
p58
Vhttp://pbs.twimg.com/profile_images/575425192190734336/6MTJ_Di5_normal.jpeg
p59
sVfollowing
p60
NsVgeo_enabled
p61
I01
sVprofile_banner_url
p62
Vhttps://pbs.twimg.com/profile_banners/251341054/1418833963
p63
sVprofile_background_image_url
p64
Vhttp://pbs.twimg.com/profile_background_images/349011794/mariska-hargitay-set-02.jpg
p65
sVname
p66
VCorinne
p67
sVlang
p68
Ven
p69
sVprofile_background_tile
p70
I01
sVfavourites_count
p71
I2832
sVscreen_name
p72
VCorinne0721
p73
sVnotifications
p74
NsVurl
p75
NsVcreated_at
p76
VSat Feb 12 23:16:49 +0000 2011
p77
sVcontributors_enabled
p78
I00
sVtime_zone
p79
VEastern Time (US & Canada)
p80
sVprotected
p81
I00
sVdefault_profile
p82
I00
sVis_translator
p83
I00
ssS'contributors_enabled'
p84
I00
sS'profile_text_color'
p85
g38
sS'followers_count'
p86
I923
sS'profile_sidebar_border_color'
p87
g41
sS'location'
p88
g55
sS'default_profile_image'
p89
I00
sS'id_str'
p90
g43
sS'utc_offset'
p91
I-14400
sS'statuses_count'
p92
I14637
sS'description'
p93
g52
sS'friends_count'
p94
I1558
sS'profile_link_color'
p95
g57
sS'profile_image_url'
p96
g59
sS'notifications'
p97
NsS'geo_enabled'
p98
I01
sS'profile_background_color'
p99
g45
sS'profile_banner_url'
p100
g63
sS'profile_background_image_url'
p101
g65
sS'name'
p102
g67
sS'lang'
p103
g69
sS'following'
p104
I00
sS'profile_background_tile'
p105
I01
sS'favourites_count'
p106
I2832
sS'screen_name'
p107
g73
sS'url'
p108
NsS'created_at'
p109
cdatetime
datetime
p110
(S'\x07\xdb\x02\x0c\x17\x101\x00\x00\x00'
p111
tp112
Rp113
sS'profile_background_image_url_https'
p114
g48
sS'time_zone'
p115
g80
sS'protected'
p116
I00
sS'default_profile'
p117
I00
sS'is_translator'
p118
I00
sS'listed_count'
p119
I16
sbsS'filter_level'
p120
Vlow
p121
sS'geo'
p122
Nsg24
I618457112017018880
sS'favorite_count'
p123
I0
sS'source'
p124
VTwitter for iPhone
p125
sg103
Ven
p126
sS'author'
p127
g18
sS'in_reply_to_user_id_str'
p128
V2478973145
p129
sg28
(dp130
Vcontributors
p131
NsVtruncated
p132
I00
sVtext
p133
g10
sVin_reply_to_status_id
p134
I618456916465860608
sg33
I618457112017018880
sVfavorite_count
p135
I0
sVsource
p136
V<a href="http://twitter.com/download/iphone" rel="nofollow">Twitter for iPhone</a>
p137
sVretweeted
p138
I00
sVcoordinates
p139
NsVtimestamp_ms
p140
V1436286640539
p141
sVentities
p142
(dp143
Vuser_mentions
p144
(lp145
(dp146
g33
I2478973145
sVindices
p147
(lp148
I0
aI12
asg42
V2478973145
p149
sg72
Vtrekkie1000
p150
sg66
VKate
p151
sa(dp152
g33
I325966046
sg147
(lp153
I13
aI29
asg42
V325966046
p154
sg72
VTheKelliGiddish
p155
sg66
VKelli Giddish
p156
sa(dp157
g33
I28211427
sg147
(lp158
I30
aI37
asg42
V28211427
p159
sg72
Vnbcsvu
p160
sg66
VLaw and Order: SVU
p161
sa(dp162
g33
I17625522
sg147
(lp163
I38
aI50
asg42
V17625522
p164
sg72
Vcharitybuzz
p165
sg66
VCharitybuzz
p166
sa(dp167
g33
I23771730
sg147
(lp168
I51
aI64
asg42
V23771730
p169
sg72
VVineyardArts
p170
sg66
VVineyardArtsProject
p171
sasVsymbols
p172
(lp173
sVtrends
p174
(lp175
sVhashtags
p176
(lp177
sVurls
p178
(lp179
ssVin_reply_to_screen_name
p180
Vtrekkie1000
p181
sg42
V618457112017018880
p182
sVretweet_count
p183
I0
sVin_reply_to_user_id
p184
I2478973145
sVfavorited
p185
I00
sVuser
p186
g29
sVgeo
p187
NsVin_reply_to_user_id_str
p188
g129
sVpossibly_sensitive
p189
I00
sg68
g126
sg76
VTue Jul 07 16:30:40 +0000 2015
p190
sVfilter_level
p191
g121
sVin_reply_to_status_id_str
p192
V618456916465860608
p193
sVplace
p194
(dp195
Vfull_name
p196
VZurich, Switzerland
p197
sg75
Vhttps://api.twitter.com/1.1/geo/id/3acb748d0f1e9265.json
p198
sVcountry
p199
VSchweiz
p200
sVplace_type
p201
Vcity
p202
sVbounding_box
p203
(dp204
Vtype
p205
VPolygon
p206
sg139
(lp207
(lp208
(lp209
F8.448081
aF47.320183
aa(lp210
F8.448081
aF47.434721
aa(lp211
F8.625442
aF47.434721
aa(lp212
F8.625442
aF47.320183
aaassVcountry_code
p213
VCH
p214
sVattributes
p215
(dp216
sg33
V3acb748d0f1e9265
p217
sg66
VZurich
p218
sssS'coordinates'
p219
NsS'timestamp_ms'
p220
g141
sS'entities'
p221
g143
sS'in_reply_to_status_id_str'
p222
g193
sS'in_reply_to_screen_name'
p223
g181
sg90
g182
sS'retweeted'
p224
I00
sS'place'
p225
g0
(ctweepy.models
Place
p226
g2
Ntp227
Rp228
(dp229
S'full_name'
p230
g197
sg108
g198
sS'country'
p231
g200
sS'place_type'
p232
g202
sS'bounding_box'
p233
g0
(ctweepy.models
BoundingBox
p234
g2
Ntp235
Rp236
(dp237
S'type'
p238
g206
sg219
g207
sbsS'country_code'
p239
g214
sS'attributes'
p240
g216
sg24
g217
sg102
g218
sbsS'retweet_count'
p241
I0
sg109
g110
(S'\x07\xdf\x07\x07\x10\x1e(\x00\x00\x00'
p242
tp243
Rp244
sS'in_reply_to_user_id'
p245
I2478973145
sb.