ccopy_reg
_reconstructor
p0
(ctweepy.models
Status
p1
c__builtin__
object
p2
Ntp3
Rp4
(dp5
S'favorited'
p6
I00
sS'contributors'
p7
NsS'truncated'
p8
I00
sS'text'
p9
V@KenRoth\u000a\u000ahttps://t.co/437X1WJWij
p10
sS'source_url'
p11
Vhttp://twitter.com
p12
sS'possibly_sensitive'
p13
I00
sS'in_reply_to_status_id'
p14
I618550746699722753
sS'user'
p15
g0
(ctweepy.models
User
p16
g2
Ntp17
Rp18
(dp19
S'follow_request_sent'
p20
NsS'profile_use_background_image'
p21
I01
sS'profile_sidebar_fill_color'
p22
VDDEEF6
p23
sS'id'
p24
I2661333835
sS'verified'
p25
I00
sS'profile_image_url_https'
p26
Vhttps://pbs.twimg.com/profile_images/618820259982630912/AwP3crJk_normal.jpg
p27
sS'_json'
p28
(dp29
Vfollow_request_sent
p30
NsVprofile_use_background_image
p31
I01
sVdefault_profile_image
p32
I00
sVid
p33
I2661333835
sVverified
p34
I00
sVprofile_image_url_https
p35
g27
sVprofile_sidebar_fill_color
p36
g23
sVprofile_text_color
p37
V333333
p38
sVfollowers_count
p39
I1
sVprofile_sidebar_border_color
p40
VC0DEED
p41
sVid_str
p42
V2661333835
p43
sVprofile_background_color
p44
VC0DEED
p45
sVlisted_count
p46
I0
sVprofile_background_image_url_https
p47
Vhttps://abs.twimg.com/images/themes/theme1/bg.png
p48
sVutc_offset
p49
NsVstatuses_count
p50
I75
sVdescription
p51
NsVfriends_count
p52
I10
sVlocation
p53
V
p54
sVprofile_link_color
p55
V0084B4
p56
sVprofile_image_url
p57
Vhttp://pbs.twimg.com/profile_images/618820259982630912/AwP3crJk_normal.jpg
p58
sVfollowing
p59
NsVgeo_enabled
p60
I01
sVprofile_banner_url
p61
Vhttps://pbs.twimg.com/profile_banners/2661333835/1436373197
p62
sVprofile_background_image_url
p63
Vhttp://abs.twimg.com/images/themes/theme1/bg.png
p64
sVname
p65
VHosni Guermassi
p66
sVlang
p67
Vfr
p68
sVprofile_background_tile
p69
I00
sVfavourites_count
p70
I0
sVscreen_name
p71
Vzohramoud
p72
sVnotifications
p73
NsVurl
p74
NsVcreated_at
p75
VSun Jul 20 02:10:18 +0000 2014
p76
sVcontributors_enabled
p77
I00
sVtime_zone
p78
NsVprotected
p79
I00
sVdefault_profile
p80
I01
sVis_translator
p81
I00
ssS'contributors_enabled'
p82
I00
sS'profile_text_color'
p83
g38
sS'followers_count'
p84
I1
sS'profile_sidebar_border_color'
p85
g41
sS'location'
p86
g54
sS'default_profile_image'
p87
I00
sS'id_str'
p88
g43
sS'utc_offset'
p89
NsS'statuses_count'
p90
I75
sS'description'
p91
NsS'friends_count'
p92
I10
sS'profile_link_color'
p93
g56
sS'profile_image_url'
p94
g58
sS'notifications'
p95
NsS'geo_enabled'
p96
I01
sS'profile_background_color'
p97
g45
sS'profile_banner_url'
p98
g62
sS'profile_background_image_url'
p99
g64
sS'name'
p100
g66
sS'lang'
p101
g68
sS'following'
p102
I00
sS'profile_background_tile'
p103
I00
sS'favourites_count'
p104
I0
sS'screen_name'
p105
g72
sS'url'
p106
NsS'created_at'
p107
cdatetime
datetime
p108
(S'\x07\xde\x07\x14\x02\n\x12\x00\x00\x00'
p109
tp110
Rp111
sS'profile_background_image_url_https'
p112
g48
sS'time_zone'
p113
NsS'protected'
p114
I00
sS'default_profile'
p115
I01
sS'is_translator'
p116
I00
sS'listed_count'
p117
I0
sbsS'filter_level'
p118
Vlow
p119
sS'geo'
p120
Nsg24
I618873671835381760
sS'favorite_count'
p121
I0
sS'source'
p122
VTwitter Web Client
p123
sg101
Vund
p124
sS'author'
p125
g18
sS'in_reply_to_user_id_str'
p126
V17839398
p127
sg28
(dp128
Vcontributors
p129
NsVtruncated
p130
I00
sVtext
p131
V@KenRoth\u000a\u000ahttps://t.co/437X1WJWij
p132
sVin_reply_to_status_id
p133
I618550746699722753
sg33
I618873671835381760
sVfavorite_count
p134
I0
sVsource
p135
V<a href="http://twitter.com" rel="nofollow">Twitter Web Client</a>
p136
sVretweeted
p137
I00
sVcoordinates
p138
NsVtimestamp_ms
p139
V1436385956139
p140
sVentities
p141
(dp142
Vuser_mentions
p143
(lp144
(dp145
g33
I17839398
sVindices
p146
(lp147
I0
aI8
asg42
V17839398
p148
sg71
VKenRoth
p149
sg65
VKenneth Roth
p150
sasVsymbols
p151
(lp152
sVtrends
p153
(lp154
sVhashtags
p155
(lp156
sVurls
p157
(lp158
(dp159
g74
Vhttps://t.co/437X1WJWij
p160
sg146
(lp161
I10
aI33
asVexpanded_url
p162
Vhttps://twitter.com/?lang=fr
p163
sVdisplay_url
p164
Vtwitter.com/?lang=fr
p165
sassVin_reply_to_screen_name
p166
VKenRoth
p167
sg42
V618873671835381760
p168
sVretweet_count
p169
I0
sVin_reply_to_user_id
p170
I17839398
sVfavorited
p171
I00
sVuser
p172
g29
sVgeo
p173
NsVin_reply_to_user_id_str
p174
g127
sVpossibly_sensitive
p175
I00
sg67
g124
sg75
VWed Jul 08 20:05:56 +0000 2015
p176
sVfilter_level
p177
g119
sVin_reply_to_status_id_str
p178
V618550746699722753
p179
sVplace
p180
(dp181
Vfull_name
p182
VArgovie, Suisse
p183
sg74
Vhttps://api.twitter.com/1.1/geo/id/64c89c3f0e8b8b2e.json
p184
sVcountry
p185
VSchweiz
p186
sVplace_type
p187
Vadmin
p188
sVbounding_box
p189
(dp190
Vtype
p191
VPolygon
p192
sg138
(lp193
(lp194
(lp195
F7.713449
aF47.137443
aa(lp196
F7.713449
aF47.621039
aa(lp197
F8.455222
aF47.621039
aa(lp198
F8.455222
aF47.137443
aaassVcountry_code
p199
VCH
p200
sVattributes
p201
(dp202
sg33
V64c89c3f0e8b8b2e
p203
sg65
VArgovie
p204
sssS'coordinates'
p205
NsS'timestamp_ms'
p206
g140
sS'entities'
p207
g142
sS'in_reply_to_status_id_str'
p208
g179
sS'in_reply_to_screen_name'
p209
g167
sg88
g168
sS'retweeted'
p210
I00
sS'place'
p211
g0
(ctweepy.models
Place
p212
g2
Ntp213
Rp214
(dp215
S'full_name'
p216
g183
sg106
g184
sS'country'
p217
g186
sS'place_type'
p218
g188
sS'bounding_box'
p219
g0
(ctweepy.models
BoundingBox
p220
g2
Ntp221
Rp222
(dp223
S'type'
p224
g192
sg205
g193
sbsS'country_code'
p225
g200
sS'attributes'
p226
g202
sg24
g203
sg100
g204
sbsS'retweet_count'
p227
I0
sg107
g108
(S'\x07\xdf\x07\x08\x14\x058\x00\x00\x00'
p228
tp229
Rp230
sS'in_reply_to_user_id'
p231
I17839398
sb.