ccopy_reg
_reconstructor
p0
(ctweepy.models
Status
p1
c__builtin__
object
p2
Ntp3
Rp4
(dp5
S'contributors'
p6
NsS'truncated'
p7
I00
sS'text'
p8
V@SchranerStefan  https://t.co/M0BapPr6Yf
p9
sS'in_reply_to_status_id'
p10
NsS'id'
p11
I619917431235051520
sS'favorite_count'
p12
I0
sS'entities'
p13
(dp14
Vuser_mentions
p15
(lp16
(dp17
Vid
p18
I3086667831
sVindices
p19
(lp20
I0
aI15
asVid_str
p21
V3086667831
p22
sVscreen_name
p23
VSchranerStefan
p24
sVname
p25
Vstevo
p26
sasVsymbols
p27
(lp28
sVtrends
p29
(lp30
sVhashtags
p31
(lp32
sVurls
p33
(lp34
(dp35
Vurl
p36
Vhttps://t.co/M0BapPr6Yf
p37
sg19
(lp38
I17
aI40
asVexpanded_url
p39
Vhttps://twitter.com/tedtalks/status/619902686482309120
p40
sVdisplay_url
p41
Vtwitter.com/tedtalks/statu\u2026
p42
sassS'quoted_status_id'
p43
I619902686482309120
sS'_json'
p44
(dp45
Vcontributors
p46
NsVtruncated
p47
I00
sVtext
p48
g9
sVin_reply_to_status_id
p49
Nsg18
I619917431235051520
sVfavorite_count
p50
I0
sVsource
p51
V<a href="http://twitter.com/download/iphone" rel="nofollow">Twitter for iPhone</a>
p52
sVquoted_status_id
p53
I619902686482309120
sVretweeted
p54
I00
sVcoordinates
p55
NsVtimestamp_ms
p56
V1436634807772
p57
sVquoted_status
p58
(dp59
g46
Nsg47
I00
sg48
V9 must-see #TEDTalks about climate change: http://t.co/2kFAYJCs84
p60
sg49
Nsg18
I619902686482309120
sg50
I0
sg51
V<a href="http://www.socialflow.com" rel="nofollow">SocialFlow</a>
p61
sg54
I00
sg55
NsVentities
p62
(dp63
g15
(lp64
sg27
(lp65
sg29
(lp66
sg31
(lp67
(dp68
g19
(lp69
I11
aI20
asg48
VTEDTalks
p70
sasg33
(lp71
(dp72
g36
Vhttp://t.co/2kFAYJCs84
p73
sg19
(lp74
I43
aI65
asg39
Vhttp://t.ted.com/oXA55IC
p75
sg41
Vt.ted.com/oXA55IC
p76
sassVin_reply_to_screen_name
p77
Nsg21
V619902686482309120
p78
sVretweet_count
p79
I0
sVin_reply_to_user_id
p80
NsVfavorited
p81
I00
sVuser
p82
(dp83
Vfollow_request_sent
p84
NsVprofile_use_background_image
p85
I01
sVdefault_profile_image
p86
I00
sg18
I15492359
sVverified
p87
I01
sVprofile_image_url_https
p88
Vhttps://pbs.twimg.com/profile_images/615531317489303552/pWXT4Dol_normal.png
p89
sVprofile_sidebar_fill_color
p90
VE0E3DE
p91
sVprofile_text_color
p92
V333333
p93
sVfollowers_count
p94
I6155398
sVprofile_sidebar_border_color
p95
VFFFFFF
p96
sg21
V15492359
p97
sVprofile_background_color
p98
V000000
p99
sVlisted_count
p100
I47389
sVprofile_background_image_url_https
p101
Vhttps://pbs.twimg.com/profile_background_images/795046705/a71fe1893e3a1561abba1bff053e9328.gif
p102
sVutc_offset
p103
I-14400
sVstatuses_count
p104
I9210
sVdescription
p105
VThe official feed for http://TED.com. Ideas worth spreading.
p106
sVfriends_count
p107
I389
sVlocation
p108
VNew York, NY
p109
sVprofile_link_color
p110
VFF2B06
p111
sVprofile_image_url
p112
Vhttp://pbs.twimg.com/profile_images/615531317489303552/pWXT4Dol_normal.png
p113
sVfollowing
p114
NsVgeo_enabled
p115
I00
sVprofile_banner_url
p116
Vhttps://pbs.twimg.com/profile_banners/15492359/1426021644
p117
sVprofile_background_image_url
p118
Vhttp://pbs.twimg.com/profile_background_images/795046705/a71fe1893e3a1561abba1bff053e9328.gif
p119
sg25
VTED Talks
p120
sVlang
p121
Ven
p122
sVprofile_background_tile
p123
I00
sVfavourites_count
p124
I1658
sg23
VTEDTalks
p125
sVnotifications
p126
Nsg36
Vhttp://www.ted.com
p127
sVcreated_at
p128
VSat Jul 19 13:22:50 +0000 2008
p129
sVcontributors_enabled
p130
I00
sVtime_zone
p131
VEastern Time (US & Canada)
p132
sVprotected
p133
I00
sVdefault_profile
p134
I00
sVis_translator
p135
I00
ssVgeo
p136
NsVin_reply_to_user_id_str
p137
NsVpossibly_sensitive
p138
I00
sg121
Ven
p139
sg128
VSat Jul 11 16:14:52 +0000 2015
p140
sVfilter_level
p141
Vlow
p142
sVin_reply_to_status_id_str
p143
NsVplace
p144
Nssg62
g14
sg77
VSchranerStefan
p145
sg21
V619917431235051520
p146
sg79
I0
sg80
I3086667831
sg81
I00
sg82
(dp147
g84
Nsg85
I01
sg86
I00
sg18
I1665476731
sg87
I00
sg88
Vhttps://pbs.twimg.com/profile_images/615454586254532608/VrVFesPz_normal.jpg
p148
sg90
VDDEEF6
p149
sg92
V333333
p150
sg94
I5
sg95
VC0DEED
p151
sg21
V1665476731
p152
sg98
VC0DEED
p153
sg100
I0
sg101
Vhttps://abs.twimg.com/images/themes/theme1/bg.png
p154
sg103
Nsg104
I10
sg105
Nsg107
I26
sg108
VZurich, Switzerland
p155
sg110
V0084B4
p156
sg112
Vhttp://pbs.twimg.com/profile_images/615454586254532608/VrVFesPz_normal.jpg
p157
sg114
Nsg115
I01
sg118
Vhttp://abs.twimg.com/images/themes/theme1/bg.png
p158
sg25
VSarah Steiger
p159
sg121
Ven
p160
sg123
I00
sg124
I1
sg23
VSarahASteiger
p161
sg126
Nsg36
Nsg128
VMon Aug 12 16:19:20 +0000 2013
p162
sg130
I00
sg131
Nsg133
I00
sg134
I01
sg135
I00
ssg136
Nsg137
V3086667831
p163
sg138
I00
sg121
Vund
p164
sg128
VSat Jul 11 17:13:27 +0000 2015
p165
sVquoted_status_id_str
p166
V619902686482309120
p167
sg141
Vlow
p168
sg143
Nsg144
(dp169
Vfull_name
p170
VZurich, Switzerland
p171
sg36
Vhttps://api.twitter.com/1.1/geo/id/3acb748d0f1e9265.json
p172
sVcountry
p173
VSchweiz
p174
sVplace_type
p175
Vcity
p176
sVbounding_box
p177
(dp178
Vtype
p179
VPolygon
p180
sg55
(lp181
(lp182
(lp183
F8.448081
aF47.320183
aa(lp184
F8.448081
aF47.434721
aa(lp185
F8.625442
aF47.434721
aa(lp186
F8.625442
aF47.320183
aaassVcountry_code
p187
VCH
p188
sVattributes
p189
(dp190
sg18
V3acb748d0f1e9265
p191
sg25
VZurich
p192
sssS'coordinates'
p193
NsS'timestamp_ms'
p194
g57
sS'quoted_status'
p195
g59
sS'source'
p196
VTwitter for iPhone
p197
sS'in_reply_to_screen_name'
p198
g145
sS'id_str'
p199
g146
sS'retweet_count'
p200
I0
sS'in_reply_to_user_id'
p201
I3086667831
sS'favorited'
p202
I00
sS'source_url'
p203
Vhttp://twitter.com/download/iphone
p204
sS'user'
p205
g0
(ctweepy.models
User
p206
g2
Ntp207
Rp208
(dp209
S'follow_request_sent'
p210
NsS'profile_use_background_image'
p211
I01
sS'profile_sidebar_fill_color'
p212
g149
sg11
I1665476731
sS'verified'
p213
I00
sS'profile_image_url_https'
p214
g148
sg44
g147
sS'contributors_enabled'
p215
I00
sS'profile_text_color'
p216
g150
sS'followers_count'
p217
I5
sS'profile_sidebar_border_color'
p218
g151
sS'location'
p219
g155
sS'default_profile_image'
p220
I00
sg199
g152
sS'utc_offset'
p221
NsS'statuses_count'
p222
I10
sS'description'
p223
NsS'friends_count'
p224
I26
sS'profile_link_color'
p225
g156
sS'profile_image_url'
p226
g157
sS'notifications'
p227
NsS'geo_enabled'
p228
I01
sS'profile_background_color'
p229
g153
sS'profile_background_image_url'
p230
g158
sS'name'
p231
g159
sS'lang'
p232
g160
sS'following'
p233
I00
sS'profile_background_tile'
p234
I00
sS'favourites_count'
p235
I1
sS'screen_name'
p236
g161
sS'url'
p237
NsS'created_at'
p238
cdatetime
datetime
p239
(S'\x07\xdd\x08\x0c\x10\x13\x14\x00\x00\x00'
p240
tp241
Rp242
sS'profile_background_image_url_https'
p243
g154
sS'time_zone'
p244
NsS'protected'
p245
I00
sS'default_profile'
p246
I01
sS'is_translator'
p247
I00
sS'listed_count'
p248
I0
sbsS'geo'
p249
NsS'in_reply_to_user_id_str'
p250
g163
sS'possibly_sensitive'
p251
I00
sg232
g164
sg238
g239
(S'\x07\xdf\x07\x0b\x11\r\x1b\x00\x00\x00'
p252
tp253
Rp254
sS'author'
p255
g208
sS'quoted_status_id_str'
p256
g167
sS'filter_level'
p257
g168
sS'in_reply_to_status_id_str'
p258
NsS'place'
p259
g0
(ctweepy.models
Place
p260
g2
Ntp261
Rp262
(dp263
S'full_name'
p264
g171
sg237
g172
sS'country'
p265
g174
sS'place_type'
p266
g176
sS'bounding_box'
p267
g0
(ctweepy.models
BoundingBox
p268
g2
Ntp269
Rp270
(dp271
S'type'
p272
g180
sg193
g181
sbsS'country_code'
p273
g188
sS'attributes'
p274
g190
sg11
g191
sg231
g192
sbsS'retweeted'
p275
I00
sb.