ccopy_reg
_reconstructor
p0
(ctweepy.models
Status
p1
c__builtin__
object
p2
Ntp3
Rp4
(dp5
S'favorited'
p6
I00
sS'contributors'
p7
NsS'truncated'
p8
I00
sS'text'
p9
V@theburger_kheng @StarCinema @StarCreativesTV @vicegandako @KrisTVofficial @ASAPOFFICIAL @KrisTVofficial KrisTv pa sis...
p10
sS'source_url'
p11
Vhttp://twitter.com
p12
sS'possibly_sensitive'
p13
I00
sS'in_reply_to_status_id'
p14
I618968933199163392
sS'user'
p15
g0
(ctweepy.models
User
p16
g2
Ntp17
Rp18
(dp19
S'follow_request_sent'
p20
NsS'profile_use_background_image'
p21
I01
sS'profile_sidebar_fill_color'
p22
VDDEEF6
p23
sS'id'
p24
I2281237290
sS'verified'
p25
I00
sS'profile_image_url_https'
p26
Vhttps://pbs.twimg.com/profile_images/614808237565706240/_DvNNQHI_normal.jpg
p27
sS'_json'
p28
(dp29
Vfollow_request_sent
p30
NsVprofile_use_background_image
p31
I01
sVdefault_profile_image
p32
I00
sVid
p33
I2281237290
sVverified
p34
I00
sVprofile_image_url_https
p35
g27
sVprofile_sidebar_fill_color
p36
g23
sVprofile_text_color
p37
V333333
p38
sVfollowers_count
p39
I383
sVprofile_sidebar_border_color
p40
V000000
p41
sVid_str
p42
V2281237290
p43
sVprofile_background_color
p44
V338EB8
p45
sVlisted_count
p46
I2
sVprofile_background_image_url_https
p47
Vhttps://pbs.twimg.com/profile_background_images/510940933869690880/funAyrrm.jpeg
p48
sVutc_offset
p49
I7200
sVstatuses_count
p50
I8655
sVdescription
p51
VBe grateful for what you have, while in pursuit of what you want\u2665
p52
sVfriends_count
p53
I362
sVlocation
p54
VSwitzerland
p55
sVprofile_link_color
p56
V8F5236
p57
sVprofile_image_url
p58
Vhttp://pbs.twimg.com/profile_images/614808237565706240/_DvNNQHI_normal.jpg
p59
sVfollowing
p60
NsVgeo_enabled
p61
I01
sVprofile_banner_url
p62
Vhttps://pbs.twimg.com/profile_banners/2281237290/1435353946
p63
sVprofile_background_image_url
p64
Vhttp://pbs.twimg.com/profile_background_images/510940933869690880/funAyrrm.jpeg
p65
sVname
p66
VNica
p67
sVlang
p68
Ven
p69
sVprofile_background_tile
p70
I01
sVfavourites_count
p71
I2949
sVscreen_name
p72
Vkai_paumajBOL
p73
sVnotifications
p74
NsVurl
p75
NsVcreated_at
p76
VTue Jan 07 22:23:10 +0000 2014
p77
sVcontributors_enabled
p78
I00
sVtime_zone
p79
VBern
p80
sVprotected
p81
I00
sVdefault_profile
p82
I00
sVis_translator
p83
I00
ssS'contributors_enabled'
p84
I00
sS'profile_text_color'
p85
g38
sS'followers_count'
p86
I383
sS'profile_sidebar_border_color'
p87
g41
sS'location'
p88
g55
sS'default_profile_image'
p89
I00
sS'id_str'
p90
g43
sS'utc_offset'
p91
I7200
sS'statuses_count'
p92
I8655
sS'description'
p93
g52
sS'friends_count'
p94
I362
sS'profile_link_color'
p95
g57
sS'profile_image_url'
p96
g59
sS'notifications'
p97
NsS'geo_enabled'
p98
I01
sS'profile_background_color'
p99
g45
sS'profile_banner_url'
p100
g63
sS'profile_background_image_url'
p101
g65
sS'name'
p102
g67
sS'lang'
p103
g69
sS'following'
p104
I00
sS'profile_background_tile'
p105
I01
sS'favourites_count'
p106
I2949
sS'screen_name'
p107
g73
sS'url'
p108
NsS'created_at'
p109
cdatetime
datetime
p110
(S'\x07\xde\x01\x07\x16\x17\n\x00\x00\x00'
p111
tp112
Rp113
sS'profile_background_image_url_https'
p114
g48
sS'time_zone'
p115
g80
sS'protected'
p116
I00
sS'default_profile'
p117
I00
sS'is_translator'
p118
I00
sS'listed_count'
p119
I2
sbsS'filter_level'
p120
Vlow
p121
sS'geo'
p122
Nsg24
I618969433189519360
sS'favorite_count'
p123
I0
sS'source'
p124
VTwitter Web Client
p125
sg103
Vsl
p126
sS'author'
p127
g18
sS'in_reply_to_user_id_str'
p128
V2281237290
p129
sg28
(dp130
Vcontributors
p131
NsVtruncated
p132
I00
sVtext
p133
g10
sVin_reply_to_status_id
p134
I618968933199163392
sg33
I618969433189519360
sVfavorite_count
p135
I0
sVsource
p136
V<a href="http://twitter.com" rel="nofollow">Twitter Web Client</a>
p137
sVretweeted
p138
I00
sVcoordinates
p139
NsVtimestamp_ms
p140
V1436408787425
p141
sVentities
p142
(dp143
Vuser_mentions
p144
(lp145
(dp146
g33
I426712059
sVindices
p147
(lp148
I0
aI16
asg42
V426712059
p149
sg72
Vtheburger_kheng
p150
sg66
Vkheng eugenio
p151
sa(dp152
g33
I39956328
sg147
(lp153
I17
aI28
asg42
V39956328
p154
sg72
VStarCinema
p155
sg66
VStar Cinema
p156
sa(dp157
g33
I2387013967
sg147
(lp158
I29
aI45
asg42
V2387013967
p159
sg72
VStarCreativesTV
p160
sg66
VSTAR CREATIVES TV
p161
sa(dp162
g33
I186712788
sg147
(lp163
I46
aI58
asg42
V186712788
p164
sg72
Vvicegandako
p165
sg66
Vjose marie viceral
p166
sa(dp167
g33
I311924325
sg147
(lp168
I59
aI74
asg42
V311924325
p169
sg72
VKrisTVofficial
p170
sg66
VKrisTVofficial
p171
sa(dp172
g33
I146299154
sg147
(lp173
I75
aI88
asg42
V146299154
p174
sg72
VASAPOFFICIAL
p175
sg66
VASAP ABS-CBN
p176
sa(dp177
g33
I311924325
sg147
(lp178
I89
aI104
asg42
V311924325
p179
sg72
VKrisTVofficial
p180
sg66
VKrisTVofficial
p181
sasVsymbols
p182
(lp183
sVtrends
p184
(lp185
sVhashtags
p186
(lp187
sVurls
p188
(lp189
ssVin_reply_to_screen_name
p190
Vkai_paumajBOL
p191
sg42
V618969433189519360
p192
sVretweet_count
p193
I0
sVin_reply_to_user_id
p194
I2281237290
sVfavorited
p195
I00
sVuser
p196
g29
sVgeo
p197
NsVin_reply_to_user_id_str
p198
g129
sVpossibly_sensitive
p199
I00
sg68
g126
sg76
VThu Jul 09 02:26:27 +0000 2015
p200
sVfilter_level
p201
g121
sVin_reply_to_status_id_str
p202
V618968933199163392
p203
sVplace
p204
(dp205
Vfull_name
p206
VZurich, Switzerland
p207
sg75
Vhttps://api.twitter.com/1.1/geo/id/3acb748d0f1e9265.json
p208
sVcountry
p209
VSchweiz
p210
sVplace_type
p211
Vcity
p212
sVbounding_box
p213
(dp214
Vtype
p215
VPolygon
p216
sg139
(lp217
(lp218
(lp219
F8.448081
aF47.320183
aa(lp220
F8.448081
aF47.434721
aa(lp221
F8.625442
aF47.434721
aa(lp222
F8.625442
aF47.320183
aaassVcountry_code
p223
VCH
p224
sVattributes
p225
(dp226
sg33
V3acb748d0f1e9265
p227
sg66
VZurich
p228
sssS'coordinates'
p229
NsS'timestamp_ms'
p230
g141
sS'entities'
p231
g143
sS'in_reply_to_status_id_str'
p232
g203
sS'in_reply_to_screen_name'
p233
g191
sg90
g192
sS'retweeted'
p234
I00
sS'place'
p235
g0
(ctweepy.models
Place
p236
g2
Ntp237
Rp238
(dp239
S'full_name'
p240
g207
sg108
g208
sS'country'
p241
g210
sS'place_type'
p242
g212
sS'bounding_box'
p243
g0
(ctweepy.models
BoundingBox
p244
g2
Ntp245
Rp246
(dp247
S'type'
p248
g216
sg229
g217
sbsS'country_code'
p249
g224
sS'attributes'
p250
g226
sg24
g227
sg102
g228
sbsS'retweet_count'
p251
I0
sg109
g110
(S'\x07\xdf\x07\t\x02\x1a\x1b\x00\x00\x00'
p252
tp253
Rp254
sS'in_reply_to_user_id'
p255
I2281237290
sb.