ccopy_reg
_reconstructor
p0
(ctweepy.models
Status
p1
c__builtin__
object
p2
Ntp3
Rp4
(dp5
S'favorited'
p6
I00
sS'contributors'
p7
NsS'truncated'
p8
I00
sS'text'
p9
VDo you know that in Q1 #Facebook beats #Google at getting you to click on #ads\u000ahttp://t.co/cYzY3pztiO http://t.co/bf7BxKJ9w6
p10
sS'source_url'
p11
Vhttp://twitter.com
p12
sS'possibly_sensitive'
p13
I00
sS'in_reply_to_status_id'
p14
NsS'user'
p15
g0
(ctweepy.models
User
p16
g2
Ntp17
Rp18
(dp19
S'follow_request_sent'
p20
NsS'profile_use_background_image'
p21
I01
sS'profile_sidebar_fill_color'
p22
V171106
p23
sS'id'
p24
I26820374
sS'verified'
p25
I00
sS'profile_image_url_https'
p26
Vhttps://pbs.twimg.com/profile_images/554348526990536704/cOJtM4gv_normal.jpeg
p27
sS'_json'
p28
(dp29
Vfollow_request_sent
p30
NsVprofile_use_background_image
p31
I01
sVdefault_profile_image
p32
I00
sVid
p33
I26820374
sVverified
p34
I00
sVprofile_image_url_https
p35
g27
sVprofile_sidebar_fill_color
p36
g23
sVprofile_text_color
p37
V8A7302
p38
sVfollowers_count
p39
I1197
sVprofile_sidebar_border_color
p40
V000000
p41
sVid_str
p42
V26820374
p43
sVprofile_background_color
p44
V080707
p45
sVlisted_count
p46
I79
sVprofile_background_image_url_https
p47
Vhttps://pbs.twimg.com/profile_background_images/458707244679315456/WA5BXg8a.png
p48
sVutc_offset
p49
I7200
sVstatuses_count
p50
I2987
sVdescription
p51
VManaging Director @Gamned \u000a #programmatic #advertising #marketingautomation #switzerland
p52
sVfriends_count
p53
I82
sVlocation
p54
VGeneva, Switzerland
p55
sVprofile_link_color
p56
VF73505
p57
sVprofile_image_url
p58
Vhttp://pbs.twimg.com/profile_images/554348526990536704/cOJtM4gv_normal.jpeg
p59
sVfollowing
p60
NsVgeo_enabled
p61
I01
sVprofile_banner_url
p62
Vhttps://pbs.twimg.com/profile_banners/26820374/1398198840
p63
sVprofile_background_image_url
p64
Vhttp://pbs.twimg.com/profile_background_images/458707244679315456/WA5BXg8a.png
p65
sVname
p66
VPierre Berendes
p67
sVlang
p68
Ven
p69
sVprofile_background_tile
p70
I01
sVfavourites_count
p71
I124
sVscreen_name
p72
Vberendes
p73
sVnotifications
p74
NsVurl
p75
Vhttp://www.makazi.com
p76
sVcreated_at
p77
VThu Mar 26 19:02:45 +0000 2009
p78
sVcontributors_enabled
p79
I00
sVtime_zone
p80
VParis
p81
sVprotected
p82
I00
sVdefault_profile
p83
I00
sVis_translator
p84
I00
ssS'contributors_enabled'
p85
I00
sS'profile_text_color'
p86
g38
sS'followers_count'
p87
I1197
sS'profile_sidebar_border_color'
p88
g41
sS'location'
p89
g55
sS'default_profile_image'
p90
I00
sS'id_str'
p91
g43
sS'utc_offset'
p92
I7200
sS'statuses_count'
p93
I2987
sS'description'
p94
VManaging Director @Gamned \u000a #programmatic #advertising #marketingautomation #switzerland
p95
sS'friends_count'
p96
I82
sS'profile_link_color'
p97
g57
sS'profile_image_url'
p98
g59
sS'notifications'
p99
NsS'geo_enabled'
p100
I01
sS'profile_background_color'
p101
g45
sS'profile_banner_url'
p102
g63
sS'profile_background_image_url'
p103
g65
sS'name'
p104
g67
sS'lang'
p105
g69
sS'following'
p106
I00
sS'profile_background_tile'
p107
I01
sS'favourites_count'
p108
I124
sS'screen_name'
p109
g73
sS'url'
p110
g76
sS'created_at'
p111
cdatetime
datetime
p112
(S'\x07\xd9\x03\x1a\x13\x02-\x00\x00\x00'
p113
tp114
Rp115
sS'profile_background_image_url_https'
p116
g48
sS'time_zone'
p117
g81
sS'protected'
p118
I00
sS'default_profile'
p119
I00
sS'is_translator'
p120
I00
sS'listed_count'
p121
I79
sbsS'filter_level'
p122
Vlow
p123
sS'geo'
p124
Nsg24
I621277948600000512
sS'favorite_count'
p125
I0
sS'source'
p126
VTwitter Web Client
p127
sg105
Ven
p128
sS'author'
p129
g18
sS'in_reply_to_user_id_str'
p130
Nsg28
(dp131
Vcontributors
p132
NsVtruncated
p133
I00
sVtext
p134
VDo you know that in Q1 #Facebook beats #Google at getting you to click on #ads\u000ahttp://t.co/cYzY3pztiO http://t.co/bf7BxKJ9w6
p135
sVin_reply_to_status_id
p136
Nsg33
I621277948600000512
sVfavorite_count
p137
I0
sVsource
p138
V<a href="http://twitter.com" rel="nofollow">Twitter Web Client</a>
p139
sVretweeted
p140
I00
sVcoordinates
p141
NsVtimestamp_ms
p142
V1436959180389
p143
sVentities
p144
(dp145
Vsymbols
p146
(lp147
sVmedia
p148
(lp149
(dp150
Vexpanded_url
p151
Vhttp://twitter.com/berendes/status/621277948600000512/photo/1
p152
sVdisplay_url
p153
Vpic.twitter.com/bf7BxKJ9w6
p154
sg75
Vhttp://t.co/bf7BxKJ9w6
p155
sVmedia_url_https
p156
Vhttps://pbs.twimg.com/media/CJ84_-yWUAAJRxP.jpg
p157
sg42
V621277945437507584
p158
sVsizes
p159
(dp160
Vlarge
p161
(dp162
Vh
p163
I323
sVresize
p164
Vfit
p165
sVw
p166
I650
ssVsmall
p167
(dp168
g163
I168
sg164
Vfit
p169
sg166
I340
ssVmedium
p170
(dp171
g163
I298
sg164
Vfit
p172
sg166
I600
ssVthumb
p173
(dp174
g163
I150
sg164
Vcrop
p175
sg166
I150
sssVindices
p176
(lp177
I102
aI124
asVtype
p178
Vphoto
p179
sg33
I621277945437507584
sVmedia_url
p180
Vhttp://pbs.twimg.com/media/CJ84_-yWUAAJRxP.jpg
p181
sasVhashtags
p182
(lp183
(dp184
g176
(lp185
I23
aI32
asg134
VFacebook
p186
sa(dp187
g176
(lp188
I39
aI46
asg134
VGoogle
p189
sa(dp190
g176
(lp191
I74
aI78
asg134
Vads
p192
sasVuser_mentions
p193
(lp194
sVtrends
p195
(lp196
sVurls
p197
(lp198
(dp199
g75
Vhttp://t.co/cYzY3pztiO
p200
sg176
(lp201
I79
aI101
asg151
Vhttp://recode.net/2015/07/15/digital-ad-report-google-hitting-plateau-on-search-feeling-heat-from-facebook/
p202
sg153
Vrecode.net/2015/07/15/dig\u2026
p203
sassVin_reply_to_screen_name
p204
Nsg42
V621277948600000512
p205
sVretweet_count
p206
I0
sVin_reply_to_user_id
p207
NsVfavorited
p208
I00
sVuser
p209
g29
sVgeo
p210
NsVin_reply_to_user_id_str
p211
NsVpossibly_sensitive
p212
I00
sg68
g128
sg77
VWed Jul 15 11:19:40 +0000 2015
p213
sVfilter_level
p214
g123
sVin_reply_to_status_id_str
p215
NsVplace
p216
(dp217
Vfull_name
p218
VZurich, Switzerland
p219
sg75
Vhttps://api.twitter.com/1.1/geo/id/3acb748d0f1e9265.json
p220
sVcountry
p221
VSchweiz
p222
sVplace_type
p223
Vcity
p224
sVbounding_box
p225
(dp226
g178
VPolygon
p227
sg141
(lp228
(lp229
(lp230
F8.448081
aF47.320183
aa(lp231
F8.448081
aF47.434721
aa(lp232
F8.625442
aF47.434721
aa(lp233
F8.625442
aF47.320183
aaassVcountry_code
p234
VCH
p235
sVattributes
p236
(dp237
sg33
V3acb748d0f1e9265
p238
sg66
VZurich
p239
ssVextended_entities
p240
(dp241
g148
(lp242
(dp243
g151
Vhttp://twitter.com/berendes/status/621277948600000512/photo/1
p244
sg153
Vpic.twitter.com/bf7BxKJ9w6
p245
sg75
Vhttp://t.co/bf7BxKJ9w6
p246
sg156
Vhttps://pbs.twimg.com/media/CJ84_-yWUAAJRxP.jpg
p247
sg42
V621277945437507584
p248
sg159
(dp249
g161
(dp250
g163
I323
sg164
Vfit
p251
sg166
I650
ssg167
(dp252
g163
I168
sg164
Vfit
p253
sg166
I340
ssg170
(dp254
g163
I298
sg164
Vfit
p255
sg166
I600
ssg173
(dp256
g163
I150
sg164
Vcrop
p257
sg166
I150
sssg176
(lp258
I102
aI124
asg178
Vphoto
p259
sg33
I621277945437507584
sg180
Vhttp://pbs.twimg.com/media/CJ84_-yWUAAJRxP.jpg
p260
sasssS'coordinates'
p261
NsS'timestamp_ms'
p262
g143
sS'entities'
p263
g145
sS'in_reply_to_status_id_str'
p264
NsS'in_reply_to_screen_name'
p265
Nsg91
g205
sS'extended_entities'
p266
g241
sS'retweeted'
p267
I00
sS'place'
p268
g0
(ctweepy.models
Place
p269
g2
Ntp270
Rp271
(dp272
S'full_name'
p273
g219
sg110
g220
sS'country'
p274
g222
sS'place_type'
p275
g224
sS'bounding_box'
p276
g0
(ctweepy.models
BoundingBox
p277
g2
Ntp278
Rp279
(dp280
S'type'
p281
g227
sg261
g228
sbsS'country_code'
p282
g235
sS'attributes'
p283
g237
sg24
g238
sg104
g239
sbsS'retweet_count'
p284
I0
sg111
g112
(S'\x07\xdf\x07\x0f\x0b\x13(\x00\x00\x00'
p285
tp286
Rp287
sS'in_reply_to_user_id'
p288
Nsb.