ccopy_reg
_reconstructor
p0
(ctweepy.models
Status
p1
c__builtin__
object
p2
Ntp3
Rp4
(dp5
S'favorited'
p6
I00
sS'contributors'
p7
NsS'truncated'
p8
I00
sS'text'
p9
VGreat time with the kids at the wilson swiss all star bball camp! #Switzerland\U0001f1e8\U0001f1ed #teamselfie http://t.co/F7byoDu7fO
p10
sS'source_url'
p11
Vhttp://twitter.com/download/iphone
p12
sS'possibly_sensitive'
p13
I00
sS'in_reply_to_status_id'
p14
NsS'user'
p15
g0
(ctweepy.models
User
p16
g2
Ntp17
Rp18
(dp19
S'follow_request_sent'
p20
NsS'profile_use_background_image'
p21
I01
sS'profile_sidebar_fill_color'
p22
VEFEFEF
p23
sS'id'
p24
I2423100775
sS'verified'
p25
I01
sS'profile_image_url_https'
p26
Vhttps://pbs.twimg.com/profile_images/614526595685089284/ixH913iT_normal.jpg
p27
sS'_json'
p28
(dp29
Vfollow_request_sent
p30
NsVprofile_use_background_image
p31
I01
sVdefault_profile_image
p32
I00
sVid
p33
I2423100775
sVverified
p34
I01
sVprofile_image_url_https
p35
g27
sVprofile_sidebar_fill_color
p36
g23
sVprofile_text_color
p37
V333333
p38
sVfollowers_count
p39
I15680
sVprofile_sidebar_border_color
p40
VEEEEEE
p41
sVid_str
p42
V2423100775
p43
sVprofile_background_color
p44
V131516
p45
sVlisted_count
p46
I199
sVprofile_background_image_url_https
p47
Vhttps://abs.twimg.com/images/themes/theme14/bg.gif
p48
sVutc_offset
p49
I-10800
sVstatuses_count
p50
I363
sVdescription
p51
VCenter for the Orlando Magic
p52
sVfriends_count
p53
I234
sVlocation
p54
VOrlando, FL
p55
sVprofile_link_color
p56
V009999
p57
sVprofile_image_url
p58
Vhttp://pbs.twimg.com/profile_images/614526595685089284/ixH913iT_normal.jpg
p59
sVfollowing
p60
NsVgeo_enabled
p61
I01
sVprofile_banner_url
p62
Vhttps://pbs.twimg.com/profile_banners/2423100775/1435349458
p63
sVprofile_background_image_url
p64
Vhttp://abs.twimg.com/images/themes/theme14/bg.gif
p65
sVname
p66
VNikola Vucevic
p67
sVlang
p68
Ven
p69
sVprofile_background_tile
p70
I01
sVfavourites_count
p71
I133
sVscreen_name
p72
VNikolaVucevic
p73
sVnotifications
p74
NsVurl
p75
NsVcreated_at
p76
VWed Apr 02 02:58:56 +0000 2014
p77
sVcontributors_enabled
p78
I00
sVtime_zone
p79
VAtlantic Time (Canada)
p80
sVprotected
p81
I00
sVdefault_profile
p82
I00
sVis_translator
p83
I00
ssS'contributors_enabled'
p84
I00
sS'profile_text_color'
p85
g38
sS'followers_count'
p86
I15680
sS'profile_sidebar_border_color'
p87
g41
sS'location'
p88
g55
sS'default_profile_image'
p89
I00
sS'id_str'
p90
g43
sS'utc_offset'
p91
I-10800
sS'statuses_count'
p92
I363
sS'description'
p93
g52
sS'friends_count'
p94
I234
sS'profile_link_color'
p95
g57
sS'profile_image_url'
p96
g59
sS'notifications'
p97
NsS'geo_enabled'
p98
I01
sS'profile_background_color'
p99
g45
sS'profile_banner_url'
p100
g63
sS'profile_background_image_url'
p101
g65
sS'name'
p102
g67
sS'lang'
p103
g69
sS'following'
p104
I00
sS'profile_background_tile'
p105
I01
sS'favourites_count'
p106
I133
sS'screen_name'
p107
g73
sS'url'
p108
NsS'created_at'
p109
cdatetime
datetime
p110
(S'\x07\xde\x04\x02\x02:8\x00\x00\x00'
p111
tp112
Rp113
sS'profile_background_image_url_https'
p114
g48
sS'time_zone'
p115
g80
sS'protected'
p116
I00
sS'default_profile'
p117
I00
sS'is_translator'
p118
I00
sS'listed_count'
p119
I199
sbsS'filter_level'
p120
Vlow
p121
sS'geo'
p122
Nsg24
I621248500672647168
sS'favorite_count'
p123
I0
sS'source'
p124
VTwitter for iPhone
p125
sg103
Ven
p126
sS'author'
p127
g18
sS'in_reply_to_user_id_str'
p128
Nsg28
(dp129
Vcontributors
p130
NsVtruncated
p131
I00
sVtext
p132
g10
sVin_reply_to_status_id
p133
Nsg33
I621248500672647168
sVfavorite_count
p134
I0
sVsource
p135
V<a href="http://twitter.com/download/iphone" rel="nofollow">Twitter for iPhone</a>
p136
sVretweeted
p137
I00
sVcoordinates
p138
NsVtimestamp_ms
p139
V1436952159456
p140
sVentities
p141
(dp142
Vsymbols
p143
(lp144
sVmedia
p145
(lp146
(dp147
Vexpanded_url
p148
Vhttp://twitter.com/NikolaVucevic/status/621248500672647168/photo/1
p149
sVdisplay_url
p150
Vpic.twitter.com/F7byoDu7fO
p151
sg75
Vhttp://t.co/F7byoDu7fO
p152
sVmedia_url_https
p153
Vhttps://pbs.twimg.com/media/CJ8eNfiWsAAY8mp.jpg
p154
sg42
V621248490753142784
p155
sVsizes
p156
(dp157
Vsmall
p158
(dp159
Vh
p160
I453
sVresize
p161
Vfit
p162
sVw
p163
I340
ssVlarge
p164
(dp165
g160
I1024
sg161
Vfit
p166
sg163
I768
ssVmedium
p167
(dp168
g160
I800
sg161
Vfit
p169
sg163
I600
ssVthumb
p170
(dp171
g160
I150
sg161
Vcrop
p172
sg163
I150
sssVindices
p173
(lp174
I93
aI115
asVtype
p175
Vphoto
p176
sg33
I621248490753142784
sVmedia_url
p177
Vhttp://pbs.twimg.com/media/CJ8eNfiWsAAY8mp.jpg
p178
sasVhashtags
p179
(lp180
(dp181
g173
(lp182
I66
aI78
asg132
VSwitzerland
p183
sa(dp184
g173
(lp185
I81
aI92
asg132
Vteamselfie
p186
sasVuser_mentions
p187
(lp188
sVtrends
p189
(lp190
sVurls
p191
(lp192
ssVin_reply_to_screen_name
p193
Nsg42
V621248500672647168
p194
sVretweet_count
p195
I0
sVin_reply_to_user_id
p196
NsVfavorited
p197
I00
sVuser
p198
g29
sVgeo
p199
NsVin_reply_to_user_id_str
p200
NsVpossibly_sensitive
p201
I00
sg68
g126
sg76
VWed Jul 15 09:22:39 +0000 2015
p202
sVfilter_level
p203
g121
sVin_reply_to_status_id_str
p204
NsVplace
p205
(dp206
Vfull_name
p207
VZurich, Switzerland
p208
sg75
Vhttps://api.twitter.com/1.1/geo/id/3acb748d0f1e9265.json
p209
sVcountry
p210
VSchweiz
p211
sVplace_type
p212
Vcity
p213
sVbounding_box
p214
(dp215
g175
VPolygon
p216
sg138
(lp217
(lp218
(lp219
F8.448081
aF47.320183
aa(lp220
F8.448081
aF47.434721
aa(lp221
F8.625442
aF47.434721
aa(lp222
F8.625442
aF47.320183
aaassVcountry_code
p223
VCH
p224
sVattributes
p225
(dp226
sg33
V3acb748d0f1e9265
p227
sg66
VZurich
p228
ssVextended_entities
p229
(dp230
g145
(lp231
(dp232
g148
Vhttp://twitter.com/NikolaVucevic/status/621248500672647168/photo/1
p233
sg150
Vpic.twitter.com/F7byoDu7fO
p234
sg75
Vhttp://t.co/F7byoDu7fO
p235
sg153
Vhttps://pbs.twimg.com/media/CJ8eNfiWsAAY8mp.jpg
p236
sg42
V621248490753142784
p237
sg156
(dp238
g158
(dp239
g160
I453
sg161
Vfit
p240
sg163
I340
ssg164
(dp241
g160
I1024
sg161
Vfit
p242
sg163
I768
ssg167
(dp243
g160
I800
sg161
Vfit
p244
sg163
I600
ssg170
(dp245
g160
I150
sg161
Vcrop
p246
sg163
I150
sssg173
(lp247
I93
aI115
asg175
Vphoto
p248
sg33
I621248490753142784
sg177
Vhttp://pbs.twimg.com/media/CJ8eNfiWsAAY8mp.jpg
p249
sasssS'coordinates'
p250
NsS'timestamp_ms'
p251
g140
sS'entities'
p252
g142
sS'in_reply_to_status_id_str'
p253
NsS'in_reply_to_screen_name'
p254
Nsg90
g194
sS'extended_entities'
p255
g230
sS'retweeted'
p256
I00
sS'place'
p257
g0
(ctweepy.models
Place
p258
g2
Ntp259
Rp260
(dp261
S'full_name'
p262
g208
sg108
g209
sS'country'
p263
g211
sS'place_type'
p264
g213
sS'bounding_box'
p265
g0
(ctweepy.models
BoundingBox
p266
g2
Ntp267
Rp268
(dp269
S'type'
p270
g216
sg250
g217
sbsS'country_code'
p271
g224
sS'attributes'
p272
g226
sg24
g227
sg102
g228
sbsS'retweet_count'
p273
I0
sg109
g110
(S"\x07\xdf\x07\x0f\t\x16'\x00\x00\x00"
p274
tp275
Rp276
sS'in_reply_to_user_id'
p277
Nsb.