ccopy_reg
_reconstructor
p0
(ctweepy.models
Status
p1
c__builtin__
object
p2
Ntp3
Rp4
(dp5
S'contributors'
p6
NsS'truncated'
p7
I00
sS'text'
p8
VWe put some Texas in they life's \U0001f61d https://t.co/mUyWDFk6YG
p9
sS'in_reply_to_status_id'
p10
NsS'id'
p11
I619966595734073344
sS'favorite_count'
p12
I0
sS'entities'
p13
(dp14
Vuser_mentions
p15
(lp16
sVsymbols
p17
(lp18
sVtrends
p19
(lp20
sVhashtags
p21
(lp22
sVurls
p23
(lp24
(dp25
Vurl
p26
Vhttps://t.co/mUyWDFk6YG
p27
sVindices
p28
(lp29
I35
aI58
asVexpanded_url
p30
Vhttps://twitter.com/nagi_semo/status/619966160851857409
p31
sVdisplay_url
p32
Vtwitter.com/nagi_semo/stat\u2026
p33
sassS'quoted_status_id'
p34
I619966160851857409
sS'_json'
p35
(dp36
Vcontributors
p37
NsVtruncated
p38
I00
sVtext
p39
g9
sVin_reply_to_status_id
p40
NsVid
p41
I619966595734073344
sVfavorite_count
p42
I0
sVsource
p43
V<a href="http://twitter.com/download/iphone" rel="nofollow">Twitter for iPhone</a>
p44
sVquoted_status_id
p45
I619966160851857409
sVretweeted
p46
I00
sVcoordinates
p47
NsVtimestamp_ms
p48
V1436646529502
p49
sVquoted_status
p50
(dp51
g37
Nsg38
I00
sg39
V@no1ceo hell yeah cuz !!! We turning up everyday \U0001f60e
p52
sg40
I619963001907585024
sg41
I619966160851857409
sg42
I0
sg43
V<a href="http://twitter.com/download/iphone" rel="nofollow">Twitter for iPhone</a>
p53
sg46
I00
sg47
NsVentities
p54
(dp55
g15
(lp56
(dp57
g41
I75375923
sg28
(lp58
I0
aI7
asVid_str
p59
V75375923
p60
sVscreen_name
p61
Vno1ceo
p62
sVname
p63
VIdri\u015b
p64
sasg17
(lp65
sg19
(lp66
sg21
(lp67
sg23
(lp68
ssVin_reply_to_screen_name
p69
Vno1ceo
p70
sg59
V619966160851857409
p71
sVretweet_count
p72
I0
sVin_reply_to_user_id
p73
I75375923
sVfavorited
p74
I00
sVuser
p75
(dp76
Vfollow_request_sent
p77
NsVprofile_use_background_image
p78
I01
sVdefault_profile_image
p79
I00
sg41
I1548140263
sVverified
p80
I00
sVprofile_image_url_https
p81
Vhttps://pbs.twimg.com/profile_images/611613885016211456/MFP_PqmD_normal.jpg
p82
sVprofile_sidebar_fill_color
p83
VEFEFEF
p84
sVprofile_text_color
p85
V333333
p86
sVfollowers_count
p87
I273
sVprofile_sidebar_border_color
p88
VEEEEEE
p89
sg59
V1548140263
p90
sVprofile_background_color
p91
V131516
p92
sVlisted_count
p93
I0
sVprofile_background_image_url_https
p94
Vhttps://abs.twimg.com/images/themes/theme14/bg.gif
p95
sVutc_offset
p96
I-14400
sVstatuses_count
p97
I4435
sVdescription
p98
V19 |Struga |\u26bd\ufe0f
p99
sVfriends_count
p100
I93
sVlocation
p101
V
p102
sVprofile_link_color
p103
V009999
p104
sVprofile_image_url
p105
Vhttp://pbs.twimg.com/profile_images/611613885016211456/MFP_PqmD_normal.jpg
p106
sVfollowing
p107
NsVgeo_enabled
p108
I01
sVprofile_banner_url
p109
Vhttps://pbs.twimg.com/profile_banners/1548140263/1434636944
p110
sVprofile_background_image_url
p111
Vhttp://abs.twimg.com/images/themes/theme14/bg.gif
p112
sg63
VN
p113
sVlang
p114
Ven
p115
sVprofile_background_tile
p116
I01
sVfavourites_count
p117
I4941
sg61
Vnagi_semo
p118
sVnotifications
p119
Nsg26
NsVcreated_at
p120
VWed Jun 26 12:45:05 +0000 2013
p121
sVcontributors_enabled
p122
I00
sVtime_zone
p123
VEastern Time (US & Canada)
p124
sVprotected
p125
I00
sVdefault_profile
p126
I00
sVis_translator
p127
I00
ssVgeo
p128
NsVin_reply_to_user_id_str
p129
V75375923
p130
sVpossibly_sensitive
p131
I01
sg114
Ven
p132
sg120
VSat Jul 11 20:27:05 +0000 2015
p133
sVfilter_level
p134
Vlow
p135
sVin_reply_to_status_id_str
p136
V619963001907585024
p137
sVplace
p138
Nssg54
g14
sg69
Nsg59
V619966595734073344
p139
sg72
I0
sg73
Nsg74
I00
sg75
(dp140
g77
Nsg78
I01
sg79
I00
sg41
I75375923
sg80
I00
sg81
Vhttps://pbs.twimg.com/profile_images/613805485079179264/jEGPZtBz_normal.jpg
p141
sg83
VEFEFEF
p142
sg85
V333333
p143
sg87
I6263
sg88
VEEEEEE
p144
sg59
V75375923
p145
sg91
V131516
p146
sg93
I6
sg94
Vhttps://abs.twimg.com/images/themes/theme14/bg.gif
p147
sg96
I-18000
sg97
I24386
sg98
VCriminal Psychologists \u2022 Tx
p148
sg100
I809
sg101
g102
sg103
V009999
p149
sg105
Vhttp://pbs.twimg.com/profile_images/613805485079179264/jEGPZtBz_normal.jpg
p150
sg107
Nsg108
I01
sg109
Vhttps://pbs.twimg.com/profile_banners/75375923/1435039191
p151
sg111
Vhttp://abs.twimg.com/images/themes/theme14/bg.gif
p152
sg63
VIdri\u015b
p153
sg114
Ven
p154
sg116
I01
sg117
I11134
sg61
Vno1ceo
p155
sg119
Nsg26
Nsg120
VFri Sep 18 20:22:54 +0000 2009
p156
sg122
I00
sg123
VCentral Time (US & Canada)
p157
sg125
I00
sg126
I00
sg127
I00
ssg128
Nsg129
Nsg131
I00
sg114
Ven
p158
sg120
VSat Jul 11 20:28:49 +0000 2015
p159
sVquoted_status_id_str
p160
V619966160851857409
p161
sg134
Vlow
p162
sg136
Nsg138
(dp163
Vfull_name
p164
VZurich, Switzerland
p165
sg26
Vhttps://api.twitter.com/1.1/geo/id/3acb748d0f1e9265.json
p166
sVcountry
p167
VSchweiz
p168
sVplace_type
p169
Vcity
p170
sVbounding_box
p171
(dp172
Vtype
p173
VPolygon
p174
sg47
(lp175
(lp176
(lp177
F8.448081
aF47.320183
aa(lp178
F8.448081
aF47.434721
aa(lp179
F8.625442
aF47.434721
aa(lp180
F8.625442
aF47.320183
aaassVcountry_code
p181
VCH
p182
sVattributes
p183
(dp184
sg41
V3acb748d0f1e9265
p185
sg63
VZurich
p186
sssS'coordinates'
p187
NsS'timestamp_ms'
p188
g49
sS'quoted_status'
p189
g51
sS'source'
p190
VTwitter for iPhone
p191
sS'in_reply_to_screen_name'
p192
NsS'id_str'
p193
g139
sS'retweet_count'
p194
I0
sS'in_reply_to_user_id'
p195
NsS'favorited'
p196
I00
sS'source_url'
p197
Vhttp://twitter.com/download/iphone
p198
sS'user'
p199
g0
(ctweepy.models
User
p200
g2
Ntp201
Rp202
(dp203
S'follow_request_sent'
p204
NsS'profile_use_background_image'
p205
I01
sS'profile_sidebar_fill_color'
p206
g142
sg11
I75375923
sS'verified'
p207
I00
sS'profile_image_url_https'
p208
g141
sg35
g140
sS'contributors_enabled'
p209
I00
sS'profile_text_color'
p210
g143
sS'followers_count'
p211
I6263
sS'profile_sidebar_border_color'
p212
g144
sS'location'
p213
g102
sS'default_profile_image'
p214
I00
sg193
g145
sS'utc_offset'
p215
I-18000
sS'statuses_count'
p216
I24386
sS'description'
p217
g148
sS'friends_count'
p218
I809
sS'profile_link_color'
p219
g149
sS'profile_image_url'
p220
g150
sS'notifications'
p221
NsS'geo_enabled'
p222
I01
sS'profile_background_color'
p223
g146
sS'profile_banner_url'
p224
g151
sS'profile_background_image_url'
p225
g152
sS'name'
p226
g153
sS'lang'
p227
g154
sS'following'
p228
I00
sS'profile_background_tile'
p229
I01
sS'favourites_count'
p230
I11134
sS'screen_name'
p231
g155
sS'url'
p232
NsS'created_at'
p233
cdatetime
datetime
p234
(S'\x07\xd9\t\x12\x14\x166\x00\x00\x00'
p235
tp236
Rp237
sS'profile_background_image_url_https'
p238
g147
sS'time_zone'
p239
g157
sS'protected'
p240
I00
sS'default_profile'
p241
I00
sS'is_translator'
p242
I00
sS'listed_count'
p243
I6
sbsS'geo'
p244
NsS'in_reply_to_user_id_str'
p245
NsS'possibly_sensitive'
p246
I00
sg227
g158
sg233
g234
(S'\x07\xdf\x07\x0b\x14\x1c1\x00\x00\x00'
p247
tp248
Rp249
sS'author'
p250
g202
sS'quoted_status_id_str'
p251
g161
sS'filter_level'
p252
g162
sS'in_reply_to_status_id_str'
p253
NsS'place'
p254
g0
(ctweepy.models
Place
p255
g2
Ntp256
Rp257
(dp258
S'full_name'
p259
g165
sg232
g166
sS'country'
p260
g168
sS'place_type'
p261
g170
sS'bounding_box'
p262
g0
(ctweepy.models
BoundingBox
p263
g2
Ntp264
Rp265
(dp266
S'type'
p267
g174
sg187
g175
sbsS'country_code'
p268
g182
sS'attributes'
p269
g184
sg11
g185
sg226
g186
sbsS'retweeted'
p270
I00
sb.