ccopy_reg
_reconstructor
p0
(ctweepy.models
Status
p1
c__builtin__
object
p2
Ntp3
Rp4
(dp5
S'favorited'
p6
I00
sS'contributors'
p7
NsS'truncated'
p8
I00
sS'text'
p9
VBelieve only half what you see, and nothing that your hear
p10
sS'source_url'
p11
Vhttp://twitter.com/download/android
p12
sS'possibly_sensitive'
p13
I00
sS'in_reply_to_status_id'
p14
NsS'user'
p15
g0
(ctweepy.models
User
p16
g2
Ntp17
Rp18
(dp19
S'follow_request_sent'
p20
NsS'profile_use_background_image'
p21
I01
sS'profile_sidebar_fill_color'
p22
VDDEEF6
p23
sS'id'
p24
I3071915771
sS'verified'
p25
I00
sS'profile_image_url_https'
p26
Vhttps://pbs.twimg.com/profile_images/573418750109716481/QingO68J_normal.jpeg
p27
sS'_json'
p28
(dp29
Vfollow_request_sent
p30
NsVprofile_use_background_image
p31
I01
sVdefault_profile_image
p32
I00
sVid
p33
I3071915771
sVverified
p34
I00
sVprofile_image_url_https
p35
g27
sVprofile_sidebar_fill_color
p36
g23
sVprofile_text_color
p37
V333333
p38
sVfollowers_count
p39
I32
sVprofile_sidebar_border_color
p40
VC0DEED
p41
sVid_str
p42
V3071915771
p43
sVprofile_background_color
p44
V3B94D9
p45
sVlisted_count
p46
I2
sVprofile_background_image_url_https
p47
Vhttps://abs.twimg.com/images/themes/theme2/bg.gif
p48
sVutc_offset
p49
NsVstatuses_count
p50
I104
sVdescription
p51
NsVfriends_count
p52
I149
sVlocation
p53
V
p54
sVprofile_link_color
p55
V3B94D9
p56
sVprofile_image_url
p57
Vhttp://pbs.twimg.com/profile_images/573418750109716481/QingO68J_normal.jpeg
p58
sVfollowing
p59
NsVgeo_enabled
p60
I01
sVprofile_background_image_url
p61
Vhttp://abs.twimg.com/images/themes/theme2/bg.gif
p62
sVname
p63
Vstephane
p64
sVlang
p65
Vfr
p66
sVprofile_background_tile
p67
I00
sVfavourites_count
p68
I18
sVscreen_name
p69
Vstephane2115
p70
sVnotifications
p71
NsVurl
p72
NsVcreated_at
p73
VThu Mar 05 09:11:17 +0000 2015
p74
sVcontributors_enabled
p75
I00
sVtime_zone
p76
NsVprotected
p77
I00
sVdefault_profile
p78
I00
sVis_translator
p79
I00
ssS'contributors_enabled'
p80
I00
sS'profile_text_color'
p81
g38
sS'followers_count'
p82
I32
sS'profile_sidebar_border_color'
p83
g41
sS'location'
p84
g54
sS'default_profile_image'
p85
I00
sS'id_str'
p86
g43
sS'utc_offset'
p87
NsS'statuses_count'
p88
I104
sS'description'
p89
NsS'friends_count'
p90
I149
sS'profile_link_color'
p91
g56
sS'profile_image_url'
p92
g58
sS'notifications'
p93
NsS'geo_enabled'
p94
I01
sS'profile_background_color'
p95
g45
sS'profile_background_image_url'
p96
g62
sS'name'
p97
g64
sS'lang'
p98
g66
sS'following'
p99
I00
sS'profile_background_tile'
p100
I00
sS'favourites_count'
p101
I18
sS'screen_name'
p102
g70
sS'url'
p103
NsS'created_at'
p104
cdatetime
datetime
p105
(S'\x07\xdf\x03\x05\t\x0b\x11\x00\x00\x00'
p106
tp107
Rp108
sS'profile_background_image_url_https'
p109
g48
sS'time_zone'
p110
NsS'protected'
p111
I00
sS'default_profile'
p112
I00
sS'is_translator'
p113
I00
sS'listed_count'
p114
I2
sbsS'filter_level'
p115
Vlow
p116
sS'geo'
p117
Nsg24
I619063594089611264
sS'favorite_count'
p118
I0
sS'source'
p119
VTwitter for Android
p120
sg98
Ven
p121
sS'author'
p122
g18
sS'in_reply_to_user_id_str'
p123
Nsg28
(dp124
Vcontributors
p125
NsVtruncated
p126
I00
sVtext
p127
g10
sVin_reply_to_status_id
p128
Nsg33
I619063594089611264
sVfavorite_count
p129
I0
sVsource
p130
V<a href="http://twitter.com/download/android" rel="nofollow">Twitter for Android</a>
p131
sVretweeted
p132
I00
sVcoordinates
p133
NsVtimestamp_ms
p134
V1436431237133
p135
sVentities
p136
(dp137
Vuser_mentions
p138
(lp139
sVsymbols
p140
(lp141
sVtrends
p142
(lp143
sVhashtags
p144
(lp145
sVurls
p146
(lp147
ssVin_reply_to_screen_name
p148
Nsg42
V619063594089611264
p149
sVretweet_count
p150
I0
sVin_reply_to_user_id
p151
NsVfavorited
p152
I00
sVuser
p153
g29
sVgeo
p154
NsVin_reply_to_user_id_str
p155
NsVpossibly_sensitive
p156
I00
sg65
g121
sg73
VThu Jul 09 08:40:37 +0000 2015
p157
sVfilter_level
p158
g116
sVin_reply_to_status_id_str
p159
NsVplace
p160
(dp161
Vfull_name
p162
VZurich, Suisse
p163
sg72
Vhttps://api.twitter.com/1.1/geo/id/3acb748d0f1e9265.json
p164
sVcountry
p165
VSchweiz
p166
sVplace_type
p167
Vcity
p168
sVbounding_box
p169
(dp170
Vtype
p171
VPolygon
p172
sg133
(lp173
(lp174
(lp175
F8.448081
aF47.320183
aa(lp176
F8.448081
aF47.434721
aa(lp177
F8.625442
aF47.434721
aa(lp178
F8.625442
aF47.320183
aaassVcountry_code
p179
VCH
p180
sVattributes
p181
(dp182
sg33
V3acb748d0f1e9265
p183
sg63
VZurich
p184
sssS'coordinates'
p185
NsS'timestamp_ms'
p186
g135
sS'entities'
p187
g137
sS'in_reply_to_status_id_str'
p188
NsS'in_reply_to_screen_name'
p189
Nsg86
g149
sS'retweeted'
p190
I00
sS'place'
p191
g0
(ctweepy.models
Place
p192
g2
Ntp193
Rp194
(dp195
S'full_name'
p196
g163
sg103
g164
sS'country'
p197
g166
sS'place_type'
p198
g168
sS'bounding_box'
p199
g0
(ctweepy.models
BoundingBox
p200
g2
Ntp201
Rp202
(dp203
S'type'
p204
g172
sg185
g173
sbsS'country_code'
p205
g180
sS'attributes'
p206
g182
sg24
g183
sg97
g184
sbsS'retweet_count'
p207
I0
sg104
g105
(S'\x07\xdf\x07\t\x08(%\x00\x00\x00'
p208
tp209
Rp210
sS'in_reply_to_user_id'
p211
Nsb.