ccopy_reg
_reconstructor
p0
(ctweepy.models
Status
p1
c__builtin__
object
p2
Ntp3
Rp4
(dp5
S'favorited'
p6
I00
sS'contributors'
p7
NsS'truncated'
p8
I00
sS'text'
p9
VZurich Monday Night Skate. Amazing!\u000aWish I had heard about it earlier; I've never seen so many rollerskaters! http://t.co/B2RHEAUAFx
p10
sS'source_url'
p11
Vhttp://twitter.com/download/iphone
p12
sS'possibly_sensitive'
p13
I00
sS'in_reply_to_status_id'
p14
NsS'user'
p15
g0
(ctweepy.models
User
p16
g2
Ntp17
Rp18
(dp19
S'follow_request_sent'
p20
NsS'profile_use_background_image'
p21
I01
sS'profile_sidebar_fill_color'
p22
V252429
p23
sS'id'
p24
I8775552
sS'verified'
p25
I00
sS'profile_image_url_https'
p26
Vhttps://pbs.twimg.com/profile_images/2627716615/image_normal.jpg
p27
sS'_json'
p28
(dp29
Vfollow_request_sent
p30
NsVprofile_use_background_image
p31
I01
sVdefault_profile_image
p32
I00
sVid
p33
I8775552
sVverified
p34
I00
sVprofile_image_url_https
p35
g27
sVprofile_sidebar_fill_color
p36
g23
sVprofile_text_color
p37
V666666
p38
sVfollowers_count
p39
I258
sVprofile_sidebar_border_color
p40
V181A1E
p41
sVid_str
p42
V8775552
p43
sVprofile_background_color
p44
V1E2A25
p45
sVlisted_count
p46
I12
sVprofile_background_image_url_https
p47
Vhttps://pbs.twimg.com/profile_background_images/5085757/25100002.jpg
p48
sVutc_offset
p49
I3600
sVstatuses_count
p50
I4046
sVdescription
p51
VComputer Science graduate. I like cars, coding, art, photography, music and a good old lol.\u000a\u000aA Londoner who likes to smile.
p52
sVfriends_count
p53
I872
sVlocation
p54
VUK
p55
sVprofile_link_color
p56
V647D3F
p57
sVprofile_image_url
p58
Vhttp://pbs.twimg.com/profile_images/2627716615/image_normal.jpg
p59
sVfollowing
p60
NsVgeo_enabled
p61
I01
sVprofile_banner_url
p62
Vhttps://pbs.twimg.com/profile_banners/8775552/1348083928
p63
sVprofile_background_image_url
p64
Vhttp://pbs.twimg.com/profile_background_images/5085757/25100002.jpg
p65
sVname
p66
VAndrew Davidson
p67
sVlang
p68
Ven
p69
sVprofile_background_tile
p70
I00
sVfavourites_count
p71
I47
sVscreen_name
p72
Vadav
p73
sVnotifications
p74
NsVurl
p75
Vhttp://adav.me
p76
sVcreated_at
p77
VMon Sep 10 00:55:52 +0000 2007
p78
sVcontributors_enabled
p79
I00
sVtime_zone
p80
VLondon
p81
sVprotected
p82
I00
sVdefault_profile
p83
I00
sVis_translator
p84
I00
ssS'contributors_enabled'
p85
I00
sS'profile_text_color'
p86
g38
sS'followers_count'
p87
I258
sS'profile_sidebar_border_color'
p88
g41
sS'location'
p89
g55
sS'default_profile_image'
p90
I00
sS'id_str'
p91
g43
sS'utc_offset'
p92
I3600
sS'statuses_count'
p93
I4046
sS'description'
p94
VComputer Science graduate. I like cars, coding, art, photography, music and a good old lol.\u000a\u000aA Londoner who likes to smile.
p95
sS'friends_count'
p96
I872
sS'profile_link_color'
p97
g57
sS'profile_image_url'
p98
g59
sS'notifications'
p99
NsS'geo_enabled'
p100
I01
sS'profile_background_color'
p101
g45
sS'profile_banner_url'
p102
g63
sS'profile_background_image_url'
p103
g65
sS'name'
p104
g67
sS'lang'
p105
g69
sS'following'
p106
I00
sS'profile_background_tile'
p107
I00
sS'favourites_count'
p108
I47
sS'screen_name'
p109
g73
sS'url'
p110
g76
sS'created_at'
p111
cdatetime
datetime
p112
(S'\x07\xd7\t\n\x0074\x00\x00\x00'
p113
tp114
Rp115
sS'profile_background_image_url_https'
p116
g48
sS'time_zone'
p117
g81
sS'protected'
p118
I00
sS'default_profile'
p119
I00
sS'is_translator'
p120
I00
sS'listed_count'
p121
I12
sbsS'filter_level'
p122
Vlow
p123
sS'geo'
p124
Nsg24
I620685125051748353
sS'favorite_count'
p125
I0
sS'source'
p126
VTwitter for iPhone
p127
sg105
Ven
p128
sS'author'
p129
g18
sS'in_reply_to_user_id_str'
p130
Nsg28
(dp131
Vcontributors
p132
NsVtruncated
p133
I00
sVtext
p134
VZurich Monday Night Skate. Amazing!\u000aWish I had heard about it earlier; I've never seen so many rollerskaters! http://t.co/B2RHEAUAFx
p135
sVin_reply_to_status_id
p136
Nsg33
I620685125051748353
sVfavorite_count
p137
I0
sVsource
p138
V<a href="http://twitter.com/download/iphone" rel="nofollow">Twitter for iPhone</a>
p139
sVretweeted
p140
I00
sVcoordinates
p141
NsVtimestamp_ms
p142
V1436817840241
p143
sVentities
p144
(dp145
Vuser_mentions
p146
(lp147
sVsymbols
p148
(lp149
sVtrends
p150
(lp151
sVhashtags
p152
(lp153
sVurls
p154
(lp155
(dp156
g75
Vhttp://t.co/B2RHEAUAFx
p157
sVindices
p158
(lp159
I110
aI132
asVexpanded_url
p160
Vhttp://www.nightskate.ch/en/main/cities.html
p161
sVdisplay_url
p162
Vnightskate.ch/en/main/cities\u2026
p163
sassVin_reply_to_screen_name
p164
Nsg42
V620685125051748353
p165
sVretweet_count
p166
I0
sVin_reply_to_user_id
p167
NsVfavorited
p168
I00
sVuser
p169
g29
sVgeo
p170
NsVin_reply_to_user_id_str
p171
NsVpossibly_sensitive
p172
I00
sg68
g128
sg77
VMon Jul 13 20:04:00 +0000 2015
p173
sVfilter_level
p174
g123
sVin_reply_to_status_id_str
p175
NsVplace
p176
(dp177
Vfull_name
p178
VZurich, Switzerland
p179
sg75
Vhttps://api.twitter.com/1.1/geo/id/3acb748d0f1e9265.json
p180
sVcountry
p181
VSchweiz
p182
sVplace_type
p183
Vcity
p184
sVbounding_box
p185
(dp186
Vtype
p187
VPolygon
p188
sg141
(lp189
(lp190
(lp191
F8.448081
aF47.320183
aa(lp192
F8.448081
aF47.434721
aa(lp193
F8.625442
aF47.434721
aa(lp194
F8.625442
aF47.320183
aaassVcountry_code
p195
VCH
p196
sVattributes
p197
(dp198
sg33
V3acb748d0f1e9265
p199
sg66
VZurich
p200
sssS'coordinates'
p201
NsS'timestamp_ms'
p202
g143
sS'entities'
p203
g145
sS'in_reply_to_status_id_str'
p204
NsS'in_reply_to_screen_name'
p205
Nsg91
g165
sS'retweeted'
p206
I00
sS'place'
p207
g0
(ctweepy.models
Place
p208
g2
Ntp209
Rp210
(dp211
S'full_name'
p212
g179
sg110
g180
sS'country'
p213
g182
sS'place_type'
p214
g184
sS'bounding_box'
p215
g0
(ctweepy.models
BoundingBox
p216
g2
Ntp217
Rp218
(dp219
S'type'
p220
g188
sg201
g189
sbsS'country_code'
p221
g196
sS'attributes'
p222
g198
sg24
g199
sg104
g200
sbsS'retweet_count'
p223
I0
sg111
g112
(S'\x07\xdf\x07\r\x14\x04\x00\x00\x00\x00'
p224
tp225
Rp226
sS'in_reply_to_user_id'
p227
Nsb.