ccopy_reg
_reconstructor
p0
(ctweepy.models
Status
p1
c__builtin__
object
p2
Ntp3
Rp4
(dp5
S'favorited'
p6
I00
sS'contributors'
p7
NsS'truncated'
p8
I00
sS'text'
p9
VWho said #Geneva was boring? Discover our favorite #summertime #activities: http://t.co/kBdLLtQbJf #tt #travel #Swiss http://t.co/3DUi5fERqR
p10
sS'source_url'
p11
Vhttp://twitter.com
p12
sS'possibly_sensitive'
p13
I00
sS'in_reply_to_status_id'
p14
NsS'user'
p15
g0
(ctweepy.models
User
p16
g2
Ntp17
Rp18
(dp19
S'follow_request_sent'
p20
NsS'profile_use_background_image'
p21
I01
sS'profile_sidebar_fill_color'
p22
VEFEFEF
p23
sS'id'
p24
I64985354
sS'verified'
p25
I00
sS'profile_image_url_https'
p26
Vhttps://pbs.twimg.com/profile_images/524915773240639489/aDktn5_U_normal.jpeg
p27
sS'_json'
p28
(dp29
Vfollow_request_sent
p30
NsVprofile_use_background_image
p31
I01
sVdefault_profile_image
p32
I00
sVid
p33
I64985354
sVverified
p34
I00
sVprofile_image_url_https
p35
g27
sVprofile_sidebar_fill_color
p36
g23
sVprofile_text_color
p37
V333333
p38
sVfollowers_count
p39
I673
sVprofile_sidebar_border_color
p40
V000000
p41
sVid_str
p42
V64985354
p43
sVprofile_background_color
p44
V000000
p45
sVlisted_count
p46
I45
sVprofile_background_image_url_https
p47
Vhttps://pbs.twimg.com/profile_background_images/344511763024853287/b8e73edfed4589312ce954ec029243eb.jpeg
p48
sVutc_offset
p49
I7200
sVstatuses_count
p50
I902
sVdescription
p51
VA magnificent 45-bedroom privately owned 5-star boutique hotel on the shores of Lake Geneva overlooking the famous Jet d'Eau. Perfect for business and leisure
p52
sVfriends_count
p53
I213
sVlocation
p54
VGeneva, Switzerland
p55
sVprofile_link_color
p56
VBD9B60
p57
sVprofile_image_url
p58
Vhttp://pbs.twimg.com/profile_images/524915773240639489/aDktn5_U_normal.jpeg
p59
sVfollowing
p60
NsVgeo_enabled
p61
I01
sVprofile_banner_url
p62
Vhttps://pbs.twimg.com/profile_banners/64985354/1428916900
p63
sVprofile_background_image_url
p64
Vhttp://pbs.twimg.com/profile_background_images/344511763024853287/b8e73edfed4589312ce954ec029243eb.jpeg
p65
sVname
p66
VHotel d'Angleterre
p67
sVlang
p68
Ven
p69
sVprofile_background_tile
p70
I00
sVfavourites_count
p71
I180
sVscreen_name
p72
Vdangleterre
p73
sVnotifications
p74
NsVurl
p75
Vhttp://www.dangleterrehotel.com
p76
sVcreated_at
p77
VWed Aug 12 08:54:57 +0000 2009
p78
sVcontributors_enabled
p79
I00
sVtime_zone
p80
VVienna
p81
sVprotected
p82
I00
sVdefault_profile
p83
I00
sVis_translator
p84
I00
ssS'contributors_enabled'
p85
I00
sS'profile_text_color'
p86
g38
sS'followers_count'
p87
I673
sS'profile_sidebar_border_color'
p88
g41
sS'location'
p89
g55
sS'default_profile_image'
p90
I00
sS'id_str'
p91
g43
sS'utc_offset'
p92
I7200
sS'statuses_count'
p93
I902
sS'description'
p94
g52
sS'friends_count'
p95
I213
sS'profile_link_color'
p96
g57
sS'profile_image_url'
p97
g59
sS'notifications'
p98
NsS'geo_enabled'
p99
I01
sS'profile_background_color'
p100
g45
sS'profile_banner_url'
p101
g63
sS'profile_background_image_url'
p102
g65
sS'name'
p103
g67
sS'lang'
p104
g69
sS'following'
p105
I00
sS'profile_background_tile'
p106
I00
sS'favourites_count'
p107
I180
sS'screen_name'
p108
g73
sS'url'
p109
g76
sS'created_at'
p110
cdatetime
datetime
p111
(S'\x07\xd9\x08\x0c\x0869\x00\x00\x00'
p112
tp113
Rp114
sS'profile_background_image_url_https'
p115
g48
sS'time_zone'
p116
g81
sS'protected'
p117
I00
sS'default_profile'
p118
I00
sS'is_translator'
p119
I00
sS'listed_count'
p120
I45
sbsS'filter_level'
p121
Vlow
p122
sS'geo'
p123
Nsg24
I618436036675436544
sS'favorite_count'
p124
I0
sS'source'
p125
VTwitter Web Client
p126
sg104
Ven
p127
sS'author'
p128
g18
sS'in_reply_to_user_id_str'
p129
Nsg28
(dp130
Vcontributors
p131
NsVtruncated
p132
I00
sVtext
p133
g10
sVin_reply_to_status_id
p134
Nsg33
I618436036675436544
sVfavorite_count
p135
I0
sVsource
p136
V<a href="http://twitter.com" rel="nofollow">Twitter Web Client</a>
p137
sVretweeted
p138
I00
sVcoordinates
p139
NsVtimestamp_ms
p140
V1436281615786
p141
sVentities
p142
(dp143
Vsymbols
p144
(lp145
sVmedia
p146
(lp147
(dp148
Vexpanded_url
p149
Vhttp://twitter.com/dangleterre/status/618436036675436544/photo/1
p150
sVdisplay_url
p151
Vpic.twitter.com/3DUi5fERqR
p152
sg75
Vhttp://t.co/3DUi5fERqR
p153
sVmedia_url_https
p154
Vhttps://pbs.twimg.com/media/CJUgTD8UkAAdsua.jpg
p155
sg42
V618436035681226752
p156
sVsizes
p157
(dp158
Vsmall
p159
(dp160
Vh
p161
I226
sVresize
p162
Vfit
p163
sVw
p164
I340
ssVlarge
p165
(dp166
g161
I336
sg162
Vfit
p167
sg164
I505
ssVmedium
p168
(dp169
g161
I336
sg162
Vfit
p170
sg164
I505
ssVthumb
p171
(dp172
g161
I150
sg162
Vcrop
p173
sg164
I150
sssVindices
p174
(lp175
I118
aI140
asVtype
p176
Vphoto
p177
sg33
I618436035681226752
sVmedia_url
p178
Vhttp://pbs.twimg.com/media/CJUgTD8UkAAdsua.jpg
p179
sasVhashtags
p180
(lp181
(dp182
g174
(lp183
I9
aI16
asg133
VGeneva
p184
sa(dp185
g174
(lp186
I51
aI62
asg133
Vsummertime
p187
sa(dp188
g174
(lp189
I63
aI74
asg133
Vactivities
p190
sa(dp191
g174
(lp192
I99
aI102
asg133
Vtt
p193
sa(dp194
g174
(lp195
I103
aI110
asg133
Vtravel
p196
sa(dp197
g174
(lp198
I111
aI117
asg133
VSwiss
p199
sasVuser_mentions
p200
(lp201
sVtrends
p202
(lp203
sVurls
p204
(lp205
(dp206
g75
Vhttp://t.co/kBdLLtQbJf
p207
sg174
(lp208
I76
aI98
asg149
Vhttp://bit.ly/1HdsHPk
p209
sg151
Vbit.ly/1HdsHPk
p210
sassVin_reply_to_screen_name
p211
Nsg42
V618436036675436544
p212
sVretweet_count
p213
I0
sVin_reply_to_user_id
p214
NsVfavorited
p215
I00
sVuser
p216
g29
sVgeo
p217
NsVin_reply_to_user_id_str
p218
NsVpossibly_sensitive
p219
I00
sg68
g127
sg77
VTue Jul 07 15:06:55 +0000 2015
p220
sVfilter_level
p221
g122
sVin_reply_to_status_id_str
p222
NsVplace
p223
(dp224
Vfull_name
p225
VZurich, Switzerland
p226
sg75
Vhttps://api.twitter.com/1.1/geo/id/3acb748d0f1e9265.json
p227
sVcountry
p228
VSchweiz
p229
sVplace_type
p230
Vcity
p231
sVbounding_box
p232
(dp233
g176
VPolygon
p234
sg139
(lp235
(lp236
(lp237
F8.448081
aF47.320183
aa(lp238
F8.448081
aF47.434721
aa(lp239
F8.625442
aF47.434721
aa(lp240
F8.625442
aF47.320183
aaassVcountry_code
p241
VCH
p242
sVattributes
p243
(dp244
sg33
V3acb748d0f1e9265
p245
sg66
VZurich
p246
ssVextended_entities
p247
(dp248
g146
(lp249
(dp250
g149
Vhttp://twitter.com/dangleterre/status/618436036675436544/photo/1
p251
sg151
Vpic.twitter.com/3DUi5fERqR
p252
sg75
Vhttp://t.co/3DUi5fERqR
p253
sg154
Vhttps://pbs.twimg.com/media/CJUgTD8UkAAdsua.jpg
p254
sg42
V618436035681226752
p255
sg157
(dp256
g159
(dp257
g161
I226
sg162
Vfit
p258
sg164
I340
ssg165
(dp259
g161
I336
sg162
Vfit
p260
sg164
I505
ssg168
(dp261
g161
I336
sg162
Vfit
p262
sg164
I505
ssg171
(dp263
g161
I150
sg162
Vcrop
p264
sg164
I150
sssg174
(lp265
I118
aI140
asg176
Vphoto
p266
sg33
I618436035681226752
sg178
Vhttp://pbs.twimg.com/media/CJUgTD8UkAAdsua.jpg
p267
sasssS'coordinates'
p268
NsS'timestamp_ms'
p269
g141
sS'entities'
p270
g143
sS'in_reply_to_status_id_str'
p271
NsS'in_reply_to_screen_name'
p272
Nsg91
g212
sS'extended_entities'
p273
g248
sS'retweeted'
p274
I00
sS'place'
p275
g0
(ctweepy.models
Place
p276
g2
Ntp277
Rp278
(dp279
S'full_name'
p280
g226
sg109
g227
sS'country'
p281
g229
sS'place_type'
p282
g231
sS'bounding_box'
p283
g0
(ctweepy.models
BoundingBox
p284
g2
Ntp285
Rp286
(dp287
S'type'
p288
g234
sg268
g235
sbsS'country_code'
p289
g242
sS'attributes'
p290
g244
sg24
g245
sg103
g246
sbsS'retweet_count'
p291
I0
sg110
g111
(S'\x07\xdf\x07\x07\x0f\x067\x00\x00\x00'
p292
tp293
Rp294
sS'in_reply_to_user_id'
p295
Nsb.