ccopy_reg
_reconstructor
p0
(ctweepy.models
Status
p1
c__builtin__
object
p2
Ntp3
Rp4
(dp5
S'favorited'
p6
I00
sS'contributors'
p7
NsS'truncated'
p8
I00
sS'text'
p9
VShame on @aajtak  for still sticking on d same news by blaming BJP for @AmitShahOffice 25 years speech #ShameOnTOI #ShameOnPaidMedia
p10
sS'source_url'
p11
Vhttp://twitter.com
p12
sS'possibly_sensitive'
p13
I00
sS'in_reply_to_status_id'
p14
NsS'user'
p15
g0
(ctweepy.models
User
p16
g2
Ntp17
Rp18
(dp19
S'follow_request_sent'
p20
NsS'profile_use_background_image'
p21
I00
sS'profile_sidebar_fill_color'
p22
V000000
p23
sS'id'
p24
I1907850002
sS'verified'
p25
I00
sS'profile_image_url_https'
p26
Vhttps://pbs.twimg.com/profile_images/615278029003079680/7YrhDyfi_normal.jpg
p27
sS'_json'
p28
(dp29
Vfollow_request_sent
p30
NsVprofile_use_background_image
p31
I00
sVdefault_profile_image
p32
I00
sVid
p33
I1907850002
sVverified
p34
I00
sVprofile_image_url_https
p35
g27
sVprofile_sidebar_fill_color
p36
g23
sVprofile_text_color
p37
V000000
p38
sVfollowers_count
p39
I91
sVprofile_sidebar_border_color
p40
V000000
p41
sVid_str
p42
V1907850002
p43
sVprofile_background_color
p44
V000000
p45
sVlisted_count
p46
I4
sVprofile_background_image_url_https
p47
Vhttps://abs.twimg.com/images/themes/theme1/bg.png
p48
sVutc_offset
p49
I7200
sVstatuses_count
p50
I747
sVdescription
p51
VA hindu.Patriot.Blunt in putting across my words.Like it or not u can't stop me.
p52
sVfriends_count
p53
I103
sVlocation
p54
VBasel City, Switzerland
p55
sVprofile_link_color
p56
V94D487
p57
sVprofile_image_url
p58
Vhttp://pbs.twimg.com/profile_images/615278029003079680/7YrhDyfi_normal.jpg
p59
sVfollowing
p60
NsVgeo_enabled
p61
I01
sVprofile_banner_url
p62
Vhttps://pbs.twimg.com/profile_banners/1907850002/1435836489
p63
sVprofile_background_image_url
p64
Vhttp://abs.twimg.com/images/themes/theme1/bg.png
p65
sVname
p66
VTruth Prevails
p67
sVlang
p68
Ven
p69
sVprofile_background_tile
p70
I00
sVfavourites_count
p71
I41
sVscreen_name
p72
Vgolive09
p73
sVnotifications
p74
NsVurl
p75
Vhttp://twiends.com/golive09
p76
sVcreated_at
p77
VThu Sep 26 13:06:29 +0000 2013
p78
sVcontributors_enabled
p79
I00
sVtime_zone
p80
VBelgrade
p81
sVprotected
p82
I00
sVdefault_profile
p83
I00
sVis_translator
p84
I00
ssS'contributors_enabled'
p85
I00
sS'profile_text_color'
p86
g38
sS'followers_count'
p87
I91
sS'profile_sidebar_border_color'
p88
g41
sS'location'
p89
g55
sS'default_profile_image'
p90
I00
sS'id_str'
p91
g43
sS'utc_offset'
p92
I7200
sS'statuses_count'
p93
I747
sS'description'
p94
g52
sS'friends_count'
p95
I103
sS'profile_link_color'
p96
g57
sS'profile_image_url'
p97
g59
sS'notifications'
p98
NsS'geo_enabled'
p99
I01
sS'profile_background_color'
p100
g45
sS'profile_banner_url'
p101
g63
sS'profile_background_image_url'
p102
g65
sS'name'
p103
g67
sS'lang'
p104
g69
sS'following'
p105
I00
sS'profile_background_tile'
p106
I00
sS'favourites_count'
p107
I41
sS'screen_name'
p108
g73
sS'url'
p109
g76
sS'created_at'
p110
cdatetime
datetime
p111
(S'\x07\xdd\t\x1a\r\x06\x1d\x00\x00\x00'
p112
tp113
Rp114
sS'profile_background_image_url_https'
p115
g48
sS'time_zone'
p116
g81
sS'protected'
p117
I00
sS'default_profile'
p118
I00
sS'is_translator'
p119
I00
sS'listed_count'
p120
I4
sbsS'filter_level'
p121
Vlow
p122
sS'geo'
p123
Nsg24
I620986769660583940
sS'favorite_count'
p124
I0
sS'source'
p125
VTwitter Web Client
p126
sg104
Ven
p127
sS'author'
p128
g18
sS'in_reply_to_user_id_str'
p129
Nsg28
(dp130
Vcontributors
p131
NsVtruncated
p132
I00
sVtext
p133
g10
sVin_reply_to_status_id
p134
Nsg33
I620986769660583940
sVfavorite_count
p135
I0
sVsource
p136
V<a href="http://twitter.com" rel="nofollow">Twitter Web Client</a>
p137
sVretweeted
p138
I00
sVcoordinates
p139
NsVtimestamp_ms
p140
V1436889757920
p141
sVentities
p142
(dp143
Vuser_mentions
p144
(lp145
(dp146
g33
I42606652
sVindices
p147
(lp148
I9
aI16
asg42
V42606652
p149
sg72
Vaajtak
p150
sg66
V\u0906\u091c \u0924\u0915
p151
sa(dp152
g33
I1447949844
sg147
(lp153
I71
aI86
asg42
V1447949844
p154
sg72
VAmitShahOffice
p155
sg66
VAmit Shah
p156
sasVsymbols
p157
(lp158
sVtrends
p159
(lp160
sVhashtags
p161
(lp162
(dp163
g147
(lp164
I103
aI114
asg133
VShameOnTOI
p165
sa(dp166
g147
(lp167
I115
aI132
asg133
VShameOnPaidMedia
p168
sasVurls
p169
(lp170
ssVin_reply_to_screen_name
p171
Nsg42
V620986769660583940
p172
sVretweet_count
p173
I0
sVin_reply_to_user_id
p174
NsVfavorited
p175
I00
sVuser
p176
g29
sVgeo
p177
NsVin_reply_to_user_id_str
p178
NsVpossibly_sensitive
p179
I00
sg68
g127
sg77
VTue Jul 14 16:02:37 +0000 2015
p180
sVfilter_level
p181
g122
sVin_reply_to_status_id_str
p182
NsVplace
p183
(dp184
Vfull_name
p185
VZurich, Switzerland
p186
sg75
Vhttps://api.twitter.com/1.1/geo/id/3acb748d0f1e9265.json
p187
sVcountry
p188
VSchweiz
p189
sVplace_type
p190
Vcity
p191
sVbounding_box
p192
(dp193
Vtype
p194
VPolygon
p195
sg139
(lp196
(lp197
(lp198
F8.448081
aF47.320183
aa(lp199
F8.448081
aF47.434721
aa(lp200
F8.625442
aF47.434721
aa(lp201
F8.625442
aF47.320183
aaassVcountry_code
p202
VCH
p203
sVattributes
p204
(dp205
sg33
V3acb748d0f1e9265
p206
sg66
VZurich
p207
sssS'coordinates'
p208
NsS'timestamp_ms'
p209
g141
sS'entities'
p210
g143
sS'in_reply_to_status_id_str'
p211
NsS'in_reply_to_screen_name'
p212
Nsg91
g172
sS'retweeted'
p213
I00
sS'place'
p214
g0
(ctweepy.models
Place
p215
g2
Ntp216
Rp217
(dp218
S'full_name'
p219
g186
sg109
g187
sS'country'
p220
g189
sS'place_type'
p221
g191
sS'bounding_box'
p222
g0
(ctweepy.models
BoundingBox
p223
g2
Ntp224
Rp225
(dp226
S'type'
p227
g195
sg208
g196
sbsS'country_code'
p228
g203
sS'attributes'
p229
g205
sg24
g206
sg103
g207
sbsS'retweet_count'
p230
I0
sg110
g111
(S'\x07\xdf\x07\x0e\x10\x02%\x00\x00\x00'
p231
tp232
Rp233
sS'in_reply_to_user_id'
p234
Nsb.