ccopy_reg
_reconstructor
p0
(ctweepy.models
Status
p1
c__builtin__
object
p2
Ntp3
Rp4
(dp5
S'favorited'
p6
I00
sS'contributors'
p7
NsS'truncated'
p8
I00
sS'text'
p9
V"How I did on Twitter this week:"\u000a"Wow. Wem sagst du das?"
p10
sS'source_url'
p11
Vhttp://twitter.com
p12
sS'possibly_sensitive'
p13
I00
sS'in_reply_to_status_id'
p14
NsS'user'
p15
g0
(ctweepy.models
User
p16
g2
Ntp17
Rp18
(dp19
S'follow_request_sent'
p20
NsS'profile_use_background_image'
p21
I00
sS'profile_sidebar_fill_color'
p22
VC0DFEC
p23
sS'id'
p24
I179610168
sS'verified'
p25
I00
sS'profile_image_url_https'
p26
Vhttps://pbs.twimg.com/profile_images/2962745477/fdc427f5bcac885b88d9cf04e62e62be_normal.jpeg
p27
sS'_json'
p28
(dp29
Vfollow_request_sent
p30
NsVprofile_use_background_image
p31
I00
sVdefault_profile_image
p32
I00
sVid
p33
I179610168
sVverified
p34
I00
sVprofile_image_url_https
p35
g27
sVprofile_sidebar_fill_color
p36
g23
sVprofile_text_color
p37
V333333
p38
sVfollowers_count
p39
I4002
sVprofile_sidebar_border_color
p40
VFFFFFF
p41
sVid_str
p42
V179610168
p43
sVprofile_background_color
p44
V022330
p45
sVlisted_count
p46
I276
sVprofile_background_image_url_https
p47
Vhttps://pbs.twimg.com/profile_background_images/662602156/00llupzsafyedorin4m4.png
p48
sVutc_offset
p49
I7200
sVstatuses_count
p50
I22549
sVdescription
p51
VKMU-Web-Trainer. Familyteam mit @Jeduta + 2 Kids in 9er-WG. Bass. Whisky. CH/UK/SF. Founder Bassic (sold 2013), @visitrapperswil, @blechschilder
p52
sVfriends_count
p53
I761
sVlocation
p54
VRapperswil, Switzerland
p55
sVprofile_link_color
p56
V0084B4
p57
sVprofile_image_url
p58
Vhttp://pbs.twimg.com/profile_images/2962745477/fdc427f5bcac885b88d9cf04e62e62be_normal.jpeg
p59
sVfollowing
p60
NsVgeo_enabled
p61
I01
sVprofile_banner_url
p62
Vhttps://pbs.twimg.com/profile_banners/179610168/1410044888
p63
sVprofile_background_image_url
p64
Vhttp://pbs.twimg.com/profile_background_images/662602156/00llupzsafyedorin4m4.png
p65
sVname
p66
VSam Steiner
p67
sVlang
p68
Ven
p69
sVprofile_background_tile
p70
I00
sVfavourites_count
p71
I9186
sVscreen_name
p72
Vsamsteiner
p73
sVnotifications
p74
NsVurl
p75
Vhttp://alike.ch
p76
sVcreated_at
p77
VTue Aug 17 18:21:02 +0000 2010
p78
sVcontributors_enabled
p79
I00
sVtime_zone
p80
VBern
p81
sVprotected
p82
I00
sVdefault_profile
p83
I00
sVis_translator
p84
I00
ssS'contributors_enabled'
p85
I00
sS'profile_text_color'
p86
g38
sS'followers_count'
p87
I4002
sS'profile_sidebar_border_color'
p88
g41
sS'location'
p89
g55
sS'default_profile_image'
p90
I00
sS'id_str'
p91
g43
sS'utc_offset'
p92
I7200
sS'statuses_count'
p93
I22549
sS'description'
p94
g52
sS'friends_count'
p95
I761
sS'profile_link_color'
p96
g57
sS'profile_image_url'
p97
g59
sS'notifications'
p98
NsS'geo_enabled'
p99
I01
sS'profile_background_color'
p100
g45
sS'profile_banner_url'
p101
g63
sS'profile_background_image_url'
p102
g65
sS'name'
p103
g67
sS'lang'
p104
g69
sS'following'
p105
I00
sS'profile_background_tile'
p106
I00
sS'favourites_count'
p107
I9186
sS'screen_name'
p108
g73
sS'url'
p109
g76
sS'created_at'
p110
cdatetime
datetime
p111
(S'\x07\xda\x08\x11\x12\x15\x02\x00\x00\x00'
p112
tp113
Rp114
sS'profile_background_image_url_https'
p115
g48
sS'time_zone'
p116
g81
sS'protected'
p117
I00
sS'default_profile'
p118
I00
sS'is_translator'
p119
I00
sS'listed_count'
p120
I276
sbsS'filter_level'
p121
Vlow
p122
sS'geo'
p123
Nsg24
I619107438596358144
sS'favorite_count'
p124
I0
sS'source'
p125
VTwitter Web Client
p126
sg104
Ven
p127
sS'author'
p128
g18
sS'in_reply_to_user_id_str'
p129
Nsg28
(dp130
Vcontributors
p131
NsVtruncated
p132
I00
sVtext
p133
V"How I did on Twitter this week:"\u000a"Wow. Wem sagst du das?"
p134
sVin_reply_to_status_id
p135
Nsg33
I619107438596358144
sVfavorite_count
p136
I0
sVsource
p137
V<a href="http://twitter.com" rel="nofollow">Twitter Web Client</a>
p138
sVretweeted
p139
I00
sVcoordinates
p140
NsVtimestamp_ms
p141
V1436441690478
p142
sVentities
p143
(dp144
Vuser_mentions
p145
(lp146
sVsymbols
p147
(lp148
sVtrends
p149
(lp150
sVhashtags
p151
(lp152
sVurls
p153
(lp154
ssVin_reply_to_screen_name
p155
Nsg42
V619107438596358144
p156
sVretweet_count
p157
I0
sVin_reply_to_user_id
p158
NsVfavorited
p159
I00
sVuser
p160
g29
sVgeo
p161
NsVin_reply_to_user_id_str
p162
NsVpossibly_sensitive
p163
I00
sg68
g127
sg77
VThu Jul 09 11:34:50 +0000 2015
p164
sVfilter_level
p165
g122
sVin_reply_to_status_id_str
p166
NsVplace
p167
(dp168
Vfull_name
p169
VZurich, Switzerland
p170
sg75
Vhttps://api.twitter.com/1.1/geo/id/3acb748d0f1e9265.json
p171
sVcountry
p172
VSchweiz
p173
sVplace_type
p174
Vcity
p175
sVbounding_box
p176
(dp177
Vtype
p178
VPolygon
p179
sg140
(lp180
(lp181
(lp182
F8.448081
aF47.320183
aa(lp183
F8.448081
aF47.434721
aa(lp184
F8.625442
aF47.434721
aa(lp185
F8.625442
aF47.320183
aaassVcountry_code
p186
VCH
p187
sVattributes
p188
(dp189
sg33
V3acb748d0f1e9265
p190
sg66
VZurich
p191
sssS'coordinates'
p192
NsS'timestamp_ms'
p193
g142
sS'entities'
p194
g144
sS'in_reply_to_status_id_str'
p195
NsS'in_reply_to_screen_name'
p196
Nsg91
g156
sS'retweeted'
p197
I00
sS'place'
p198
g0
(ctweepy.models
Place
p199
g2
Ntp200
Rp201
(dp202
S'full_name'
p203
g170
sg109
g171
sS'country'
p204
g173
sS'place_type'
p205
g175
sS'bounding_box'
p206
g0
(ctweepy.models
BoundingBox
p207
g2
Ntp208
Rp209
(dp210
S'type'
p211
g179
sg192
g180
sbsS'country_code'
p212
g187
sS'attributes'
p213
g189
sg24
g190
sg103
g191
sbsS'retweet_count'
p214
I0
sg110
g111
(S'\x07\xdf\x07\t\x0b"2\x00\x00\x00'
p215
tp216
Rp217
sS'in_reply_to_user_id'
p218
Nsb.