ccopy_reg
_reconstructor
p0
(ctweepy.models
Status
p1
c__builtin__
object
p2
Ntp3
Rp4
(dp5
S'favorited'
p6
I00
sS'contributors'
p7
NsS'truncated'
p8
I00
sS'text'
p9
VCOME BACK TO EUROPE!! :) @HeffronDrive @dbeltwrites http://t.co/3h6WNnojlp
p10
sS'source_url'
p11
Vhttp://twitter.com
p12
sS'possibly_sensitive'
p13
I00
sS'in_reply_to_status_id'
p14
NsS'user'
p15
g0
(ctweepy.models
User
p16
g2
Ntp17
Rp18
(dp19
S'follow_request_sent'
p20
NsS'profile_use_background_image'
p21
I01
sS'profile_sidebar_fill_color'
p22
V95E8EC
p23
sS'id'
p24
I349959192
sS'verified'
p25
I00
sS'profile_image_url_https'
p26
Vhttps://pbs.twimg.com/profile_images/607339064333721600/7-rPW5PN_normal.jpg
p27
sS'_json'
p28
(dp29
Vfollow_request_sent
p30
NsVprofile_use_background_image
p31
I01
sVdefault_profile_image
p32
I00
sVid
p33
I349959192
sVverified
p34
I00
sVprofile_image_url_https
p35
g27
sVprofile_sidebar_fill_color
p36
g23
sVprofile_text_color
p37
V3C3940
p38
sVfollowers_count
p39
I355
sVprofile_sidebar_border_color
p40
V5ED4DC
p41
sVid_str
p42
V349959192
p43
sVprofile_background_color
p44
V0099B9
p45
sVlisted_count
p46
I2
sVprofile_background_image_url_https
p47
Vhttps://abs.twimg.com/images/themes/theme4/bg.gif
p48
sVutc_offset
p49
I-18000
sVstatuses_count
p50
I4091
sVdescription
p51
V#Driver\u000a#Rusher\u000aThe most important thing is to enjoy your life - to be happy - it's all that matters.
p52
sVfriends_count
p53
I478
sVlocation
p54
VBern, Schweiz
p55
sVprofile_link_color
p56
V0099B9
p57
sVprofile_image_url
p58
Vhttp://pbs.twimg.com/profile_images/607339064333721600/7-rPW5PN_normal.jpg
p59
sVfollowing
p60
NsVgeo_enabled
p61
I01
sVprofile_banner_url
p62
Vhttps://pbs.twimg.com/profile_banners/349959192/1433636337
p63
sVprofile_background_image_url
p64
Vhttp://abs.twimg.com/images/themes/theme4/bg.gif
p65
sVname
p66
VSara
p67
sVlang
p68
Vde
p69
sVprofile_background_tile
p70
I00
sVfavourites_count
p71
I571
sVscreen_name
p72
V_SwissSara23
p73
sVnotifications
p74
NsVurl
p75
NsVcreated_at
p76
VSun Aug 07 00:15:06 +0000 2011
p77
sVcontributors_enabled
p78
I00
sVtime_zone
p79
VCentral Time (US & Canada)
p80
sVprotected
p81
I00
sVdefault_profile
p82
I00
sVis_translator
p83
I00
ssS'contributors_enabled'
p84
I00
sS'profile_text_color'
p85
g38
sS'followers_count'
p86
I355
sS'profile_sidebar_border_color'
p87
g41
sS'location'
p88
g55
sS'default_profile_image'
p89
I00
sS'id_str'
p90
g43
sS'utc_offset'
p91
I-18000
sS'statuses_count'
p92
I4091
sS'description'
p93
V#Driver\u000a#Rusher\u000aThe most important thing is to enjoy your life - to be happy - it's all that matters.
p94
sS'friends_count'
p95
I478
sS'profile_link_color'
p96
g57
sS'profile_image_url'
p97
g59
sS'notifications'
p98
NsS'geo_enabled'
p99
I01
sS'profile_background_color'
p100
g45
sS'profile_banner_url'
p101
g63
sS'profile_background_image_url'
p102
g65
sS'name'
p103
g67
sS'lang'
p104
g69
sS'following'
p105
I00
sS'profile_background_tile'
p106
I00
sS'favourites_count'
p107
I571
sS'screen_name'
p108
g73
sS'url'
p109
NsS'created_at'
p110
cdatetime
datetime
p111
(S'\x07\xdb\x08\x07\x00\x0f\x06\x00\x00\x00'
p112
tp113
Rp114
sS'profile_background_image_url_https'
p115
g48
sS'time_zone'
p116
g80
sS'protected'
p117
I00
sS'default_profile'
p118
I00
sS'is_translator'
p119
I00
sS'listed_count'
p120
I2
sbsS'filter_level'
p121
Vlow
p122
sS'geo'
p123
Nsg24
I620969613023707136
sS'favorite_count'
p124
I0
sS'source'
p125
VTwitter Web Client
p126
sg104
Ven
p127
sS'author'
p128
g18
sS'in_reply_to_user_id_str'
p129
Nsg28
(dp130
Vcontributors
p131
NsVtruncated
p132
I00
sVtext
p133
g10
sVin_reply_to_status_id
p134
Nsg33
I620969613023707136
sVfavorite_count
p135
I0
sVsource
p136
V<a href="http://twitter.com" rel="nofollow">Twitter Web Client</a>
p137
sVretweeted
p138
I00
sVcoordinates
p139
NsVtimestamp_ms
p140
V1436885667459
p141
sVentities
p142
(dp143
Vsymbols
p144
(lp145
sVmedia
p146
(lp147
(dp148
Vexpanded_url
p149
Vhttp://twitter.com/_SwissSara23/status/620969613023707136/photo/1
p150
sVdisplay_url
p151
Vpic.twitter.com/3h6WNnojlp
p152
sg75
Vhttp://t.co/3h6WNnojlp
p153
sVmedia_url_https
p154
Vhttps://pbs.twimg.com/media/CJ4gknmVEAAgWEB.jpg
p155
sg42
V620969612100833280
p156
sVsizes
p157
(dp158
Vsmall
p159
(dp160
Vh
p161
I340
sVresize
p162
Vfit
p163
sVw
p164
I340
ssVlarge
p165
(dp166
g161
I600
sg162
Vfit
p167
sg164
I600
ssVmedium
p168
(dp169
g161
I600
sg162
Vfit
p170
sg164
I600
ssVthumb
p171
(dp172
g161
I150
sg162
Vcrop
p173
sg164
I150
sssVindices
p174
(lp175
I52
aI74
asVtype
p176
Vphoto
p177
sg33
I620969612100833280
sVmedia_url
p178
Vhttp://pbs.twimg.com/media/CJ4gknmVEAAgWEB.jpg
p179
sasVhashtags
p180
(lp181
sVuser_mentions
p182
(lp183
(dp184
g33
I29898542
sg174
(lp185
I25
aI38
asg42
V29898542
p186
sg72
VHeffronDrive
p187
sg66
VKendall Schmidt
p188
sa(dp189
g33
I76730633
sg174
(lp190
I39
aI51
asg42
V76730633
p191
sg72
Vdbeltwrites
p192
sg66
VDustin Belt
p193
sasVtrends
p194
(lp195
sVurls
p196
(lp197
ssVin_reply_to_screen_name
p198
Nsg42
V620969613023707136
p199
sVretweet_count
p200
I0
sVin_reply_to_user_id
p201
NsVfavorited
p202
I00
sVuser
p203
g29
sVgeo
p204
NsVin_reply_to_user_id_str
p205
NsVpossibly_sensitive
p206
I00
sg68
g127
sg76
VTue Jul 14 14:54:27 +0000 2015
p207
sVfilter_level
p208
g122
sVin_reply_to_status_id_str
p209
NsVplace
p210
(dp211
Vfull_name
p212
VBern, Schweiz
p213
sg75
Vhttps://api.twitter.com/1.1/geo/id/5868d0e0749c9c47.json
p214
sVcountry
p215
VSchweiz
p216
sVplace_type
p217
Vadmin
p218
sVbounding_box
p219
(dp220
g176
VPolygon
p221
sg139
(lp222
(lp223
(lp224
F6.861601
aF46.326441
aa(lp225
F6.861601
aF47.34528
aa(lp226
F8.455051
aF47.34528
aa(lp227
F8.455051
aF46.326441
aaassVcountry_code
p228
VCH
p229
sVattributes
p230
(dp231
sg33
V5868d0e0749c9c47
p232
sg66
VBern
p233
ssVextended_entities
p234
(dp235
g146
(lp236
(dp237
g149
Vhttp://twitter.com/_SwissSara23/status/620969613023707136/photo/1
p238
sg151
Vpic.twitter.com/3h6WNnojlp
p239
sg75
Vhttp://t.co/3h6WNnojlp
p240
sg154
Vhttps://pbs.twimg.com/media/CJ4gknmVEAAgWEB.jpg
p241
sg42
V620969612100833280
p242
sg157
(dp243
g159
(dp244
g161
I340
sg162
Vfit
p245
sg164
I340
ssg165
(dp246
g161
I600
sg162
Vfit
p247
sg164
I600
ssg168
(dp248
g161
I600
sg162
Vfit
p249
sg164
I600
ssg171
(dp250
g161
I150
sg162
Vcrop
p251
sg164
I150
sssg174
(lp252
I52
aI74
asg176
Vphoto
p253
sg33
I620969612100833280
sg178
Vhttp://pbs.twimg.com/media/CJ4gknmVEAAgWEB.jpg
p254
sasssS'coordinates'
p255
NsS'timestamp_ms'
p256
g141
sS'entities'
p257
g143
sS'in_reply_to_status_id_str'
p258
NsS'in_reply_to_screen_name'
p259
Nsg90
g199
sS'extended_entities'
p260
g235
sS'retweeted'
p261
I00
sS'place'
p262
g0
(ctweepy.models
Place
p263
g2
Ntp264
Rp265
(dp266
S'full_name'
p267
g213
sg109
g214
sS'country'
p268
g216
sS'place_type'
p269
g218
sS'bounding_box'
p270
g0
(ctweepy.models
BoundingBox
p271
g2
Ntp272
Rp273
(dp274
S'type'
p275
g221
sg255
g222
sbsS'country_code'
p276
g229
sS'attributes'
p277
g231
sg24
g232
sg103
g233
sbsS'retweet_count'
p278
I0
sg110
g111
(S'\x07\xdf\x07\x0e\x0e6\x1b\x00\x00\x00'
p279
tp280
Rp281
sS'in_reply_to_user_id'
p282
Nsb.