ccopy_reg
_reconstructor
p0
(ctweepy.models
Status
p1
c__builtin__
object
p2
Ntp3
Rp4
(dp5
S'favorited'
p6
I00
sS'contributors'
p7
NsS'truncated'
p8
I00
sS'text'
p9
VLadies and gentlemen.... Zurich Switzerland. #zurich #swiss #switzerland #vacation #holiday\u2026 https://t.co/t8fRjU09Ua
p10
sS'source_url'
p11
Vhttp://instagram.com
p12
sS'possibly_sensitive'
p13
I00
sS'in_reply_to_status_id'
p14
NsS'user'
p15
g0
(ctweepy.models
User
p16
g2
Ntp17
Rp18
(dp19
S'follow_request_sent'
p20
NsS'profile_use_background_image'
p21
I01
sS'profile_sidebar_fill_color'
p22
VDDEEF6
p23
sS'id'
p24
I3080820158
sS'verified'
p25
I00
sS'profile_image_url_https'
p26
Vhttps://pbs.twimg.com/profile_images/576784709126123520/vPcOyq7S_normal.jpeg
p27
sS'_json'
p28
(dp29
Vfollow_request_sent
p30
NsVprofile_use_background_image
p31
I01
sVdefault_profile_image
p32
I00
sVid
p33
I3080820158
sVverified
p34
I00
sVprofile_image_url_https
p35
g27
sVprofile_sidebar_fill_color
p36
g23
sVprofile_text_color
p37
V333333
p38
sVfollowers_count
p39
I40
sVprofile_sidebar_border_color
p40
VC0DEED
p41
sVid_str
p42
V3080820158
p43
sVprofile_background_color
p44
VC0DEED
p45
sVlisted_count
p46
I0
sVprofile_background_image_url_https
p47
Vhttps://abs.twimg.com/images/themes/theme1/bg.png
p48
sVutc_offset
p49
NsVstatuses_count
p50
I71
sVdescription
p51
NsVfriends_count
p52
I47
sVlocation
p53
V
p54
sVprofile_link_color
p55
V0084B4
p56
sVprofile_image_url
p57
Vhttp://pbs.twimg.com/profile_images/576784709126123520/vPcOyq7S_normal.jpeg
p58
sVfollowing
p59
NsVgeo_enabled
p60
I01
sVprofile_background_image_url
p61
Vhttp://abs.twimg.com/images/themes/theme1/bg.png
p62
sVname
p63
VAlfie Parker Jr
p64
sVlang
p65
Ven
p66
sVprofile_background_tile
p67
I00
sVfavourites_count
p68
I2
sVscreen_name
p69
Valfiepjr
p70
sVnotifications
p71
NsVurl
p72
Vhttp://alfieparkerjr.com
p73
sVcreated_at
p74
VSat Mar 14 12:50:48 +0000 2015
p75
sVcontributors_enabled
p76
I00
sVtime_zone
p77
NsVprotected
p78
I00
sVdefault_profile
p79
I01
sVis_translator
p80
I00
ssS'contributors_enabled'
p81
I00
sS'profile_text_color'
p82
g38
sS'followers_count'
p83
I40
sS'profile_sidebar_border_color'
p84
g41
sS'location'
p85
g54
sS'default_profile_image'
p86
I00
sS'id_str'
p87
g43
sS'utc_offset'
p88
NsS'statuses_count'
p89
I71
sS'description'
p90
NsS'friends_count'
p91
I47
sS'profile_link_color'
p92
g56
sS'profile_image_url'
p93
g58
sS'notifications'
p94
NsS'geo_enabled'
p95
I01
sS'profile_background_color'
p96
g45
sS'profile_background_image_url'
p97
g62
sS'name'
p98
g64
sS'lang'
p99
g66
sS'following'
p100
I00
sS'profile_background_tile'
p101
I00
sS'favourites_count'
p102
I2
sS'screen_name'
p103
g70
sS'url'
p104
g73
sS'created_at'
p105
cdatetime
datetime
p106
(S'\x07\xdf\x03\x0e\x0c20\x00\x00\x00'
p107
tp108
Rp109
sS'profile_background_image_url_https'
p110
g48
sS'time_zone'
p111
NsS'protected'
p112
I00
sS'default_profile'
p113
I01
sS'is_translator'
p114
I00
sS'listed_count'
p115
I0
sbsS'filter_level'
p116
Vlow
p117
sS'geo'
p118
(dp119
Vtype
p120
VPoint
p121
sVcoordinates
p122
(lp123
F47.378266
aF8.538695
assg24
I620659958728785921
sS'favorite_count'
p124
I0
sS'source'
p125
VInstagram
p126
sg99
Vde
p127
sS'author'
p128
g18
sS'in_reply_to_user_id_str'
p129
Nsg28
(dp130
Vcontributors
p131
NsVtruncated
p132
I00
sVtext
p133
g10
sVin_reply_to_status_id
p134
Nsg33
I620659958728785921
sVfavorite_count
p135
I0
sVsource
p136
V<a href="http://instagram.com" rel="nofollow">Instagram</a>
p137
sVretweeted
p138
I00
sg122
(dp139
g120
VPoint
p140
sg122
(lp141
F8.538695
aF47.378266
assVtimestamp_ms
p142
V1436811840122
p143
sVentities
p144
(dp145
Vuser_mentions
p146
(lp147
sVsymbols
p148
(lp149
sVtrends
p150
(lp151
sVhashtags
p152
(lp153
(dp154
Vindices
p155
(lp156
I45
aI52
asg133
Vzurich
p157
sa(dp158
g155
(lp159
I53
aI59
asg133
Vswiss
p160
sa(dp161
g155
(lp162
I60
aI72
asg133
Vswitzerland
p163
sa(dp164
g155
(lp165
I73
aI82
asg133
Vvacation
p166
sa(dp167
g155
(lp168
I83
aI91
asg133
Vholiday
p169
sasVurls
p170
(lp171
(dp172
g72
Vhttps://t.co/t8fRjU09Ua
p173
sg155
(lp174
I93
aI116
asVexpanded_url
p175
Vhttps://instagram.com/p/5FhVdjpUSz/
p176
sVdisplay_url
p177
Vinstagram.com/p/5FhVdjpUSz/
p178
sassVin_reply_to_screen_name
p179
Nsg42
V620659958728785921
p180
sVretweet_count
p181
I0
sVin_reply_to_user_id
p182
NsVfavorited
p183
I00
sVuser
p184
g29
sVgeo
p185
g119
sVin_reply_to_user_id_str
p186
NsVpossibly_sensitive
p187
I00
sg65
g127
sg74
VMon Jul 13 18:24:00 +0000 2015
p188
sVfilter_level
p189
g117
sVin_reply_to_status_id_str
p190
NsVplace
p191
(dp192
Vfull_name
p193
VZurich, Switzerland
p194
sg72
Vhttps://api.twitter.com/1.1/geo/id/3acb748d0f1e9265.json
p195
sVcountry
p196
VSchweiz
p197
sVplace_type
p198
Vcity
p199
sVbounding_box
p200
(dp201
g120
VPolygon
p202
sg122
(lp203
(lp204
(lp205
F8.448081
aF47.320183
aa(lp206
F8.448081
aF47.434721
aa(lp207
F8.625442
aF47.434721
aa(lp208
F8.625442
aF47.320183
aaassVcountry_code
p209
VCH
p210
sVattributes
p211
(dp212
sg33
V3acb748d0f1e9265
p213
sg63
VZurich
p214
sssS'coordinates'
p215
g139
sS'timestamp_ms'
p216
g143
sS'entities'
p217
g145
sS'in_reply_to_status_id_str'
p218
NsS'in_reply_to_screen_name'
p219
Nsg87
g180
sS'retweeted'
p220
I00
sS'place'
p221
g0
(ctweepy.models
Place
p222
g2
Ntp223
Rp224
(dp225
S'full_name'
p226
g194
sg104
g195
sS'country'
p227
g197
sS'place_type'
p228
g199
sS'bounding_box'
p229
g0
(ctweepy.models
BoundingBox
p230
g2
Ntp231
Rp232
(dp233
S'type'
p234
g202
sg215
g203
sbsS'country_code'
p235
g210
sS'attributes'
p236
g212
sg24
g213
sg98
g214
sbsS'retweet_count'
p237
I0
sg105
g106
(S'\x07\xdf\x07\r\x12\x18\x00\x00\x00\x00'
p238
tp239
Rp240
sS'in_reply_to_user_id'
p241
Nsb.