ccopy_reg
_reconstructor
p0
(ctweepy.models
Status
p1
c__builtin__
object
p2
Ntp3
Rp4
(dp5
S'favorited'
p6
I00
sS'contributors'
p7
NsS'truncated'
p8
I00
sS'text'
p9
V#art #tattoo #abstract #drawing #illustrator #vector #watercolors inkandartawards #tattooworld\u2026 https://t.co/39GsbIQvAR
p10
sS'source_url'
p11
Vhttp://instagram.com
p12
sS'possibly_sensitive'
p13
I00
sS'in_reply_to_status_id'
p14
NsS'user'
p15
g0
(ctweepy.models
User
p16
g2
Ntp17
Rp18
(dp19
S'follow_request_sent'
p20
NsS'profile_use_background_image'
p21
I00
sS'profile_sidebar_fill_color'
p22
V000000
p23
sS'id'
p24
I2931922283
sS'verified'
p25
I00
sS'profile_image_url_https'
p26
Vhttps://pbs.twimg.com/profile_images/545966052635455488/t3k-CACq_normal.jpeg
p27
sS'_json'
p28
(dp29
Vfollow_request_sent
p30
NsVprofile_use_background_image
p31
I00
sVdefault_profile_image
p32
I00
sVid
p33
I2931922283
sVverified
p34
I00
sVprofile_image_url_https
p35
g27
sVprofile_sidebar_fill_color
p36
g23
sVprofile_text_color
p37
V000000
p38
sVfollowers_count
p39
I49
sVprofile_sidebar_border_color
p40
V000000
p41
sVid_str
p42
V2931922283
p43
sVprofile_background_color
p44
V000000
p45
sVlisted_count
p46
I8
sVprofile_background_image_url_https
p47
Vhttps://abs.twimg.com/images/themes/theme1/bg.png
p48
sVutc_offset
p49
I10800
sVstatuses_count
p50
I404
sVdescription
p51
VKIRIAKOS BALASKAS
p52
sVfriends_count
p53
I91
sVlocation
p54
Vlikavittou 11 kolonaki
p55
sVprofile_link_color
p56
V3B94D9
p57
sVprofile_image_url
p58
Vhttp://pbs.twimg.com/profile_images/545966052635455488/t3k-CACq_normal.jpeg
p59
sVfollowing
p60
NsVgeo_enabled
p61
I01
sVprofile_banner_url
p62
Vhttps://pbs.twimg.com/profile_banners/2931922283/1419003510
p63
sVprofile_background_image_url
p64
Vhttp://abs.twimg.com/images/themes/theme1/bg.png
p65
sVname
p66
Vdarksidetattoo
p67
sVlang
p68
Ven
p69
sVprofile_background_tile
p70
I00
sVfavourites_count
p71
I2
sVscreen_name
p72
Vdarksidetatt2
p73
sVnotifications
p74
NsVurl
p75
Vhttp://www.darksidetattoosociety.com/
p76
sVcreated_at
p77
VFri Dec 19 12:14:20 +0000 2014
p78
sVcontributors_enabled
p79
I00
sVtime_zone
p80
VIstanbul
p81
sVprotected
p82
I00
sVdefault_profile
p83
I00
sVis_translator
p84
I00
ssS'contributors_enabled'
p85
I00
sS'profile_text_color'
p86
g38
sS'followers_count'
p87
I49
sS'profile_sidebar_border_color'
p88
g41
sS'location'
p89
g55
sS'default_profile_image'
p90
I00
sS'id_str'
p91
g43
sS'utc_offset'
p92
I10800
sS'statuses_count'
p93
I404
sS'description'
p94
g52
sS'friends_count'
p95
I91
sS'profile_link_color'
p96
g57
sS'profile_image_url'
p97
g59
sS'notifications'
p98
NsS'geo_enabled'
p99
I01
sS'profile_background_color'
p100
g45
sS'profile_banner_url'
p101
g63
sS'profile_background_image_url'
p102
g65
sS'name'
p103
g67
sS'lang'
p104
g69
sS'following'
p105
I00
sS'profile_background_tile'
p106
I00
sS'favourites_count'
p107
I2
sS'screen_name'
p108
g73
sS'url'
p109
g76
sS'created_at'
p110
cdatetime
datetime
p111
(S'\x07\xde\x0c\x13\x0c\x0e\x14\x00\x00\x00'
p112
tp113
Rp114
sS'profile_background_image_url_https'
p115
g48
sS'time_zone'
p116
g81
sS'protected'
p117
I00
sS'default_profile'
p118
I00
sS'is_translator'
p119
I00
sS'listed_count'
p120
I8
sbsS'filter_level'
p121
Vlow
p122
sS'geo'
p123
(dp124
Vtype
p125
VPoint
p126
sVcoordinates
p127
(lp128
F47.418282
aF8.54647
assg24
I621396732673458176
sS'favorite_count'
p129
I0
sS'source'
p130
VInstagram
p131
sg104
Vin
p132
sS'author'
p133
g18
sS'in_reply_to_user_id_str'
p134
Nsg28
(dp135
Vcontributors
p136
NsVtruncated
p137
I00
sVtext
p138
g10
sVin_reply_to_status_id
p139
Nsg33
I621396732673458176
sVfavorite_count
p140
I0
sVsource
p141
V<a href="http://instagram.com" rel="nofollow">Instagram</a>
p142
sVretweeted
p143
I00
sg127
(dp144
g125
VPoint
p145
sg127
(lp146
F8.54647
aF47.418282
assVtimestamp_ms
p147
V1436987500719
p148
sVentities
p149
(dp150
Vuser_mentions
p151
(lp152
sVsymbols
p153
(lp154
sVtrends
p155
(lp156
sVhashtags
p157
(lp158
(dp159
Vindices
p160
(lp161
I0
aI4
asg138
Vart
p162
sa(dp163
g160
(lp164
I5
aI12
asg138
Vtattoo
p165
sa(dp166
g160
(lp167
I13
aI22
asg138
Vabstract
p168
sa(dp169
g160
(lp170
I23
aI31
asg138
Vdrawing
p171
sa(dp172
g160
(lp173
I32
aI44
asg138
Villustrator
p174
sa(dp175
g160
(lp176
I45
aI52
asg138
Vvector
p177
sa(dp178
g160
(lp179
I53
aI65
asg138
Vwatercolors
p180
sa(dp181
g160
(lp182
I82
aI94
asg138
Vtattooworld
p183
sasVurls
p184
(lp185
(dp186
g75
Vhttps://t.co/39GsbIQvAR
p187
sg160
(lp188
I96
aI119
asVexpanded_url
p189
Vhttps://instagram.com/p/5KwYSpLpGs/
p190
sVdisplay_url
p191
Vinstagram.com/p/5KwYSpLpGs/
p192
sassVin_reply_to_screen_name
p193
Nsg42
V621396732673458176
p194
sVretweet_count
p195
I0
sVin_reply_to_user_id
p196
NsVfavorited
p197
I00
sVuser
p198
g29
sVgeo
p199
g124
sVin_reply_to_user_id_str
p200
NsVpossibly_sensitive
p201
I00
sg68
g132
sg77
VWed Jul 15 19:11:40 +0000 2015
p202
sVfilter_level
p203
g122
sVin_reply_to_status_id_str
p204
NsVplace
p205
(dp206
Vfull_name
p207
VZurich, Switzerland
p208
sg75
Vhttps://api.twitter.com/1.1/geo/id/3acb748d0f1e9265.json
p209
sVcountry
p210
VSchweiz
p211
sVplace_type
p212
Vcity
p213
sVbounding_box
p214
(dp215
g125
VPolygon
p216
sg127
(lp217
(lp218
(lp219
F8.448081
aF47.320183
aa(lp220
F8.448081
aF47.434721
aa(lp221
F8.625442
aF47.434721
aa(lp222
F8.625442
aF47.320183
aaassVcountry_code
p223
VCH
p224
sVattributes
p225
(dp226
sg33
V3acb748d0f1e9265
p227
sg66
VZurich
p228
sssS'coordinates'
p229
g144
sS'timestamp_ms'
p230
g148
sS'entities'
p231
g150
sS'in_reply_to_status_id_str'
p232
NsS'in_reply_to_screen_name'
p233
Nsg91
g194
sS'retweeted'
p234
I00
sS'place'
p235
g0
(ctweepy.models
Place
p236
g2
Ntp237
Rp238
(dp239
S'full_name'
p240
g208
sg109
g209
sS'country'
p241
g211
sS'place_type'
p242
g213
sS'bounding_box'
p243
g0
(ctweepy.models
BoundingBox
p244
g2
Ntp245
Rp246
(dp247
S'type'
p248
g216
sg229
g217
sbsS'country_code'
p249
g224
sS'attributes'
p250
g226
sg24
g227
sg103
g228
sbsS'retweet_count'
p251
I0
sg110
g111
(S'\x07\xdf\x07\x0f\x13\x0b(\x00\x00\x00'
p252
tp253
Rp254
sS'in_reply_to_user_id'
p255
Nsb.