ccopy_reg
_reconstructor
p0
(ctweepy.models
Status
p1
c__builtin__
object
p2
Ntp3
Rp4
(dp5
S'favorited'
p6
I00
sS'contributors'
p7
NsS'truncated'
p8
I00
sS'text'
p9
VSaturday lunch in town #hiltl #lunch #healthy #food #greatcompany @ Hiltl https://t.co/RecoIHiHBD
p10
sS'source_url'
p11
Vhttp://instagram.com
p12
sS'possibly_sensitive'
p13
I00
sS'in_reply_to_status_id'
p14
NsS'user'
p15
g0
(ctweepy.models
User
p16
g2
Ntp17
Rp18
(dp19
S'follow_request_sent'
p20
NsS'profile_use_background_image'
p21
I01
sS'profile_sidebar_fill_color'
p22
VDDEEF6
p23
sS'id'
p24
I19672030
sS'verified'
p25
I00
sS'profile_image_url_https'
p26
Vhttps://pbs.twimg.com/profile_images/429577272568209408/J4FgLMYm_normal.jpeg
p27
sS'_json'
p28
(dp29
Vfollow_request_sent
p30
NsVprofile_use_background_image
p31
I01
sVdefault_profile_image
p32
I00
sVid
p33
I19672030
sVverified
p34
I00
sVprofile_image_url_https
p35
g27
sVprofile_sidebar_fill_color
p36
g23
sVprofile_text_color
p37
V333333
p38
sVfollowers_count
p39
I967
sVprofile_sidebar_border_color
p40
VC0DEED
p41
sVid_str
p42
V19672030
p43
sVprofile_background_color
p44
VC0DEED
p45
sVlisted_count
p46
I46
sVprofile_background_image_url_https
p47
Vhttps://abs.twimg.com/images/themes/theme1/bg.png
p48
sVutc_offset
p49
I7200
sVstatuses_count
p50
I1716
sVdescription
p51
VI help you to say yes to the right things, so you can live with clarity, energy and impact.
p52
sVfriends_count
p53
I503
sVlocation
p54
VSwitzerland
p55
sVprofile_link_color
p56
V0084B4
p57
sVprofile_image_url
p58
Vhttp://pbs.twimg.com/profile_images/429577272568209408/J4FgLMYm_normal.jpeg
p59
sVfollowing
p60
NsVgeo_enabled
p61
I01
sVprofile_banner_url
p62
Vhttps://pbs.twimg.com/profile_banners/19672030/1421430786
p63
sVprofile_background_image_url
p64
Vhttp://abs.twimg.com/images/themes/theme1/bg.png
p65
sVname
p66
VSilke Zanker
p67
sVlang
p68
Ven
p69
sVprofile_background_tile
p70
I00
sVfavourites_count
p71
I167
sVscreen_name
p72
Vsilkezanker
p73
sVnotifications
p74
NsVurl
p75
Vhttp://www.silkezanker.com
p76
sVcreated_at
p77
VWed Jan 28 20:02:17 +0000 2009
p78
sVcontributors_enabled
p79
I00
sVtime_zone
p80
VBern
p81
sVprotected
p82
I00
sVdefault_profile
p83
I01
sVis_translator
p84
I00
ssS'contributors_enabled'
p85
I00
sS'profile_text_color'
p86
g38
sS'followers_count'
p87
I967
sS'profile_sidebar_border_color'
p88
g41
sS'location'
p89
g55
sS'default_profile_image'
p90
I00
sS'id_str'
p91
g43
sS'utc_offset'
p92
I7200
sS'statuses_count'
p93
I1716
sS'description'
p94
g52
sS'friends_count'
p95
I503
sS'profile_link_color'
p96
g57
sS'profile_image_url'
p97
g59
sS'notifications'
p98
NsS'geo_enabled'
p99
I01
sS'profile_background_color'
p100
g45
sS'profile_banner_url'
p101
g63
sS'profile_background_image_url'
p102
g65
sS'name'
p103
g67
sS'lang'
p104
g69
sS'following'
p105
I00
sS'profile_background_tile'
p106
I00
sS'favourites_count'
p107
I167
sS'screen_name'
p108
g73
sS'url'
p109
g76
sS'created_at'
p110
cdatetime
datetime
p111
(S'\x07\xd9\x01\x1c\x14\x02\x11\x00\x00\x00'
p112
tp113
Rp114
sS'profile_background_image_url_https'
p115
g48
sS'time_zone'
p116
g81
sS'protected'
p117
I00
sS'default_profile'
p118
I01
sS'is_translator'
p119
I00
sS'listed_count'
p120
I46
sbsS'filter_level'
p121
Vlow
p122
sS'geo'
p123
(dp124
Vtype
p125
VPoint
p126
sVcoordinates
p127
(lp128
F47.373154
aF8.536806
assg24
I619864588511760385
sS'favorite_count'
p129
I0
sS'source'
p130
VInstagram
p131
sg104
Ven
p132
sS'author'
p133
g18
sS'in_reply_to_user_id_str'
p134
Nsg28
(dp135
Vcontributors
p136
NsVtruncated
p137
I00
sVtext
p138
g10
sVin_reply_to_status_id
p139
Nsg33
I619864588511760385
sVfavorite_count
p140
I0
sVsource
p141
V<a href="http://instagram.com" rel="nofollow">Instagram</a>
p142
sVretweeted
p143
I00
sg127
(dp144
g125
VPoint
p145
sg127
(lp146
F8.536806
aF47.373154
assVtimestamp_ms
p147
V1436622209085
p148
sVentities
p149
(dp150
Vuser_mentions
p151
(lp152
sVsymbols
p153
(lp154
sVtrends
p155
(lp156
sVhashtags
p157
(lp158
(dp159
Vindices
p160
(lp161
I23
aI29
asg138
Vhiltl
p162
sa(dp163
g160
(lp164
I30
aI36
asg138
Vlunch
p165
sa(dp166
g160
(lp167
I37
aI45
asg138
Vhealthy
p168
sa(dp169
g160
(lp170
I46
aI51
asg138
Vfood
p171
sa(dp172
g160
(lp173
I52
aI65
asg138
Vgreatcompany
p174
sasVurls
p175
(lp176
(dp177
g75
Vhttps://t.co/RecoIHiHBD
p178
sg160
(lp179
I74
aI97
asVexpanded_url
p180
Vhttps://instagram.com/p/4_3pMYM46c/
p181
sVdisplay_url
p182
Vinstagram.com/p/4_3pMYM46c/
p183
sassVin_reply_to_screen_name
p184
Nsg42
V619864588511760385
p185
sVretweet_count
p186
I0
sVin_reply_to_user_id
p187
NsVfavorited
p188
I00
sVuser
p189
g29
sVgeo
p190
g124
sVin_reply_to_user_id_str
p191
NsVpossibly_sensitive
p192
I00
sg68
g132
sg77
VSat Jul 11 13:43:29 +0000 2015
p193
sVfilter_level
p194
g122
sVin_reply_to_status_id_str
p195
NsVplace
p196
(dp197
Vfull_name
p198
VZurich, Switzerland
p199
sg75
Vhttps://api.twitter.com/1.1/geo/id/3acb748d0f1e9265.json
p200
sVcountry
p201
VSchweiz
p202
sVplace_type
p203
Vcity
p204
sVbounding_box
p205
(dp206
g125
VPolygon
p207
sg127
(lp208
(lp209
(lp210
F8.448081
aF47.320183
aa(lp211
F8.448081
aF47.434721
aa(lp212
F8.625442
aF47.434721
aa(lp213
F8.625442
aF47.320183
aaassVcountry_code
p214
VCH
p215
sVattributes
p216
(dp217
sg33
V3acb748d0f1e9265
p218
sg66
VZurich
p219
sssS'coordinates'
p220
g144
sS'timestamp_ms'
p221
g148
sS'entities'
p222
g150
sS'in_reply_to_status_id_str'
p223
NsS'in_reply_to_screen_name'
p224
Nsg91
g185
sS'retweeted'
p225
I00
sS'place'
p226
g0
(ctweepy.models
Place
p227
g2
Ntp228
Rp229
(dp230
S'full_name'
p231
g199
sg109
g200
sS'country'
p232
g202
sS'place_type'
p233
g204
sS'bounding_box'
p234
g0
(ctweepy.models
BoundingBox
p235
g2
Ntp236
Rp237
(dp238
S'type'
p239
g207
sg220
g208
sbsS'country_code'
p240
g215
sS'attributes'
p241
g217
sg24
g218
sg103
g219
sbsS'retweet_count'
p242
I0
sg110
g111
(S'\x07\xdf\x07\x0b\r+\x1d\x00\x00\x00'
p243
tp244
Rp245
sS'in_reply_to_user_id'
p246
Nsb.