ccopy_reg
_reconstructor
p0
(ctweepy.models
Status
p1
c__builtin__
object
p2
Ntp3
Rp4
(dp5
S'favorited'
p6
I00
sS'contributors'
p7
NsS'truncated'
p8
I00
sS'text'
p9
V@dennisjust even better if they bring cash, an then represent an exit potential for startups, no ;-)?
p10
sS'source_url'
p11
Vhttp://twitter.com/download/iphone
p12
sS'possibly_sensitive'
p13
I00
sS'in_reply_to_status_id'
p14
I618467237524054016
sS'user'
p15
g0
(ctweepy.models
User
p16
g2
Ntp17
Rp18
(dp19
S'follow_request_sent'
p20
NsS'profile_use_background_image'
p21
I01
sS'profile_sidebar_fill_color'
p22
V99CC33
p23
sS'id'
p24
I34911952
sS'verified'
p25
I00
sS'profile_image_url_https'
p26
Vhttps://pbs.twimg.com/profile_images/611780218026655744/uGQ-Z0xc_normal.jpg
p27
sS'_json'
p28
(dp29
Vfollow_request_sent
p30
NsVprofile_use_background_image
p31
I01
sVdefault_profile_image
p32
I00
sVid
p33
I34911952
sVverified
p34
I00
sVprofile_image_url_https
p35
g27
sVprofile_sidebar_fill_color
p36
g23
sVprofile_text_color
p37
V3E4415
p38
sVfollowers_count
p39
I1420
sVprofile_sidebar_border_color
p40
VFFFFFF
p41
sVid_str
p42
V34911952
p43
sVprofile_background_color
p44
V352726
p45
sVlisted_count
p46
I196
sVprofile_background_image_url_https
p47
Vhttps://pbs.twimg.com/profile_background_images/372555934/IMGP0003.jpeg
p48
sVutc_offset
p49
I7200
sVstatuses_count
p50
I8344
sVdescription
p51
VProgram Director @FintechFusion Founder & CEO @coteri_es Blogger @startupolic Advisor @ICTInvestorClub and @TechBridgech Passionate + Energizer
p52
sVfriends_count
p53
I63
sVlocation
p54
VSwitzerland
p55
sVprofile_link_color
p56
V1D9D25
p57
sVprofile_image_url
p58
Vhttp://pbs.twimg.com/profile_images/611780218026655744/uGQ-Z0xc_normal.jpg
p59
sVfollowing
p60
NsVgeo_enabled
p61
I01
sVprofile_banner_url
p62
Vhttps://pbs.twimg.com/profile_banners/34911952/1389612180
p63
sVprofile_background_image_url
p64
Vhttp://pbs.twimg.com/profile_background_images/372555934/IMGP0003.jpeg
p65
sVname
p66
VSebastien Flury
p67
sVlang
p68
Ven
p69
sVprofile_background_tile
p70
I00
sVfavourites_count
p71
I568
sVscreen_name
p72
VSebastienFlury
p73
sVnotifications
p74
NsVurl
p75
Vhttp://www.startupolic.com
p76
sVcreated_at
p77
VFri Apr 24 12:27:59 +0000 2009
p78
sVcontributors_enabled
p79
I00
sVtime_zone
p80
VBern
p81
sVprotected
p82
I00
sVdefault_profile
p83
I00
sVis_translator
p84
I00
ssS'contributors_enabled'
p85
I00
sS'profile_text_color'
p86
g38
sS'followers_count'
p87
I1420
sS'profile_sidebar_border_color'
p88
g41
sS'location'
p89
g55
sS'default_profile_image'
p90
I00
sS'id_str'
p91
g43
sS'utc_offset'
p92
I7200
sS'statuses_count'
p93
I8344
sS'description'
p94
g52
sS'friends_count'
p95
I63
sS'profile_link_color'
p96
g57
sS'profile_image_url'
p97
g59
sS'notifications'
p98
NsS'geo_enabled'
p99
I01
sS'profile_background_color'
p100
g45
sS'profile_banner_url'
p101
g63
sS'profile_background_image_url'
p102
g65
sS'name'
p103
g67
sS'lang'
p104
g69
sS'following'
p105
I00
sS'profile_background_tile'
p106
I00
sS'favourites_count'
p107
I568
sS'screen_name'
p108
g73
sS'url'
p109
g76
sS'created_at'
p110
cdatetime
datetime
p111
(S'\x07\xd9\x04\x18\x0c\x1b;\x00\x00\x00'
p112
tp113
Rp114
sS'profile_background_image_url_https'
p115
g48
sS'time_zone'
p116
g81
sS'protected'
p117
I00
sS'default_profile'
p118
I00
sS'is_translator'
p119
I00
sS'listed_count'
p120
I196
sbsS'filter_level'
p121
Vlow
p122
sS'geo'
p123
(dp124
Vtype
p125
VPoint
p126
sVcoordinates
p127
(lp128
F47.375955
aF8.534194
assg24
I618490886255722496
sS'favorite_count'
p129
I0
sS'source'
p130
VTwitter for iPhone
p131
sg104
Ven
p132
sS'author'
p133
g18
sS'in_reply_to_user_id_str'
p134
V25103958
p135
sg28
(dp136
Vcontributors
p137
NsVtruncated
p138
I00
sVtext
p139
g10
sVin_reply_to_status_id
p140
I618467237524054016
sg33
I618490886255722496
sVfavorite_count
p141
I0
sVsource
p142
V<a href="http://twitter.com/download/iphone" rel="nofollow">Twitter for iPhone</a>
p143
sVretweeted
p144
I00
sg127
(dp145
g125
VPoint
p146
sg127
(lp147
F8.534194
aF47.375955
assVtimestamp_ms
p148
V1436294692945
p149
sVentities
p150
(dp151
Vuser_mentions
p152
(lp153
(dp154
g33
I25103958
sVindices
p155
(lp156
I0
aI11
asg42
V25103958
p157
sg72
Vdennisjust
p158
sg66
VDennis Just
p159
sasVsymbols
p160
(lp161
sVtrends
p162
(lp163
sVhashtags
p164
(lp165
sVurls
p166
(lp167
ssVin_reply_to_screen_name
p168
Vdennisjust
p169
sg42
V618490886255722496
p170
sVretweet_count
p171
I0
sVin_reply_to_user_id
p172
I25103958
sVfavorited
p173
I00
sVuser
p174
g29
sVgeo
p175
g124
sVin_reply_to_user_id_str
p176
g135
sVpossibly_sensitive
p177
I00
sg68
g132
sg77
VTue Jul 07 18:44:52 +0000 2015
p178
sVfilter_level
p179
g122
sVin_reply_to_status_id_str
p180
V618467237524054016
p181
sVplace
p182
(dp183
Vfull_name
p184
VZurich, Switzerland
p185
sg75
Vhttps://api.twitter.com/1.1/geo/id/3acb748d0f1e9265.json
p186
sVcountry
p187
VSchweiz
p188
sVplace_type
p189
Vcity
p190
sVbounding_box
p191
(dp192
g125
VPolygon
p193
sg127
(lp194
(lp195
(lp196
F8.448081
aF47.320183
aa(lp197
F8.448081
aF47.434721
aa(lp198
F8.625442
aF47.434721
aa(lp199
F8.625442
aF47.320183
aaassVcountry_code
p200
VCH
p201
sVattributes
p202
(dp203
sg33
V3acb748d0f1e9265
p204
sg66
VZurich
p205
sssS'coordinates'
p206
g145
sS'timestamp_ms'
p207
g149
sS'entities'
p208
g151
sS'in_reply_to_status_id_str'
p209
g181
sS'in_reply_to_screen_name'
p210
g169
sg91
g170
sS'retweeted'
p211
I00
sS'place'
p212
g0
(ctweepy.models
Place
p213
g2
Ntp214
Rp215
(dp216
S'full_name'
p217
g185
sg109
g186
sS'country'
p218
g188
sS'place_type'
p219
g190
sS'bounding_box'
p220
g0
(ctweepy.models
BoundingBox
p221
g2
Ntp222
Rp223
(dp224
S'type'
p225
g193
sg206
g194
sbsS'country_code'
p226
g201
sS'attributes'
p227
g203
sg24
g204
sg103
g205
sbsS'retweet_count'
p228
I0
sg110
g111
(S'\x07\xdf\x07\x07\x12,4\x00\x00\x00'
p229
tp230
Rp231
sS'in_reply_to_user_id'
p232
I25103958
sb.