ccopy_reg
_reconstructor
p0
(ctweepy.models
Status
p1
c__builtin__
object
p2
Ntp3
Rp4
(dp5
S'favorited'
p6
I00
sS'contributors'
p7
NsS'truncated'
p8
I00
sS'text'
p9
V#Enter the #void http://t.co/OqG5ZD6Isn
p10
sS'source_url'
p11
Vhttp://twitter.com
p12
sS'possibly_sensitive'
p13
I00
sS'in_reply_to_status_id'
p14
NsS'user'
p15
g0
(ctweepy.models
User
p16
g2
Ntp17
Rp18
(dp19
S'follow_request_sent'
p20
NsS'profile_use_background_image'
p21
I00
sS'profile_sidebar_fill_color'
p22
V000000
p23
sS'id'
p24
I3240919096
sS'verified'
p25
I00
sS'profile_image_url_https'
p26
Vhttps://pbs.twimg.com/profile_images/600068902987681792/NoXws4kR_normal.jpg
p27
sS'_json'
p28
(dp29
Vfollow_request_sent
p30
NsVprofile_use_background_image
p31
I00
sVdefault_profile_image
p32
I00
sVid
p33
I3240919096
sVverified
p34
I00
sVprofile_image_url_https
p35
g27
sVprofile_sidebar_fill_color
p36
g23
sVprofile_text_color
p37
V000000
p38
sVfollowers_count
p39
I119
sVprofile_sidebar_border_color
p40
V000000
p41
sVid_str
p42
V3240919096
p43
sVprofile_background_color
p44
V000000
p45
sVlisted_count
p46
I4
sVprofile_background_image_url_https
p47
Vhttps://abs.twimg.com/images/themes/theme1/bg.png
p48
sVutc_offset
p49
NsVstatuses_count
p50
I141
sVdescription
p51
VTijdreizen: een droom die binnenkort werkelijkheid wordt op het nieuwe station in Zwolle. http://www.portalzwolle.nu  #TimeTravel #Zwolle #TrotsOpZwolle
p52
sVfriends_count
p53
I286
sVlocation
p54
VZwolle, Overijssel
p55
sVprofile_link_color
p56
V3B94D9
p57
sVprofile_image_url
p58
Vhttp://pbs.twimg.com/profile_images/600068902987681792/NoXws4kR_normal.jpg
p59
sVfollowing
p60
NsVgeo_enabled
p61
I01
sVprofile_banner_url
p62
Vhttps://pbs.twimg.com/profile_banners/3240919096/1434708412
p63
sVprofile_background_image_url
p64
Vhttp://abs.twimg.com/images/themes/theme1/bg.png
p65
sVname
p66
VPortal Zwolle
p67
sVlang
p68
Ven
p69
sVprofile_background_tile
p70
I00
sVfavourites_count
p71
I38
sVscreen_name
p72
VPortalZwolle
p73
sVnotifications
p74
NsVurl
p75
Vhttp://www.portalzwolle.nu
p76
sVcreated_at
p77
VThu May 07 18:32:28 +0000 2015
p78
sVcontributors_enabled
p79
I00
sVtime_zone
p80
NsVprotected
p81
I00
sVdefault_profile
p82
I00
sVis_translator
p83
I00
ssS'contributors_enabled'
p84
I00
sS'profile_text_color'
p85
g38
sS'followers_count'
p86
I119
sS'profile_sidebar_border_color'
p87
g41
sS'location'
p88
g55
sS'default_profile_image'
p89
I00
sS'id_str'
p90
g43
sS'utc_offset'
p91
NsS'statuses_count'
p92
I141
sS'description'
p93
g52
sS'friends_count'
p94
I286
sS'profile_link_color'
p95
g57
sS'profile_image_url'
p96
g59
sS'notifications'
p97
NsS'geo_enabled'
p98
I01
sS'profile_background_color'
p99
g45
sS'profile_banner_url'
p100
g63
sS'profile_background_image_url'
p101
g65
sS'name'
p102
g67
sS'lang'
p103
g69
sS'following'
p104
I00
sS'profile_background_tile'
p105
I00
sS'favourites_count'
p106
I38
sS'screen_name'
p107
g73
sS'url'
p108
g76
sS'created_at'
p109
cdatetime
datetime
p110
(S'\x07\xdf\x05\x07\x12 \x1c\x00\x00\x00'
p111
tp112
Rp113
sS'profile_background_image_url_https'
p114
g48
sS'time_zone'
p115
NsS'protected'
p116
I00
sS'default_profile'
p117
I00
sS'is_translator'
p118
I00
sS'listed_count'
p119
I4
sbsS'filter_level'
p120
Vlow
p121
sS'geo'
p122
Nsg24
I620237247959461888
sS'favorite_count'
p123
I0
sS'source'
p124
VTwitter Web Client
p125
sg103
Vund
p126
sS'author'
p127
g18
sS'in_reply_to_user_id_str'
p128
Nsg28
(dp129
Vcontributors
p130
NsVtruncated
p131
I00
sVtext
p132
g10
sVin_reply_to_status_id
p133
Nsg33
I620237247959461888
sVfavorite_count
p134
I0
sVsource
p135
V<a href="http://twitter.com" rel="nofollow">Twitter Web Client</a>
p136
sVretweeted
p137
I00
sVcoordinates
p138
NsVtimestamp_ms
p139
V1436711058021
p140
sVentities
p141
(dp142
Vsymbols
p143
(lp144
sVmedia
p145
(lp146
(dp147
Vexpanded_url
p148
Vhttp://twitter.com/PortalZwolle/status/620237247959461888/photo/1
p149
sVdisplay_url
p150
Vpic.twitter.com/OqG5ZD6Isn
p151
sg75
Vhttp://t.co/OqG5ZD6Isn
p152
sVmedia_url_https
p153
Vhttps://pbs.twimg.com/media/CJuGfTpUwAIJOg-.jpg
p154
sg42
V620237246101241858
p155
sVsizes
p156
(dp157
Vsmall
p158
(dp159
Vh
p160
I208
sVresize
p161
Vfit
p162
sVw
p163
I340
ssVlarge
p164
(dp165
g160
I590
sg161
Vfit
p166
sg163
I959
ssVmedium
p167
(dp168
g160
I368
sg161
Vfit
p169
sg163
I600
ssVthumb
p170
(dp171
g160
I150
sg161
Vcrop
p172
sg163
I150
sssVindices
p173
(lp174
I17
aI39
asVtype
p175
Vphoto
p176
sg33
I620237246101241858
sVmedia_url
p177
Vhttp://pbs.twimg.com/media/CJuGfTpUwAIJOg-.jpg
p178
sasVhashtags
p179
(lp180
(dp181
g173
(lp182
I0
aI6
asg132
VEnter
p183
sa(dp184
g173
(lp185
I11
aI16
asg132
Vvoid
p186
sasVuser_mentions
p187
(lp188
sVtrends
p189
(lp190
sVurls
p191
(lp192
ssVin_reply_to_screen_name
p193
Nsg42
V620237247959461888
p194
sVretweet_count
p195
I0
sVin_reply_to_user_id
p196
NsVfavorited
p197
I00
sVuser
p198
g29
sVgeo
p199
NsVin_reply_to_user_id_str
p200
NsVpossibly_sensitive
p201
I00
sg68
g126
sg77
VSun Jul 12 14:24:18 +0000 2015
p202
sVfilter_level
p203
g121
sVin_reply_to_status_id_str
p204
NsVplace
p205
(dp206
Vfull_name
p207
VZurich, Switzerland
p208
sg75
Vhttps://api.twitter.com/1.1/geo/id/3acb748d0f1e9265.json
p209
sVcountry
p210
VSchweiz
p211
sVplace_type
p212
Vcity
p213
sVbounding_box
p214
(dp215
g175
VPolygon
p216
sg138
(lp217
(lp218
(lp219
F8.448081
aF47.320183
aa(lp220
F8.448081
aF47.434721
aa(lp221
F8.625442
aF47.434721
aa(lp222
F8.625442
aF47.320183
aaassVcountry_code
p223
VCH
p224
sVattributes
p225
(dp226
sg33
V3acb748d0f1e9265
p227
sg66
VZurich
p228
ssVextended_entities
p229
(dp230
g145
(lp231
(dp232
g148
Vhttp://twitter.com/PortalZwolle/status/620237247959461888/photo/1
p233
sg150
Vpic.twitter.com/OqG5ZD6Isn
p234
sg75
Vhttp://t.co/OqG5ZD6Isn
p235
sg153
Vhttps://pbs.twimg.com/media/CJuGfTpUwAIJOg-.jpg
p236
sg42
V620237246101241858
p237
sg156
(dp238
g158
(dp239
g160
I208
sg161
Vfit
p240
sg163
I340
ssg164
(dp241
g160
I590
sg161
Vfit
p242
sg163
I959
ssg167
(dp243
g160
I368
sg161
Vfit
p244
sg163
I600
ssg170
(dp245
g160
I150
sg161
Vcrop
p246
sg163
I150
sssg173
(lp247
I17
aI39
asg175
Vphoto
p248
sg33
I620237246101241858
sg177
Vhttp://pbs.twimg.com/media/CJuGfTpUwAIJOg-.jpg
p249
sa(dp250
g148
Vhttp://twitter.com/PortalZwolle/status/620237247959461888/photo/1
p251
sg150
Vpic.twitter.com/OqG5ZD6Isn
p252
sg75
Vhttp://t.co/OqG5ZD6Isn
p253
sg153
Vhttps://pbs.twimg.com/media/CJuGfW2UEAEvB7v.jpg
p254
sg42
V620237246961029121
p255
sg156
(dp256
g164
(dp257
g160
I720
sg161
Vfit
p258
sg163
I960
ssg158
(dp259
g160
I255
sg161
Vfit
p260
sg163
I340
ssg167
(dp261
g160
I450
sg161
Vfit
p262
sg163
I600
ssg170
(dp263
g160
I150
sg161
Vcrop
p264
sg163
I150
sssg173
(lp265
I17
aI39
asg175
Vphoto
p266
sg33
I620237246961029121
sg177
Vhttp://pbs.twimg.com/media/CJuGfW2UEAEvB7v.jpg
p267
sasssS'coordinates'
p268
NsS'timestamp_ms'
p269
g140
sS'entities'
p270
g142
sS'in_reply_to_status_id_str'
p271
NsS'in_reply_to_screen_name'
p272
Nsg90
g194
sS'extended_entities'
p273
g230
sS'retweeted'
p274
I00
sS'place'
p275
g0
(ctweepy.models
Place
p276
g2
Ntp277
Rp278
(dp279
S'full_name'
p280
g208
sg108
g209
sS'country'
p281
g211
sS'place_type'
p282
g213
sS'bounding_box'
p283
g0
(ctweepy.models
BoundingBox
p284
g2
Ntp285
Rp286
(dp287
S'type'
p288
g216
sg268
g217
sbsS'country_code'
p289
g224
sS'attributes'
p290
g226
sg24
g227
sg102
g228
sbsS'retweet_count'
p291
I0
sg109
g110
(S'\x07\xdf\x07\x0c\x0e\x18\x12\x00\x00\x00'
p292
tp293
Rp294
sS'in_reply_to_user_id'
p295
Nsb.