ccopy_reg
_reconstructor
p0
(ctweepy.models
Status
p1
c__builtin__
object
p2
Ntp3
Rp4
(dp5
S'favorited'
p6
I00
sS'contributors'
p7
NsS'truncated'
p8
I00
sS'text'
p9
V@sprudge that's for the recipe. Will give it a try at home :-)
p10
sS'source_url'
p11
Vhttp://twitter.com/download/iphone
p12
sS'possibly_sensitive'
p13
I00
sS'in_reply_to_status_id'
p14
I620714498651983872
sS'user'
p15
g0
(ctweepy.models
User
p16
g2
Ntp17
Rp18
(dp19
S'follow_request_sent'
p20
NsS'profile_use_background_image'
p21
I01
sS'profile_sidebar_fill_color'
p22
VDDEEF6
p23
sS'id'
p24
I946588190
sS'verified'
p25
I00
sS'profile_image_url_https'
p26
Vhttps://pbs.twimg.com/profile_images/601442367338491904/9OSdfHkG_normal.jpg
p27
sS'_json'
p28
(dp29
Vfollow_request_sent
p30
NsVprofile_use_background_image
p31
I01
sVdefault_profile_image
p32
I00
sVid
p33
I946588190
sVverified
p34
I00
sVprofile_image_url_https
p35
g27
sVprofile_sidebar_fill_color
p36
g23
sVprofile_text_color
p37
V333333
p38
sVfollowers_count
p39
I210
sVprofile_sidebar_border_color
p40
VC0DEED
p41
sVid_str
p42
V946588190
p43
sVprofile_background_color
p44
VC0DEED
p45
sVlisted_count
p46
I8
sVprofile_background_image_url_https
p47
Vhttps://abs.twimg.com/images/themes/theme1/bg.png
p48
sVutc_offset
p49
NsVstatuses_count
p50
I773
sVdescription
p51
NsVfriends_count
p52
I123
sVlocation
p53
V
p54
sVprofile_link_color
p55
V0084B4
p56
sVprofile_image_url
p57
Vhttp://pbs.twimg.com/profile_images/601442367338491904/9OSdfHkG_normal.jpg
p58
sVfollowing
p59
NsVgeo_enabled
p60
I01
sVprofile_banner_url
p61
Vhttps://pbs.twimg.com/profile_banners/946588190/1432230395
p62
sVprofile_background_image_url
p63
Vhttp://abs.twimg.com/images/themes/theme1/bg.png
p64
sVname
p65
VCoffee Me Zurich
p66
sVlang
p67
Ven
p68
sVprofile_background_tile
p69
I00
sVfavourites_count
p70
I165
sVscreen_name
p71
Vcoffeemezurich
p72
sVnotifications
p73
NsVurl
p74
Vhttp://coffeemezurich.com
p75
sVcreated_at
p76
VTue Nov 13 21:56:34 +0000 2012
p77
sVcontributors_enabled
p78
I00
sVtime_zone
p79
NsVprotected
p80
I00
sVdefault_profile
p81
I01
sVis_translator
p82
I00
ssS'contributors_enabled'
p83
I00
sS'profile_text_color'
p84
g38
sS'followers_count'
p85
I210
sS'profile_sidebar_border_color'
p86
g41
sS'location'
p87
g54
sS'default_profile_image'
p88
I00
sS'id_str'
p89
g43
sS'utc_offset'
p90
NsS'statuses_count'
p91
I773
sS'description'
p92
NsS'friends_count'
p93
I123
sS'profile_link_color'
p94
g56
sS'profile_image_url'
p95
g58
sS'notifications'
p96
NsS'geo_enabled'
p97
I01
sS'profile_background_color'
p98
g45
sS'profile_banner_url'
p99
g62
sS'profile_background_image_url'
p100
g64
sS'name'
p101
g66
sS'lang'
p102
g68
sS'following'
p103
I00
sS'profile_background_tile'
p104
I00
sS'favourites_count'
p105
I165
sS'screen_name'
p106
g72
sS'url'
p107
g75
sS'created_at'
p108
cdatetime
datetime
p109
(S'\x07\xdc\x0b\r\x158"\x00\x00\x00'
p110
tp111
Rp112
sS'profile_background_image_url_https'
p113
g48
sS'time_zone'
p114
NsS'protected'
p115
I00
sS'default_profile'
p116
I01
sS'is_translator'
p117
I00
sS'listed_count'
p118
I8
sbsS'filter_level'
p119
Vlow
p120
sS'geo'
p121
Nsg24
I620932826670735361
sS'favorite_count'
p122
I0
sS'source'
p123
VTwitter for iPhone
p124
sg102
Ven
p125
sS'author'
p126
g18
sS'in_reply_to_user_id_str'
p127
V73280005
p128
sg28
(dp129
Vcontributors
p130
NsVtruncated
p131
I00
sVtext
p132
g10
sVin_reply_to_status_id
p133
I620714498651983872
sg33
I620932826670735361
sVfavorite_count
p134
I0
sVsource
p135
V<a href="http://twitter.com/download/iphone" rel="nofollow">Twitter for iPhone</a>
p136
sVretweeted
p137
I00
sVcoordinates
p138
NsVtimestamp_ms
p139
V1436876896909
p140
sVentities
p141
(dp142
Vuser_mentions
p143
(lp144
(dp145
g33
I73280005
sVindices
p146
(lp147
I0
aI8
asg42
V73280005
p148
sg71
Vsprudge
p149
sg65
VSprudge
p150
sasVsymbols
p151
(lp152
sVtrends
p153
(lp154
sVhashtags
p155
(lp156
sVurls
p157
(lp158
ssVin_reply_to_screen_name
p159
Vsprudge
p160
sg42
V620932826670735361
p161
sVretweet_count
p162
I0
sVin_reply_to_user_id
p163
I73280005
sVfavorited
p164
I00
sVuser
p165
g29
sVgeo
p166
NsVin_reply_to_user_id_str
p167
g128
sVpossibly_sensitive
p168
I00
sg67
g125
sg76
VTue Jul 14 12:28:16 +0000 2015
p169
sVfilter_level
p170
g120
sVin_reply_to_status_id_str
p171
V620714498651983872
p172
sVplace
p173
(dp174
Vfull_name
p175
VZurich, Switzerland
p176
sg74
Vhttps://api.twitter.com/1.1/geo/id/3acb748d0f1e9265.json
p177
sVcountry
p178
VSchweiz
p179
sVplace_type
p180
Vcity
p181
sVbounding_box
p182
(dp183
Vtype
p184
VPolygon
p185
sg138
(lp186
(lp187
(lp188
F8.448081
aF47.320183
aa(lp189
F8.448081
aF47.434721
aa(lp190
F8.625442
aF47.434721
aa(lp191
F8.625442
aF47.320183
aaassVcountry_code
p192
VCH
p193
sVattributes
p194
(dp195
sg33
V3acb748d0f1e9265
p196
sg65
VZurich
p197
sssS'coordinates'
p198
NsS'timestamp_ms'
p199
g140
sS'entities'
p200
g142
sS'in_reply_to_status_id_str'
p201
g172
sS'in_reply_to_screen_name'
p202
g160
sg89
g161
sS'retweeted'
p203
I00
sS'place'
p204
g0
(ctweepy.models
Place
p205
g2
Ntp206
Rp207
(dp208
S'full_name'
p209
g176
sg107
g177
sS'country'
p210
g179
sS'place_type'
p211
g181
sS'bounding_box'
p212
g0
(ctweepy.models
BoundingBox
p213
g2
Ntp214
Rp215
(dp216
S'type'
p217
g185
sg198
g186
sbsS'country_code'
p218
g193
sS'attributes'
p219
g195
sg24
g196
sg101
g197
sbsS'retweet_count'
p220
I0
sg108
g109
(S'\x07\xdf\x07\x0e\x0c\x1c\x10\x00\x00\x00'
p221
tp222
Rp223
sS'in_reply_to_user_id'
p224
I73280005
sb.