ccopy_reg
_reconstructor
p0
(ctweepy.models
Status
p1
c__builtin__
object
p2
Ntp3
Rp4
(dp5
S'contributors'
p6
NsS'truncated'
p7
I00
sS'text'
p8
VExcitement. Excitement.  https://t.co/49CNH2AXI3
p9
sS'in_reply_to_status_id'
p10
NsS'id'
p11
I620735574983503873
sS'favorite_count'
p12
I0
sS'entities'
p13
(dp14
Vuser_mentions
p15
(lp16
sVsymbols
p17
(lp18
sVtrends
p19
(lp20
sVhashtags
p21
(lp22
sVurls
p23
(lp24
(dp25
Vurl
p26
Vhttps://t.co/49CNH2AXI3
p27
sVindices
p28
(lp29
I25
aI48
asVexpanded_url
p30
Vhttps://twitter.com/joedotie/status/620733261405376512
p31
sVdisplay_url
p32
Vtwitter.com/joedotie/statu\u2026
p33
sassS'quoted_status_id'
p34
I620733261405376512
sS'_json'
p35
(dp36
Vcontributors
p37
NsVtruncated
p38
I00
sVtext
p39
g9
sVin_reply_to_status_id
p40
NsVid
p41
I620735574983503873
sVfavorite_count
p42
I0
sVsource
p43
V<a href="http://twitter.com/download/iphone" rel="nofollow">Twitter for iPhone</a>
p44
sVquoted_status_id
p45
I620733261405376512
sVretweeted
p46
I00
sVcoordinates
p47
(dp48
Vtype
p49
VPoint
p50
sg47
(lp51
F8.514022
aF47.388168
assVtimestamp_ms
p52
V1436829868442
p53
sVquoted_status
p54
(dp55
g37
Nsg38
I00
sg39
VVideo: The official trailer for Suicide Squad is here and fans of The Joker will love it http://t.co/XWtgLE2Vkp http://t.co/Rn3Ilytsab
p56
sg40
Nsg41
I620733261405376512
sg42
I0
sg43
V<a href="http://bufferapp.com" rel="nofollow">Buffer</a>
p57
sg46
I00
sg47
NsVentities
p58
(dp59
g17
(lp60
sVmedia
p61
(lp62
(dp63
g30
Vhttp://twitter.com/JOEdotie/status/620733261405376512/photo/1
p64
sg32
Vpic.twitter.com/Rn3Ilytsab
p65
sg26
Vhttp://t.co/Rn3Ilytsab
p66
sVmedia_url_https
p67
Vhttps://pbs.twimg.com/media/CJ1JnMSWsAAPAKS.jpg
p68
sVid_str
p69
V620733261308932096
p70
sVsizes
p71
(dp72
Vlarge
p73
(dp74
Vh
p75
I340
sVresize
p76
Vfit
p77
sVw
p78
I647
ssVsmall
p79
(dp80
g75
I178
sg76
Vfit
p81
sg78
I340
ssVmedium
p82
(dp83
g75
I315
sg76
Vfit
p84
sg78
I600
ssVthumb
p85
(dp86
g75
I150
sg76
Vcrop
p87
sg78
I150
sssg28
(lp88
I112
aI134
asg49
Vphoto
p89
sg41
I620733261308932096
sVmedia_url
p90
Vhttp://pbs.twimg.com/media/CJ1JnMSWsAAPAKS.jpg
p91
sasg21
(lp92
sg15
(lp93
sg19
(lp94
sg23
(lp95
(dp96
g26
Vhttp://t.co/XWtgLE2Vkp
p97
sg28
(lp98
I89
aI111
asg30
Vhttp://bit.ly/1UVMBW8
p99
sg32
Vbit.ly/1UVMBW8
p100
sassVin_reply_to_screen_name
p101
Nsg69
V620733261405376512
p102
sVretweet_count
p103
I0
sVin_reply_to_user_id
p104
NsVfavorited
p105
I00
sVuser
p106
(dp107
Vfollow_request_sent
p108
NsVprofile_use_background_image
p109
I01
sVdefault_profile_image
p110
I00
sg41
I132123068
sVverified
p111
I01
sVprofile_image_url_https
p112
Vhttps://pbs.twimg.com/profile_images/610466394120015872/ybXyeU3P_normal.jpg
p113
sVprofile_sidebar_fill_color
p114
VDDEEF6
p115
sVprofile_text_color
p116
V333333
p117
sVfollowers_count
p118
I195160
sVprofile_sidebar_border_color
p119
VFFFFFF
p120
sg69
V132123068
p121
sVprofile_background_color
p122
V000000
p123
sVlisted_count
p124
I486
sVprofile_background_image_url_https
p125
Vhttps://pbs.twimg.com/profile_background_images/378800000090428186/f07a06584214e0c56df77b5629d3c9f5.jpeg
p126
sVutc_offset
p127
I0
sVstatuses_count
p128
I79320
sVdescription
p129
VThe Voice of Irish Men
p130
sVfriends_count
p131
I7233
sVlocation
p132
VIreland
p133
sVprofile_link_color
p134
V000000
p135
sVprofile_image_url
p136
Vhttp://pbs.twimg.com/profile_images/610466394120015872/ybXyeU3P_normal.jpg
p137
sVfollowing
p138
NsVgeo_enabled
p139
I01
sVprofile_banner_url
p140
Vhttps://pbs.twimg.com/profile_banners/132123068/1434381616
p141
sVprofile_background_image_url
p142
Vhttp://pbs.twimg.com/profile_background_images/378800000090428186/f07a06584214e0c56df77b5629d3c9f5.jpeg
p143
sVname
p144
VJOE.ie
p145
sVlang
p146
Ven
p147
sVprofile_background_tile
p148
I00
sVfavourites_count
p149
I3590
sVscreen_name
p150
VJOEdotie
p151
sVnotifications
p152
Nsg26
Vhttp://www.JOE.ie
p153
sVcreated_at
p154
VMon Apr 12 10:15:20 +0000 2010
p155
sVcontributors_enabled
p156
I00
sVtime_zone
p157
VCasablanca
p158
sVprotected
p159
I00
sVdefault_profile
p160
I00
sVis_translator
p161
I00
ssVgeo
p162
NsVin_reply_to_user_id_str
p163
NsVpossibly_sensitive
p164
I00
sg146
Ven
p165
sg154
VMon Jul 13 23:15:16 +0000 2015
p166
sVfilter_level
p167
Vlow
p168
sVin_reply_to_status_id_str
p169
NsVplace
p170
NsVextended_entities
p171
(dp172
g61
(lp173
(dp174
g30
Vhttp://twitter.com/JOEdotie/status/620733261405376512/photo/1
p175
sg32
Vpic.twitter.com/Rn3Ilytsab
p176
sg26
Vhttp://t.co/Rn3Ilytsab
p177
sg67
Vhttps://pbs.twimg.com/media/CJ1JnMSWsAAPAKS.jpg
p178
sg69
V620733261308932096
p179
sg71
(dp180
g73
(dp181
g75
I340
sg76
Vfit
p182
sg78
I647
ssg79
(dp183
g75
I178
sg76
Vfit
p184
sg78
I340
ssg82
(dp185
g75
I315
sg76
Vfit
p186
sg78
I600
ssg85
(dp187
g75
I150
sg76
Vcrop
p188
sg78
I150
sssg28
(lp189
I112
aI134
asg49
Vphoto
p190
sg41
I620733261308932096
sg90
Vhttp://pbs.twimg.com/media/CJ1JnMSWsAAPAKS.jpg
p191
sasssg58
g14
sg101
Nsg69
V620735574983503873
p192
sg103
I0
sg104
Nsg105
I00
sg106
(dp193
g108
Nsg109
I01
sg110
I00
sg41
I42630127
sg111
I00
sg112
Vhttps://pbs.twimg.com/profile_images/597505089167720448/pceyNKI0_normal.png
p194
sg114
V95E8EC
p195
sg116
V3C3940
p196
sg118
I406
sg119
V000000
p197
sg69
V42630127
p198
sg122
V1A1B1F
p199
sg124
I12
sg125
Vhttps://pbs.twimg.com/profile_background_images/523062200244502528/YeCRnMU8.jpeg
p200
sg127
I3600
sg128
I5360
sg129
VWhat rhymes with FIFA? My name.
p201
sg131
I563
sg132
VLondon
p202
sg134
V2FC2EF
p203
sg136
Vhttp://pbs.twimg.com/profile_images/597505089167720448/pceyNKI0_normal.png
p204
sg138
Nsg139
I01
sg140
Vhttps://pbs.twimg.com/profile_banners/42630127/1354013451
p205
sg142
Vhttp://pbs.twimg.com/profile_background_images/523062200244502528/YeCRnMU8.jpeg
p206
sg144
VAoife Hogan
p207
sg146
Ven
p208
sg148
I01
sg149
I153
sg150
Vlondonaoife
p209
sg152
Nsg26
Nsg154
VTue May 26 14:05:27 +0000 2009
p210
sg156
I00
sg157
VLondon
p211
sg159
I00
sg160
I00
sg161
I00
ssg162
(dp212
g49
VPoint
p213
sg47
(lp214
F47.388168
aF8.514022
assg163
Nsg164
I00
sg146
Ven
p215
sg154
VMon Jul 13 23:24:28 +0000 2015
p216
sVquoted_status_id_str
p217
V620733261405376512
p218
sg167
Vlow
p219
sg169
Nsg170
(dp220
Vfull_name
p221
VZurich, Switzerland
p222
sg26
Vhttps://api.twitter.com/1.1/geo/id/3acb748d0f1e9265.json
p223
sVcountry
p224
VSchweiz
p225
sVplace_type
p226
Vcity
p227
sVbounding_box
p228
(dp229
g49
VPolygon
p230
sg47
(lp231
(lp232
(lp233
F8.448081
aF47.320183
aa(lp234
F8.448081
aF47.434721
aa(lp235
F8.625442
aF47.434721
aa(lp236
F8.625442
aF47.320183
aaassVcountry_code
p237
VCH
p238
sVattributes
p239
(dp240
sg41
V3acb748d0f1e9265
p241
sg144
VZurich
p242
sssS'coordinates'
p243
g48
sS'timestamp_ms'
p244
g53
sS'quoted_status'
p245
g55
sS'source'
p246
VTwitter for iPhone
p247
sS'in_reply_to_screen_name'
p248
NsS'id_str'
p249
g192
sS'retweet_count'
p250
I0
sS'in_reply_to_user_id'
p251
NsS'favorited'
p252
I00
sS'source_url'
p253
Vhttp://twitter.com/download/iphone
p254
sS'user'
p255
g0
(ctweepy.models
User
p256
g2
Ntp257
Rp258
(dp259
S'follow_request_sent'
p260
NsS'profile_use_background_image'
p261
I01
sS'profile_sidebar_fill_color'
p262
g195
sg11
I42630127
sS'verified'
p263
I00
sS'profile_image_url_https'
p264
g194
sg35
g193
sS'contributors_enabled'
p265
I00
sS'profile_text_color'
p266
g196
sS'followers_count'
p267
I406
sS'profile_sidebar_border_color'
p268
g197
sS'location'
p269
g202
sS'default_profile_image'
p270
I00
sg249
g198
sS'utc_offset'
p271
I3600
sS'statuses_count'
p272
I5360
sS'description'
p273
g201
sS'friends_count'
p274
I563
sS'profile_link_color'
p275
g203
sS'profile_image_url'
p276
g204
sS'notifications'
p277
NsS'geo_enabled'
p278
I01
sS'profile_background_color'
p279
g199
sS'profile_banner_url'
p280
g205
sS'profile_background_image_url'
p281
g206
sS'name'
p282
g207
sS'lang'
p283
g208
sS'following'
p284
I00
sS'profile_background_tile'
p285
I01
sS'favourites_count'
p286
I153
sS'screen_name'
p287
g209
sS'url'
p288
NsS'created_at'
p289
cdatetime
datetime
p290
(S'\x07\xd9\x05\x1a\x0e\x05\x1b\x00\x00\x00'
p291
tp292
Rp293
sS'profile_background_image_url_https'
p294
g200
sS'time_zone'
p295
g211
sS'protected'
p296
I00
sS'default_profile'
p297
I00
sS'is_translator'
p298
I00
sS'listed_count'
p299
I12
sbsS'geo'
p300
g212
sS'in_reply_to_user_id_str'
p301
NsS'possibly_sensitive'
p302
I00
sg283
g215
sg289
g290
(S'\x07\xdf\x07\r\x17\x18\x1c\x00\x00\x00'
p303
tp304
Rp305
sS'author'
p306
g258
sS'quoted_status_id_str'
p307
g218
sS'filter_level'
p308
g219
sS'in_reply_to_status_id_str'
p309
NsS'place'
p310
g0
(ctweepy.models
Place
p311
g2
Ntp312
Rp313
(dp314
S'full_name'
p315
g222
sg288
g223
sS'country'
p316
g225
sS'place_type'
p317
g227
sS'bounding_box'
p318
g0
(ctweepy.models
BoundingBox
p319
g2
Ntp320
Rp321
(dp322
S'type'
p323
g230
sg243
g231
sbsS'country_code'
p324
g238
sS'attributes'
p325
g240
sg11
g241
sg282
g242
sbsS'retweeted'
p326
I00
sb.