ccopy_reg
_reconstructor
p0
(ctweepy.models
Status
p1
c__builtin__
object
p2
Ntp3
Rp4
(dp5
S'favorited'
p6
I00
sS'contributors'
p7
NsS'truncated'
p8
I00
sS'text'
p9
VIs French cuisine dead? Join Twitter chat on Thursday, July 9, 1 pm EDT. #FutureFrenchCuisine @PollyMotzko @tastinghistory @qualityrye
p10
sS'source_url'
p11
Vhttp://twitter.com
p12
sS'possibly_sensitive'
p13
I01
sS'in_reply_to_status_id'
p14
NsS'user'
p15
g0
(ctweepy.models
User
p16
g2
Ntp17
Rp18
(dp19
S'follow_request_sent'
p20
NsS'profile_use_background_image'
p21
I01
sS'profile_sidebar_fill_color'
p22
VDDEEF6
p23
sS'id'
p24
I62246266
sS'verified'
p25
I00
sS'profile_image_url_https'
p26
Vhttps://pbs.twimg.com/profile_images/611211387675758592/SezptZ23_normal.jpg
p27
sS'_json'
p28
(dp29
Vfollow_request_sent
p30
NsVprofile_use_background_image
p31
I01
sVdefault_profile_image
p32
I00
sVid
p33
I62246266
sVverified
p34
I00
sVprofile_image_url_https
p35
g27
sVprofile_sidebar_fill_color
p36
g23
sVprofile_text_color
p37
V333333
p38
sVfollowers_count
p39
I2413
sVprofile_sidebar_border_color
p40
VC0DEED
p41
sVid_str
p42
V62246266
p43
sVprofile_background_color
p44
VC0DEED
p45
sVlisted_count
p46
I166
sVprofile_background_image_url_https
p47
Vhttps://pbs.twimg.com/profile_background_images/155615512/KeikoOikawa.jpg
p48
sVutc_offset
p49
I7200
sVstatuses_count
p50
I30331
sVdescription
p51
VFreelance food writer & editor specialized in French cuisine, writing a book The French & What They Eat. http://t.co/guV7pdhCJg #WhatToEatInFrance #foodwriting
p52
sVfriends_count
p53
I1461
sVlocation
p54
VFrance, Switzerland, U.S.
p55
sVprofile_link_color
p56
V0084B4
p57
sVprofile_image_url
p58
Vhttp://pbs.twimg.com/profile_images/611211387675758592/SezptZ23_normal.jpg
p59
sVfollowing
p60
NsVgeo_enabled
p61
I01
sVprofile_banner_url
p62
Vhttps://pbs.twimg.com/profile_banners/62246266/1372063685
p63
sVprofile_background_image_url
p64
Vhttp://pbs.twimg.com/profile_background_images/155615512/KeikoOikawa.jpg
p65
sVname
p66
VJonell Galloway
p67
sVlang
p68
Ven
p69
sVprofile_background_tile
p70
I00
sVfavourites_count
p71
I47
sVscreen_name
p72
VRamblingEpicure
p73
sVnotifications
p74
NsVurl
p75
Vhttp://theramblingepicure.com
p76
sVcreated_at
p77
VSun Aug 02 11:43:47 +0000 2009
p78
sVcontributors_enabled
p79
I00
sVtime_zone
p80
VBern
p81
sVprotected
p82
I00
sVdefault_profile
p83
I00
sVis_translator
p84
I00
ssS'contributors_enabled'
p85
I00
sS'profile_text_color'
p86
g38
sS'followers_count'
p87
I2413
sS'profile_sidebar_border_color'
p88
g41
sS'location'
p89
g55
sS'default_profile_image'
p90
I00
sS'id_str'
p91
g43
sS'utc_offset'
p92
I7200
sS'statuses_count'
p93
I30331
sS'description'
p94
g52
sS'friends_count'
p95
I1461
sS'profile_link_color'
p96
g57
sS'profile_image_url'
p97
g59
sS'notifications'
p98
NsS'geo_enabled'
p99
I01
sS'profile_background_color'
p100
g45
sS'profile_banner_url'
p101
g63
sS'profile_background_image_url'
p102
g65
sS'name'
p103
g67
sS'lang'
p104
g69
sS'following'
p105
I00
sS'profile_background_tile'
p106
I00
sS'favourites_count'
p107
I47
sS'screen_name'
p108
g73
sS'url'
p109
g76
sS'created_at'
p110
cdatetime
datetime
p111
(S'\x07\xd9\x08\x02\x0b+/\x00\x00\x00'
p112
tp113
Rp114
sS'profile_background_image_url_https'
p115
g48
sS'time_zone'
p116
g81
sS'protected'
p117
I00
sS'default_profile'
p118
I00
sS'is_translator'
p119
I00
sS'listed_count'
p120
I166
sbsS'filter_level'
p121
Vlow
p122
sS'geo'
p123
Nsg24
I619070874906402816
sS'favorite_count'
p124
I0
sS'source'
p125
VTwitter Web Client
p126
sg104
Ven
p127
sS'author'
p128
g18
sS'in_reply_to_user_id_str'
p129
Nsg28
(dp130
Vcontributors
p131
NsVtruncated
p132
I00
sVtext
p133
g10
sVin_reply_to_status_id
p134
Nsg33
I619070874906402816
sVfavorite_count
p135
I0
sVsource
p136
V<a href="http://twitter.com" rel="nofollow">Twitter Web Client</a>
p137
sVretweeted
p138
I00
sVcoordinates
p139
NsVtimestamp_ms
p140
V1436432973015
p141
sVentities
p142
(dp143
Vuser_mentions
p144
(lp145
(dp146
g33
I112425590
sVindices
p147
(lp148
I94
aI106
asg42
V112425590
p149
sg72
VPollyMotzko
p150
sg66
VPolly Motzko
p151
sa(dp152
g33
I2416006639
sg147
(lp153
I107
aI122
asg42
V2416006639
p154
sg72
Vtastinghistory
p155
sg66
VAndrea Quillen
p156
sa(dp157
g33
I21009948
sg147
(lp158
I123
aI134
asg42
V21009948
p159
sg72
Vqualityrye
p160
sg66
Vryan sutton
p161
sasVsymbols
p162
(lp163
sVtrends
p164
(lp165
sVhashtags
p166
(lp167
(dp168
g147
(lp169
I73
aI93
asg133
VFutureFrenchCuisine
p170
sasVurls
p171
(lp172
ssVin_reply_to_screen_name
p173
Nsg42
V619070874906402816
p174
sVretweet_count
p175
I0
sVin_reply_to_user_id
p176
NsVfavorited
p177
I00
sVuser
p178
g29
sVgeo
p179
NsVin_reply_to_user_id_str
p180
NsVpossibly_sensitive
p181
I01
sg68
g127
sg77
VThu Jul 09 09:09:33 +0000 2015
p182
sVfilter_level
p183
g122
sVin_reply_to_status_id_str
p184
NsVplace
p185
(dp186
Vfull_name
p187
VZurich, Switzerland
p188
sg75
Vhttps://api.twitter.com/1.1/geo/id/3acb748d0f1e9265.json
p189
sVcountry
p190
VSchweiz
p191
sVplace_type
p192
Vcity
p193
sVbounding_box
p194
(dp195
Vtype
p196
VPolygon
p197
sg139
(lp198
(lp199
(lp200
F8.448081
aF47.320183
aa(lp201
F8.448081
aF47.434721
aa(lp202
F8.625442
aF47.434721
aa(lp203
F8.625442
aF47.320183
aaassVcountry_code
p204
VCH
p205
sVattributes
p206
(dp207
sg33
V3acb748d0f1e9265
p208
sg66
VZurich
p209
sssS'coordinates'
p210
NsS'timestamp_ms'
p211
g141
sS'entities'
p212
g143
sS'in_reply_to_status_id_str'
p213
NsS'in_reply_to_screen_name'
p214
Nsg91
g174
sS'retweeted'
p215
I00
sS'place'
p216
g0
(ctweepy.models
Place
p217
g2
Ntp218
Rp219
(dp220
S'full_name'
p221
g188
sg109
g189
sS'country'
p222
g191
sS'place_type'
p223
g193
sS'bounding_box'
p224
g0
(ctweepy.models
BoundingBox
p225
g2
Ntp226
Rp227
(dp228
S'type'
p229
g197
sg210
g198
sbsS'country_code'
p230
g205
sS'attributes'
p231
g207
sg24
g208
sg103
g209
sbsS'retweet_count'
p232
I0
sg110
g111
(S'\x07\xdf\x07\t\t\t!\x00\x00\x00'
p233
tp234
Rp235
sS'in_reply_to_user_id'
p236
Nsb.