ccopy_reg
_reconstructor
p0
(ctweepy.models
Status
p1
c__builtin__
object
p2
Ntp3
Rp4
(dp5
S'favorited'
p6
I00
sS'contributors'
p7
NsS'truncated'
p8
I00
sS'text'
p9
VAll the #book nerds rejoice.\u000a\u000aEverything #science knows about #reading on screens http://t.co/zykpwpLDcK #ibook #paper #ebook #kindle
p10
sS'source_url'
p11
Vhttp://twitter.com/download/iphone
p12
sS'possibly_sensitive'
p13
I00
sS'in_reply_to_status_id'
p14
NsS'user'
p15
g0
(ctweepy.models
User
p16
g2
Ntp17
Rp18
(dp19
S'follow_request_sent'
p20
NsS'profile_use_background_image'
p21
I00
sS'profile_sidebar_fill_color'
p22
VDAECF4
p23
sS'id'
p24
I28296260
sS'verified'
p25
I00
sS'profile_image_url_https'
p26
Vhttps://pbs.twimg.com/profile_images/613571492547268609/CtSn14hY_normal.jpg
p27
sS'_json'
p28
(dp29
Vfollow_request_sent
p30
NsVprofile_use_background_image
p31
I00
sVdefault_profile_image
p32
I00
sVid
p33
I28296260
sVverified
p34
I00
sVprofile_image_url_https
p35
g27
sVprofile_sidebar_fill_color
p36
g23
sVprofile_text_color
p37
V0F0802
p38
sVfollowers_count
p39
I534
sVprofile_sidebar_border_color
p40
VFFFFFF
p41
sVid_str
p42
V28296260
p43
sVprofile_background_color
p44
V85B7F5
p45
sVlisted_count
p46
I17
sVprofile_background_image_url_https
p47
Vhttps://pbs.twimg.com/profile_background_images/859620450/c9554d651533d28691c1681471817961.jpeg
p48
sVutc_offset
p49
I7200
sVstatuses_count
p50
I16413
sVdescription
p51
Vhave camera will travel
p52
sVfriends_count
p53
I210
sVlocation
p54
VZurich
p55
sVprofile_link_color
p56
V429CF5
p57
sVprofile_image_url
p58
Vhttp://pbs.twimg.com/profile_images/613571492547268609/CtSn14hY_normal.jpg
p59
sVfollowing
p60
NsVgeo_enabled
p61
I01
sVprofile_background_image_url
p62
Vhttp://pbs.twimg.com/profile_background_images/859620450/c9554d651533d28691c1681471817961.jpeg
p63
sVname
p64
VSteven Anggrek
p65
sVlang
p66
Ven
p67
sVprofile_background_tile
p68
I00
sVfavourites_count
p69
I236
sVscreen_name
p70
Vstevenanggrek
p71
sVnotifications
p72
NsVurl
p73
Vhttp://www.stevenanggrek.ch
p74
sVcreated_at
p75
VThu Apr 02 06:46:57 +0000 2009
p76
sVcontributors_enabled
p77
I00
sVtime_zone
p78
VParis
p79
sVprotected
p80
I00
sVdefault_profile
p81
I00
sVis_translator
p82
I00
ssS'contributors_enabled'
p83
I00
sS'profile_text_color'
p84
g38
sS'followers_count'
p85
I534
sS'profile_sidebar_border_color'
p86
g41
sS'location'
p87
g55
sS'default_profile_image'
p88
I00
sS'id_str'
p89
g43
sS'utc_offset'
p90
I7200
sS'statuses_count'
p91
I16413
sS'description'
p92
g52
sS'friends_count'
p93
I210
sS'profile_link_color'
p94
g57
sS'profile_image_url'
p95
g59
sS'notifications'
p96
NsS'geo_enabled'
p97
I01
sS'profile_background_color'
p98
g45
sS'profile_background_image_url'
p99
g63
sS'name'
p100
g65
sS'lang'
p101
g67
sS'following'
p102
I00
sS'profile_background_tile'
p103
I00
sS'favourites_count'
p104
I236
sS'screen_name'
p105
g71
sS'url'
p106
g74
sS'created_at'
p107
cdatetime
datetime
p108
(S'\x07\xd9\x04\x02\x06.9\x00\x00\x00'
p109
tp110
Rp111
sS'profile_background_image_url_https'
p112
g48
sS'time_zone'
p113
g79
sS'protected'
p114
I00
sS'default_profile'
p115
I00
sS'is_translator'
p116
I00
sS'listed_count'
p117
I17
sbsS'filter_level'
p118
Vlow
p119
sS'geo'
p120
Nsg24
I621156515119034369
sS'favorite_count'
p121
I0
sS'source'
p122
VTwitter for iPhone
p123
sg101
Ven
p124
sS'author'
p125
g18
sS'in_reply_to_user_id_str'
p126
Nsg28
(dp127
Vcontributors
p128
NsVtruncated
p129
I00
sVtext
p130
VAll the #book nerds rejoice.\u000a\u000aEverything #science knows about #reading on screens http://t.co/zykpwpLDcK #ibook #paper #ebook #kindle
p131
sVin_reply_to_status_id
p132
Nsg33
I621156515119034369
sVfavorite_count
p133
I0
sVsource
p134
V<a href="http://twitter.com/download/iphone" rel="nofollow">Twitter for iPhone</a>
p135
sVretweeted
p136
I00
sVcoordinates
p137
NsVtimestamp_ms
p138
V1436930228391
p139
sVentities
p140
(dp141
Vuser_mentions
p142
(lp143
sVsymbols
p144
(lp145
sVtrends
p146
(lp147
sVhashtags
p148
(lp149
(dp150
Vindices
p151
(lp152
I8
aI13
asg130
Vbook
p153
sa(dp154
g151
(lp155
I41
aI49
asg130
Vscience
p156
sa(dp157
g151
(lp158
I62
aI70
asg130
Vreading
p159
sa(dp160
g151
(lp161
I105
aI111
asg130
Vibook
p162
sa(dp163
g151
(lp164
I112
aI118
asg130
Vpaper
p165
sa(dp166
g151
(lp167
I119
aI125
asg130
Vebook
p168
sa(dp169
g151
(lp170
I126
aI133
asg130
Vkindle
p171
sasVurls
p172
(lp173
(dp174
g73
Vhttp://t.co/zykpwpLDcK
p175
sg151
(lp176
I82
aI104
asVexpanded_url
p177
Vhttp://www.fastcodesign.com/3048297/evidence/everything-science-knows-about-reading-on-screens?partner=rss
p178
sVdisplay_url
p179
Vfastcodesign.com/3048297/eviden\u2026
p180
sassVin_reply_to_screen_name
p181
Nsg42
V621156515119034369
p182
sVretweet_count
p183
I0
sVin_reply_to_user_id
p184
NsVfavorited
p185
I00
sVuser
p186
g29
sVgeo
p187
NsVin_reply_to_user_id_str
p188
NsVpossibly_sensitive
p189
I00
sg66
g124
sg75
VWed Jul 15 03:17:08 +0000 2015
p190
sVfilter_level
p191
g119
sVin_reply_to_status_id_str
p192
NsVplace
p193
(dp194
Vfull_name
p195
VZurich, Switzerland
p196
sg73
Vhttps://api.twitter.com/1.1/geo/id/3acb748d0f1e9265.json
p197
sVcountry
p198
VSchweiz
p199
sVplace_type
p200
Vcity
p201
sVbounding_box
p202
(dp203
Vtype
p204
VPolygon
p205
sg137
(lp206
(lp207
(lp208
F8.448081
aF47.320183
aa(lp209
F8.448081
aF47.434721
aa(lp210
F8.625442
aF47.434721
aa(lp211
F8.625442
aF47.320183
aaassVcountry_code
p212
VCH
p213
sVattributes
p214
(dp215
sg33
V3acb748d0f1e9265
p216
sg64
VZurich
p217
sssS'coordinates'
p218
NsS'timestamp_ms'
p219
g139
sS'entities'
p220
g141
sS'in_reply_to_status_id_str'
p221
NsS'in_reply_to_screen_name'
p222
Nsg89
g182
sS'retweeted'
p223
I00
sS'place'
p224
g0
(ctweepy.models
Place
p225
g2
Ntp226
Rp227
(dp228
S'full_name'
p229
g196
sg106
g197
sS'country'
p230
g199
sS'place_type'
p231
g201
sS'bounding_box'
p232
g0
(ctweepy.models
BoundingBox
p233
g2
Ntp234
Rp235
(dp236
S'type'
p237
g205
sg218
g206
sbsS'country_code'
p238
g213
sS'attributes'
p239
g215
sg24
g216
sg100
g217
sbsS'retweet_count'
p240
I0
sg107
g108
(S'\x07\xdf\x07\x0f\x03\x11\x08\x00\x00\x00'
p241
tp242
Rp243
sS'in_reply_to_user_id'
p244
Nsb.