ccopy_reg
_reconstructor
p0
(ctweepy.models
Status
p1
c__builtin__
object
p2
Ntp3
Rp4
(dp5
S'favorited'
p6
I00
sS'contributors'
p7
NsS'truncated'
p8
I00
sS'text'
p9
V#riforma #scuola #Renzi http://t.co/lzK2bDDpis
p10
sS'source_url'
p11
Vhttp://twitter.com/download/iphone
p12
sS'possibly_sensitive'
p13
I00
sS'in_reply_to_status_id'
p14
NsS'user'
p15
g0
(ctweepy.models
User
p16
g2
Ntp17
Rp18
(dp19
S'follow_request_sent'
p20
NsS'profile_use_background_image'
p21
I01
sS'profile_sidebar_fill_color'
p22
VFFFA96
p23
sS'id'
p24
I396839979
sS'verified'
p25
I00
sS'profile_image_url_https'
p26
Vhttps://pbs.twimg.com/profile_images/1862267158/image_normal.jpg
p27
sS'_json'
p28
(dp29
Vfollow_request_sent
p30
NsVprofile_use_background_image
p31
I01
sVdefault_profile_image
p32
I00
sVid
p33
I396839979
sVverified
p34
I00
sVprofile_image_url_https
p35
g27
sVprofile_sidebar_fill_color
p36
g23
sVprofile_text_color
p37
V000000
p38
sVfollowers_count
p39
I99
sVprofile_sidebar_border_color
p40
VFFFFFF
p41
sVid_str
p42
V396839979
p43
sVprofile_background_color
p44
VFFFFFF
p45
sVlisted_count
p46
I4
sVprofile_background_image_url_https
p47
Vhttps://pbs.twimg.com/profile_background_images/432966422558306304/NiRVOLFe.png
p48
sVutc_offset
p49
I-7200
sVstatuses_count
p50
I175
sVdescription
p51
VStudent University of Zurich, Politician, Photographer
p52
sVfriends_count
p53
I160
sVlocation
p54
VZurich
p55
sVprofile_link_color
p56
VFF0022
p57
sVprofile_image_url
p58
Vhttp://pbs.twimg.com/profile_images/1862267158/image_normal.jpg
p59
sVfollowing
p60
NsVgeo_enabled
p61
I01
sVprofile_banner_url
p62
Vhttps://pbs.twimg.com/profile_banners/396839979/1398293062
p63
sVprofile_background_image_url
p64
Vhttp://pbs.twimg.com/profile_background_images/432966422558306304/NiRVOLFe.png
p65
sVname
p66
VMarin Mikelin
p67
sVlang
p68
Vit
p69
sVprofile_background_tile
p70
I00
sVfavourites_count
p71
I55
sVscreen_name
p72
VMarinMikelin
p73
sVnotifications
p74
NsVurl
p75
Vhttp://marinmikelin.carbonmade.com
p76
sVcreated_at
p77
VSun Oct 23 21:02:47 +0000 2011
p78
sVcontributors_enabled
p79
I00
sVtime_zone
p80
VGreenland
p81
sVprotected
p82
I00
sVdefault_profile
p83
I00
sVis_translator
p84
I00
ssS'contributors_enabled'
p85
I00
sS'profile_text_color'
p86
g38
sS'followers_count'
p87
I99
sS'profile_sidebar_border_color'
p88
g41
sS'location'
p89
g55
sS'default_profile_image'
p90
I00
sS'id_str'
p91
g43
sS'utc_offset'
p92
I-7200
sS'statuses_count'
p93
I175
sS'description'
p94
g52
sS'friends_count'
p95
I160
sS'profile_link_color'
p96
g57
sS'profile_image_url'
p97
g59
sS'notifications'
p98
NsS'geo_enabled'
p99
I01
sS'profile_background_color'
p100
g45
sS'profile_banner_url'
p101
g63
sS'profile_background_image_url'
p102
g65
sS'name'
p103
g67
sS'lang'
p104
g69
sS'following'
p105
I00
sS'profile_background_tile'
p106
I00
sS'favourites_count'
p107
I55
sS'screen_name'
p108
g73
sS'url'
p109
g76
sS'created_at'
p110
cdatetime
datetime
p111
(S'\x07\xdb\n\x17\x15\x02/\x00\x00\x00'
p112
tp113
Rp114
sS'profile_background_image_url_https'
p115
g48
sS'time_zone'
p116
g81
sS'protected'
p117
I00
sS'default_profile'
p118
I00
sS'is_translator'
p119
I00
sS'listed_count'
p120
I4
sbsS'filter_level'
p121
Vlow
p122
sS'geo'
p123
Nsg24
I619519396239835136
sS'favorite_count'
p124
I0
sS'source'
p125
VTwitter for iPhone
p126
sg104
Vund
p127
sS'author'
p128
g18
sS'in_reply_to_user_id_str'
p129
Nsg28
(dp130
Vcontributors
p131
NsVtruncated
p132
I00
sVtext
p133
g10
sVin_reply_to_status_id
p134
Nsg33
I619519396239835136
sVfavorite_count
p135
I0
sVsource
p136
V<a href="http://twitter.com/download/iphone" rel="nofollow">Twitter for iPhone</a>
p137
sVretweeted
p138
I00
sVcoordinates
p139
NsVtimestamp_ms
p140
V1436539908834
p141
sVentities
p142
(dp143
Vsymbols
p144
(lp145
sVmedia
p146
(lp147
(dp148
Vexpanded_url
p149
Vhttp://twitter.com/MarinMikelin/status/619519396239835136/photo/1
p150
sVdisplay_url
p151
Vpic.twitter.com/lzK2bDDpis
p152
sg75
Vhttp://t.co/lzK2bDDpis
p153
sVmedia_url_https
p154
Vhttps://pbs.twimg.com/media/CJj5mbrWsAAwoho.jpg
p155
sg42
V619519387423387648
p156
sVsizes
p157
(dp158
Vsmall
p159
(dp160
Vh
p161
I340
sVresize
p162
Vfit
p163
sVw
p164
I340
ssVlarge
p165
(dp166
g161
I755
sg162
Vfit
p167
sg164
I755
ssVmedium
p168
(dp169
g161
I600
sg162
Vfit
p170
sg164
I600
ssVthumb
p171
(dp172
g161
I150
sg162
Vcrop
p173
sg164
I150
sssVindices
p174
(lp175
I24
aI46
asVtype
p176
Vphoto
p177
sg33
I619519387423387648
sVmedia_url
p178
Vhttp://pbs.twimg.com/media/CJj5mbrWsAAwoho.jpg
p179
sasVhashtags
p180
(lp181
(dp182
g174
(lp183
I0
aI8
asg133
Vriforma
p184
sa(dp185
g174
(lp186
I9
aI16
asg133
Vscuola
p187
sa(dp188
g174
(lp189
I17
aI23
asg133
VRenzi
p190
sasVuser_mentions
p191
(lp192
sVtrends
p193
(lp194
sVurls
p195
(lp196
ssVin_reply_to_screen_name
p197
Nsg42
V619519396239835136
p198
sVretweet_count
p199
I0
sVin_reply_to_user_id
p200
NsVfavorited
p201
I00
sVuser
p202
g29
sVgeo
p203
NsVin_reply_to_user_id_str
p204
NsVpossibly_sensitive
p205
I00
sg68
g127
sg77
VFri Jul 10 14:51:48 +0000 2015
p206
sVfilter_level
p207
g122
sVin_reply_to_status_id_str
p208
NsVplace
p209
(dp210
Vfull_name
p211
VZurigo, Svizzera
p212
sg75
Vhttps://api.twitter.com/1.1/geo/id/3acb748d0f1e9265.json
p213
sVcountry
p214
VSchweiz
p215
sVplace_type
p216
Vcity
p217
sVbounding_box
p218
(dp219
g176
VPolygon
p220
sg139
(lp221
(lp222
(lp223
F8.448081
aF47.320183
aa(lp224
F8.448081
aF47.434721
aa(lp225
F8.625442
aF47.434721
aa(lp226
F8.625442
aF47.320183
aaassVcountry_code
p227
VCH
p228
sVattributes
p229
(dp230
sg33
V3acb748d0f1e9265
p231
sg66
VZurigo
p232
ssVextended_entities
p233
(dp234
g146
(lp235
(dp236
g149
Vhttp://twitter.com/MarinMikelin/status/619519396239835136/photo/1
p237
sg151
Vpic.twitter.com/lzK2bDDpis
p238
sg75
Vhttp://t.co/lzK2bDDpis
p239
sg154
Vhttps://pbs.twimg.com/media/CJj5mbrWsAAwoho.jpg
p240
sg42
V619519387423387648
p241
sg157
(dp242
g159
(dp243
g161
I340
sg162
Vfit
p244
sg164
I340
ssg165
(dp245
g161
I755
sg162
Vfit
p246
sg164
I755
ssg168
(dp247
g161
I600
sg162
Vfit
p248
sg164
I600
ssg171
(dp249
g161
I150
sg162
Vcrop
p250
sg164
I150
sssg174
(lp251
I24
aI46
asg176
Vphoto
p252
sg33
I619519387423387648
sg178
Vhttp://pbs.twimg.com/media/CJj5mbrWsAAwoho.jpg
p253
sasssS'coordinates'
p254
NsS'timestamp_ms'
p255
g141
sS'entities'
p256
g143
sS'in_reply_to_status_id_str'
p257
NsS'in_reply_to_screen_name'
p258
Nsg91
g198
sS'extended_entities'
p259
g234
sS'retweeted'
p260
I00
sS'place'
p261
g0
(ctweepy.models
Place
p262
g2
Ntp263
Rp264
(dp265
S'full_name'
p266
g212
sg109
g213
sS'country'
p267
g215
sS'place_type'
p268
g217
sS'bounding_box'
p269
g0
(ctweepy.models
BoundingBox
p270
g2
Ntp271
Rp272
(dp273
S'type'
p274
g220
sg254
g221
sbsS'country_code'
p275
g228
sS'attributes'
p276
g230
sg24
g231
sg103
g232
sbsS'retweet_count'
p277
I0
sg110
g111
(S'\x07\xdf\x07\n\x0e30\x00\x00\x00'
p278
tp279
Rp280
sS'in_reply_to_user_id'
p281
Nsb.