ccopy_reg
_reconstructor
p0
(ctweepy.models
Status
p1
c__builtin__
object
p2
Ntp3
Rp4
(dp5
S'favorited'
p6
I00
sS'contributors'
p7
NsS'truncated'
p8
I00
sS'text'
p9
VAccenture #IT #Job: Berater (m/w) Salesforce - SaaS (#Zurich) http://t.co/5WdQkBiX6O #Jobs #Hiring #TweetMyJobs
p10
sS'source_url'
p11
Vhttp://www.tweetmyjobs.com
p12
sS'possibly_sensitive'
p13
I00
sS'in_reply_to_status_id'
p14
NsS'user'
p15
g0
(ctweepy.models
User
p16
g2
Ntp17
Rp18
(dp19
S'follow_request_sent'
p20
NsS'profile_use_background_image'
p21
I01
sS'profile_sidebar_fill_color'
p22
V407DB0
p23
sS'id'
p24
I40216893
sS'verified'
p25
I00
sS'profile_image_url_https'
p26
Vhttps://pbs.twimg.com/profile_images/2303715682/Logo_tmj_new2b_normal.png
p27
sS'_json'
p28
(dp29
Vfollow_request_sent
p30
NsVprofile_use_background_image
p31
I01
sVdefault_profile_image
p32
I00
sVid
p33
I40216893
sVverified
p34
I00
sVprofile_image_url_https
p35
g27
sVprofile_sidebar_fill_color
p36
g23
sVprofile_text_color
p37
V000000
p38
sVfollowers_count
p39
I329
sVprofile_sidebar_border_color
p40
V000000
p41
sVid_str
p42
V40216893
p43
sVprofile_background_color
p44
V253956
p45
sVlisted_count
p46
I12
sVprofile_background_image_url_https
p47
Vhttps://pbs.twimg.com/profile_background_images/315454616/Twitter-BG_2_bg-image.jpg
p48
sVutc_offset
p49
I-14400
sVstatuses_count
p50
I4
sVdescription
p51
VFollow this account for geo-targeted IT-Support/Administration job tweets in Switzerland from TweetMyJobs. Need help? Tweet us at @TweetMyJobs!
p52
sVfriends_count
p53
I298
sVlocation
p54
VSwitzerland
p55
sVprofile_link_color
p56
V96BEDF
p57
sVprofile_image_url
p58
Vhttp://pbs.twimg.com/profile_images/2303715682/Logo_tmj_new2b_normal.png
p59
sVfollowing
p60
NsVgeo_enabled
p61
I01
sVprofile_banner_url
p62
Vhttps://pbs.twimg.com/profile_banners/40216893/1349360292
p63
sVprofile_background_image_url
p64
Vhttp://pbs.twimg.com/profile_background_images/315454616/Twitter-BG_2_bg-image.jpg
p65
sVname
p66
VTMJ-SWS IT Adm. Jobs
p67
sVlang
p68
Ven
p69
sVprofile_background_tile
p70
I00
sVfavourites_count
p71
I0
sVscreen_name
p72
Vtmj_sws_adm
p73
sVnotifications
p74
NsVurl
p75
Vhttp://tweetmyjobs.com
p76
sVcreated_at
p77
VFri May 15 10:51:01 +0000 2009
p78
sVcontributors_enabled
p79
I00
sVtime_zone
p80
VEastern Time (US & Canada)
p81
sVprotected
p82
I00
sVdefault_profile
p83
I00
sVis_translator
p84
I00
ssS'contributors_enabled'
p85
I00
sS'profile_text_color'
p86
g38
sS'followers_count'
p87
I329
sS'profile_sidebar_border_color'
p88
g41
sS'location'
p89
g55
sS'default_profile_image'
p90
I00
sS'id_str'
p91
g43
sS'utc_offset'
p92
I-14400
sS'statuses_count'
p93
I4
sS'description'
p94
g52
sS'friends_count'
p95
I298
sS'profile_link_color'
p96
g57
sS'profile_image_url'
p97
g59
sS'notifications'
p98
NsS'geo_enabled'
p99
I01
sS'profile_background_color'
p100
g45
sS'profile_banner_url'
p101
g63
sS'profile_background_image_url'
p102
g65
sS'name'
p103
g67
sS'lang'
p104
g69
sS'following'
p105
I00
sS'profile_background_tile'
p106
I00
sS'favourites_count'
p107
I0
sS'screen_name'
p108
g73
sS'url'
p109
g76
sS'created_at'
p110
cdatetime
datetime
p111
(S'\x07\xd9\x05\x0f\n3\x01\x00\x00\x00'
p112
tp113
Rp114
sS'profile_background_image_url_https'
p115
g48
sS'time_zone'
p116
g81
sS'protected'
p117
I00
sS'default_profile'
p118
I00
sS'is_translator'
p119
I00
sS'listed_count'
p120
I12
sbsS'filter_level'
p121
Vlow
p122
sS'geo'
p123
(dp124
Vtype
p125
VPoint
p126
sVcoordinates
p127
(lp128
F47.36865
aF8.539183
assg24
I621195525304365056
sS'favorite_count'
p129
I0
sS'source'
p130
VTweetMyJOBS
p131
sg104
Ven
p132
sS'author'
p133
g18
sS'in_reply_to_user_id_str'
p134
Nsg28
(dp135
Vcontributors
p136
NsVtruncated
p137
I00
sVtext
p138
g10
sVin_reply_to_status_id
p139
Nsg33
I621195525304365056
sVfavorite_count
p140
I0
sVsource
p141
V<a href="http://www.tweetmyjobs.com" rel="nofollow">TweetMyJOBS</a>
p142
sVretweeted
p143
I00
sg127
(dp144
g125
VPoint
p145
sg127
(lp146
F8.539183
aF47.36865
assVtimestamp_ms
p147
V1436939529144
p148
sVentities
p149
(dp150
Vuser_mentions
p151
(lp152
sVsymbols
p153
(lp154
sVtrends
p155
(lp156
sVhashtags
p157
(lp158
(dp159
Vindices
p160
(lp161
I10
aI13
asg138
VIT
p162
sa(dp163
g160
(lp164
I14
aI18
asg138
VJob
p165
sa(dp166
g160
(lp167
I53
aI60
asg138
VZurich
p168
sa(dp169
g160
(lp170
I85
aI90
asg138
VJobs
p171
sa(dp172
g160
(lp173
I91
aI98
asg138
VHiring
p174
sa(dp175
g160
(lp176
I99
aI111
asg138
VTweetMyJobs
p177
sasVurls
p178
(lp179
(dp180
g75
Vhttp://t.co/5WdQkBiX6O
p181
sg160
(lp182
I62
aI84
asVexpanded_url
p183
Vhttp://bit.ly/1MzGMsv
p184
sVdisplay_url
p185
Vbit.ly/1MzGMsv
p186
sassVin_reply_to_screen_name
p187
Nsg42
V621195525304365056
p188
sVretweet_count
p189
I0
sVin_reply_to_user_id
p190
NsVfavorited
p191
I00
sVuser
p192
g29
sVgeo
p193
g124
sVin_reply_to_user_id_str
p194
NsVpossibly_sensitive
p195
I00
sg68
g132
sg77
VWed Jul 15 05:52:09 +0000 2015
p196
sVfilter_level
p197
g122
sVin_reply_to_status_id_str
p198
NsVplace
p199
(dp200
Vfull_name
p201
VZurich, Switzerland
p202
sg75
Vhttps://api.twitter.com/1.1/geo/id/3acb748d0f1e9265.json
p203
sVcountry
p204
VSchweiz
p205
sVplace_type
p206
Vcity
p207
sVbounding_box
p208
(dp209
g125
VPolygon
p210
sg127
(lp211
(lp212
(lp213
F8.448081
aF47.320183
aa(lp214
F8.448081
aF47.434721
aa(lp215
F8.625442
aF47.434721
aa(lp216
F8.625442
aF47.320183
aaassVcountry_code
p217
VCH
p218
sVattributes
p219
(dp220
sg33
V3acb748d0f1e9265
p221
sg66
VZurich
p222
sssS'coordinates'
p223
g144
sS'timestamp_ms'
p224
g148
sS'entities'
p225
g150
sS'in_reply_to_status_id_str'
p226
NsS'in_reply_to_screen_name'
p227
Nsg91
g188
sS'retweeted'
p228
I00
sS'place'
p229
g0
(ctweepy.models
Place
p230
g2
Ntp231
Rp232
(dp233
S'full_name'
p234
g202
sg109
g203
sS'country'
p235
g205
sS'place_type'
p236
g207
sS'bounding_box'
p237
g0
(ctweepy.models
BoundingBox
p238
g2
Ntp239
Rp240
(dp241
S'type'
p242
g210
sg223
g211
sbsS'country_code'
p243
g218
sS'attributes'
p244
g220
sg24
g221
sg103
g222
sbsS'retweet_count'
p245
I0
sg110
g111
(S'\x07\xdf\x07\x0f\x054\t\x00\x00\x00'
p246
tp247
Rp248
sS'in_reply_to_user_id'
p249
Nsb.