ccopy_reg
_reconstructor
p0
(ctweepy.models
Status
p1
c__builtin__
object
p2
Ntp3
Rp4
(dp5
S'favorited'
p6
I00
sS'contributors'
p7
NsS'truncated'
p8
I00
sS'text'
p9
VAND UP  WE GO AND AWAY AND UP WE GO WAY WAY http://t.co/PDrRbN6yt5
p10
sS'source_url'
p11
Vhttp://twitter.com
p12
sS'possibly_sensitive'
p13
I00
sS'in_reply_to_status_id'
p14
NsS'user'
p15
g0
(ctweepy.models
User
p16
g2
Ntp17
Rp18
(dp19
S'follow_request_sent'
p20
NsS'profile_use_background_image'
p21
I00
sS'profile_sidebar_fill_color'
p22
V78C0A8
p23
sS'id'
p24
I413987354
sS'verified'
p25
I00
sS'profile_image_url_https'
p26
Vhttps://pbs.twimg.com/profile_images/620059988267040768/h5w8K4Ju_normal.jpg
p27
sS'_json'
p28
(dp29
Vfollow_request_sent
p30
NsVprofile_use_background_image
p31
I00
sVdefault_profile_image
p32
I00
sVid
p33
I413987354
sVverified
p34
I00
sVprofile_image_url_https
p35
g27
sVprofile_sidebar_fill_color
p36
g23
sVprofile_text_color
p37
V1C798A
p38
sVfollowers_count
p39
I10697
sVprofile_sidebar_border_color
p40
V000000
p41
sVid_str
p42
V413987354
p43
sVprofile_background_color
p44
VFFFFFF
p45
sVlisted_count
p46
I15
sVprofile_background_image_url_https
p47
Vhttps://pbs.twimg.com/profile_background_images/378800000053809914/285c1fabd5f008f11f0e0a6e642dfb0c.png
p48
sVutc_offset
p49
I10800
sVstatuses_count
p50
I168874
sVdescription
p51
VRihanna, The Weeknd and Lana Del Rey.
p52
sVfriends_count
p53
I301
sVlocation
p54
V
p55
sVprofile_link_color
p56
VABB8C2
p57
sVprofile_image_url
p58
Vhttp://pbs.twimg.com/profile_images/620059988267040768/h5w8K4Ju_normal.jpg
p59
sVfollowing
p60
NsVgeo_enabled
p61
I01
sVprofile_banner_url
p62
Vhttps://pbs.twimg.com/profile_banners/413987354/1436669199
p63
sVprofile_background_image_url
p64
Vhttp://pbs.twimg.com/profile_background_images/378800000053809914/285c1fabd5f008f11f0e0a6e642dfb0c.png
p65
sVname
p66
VKanye West
p67
sVlang
p68
Vfr
p69
sVprofile_background_tile
p70
I00
sVfavourites_count
p71
I17227
sVscreen_name
p72
VJoelG4L
p73
sVnotifications
p74
NsVurl
p75
NsVcreated_at
p76
VWed Nov 16 13:54:35 +0000 2011
p77
sVcontributors_enabled
p78
I00
sVtime_zone
p79
VAthens
p80
sVprotected
p81
I00
sVdefault_profile
p82
I00
sVis_translator
p83
I00
ssS'contributors_enabled'
p84
I00
sS'profile_text_color'
p85
g38
sS'followers_count'
p86
I10697
sS'profile_sidebar_border_color'
p87
g41
sS'location'
p88
g55
sS'default_profile_image'
p89
I00
sS'id_str'
p90
g43
sS'utc_offset'
p91
I10800
sS'statuses_count'
p92
I168874
sS'description'
p93
g52
sS'friends_count'
p94
I301
sS'profile_link_color'
p95
g57
sS'profile_image_url'
p96
g59
sS'notifications'
p97
NsS'geo_enabled'
p98
I01
sS'profile_background_color'
p99
g45
sS'profile_banner_url'
p100
g63
sS'profile_background_image_url'
p101
g65
sS'name'
p102
g67
sS'lang'
p103
g69
sS'following'
p104
I00
sS'profile_background_tile'
p105
I00
sS'favourites_count'
p106
I17227
sS'screen_name'
p107
g73
sS'url'
p108
NsS'created_at'
p109
cdatetime
datetime
p110
(S'\x07\xdb\x0b\x10\r6#\x00\x00\x00'
p111
tp112
Rp113
sS'profile_background_image_url_https'
p114
g48
sS'time_zone'
p115
g80
sS'protected'
p116
I00
sS'default_profile'
p117
I00
sS'is_translator'
p118
I00
sS'listed_count'
p119
I15
sbsS'filter_level'
p120
Vlow
p121
sS'geo'
p122
Nsg24
I620278890942955520
sS'favorite_count'
p123
I0
sS'source'
p124
VTwitter Web Client
p125
sg103
Ven
p126
sS'author'
p127
g18
sS'in_reply_to_user_id_str'
p128
Nsg28
(dp129
Vcontributors
p130
NsVtruncated
p131
I00
sVtext
p132
g10
sVin_reply_to_status_id
p133
Nsg33
I620278890942955520
sVfavorite_count
p134
I0
sVsource
p135
V<a href="http://twitter.com" rel="nofollow">Twitter Web Client</a>
p136
sVretweeted
p137
I00
sVcoordinates
p138
NsVtimestamp_ms
p139
V1436720986482
p140
sVentities
p141
(dp142
Vsymbols
p143
(lp144
sVmedia
p145
(lp146
(dp147
Vsource_status_id_str
p148
V619895576004591617
p149
sVexpanded_url
p150
Vhttp://twitter.com/dvrrxll/status/619895576004591617/photo/1
p151
sVdisplay_url
p152
Vpic.twitter.com/PDrRbN6yt5
p153
sg75
Vhttp://t.co/PDrRbN6yt5
p154
sVmedia_url_https
p155
Vhttps://pbs.twimg.com/tweet_video_thumb/CJpPqY9UwAI-q0T.png
p156
sVsource_status_id
p157
I619895576004591617
sg42
V619895488389627906
p158
sVsizes
p159
(dp160
Vlarge
p161
(dp162
Vh
p163
I198
sVresize
p164
Vfit
p165
sVw
p166
I350
ssVsmall
p167
(dp168
g163
I192
sg164
Vfit
p169
sg166
I340
ssVmedium
p170
(dp171
g163
I198
sg164
Vfit
p172
sg166
I350
ssVthumb
p173
(dp174
g163
I150
sg164
Vcrop
p175
sg166
I150
sssVindices
p176
(lp177
I44
aI66
asVtype
p178
Vphoto
p179
sg33
I619895488389627906
sVmedia_url
p180
Vhttp://pbs.twimg.com/tweet_video_thumb/CJpPqY9UwAI-q0T.png
p181
sasVhashtags
p182
(lp183
sVuser_mentions
p184
(lp185
sVtrends
p186
(lp187
sVurls
p188
(lp189
ssVin_reply_to_screen_name
p190
Nsg42
V620278890942955520
p191
sVretweet_count
p192
I0
sVin_reply_to_user_id
p193
NsVfavorited
p194
I00
sVuser
p195
g29
sVgeo
p196
NsVin_reply_to_user_id_str
p197
NsVpossibly_sensitive
p198
I00
sg68
g126
sg76
VSun Jul 12 17:09:46 +0000 2015
p199
sVfilter_level
p200
g121
sVin_reply_to_status_id_str
p201
NsVplace
p202
(dp203
Vfull_name
p204
VZurich, Suisse
p205
sg75
Vhttps://api.twitter.com/1.1/geo/id/3acb748d0f1e9265.json
p206
sVcountry
p207
VSchweiz
p208
sVplace_type
p209
Vcity
p210
sVbounding_box
p211
(dp212
g178
VPolygon
p213
sg138
(lp214
(lp215
(lp216
F8.448081
aF47.320183
aa(lp217
F8.448081
aF47.434721
aa(lp218
F8.625442
aF47.434721
aa(lp219
F8.625442
aF47.320183
aaassVcountry_code
p220
VCH
p221
sVattributes
p222
(dp223
sg33
V3acb748d0f1e9265
p224
sg66
VZurich
p225
ssVextended_entities
p226
(dp227
g145
(lp228
(dp229
g148
V619895576004591617
p230
sg150
Vhttp://twitter.com/dvrrxll/status/619895576004591617/photo/1
p231
sg152
Vpic.twitter.com/PDrRbN6yt5
p232
sg75
Vhttp://t.co/PDrRbN6yt5
p233
sg155
Vhttps://pbs.twimg.com/tweet_video_thumb/CJpPqY9UwAI-q0T.png
p234
sg157
I619895576004591617
sVvideo_info
p235
(dp236
Vaspect_ratio
p237
(lp238
I175
aI99
asVvariants
p239
(lp240
(dp241
g75
Vhttps://pbs.twimg.com/tweet_video/CJpPqY9UwAI-q0T.mp4
p242
sVbitrate
p243
I0
sVcontent_type
p244
Vvideo/mp4
p245
sassg42
V619895488389627906
p246
sg159
(dp247
g161
(dp248
g163
I198
sg164
Vfit
p249
sg166
I350
ssg167
(dp250
g163
I192
sg164
Vfit
p251
sg166
I340
ssg170
(dp252
g163
I198
sg164
Vfit
p253
sg166
I350
ssg173
(dp254
g163
I150
sg164
Vcrop
p255
sg166
I150
sssg176
(lp256
I44
aI66
asg178
Vanimated_gif
p257
sg33
I619895488389627906
sg180
Vhttp://pbs.twimg.com/tweet_video_thumb/CJpPqY9UwAI-q0T.png
p258
sasssS'coordinates'
p259
NsS'timestamp_ms'
p260
g140
sS'entities'
p261
g142
sS'in_reply_to_status_id_str'
p262
NsS'in_reply_to_screen_name'
p263
Nsg90
g191
sS'extended_entities'
p264
g227
sS'retweeted'
p265
I00
sS'place'
p266
g0
(ctweepy.models
Place
p267
g2
Ntp268
Rp269
(dp270
S'full_name'
p271
g205
sg108
g206
sS'country'
p272
g208
sS'place_type'
p273
g210
sS'bounding_box'
p274
g0
(ctweepy.models
BoundingBox
p275
g2
Ntp276
Rp277
(dp278
S'type'
p279
g213
sg259
g214
sbsS'country_code'
p280
g221
sS'attributes'
p281
g223
sg24
g224
sg102
g225
sbsS'retweet_count'
p282
I0
sg109
g110
(S'\x07\xdf\x07\x0c\x11\t.\x00\x00\x00'
p283
tp284
Rp285
sS'in_reply_to_user_id'
p286
Nsb.