ccopy_reg
_reconstructor
p0
(ctweepy.models
Status
p1
c__builtin__
object
p2
Ntp3
Rp4
(dp5
S'favorited'
p6
I00
sS'contributors'
p7
NsS'truncated'
p8
I00
sS'text'
p9
V@CodeofUrukagina @GIN3RMOD3 YOUR LEGAL NOW.\u000aLET HIM SUCK YA DICK.\u000aALWAYS FIRGURED THAT'S WHAT HE WANTED ALL ALONG.\u000aYOURS AND CROWS.\u000aLOLOLOLO
p10
sS'source_url'
p11
Vhttp://twitter.com
p12
sS'possibly_sensitive'
p13
I00
sS'in_reply_to_status_id'
p14
I620476143276167168
sS'user'
p15
g0
(ctweepy.models
User
p16
g2
Ntp17
Rp18
(dp19
S'follow_request_sent'
p20
NsS'profile_use_background_image'
p21
I00
sS'profile_sidebar_fill_color'
p22
V000000
p23
sS'id'
p24
I2879569993
sS'verified'
p25
I00
sS'profile_image_url_https'
p26
Vhttps://pbs.twimg.com/profile_images/610874208827146241/voSDsKk8_normal.png
p27
sS'_json'
p28
(dp29
Vfollow_request_sent
p30
NsVprofile_use_background_image
p31
I00
sVdefault_profile_image
p32
I00
sVid
p33
I2879569993
sVverified
p34
I00
sVprofile_image_url_https
p35
g27
sVprofile_sidebar_fill_color
p36
g23
sVprofile_text_color
p37
V000000
p38
sVfollowers_count
p39
I255
sVprofile_sidebar_border_color
p40
V000000
p41
sVid_str
p42
V2879569993
p43
sVprofile_background_color
p44
V000000
p45
sVlisted_count
p46
I3
sVprofile_background_image_url_https
p47
Vhttps://abs.twimg.com/images/themes/theme14/bg.gif
p48
sVutc_offset
p49
NsVstatuses_count
p50
I1338
sVdescription
p51
VNEVER COULD HIDE WHO I AM. \u000a.http://ish.re/JJRT -not me.
p52
sVfriends_count
p53
I285
sVlocation
p54
VRepublic of Mozambique
p55
sVprofile_link_color
p56
VDD2E44
p57
sVprofile_image_url
p58
Vhttp://pbs.twimg.com/profile_images/610874208827146241/voSDsKk8_normal.png
p59
sVfollowing
p60
NsVgeo_enabled
p61
I01
sVprofile_banner_url
p62
Vhttps://pbs.twimg.com/profile_banners/2879569993/1434478513
p63
sVprofile_background_image_url
p64
Vhttp://abs.twimg.com/images/themes/theme14/bg.gif
p65
sVname
p66
VD\u2200MN\u2200L\u308bX 
p67
sVlang
p68
Ven
p69
sVprofile_background_tile
p70
I00
sVfavourites_count
p71
I29
sVscreen_name
p72
VDd0xblack1
p73
sVnotifications
p74
NsVurl
p75
NsVcreated_at
p76
VMon Oct 27 13:04:37 +0000 2014
p77
sVcontributors_enabled
p78
I00
sVtime_zone
p79
NsVprotected
p80
I00
sVdefault_profile
p81
I00
sVis_translator
p82
I00
ssS'contributors_enabled'
p83
I00
sS'profile_text_color'
p84
g38
sS'followers_count'
p85
I255
sS'profile_sidebar_border_color'
p86
g41
sS'location'
p87
g55
sS'default_profile_image'
p88
I00
sS'id_str'
p89
g43
sS'utc_offset'
p90
NsS'statuses_count'
p91
I1338
sS'description'
p92
VNEVER COULD HIDE WHO I AM. \u000a.http://ish.re/JJRT -not me.
p93
sS'friends_count'
p94
I285
sS'profile_link_color'
p95
g57
sS'profile_image_url'
p96
g59
sS'notifications'
p97
NsS'geo_enabled'
p98
I01
sS'profile_background_color'
p99
g45
sS'profile_banner_url'
p100
g63
sS'profile_background_image_url'
p101
g65
sS'name'
p102
g67
sS'lang'
p103
g69
sS'following'
p104
I00
sS'profile_background_tile'
p105
I00
sS'favourites_count'
p106
I29
sS'screen_name'
p107
g73
sS'url'
p108
NsS'created_at'
p109
cdatetime
datetime
p110
(S'\x07\xde\n\x1b\r\x04%\x00\x00\x00'
p111
tp112
Rp113
sS'profile_background_image_url_https'
p114
g48
sS'time_zone'
p115
NsS'protected'
p116
I00
sS'default_profile'
p117
I00
sS'is_translator'
p118
I00
sS'listed_count'
p119
I3
sbsS'filter_level'
p120
Vlow
p121
sS'geo'
p122
Nsg24
I620478930856857600
sS'favorite_count'
p123
I0
sS'source'
p124
VTwitter Web Client
p125
sg103
Ven
p126
sS'author'
p127
g18
sS'in_reply_to_user_id_str'
p128
V3009632624
p129
sg28
(dp130
Vcontributors
p131
NsVtruncated
p132
I00
sVtext
p133
V@CodeofUrukagina @GIN3RMOD3 YOUR LEGAL NOW.\u000aLET HIM SUCK YA DICK.\u000aALWAYS FIRGURED THAT'S WHAT HE WANTED ALL ALONG.\u000aYOURS AND CROWS.\u000aLOLOLOLO
p134
sVin_reply_to_status_id
p135
I620476143276167168
sg33
I620478930856857600
sVfavorite_count
p136
I0
sVsource
p137
V<a href="http://twitter.com" rel="nofollow">Twitter Web Client</a>
p138
sVretweeted
p139
I00
sVcoordinates
p140
NsVtimestamp_ms
p141
V1436768679714
p142
sVentities
p143
(dp144
Vuser_mentions
p145
(lp146
(dp147
g33
I3009632624
sVindices
p148
(lp149
I0
aI16
asg42
V3009632624
p150
sg72
VCodeofUrukagina
p151
sg66
VMark
p152
sa(dp153
g33
I3268626204
sg148
(lp154
I17
aI27
asg42
V3268626204
p155
sg72
VGIN3RMOD3
p156
sg66
V\u5350 GINER MODE \u5350
p157
sasVsymbols
p158
(lp159
sVtrends
p160
(lp161
sVhashtags
p162
(lp163
sVurls
p164
(lp165
ssVin_reply_to_screen_name
p166
VCodeofUrukagina
p167
sg42
V620478930856857600
p168
sVretweet_count
p169
I0
sVin_reply_to_user_id
p170
I3009632624
sVfavorited
p171
I00
sVuser
p172
g29
sVgeo
p173
NsVin_reply_to_user_id_str
p174
g129
sVpossibly_sensitive
p175
I00
sg68
g126
sg76
VMon Jul 13 06:24:39 +0000 2015
p176
sVfilter_level
p177
g121
sVin_reply_to_status_id_str
p178
V620476143276167168
p179
sVplace
p180
(dp181
Vfull_name
p182
VBerne, Switzerland
p183
sg75
Vhttps://api.twitter.com/1.1/geo/id/5868d0e0749c9c47.json
p184
sVcountry
p185
VSchweiz
p186
sVplace_type
p187
Vadmin
p188
sVbounding_box
p189
(dp190
Vtype
p191
VPolygon
p192
sg140
(lp193
(lp194
(lp195
F6.861601
aF46.326441
aa(lp196
F6.861601
aF47.34528
aa(lp197
F8.455051
aF47.34528
aa(lp198
F8.455051
aF46.326441
aaassVcountry_code
p199
VCH
p200
sVattributes
p201
(dp202
sg33
V5868d0e0749c9c47
p203
sg66
VBern
p204
sssS'coordinates'
p205
NsS'timestamp_ms'
p206
g142
sS'entities'
p207
g144
sS'in_reply_to_status_id_str'
p208
g179
sS'in_reply_to_screen_name'
p209
g167
sg89
g168
sS'retweeted'
p210
I00
sS'place'
p211
g0
(ctweepy.models
Place
p212
g2
Ntp213
Rp214
(dp215
S'full_name'
p216
g183
sg108
g184
sS'country'
p217
g186
sS'place_type'
p218
g188
sS'bounding_box'
p219
g0
(ctweepy.models
BoundingBox
p220
g2
Ntp221
Rp222
(dp223
S'type'
p224
g192
sg205
g193
sbsS'country_code'
p225
g200
sS'attributes'
p226
g202
sg24
g203
sg102
g204
sbsS'retweet_count'
p227
I0
sg109
g110
(S"\x07\xdf\x07\r\x06\x18'\x00\x00\x00"
p228
tp229
Rp230
sS'in_reply_to_user_id'
p231
I3009632624
sb.