ccopy_reg
_reconstructor
p0
(ctweepy.models
Status
p1
c__builtin__
object
p2
Ntp3
Rp4
(dp5
S'favorited'
p6
I00
sS'contributors'
p7
NsS'truncated'
p8
I00
sS'text'
p9
V@PourqoisPas @ilya_shepelin\u000a \u2014 \u0414\u043b\u044f \u044d\u0442\u043e\u0439 \u0433\u043e\u043b\u043e\u0432\u044b \u043e\u0434\u043d\u043e\u0433\u043e \u043f\u0430\u0442\u0440\u043e\u043d\u0430 \u044f\u0432\u043d\u043e \u043d\u0435 \u0445\u0432\u0430\u0442\u0438\u0442. \u000a\u0412 \u0442\u0430\u043a\u043e\u0439 \u043c\u043e\u0437\u0433 \u0435\u0449\u0451 \u043f\u043e\u043f\u0430\u0441\u0442\u044c \u043d\u0430\u0434\u043e\u2026
p10
sS'source_url'
p11
Vhttp://twitter.com
p12
sS'possibly_sensitive'
p13
I00
sS'in_reply_to_status_id'
p14
I619840892367699968
sS'user'
p15
g0
(ctweepy.models
User
p16
g2
Ntp17
Rp18
(dp19
S'follow_request_sent'
p20
NsS'profile_use_background_image'
p21
I01
sS'profile_sidebar_fill_color'
p22
V000000
p23
sS'id'
p24
I1191305172
sS'verified'
p25
I00
sS'profile_image_url_https'
p26
Vhttps://pbs.twimg.com/profile_images/619473228852011008/1HLoKQp__normal.jpg
p27
sS'_json'
p28
(dp29
Vfollow_request_sent
p30
NsVprofile_use_background_image
p31
I01
sVdefault_profile_image
p32
I00
sVid
p33
I1191305172
sVverified
p34
I00
sVprofile_image_url_https
p35
g27
sVprofile_sidebar_fill_color
p36
g23
sVprofile_text_color
p37
V000000
p38
sVfollowers_count
p39
I66
sVprofile_sidebar_border_color
p40
V000000
p41
sVid_str
p42
V1191305172
p43
sVprofile_background_color
p44
V3B94D9
p45
sVlisted_count
p46
I9
sVprofile_background_image_url_https
p47
Vhttps://pbs.twimg.com/profile_background_images/619483386063777792/-zm3skI7.jpg
p48
sVutc_offset
p49
I7200
sVstatuses_count
p50
I1381
sVdescription
p51
V\u0421 \u0436\u0435\u043d\u0449\u0438\u043d\u043e\u0439 \u043f\u0440\u043e\u0441\u0442\u043e \u0442\u043e\u043b\u044c\u043a\u043e \u0432 \u043e\u0434\u043d\u043e\u043c \u0441\u043b\u0443\u0447\u0430\u0435: \u0435\u0441\u043b\u0438 \u043e\u043d\u0430 \u043d\u0435 \u0432\u0430\u0448\u0430 \u0436\u0435\u043d\u0449\u0438\u043d\u0430), \u044f \u0437\u0430\u043c\u0443\u0436\u0435\u043c.
p52
sVfriends_count
p53
I41
sVlocation
p54
VSchweiz-Bern,EU-Wien
p55
sVprofile_link_color
p56
V0099B9
p57
sVprofile_image_url
p58
Vhttp://pbs.twimg.com/profile_images/619473228852011008/1HLoKQp__normal.jpg
p59
sVfollowing
p60
NsVgeo_enabled
p61
I01
sVprofile_banner_url
p62
Vhttps://pbs.twimg.com/profile_banners/1191305172/1436531262
p63
sVprofile_background_image_url
p64
Vhttp://pbs.twimg.com/profile_background_images/619483386063777792/-zm3skI7.jpg
p65
sVname
p66
Vnika777w
p67
sVlang
p68
Vru
p69
sVprofile_background_tile
p70
I01
sVfavourites_count
p71
I434
sVscreen_name
p72
Vnika777w
p73
sVnotifications
p74
NsVurl
p75
Vhttp://nika777w.livejournal.com
p76
sVcreated_at
p77
VSun Feb 17 22:16:23 +0000 2013
p78
sVcontributors_enabled
p79
I00
sVtime_zone
p80
VVienna
p81
sVprotected
p82
I00
sVdefault_profile
p83
I00
sVis_translator
p84
I00
ssS'contributors_enabled'
p85
I00
sS'profile_text_color'
p86
g38
sS'followers_count'
p87
I66
sS'profile_sidebar_border_color'
p88
g41
sS'location'
p89
g55
sS'default_profile_image'
p90
I00
sS'id_str'
p91
g43
sS'utc_offset'
p92
I7200
sS'statuses_count'
p93
I1381
sS'description'
p94
g52
sS'friends_count'
p95
I41
sS'profile_link_color'
p96
g57
sS'profile_image_url'
p97
g59
sS'notifications'
p98
NsS'geo_enabled'
p99
I01
sS'profile_background_color'
p100
g45
sS'profile_banner_url'
p101
g63
sS'profile_background_image_url'
p102
g65
sS'name'
p103
g67
sS'lang'
p104
g69
sS'following'
p105
I00
sS'profile_background_tile'
p106
I01
sS'favourites_count'
p107
I434
sS'screen_name'
p108
g73
sS'url'
p109
g76
sS'created_at'
p110
cdatetime
datetime
p111
(S'\x07\xdd\x02\x11\x16\x10\x17\x00\x00\x00'
p112
tp113
Rp114
sS'profile_background_image_url_https'
p115
g48
sS'time_zone'
p116
g81
sS'protected'
p117
I00
sS'default_profile'
p118
I00
sS'is_translator'
p119
I00
sS'listed_count'
p120
I9
sbsS'filter_level'
p121
Vlow
p122
sS'geo'
p123
Nsg24
I619962531285745664
sS'favorite_count'
p124
I0
sS'source'
p125
VTwitter Web Client
p126
sg104
Vru
p127
sS'author'
p128
g18
sS'in_reply_to_user_id_str'
p129
V309826369
p130
sg28
(dp131
Vcontributors
p132
NsVtruncated
p133
I00
sVtext
p134
V@PourqoisPas @ilya_shepelin\u000a \u2014 \u0414\u043b\u044f \u044d\u0442\u043e\u0439 \u0433\u043e\u043b\u043e\u0432\u044b \u043e\u0434\u043d\u043e\u0433\u043e \u043f\u0430\u0442\u0440\u043e\u043d\u0430 \u044f\u0432\u043d\u043e \u043d\u0435 \u0445\u0432\u0430\u0442\u0438\u0442. \u000a\u0412 \u0442\u0430\u043a\u043e\u0439 \u043c\u043e\u0437\u0433 \u0435\u0449\u0451 \u043f\u043e\u043f\u0430\u0441\u0442\u044c \u043d\u0430\u0434\u043e\u2026
p135
sVin_reply_to_status_id
p136
I619840892367699968
sg33
I619962531285745664
sVfavorite_count
p137
I0
sVsource
p138
V<a href="http://twitter.com" rel="nofollow">Twitter Web Client</a>
p139
sVretweeted
p140
I00
sVcoordinates
p141
NsVtimestamp_ms
p142
V1436645560462
p143
sVentities
p144
(dp145
Vuser_mentions
p146
(lp147
(dp148
g33
I309826369
sVindices
p149
(lp150
I0
aI12
asg42
V309826369
p151
sg72
VPourqoisPas
p152
sg66
VBoris Megrelishvili
p153
sa(dp154
g33
I283912543
sg149
(lp155
I13
aI27
asg42
V283912543
p156
sg72
Vilya_shepelin
p157
sg66
V\u0417\u0434\u0435\u0441\u044c \u0428\u0435\u043f\u0435\u043b\u0438\u043d
p158
sasVsymbols
p159
(lp160
sVtrends
p161
(lp162
sVhashtags
p163
(lp164
sVurls
p165
(lp166
ssVin_reply_to_screen_name
p167
VPourqoisPas
p168
sg42
V619962531285745664
p169
sVretweet_count
p170
I0
sVin_reply_to_user_id
p171
I309826369
sVfavorited
p172
I00
sVuser
p173
g29
sVgeo
p174
NsVin_reply_to_user_id_str
p175
g130
sVpossibly_sensitive
p176
I00
sg68
g127
sg77
VSat Jul 11 20:12:40 +0000 2015
p177
sVfilter_level
p178
g122
sVin_reply_to_status_id_str
p179
V619840892367699968
p180
sVplace
p181
(dp182
Vfull_name
p183
VBern, Schweiz
p184
sg75
Vhttps://api.twitter.com/1.1/geo/id/5868d0e0749c9c47.json
p185
sVcountry
p186
VSchweiz
p187
sVplace_type
p188
Vadmin
p189
sVbounding_box
p190
(dp191
Vtype
p192
VPolygon
p193
sg141
(lp194
(lp195
(lp196
F6.861601
aF46.326441
aa(lp197
F6.861601
aF47.34528
aa(lp198
F8.455051
aF47.34528
aa(lp199
F8.455051
aF46.326441
aaassVcountry_code
p200
VCH
p201
sVattributes
p202
(dp203
sg33
V5868d0e0749c9c47
p204
sg66
VBern
p205
sssS'coordinates'
p206
NsS'timestamp_ms'
p207
g143
sS'entities'
p208
g145
sS'in_reply_to_status_id_str'
p209
g180
sS'in_reply_to_screen_name'
p210
g168
sg91
g169
sS'retweeted'
p211
I00
sS'place'
p212
g0
(ctweepy.models
Place
p213
g2
Ntp214
Rp215
(dp216
S'full_name'
p217
g184
sg109
g185
sS'country'
p218
g187
sS'place_type'
p219
g189
sS'bounding_box'
p220
g0
(ctweepy.models
BoundingBox
p221
g2
Ntp222
Rp223
(dp224
S'type'
p225
g193
sg206
g194
sbsS'country_code'
p226
g201
sS'attributes'
p227
g203
sg24
g204
sg103
g205
sbsS'retweet_count'
p228
I0
sg110
g111
(S'\x07\xdf\x07\x0b\x14\x0c(\x00\x00\x00'
p229
tp230
Rp231
sS'in_reply_to_user_id'
p232
I309826369
sb.