ccopy_reg
_reconstructor
p0
(ctweepy.models
Status
p1
c__builtin__
object
p2
Ntp3
Rp4
(dp5
S'favorited'
p6
I00
sS'contributors'
p7
NsS'truncated'
p8
I00
sS'text'
p9
V@EwenRankin @PrincessBagel @kyleswager It\u2019s either 9 or 11 ;-)
p10
sS'source_url'
p11
Vhttp://tapbots.com/software/tweetbot/mac
p12
sS'possibly_sensitive'
p13
I00
sS'in_reply_to_status_id'
p14
I618789658697277440
sS'user'
p15
g0
(ctweepy.models
User
p16
g2
Ntp17
Rp18
(dp19
S'follow_request_sent'
p20
NsS'profile_use_background_image'
p21
I00
sS'profile_sidebar_fill_color'
p22
VAC4D15
p23
sS'id'
p24
I14163152
sS'verified'
p25
I00
sS'profile_image_url_https'
p26
Vhttps://pbs.twimg.com/profile_images/610208091234279425/TJ0y7uUX_normal.png
p27
sS'_json'
p28
(dp29
Vfollow_request_sent
p30
NsVprofile_use_background_image
p31
I00
sVdefault_profile_image
p32
I00
sVid
p33
I14163152
sVverified
p34
I00
sVprofile_image_url_https
p35
g27
sVprofile_sidebar_fill_color
p36
g23
sVprofile_text_color
p37
V000000
p38
sVfollowers_count
p39
I1473
sVprofile_sidebar_border_color
p40
V913708
p41
sVid_str
p42
V14163152
p43
sVprofile_background_color
p44
V1A1B1F
p45
sVlisted_count
p46
I76
sVprofile_background_image_url_https
p47
Vhttps://abs.twimg.com/images/themes/theme1/bg.png
p48
sVutc_offset
p49
I7200
sVstatuses_count
p50
I16296
sVdescription
p51
VIT Guy by trade geek by submission. Deep into Windows, Macs, VIrtualisation, Photography, Video production and Harley Davidsons. Part time podcaster.
p52
sVfriends_count
p53
I1984
sVlocation
p54
V47.416721,8.371345
p55
sVprofile_link_color
p56
VF6A91E
p57
sVprofile_image_url
p58
Vhttp://pbs.twimg.com/profile_images/610208091234279425/TJ0y7uUX_normal.png
p59
sVfollowing
p60
NsVgeo_enabled
p61
I01
sVprofile_background_image_url
p62
Vhttp://abs.twimg.com/images/themes/theme1/bg.png
p63
sVname
p64
VPaul Shadwell
p65
sVlang
p66
Ven
p67
sVprofile_background_tile
p68
I00
sVfavourites_count
p69
I128
sVscreen_name
p70
Vpaulshadwell
p71
sVnotifications
p72
NsVurl
p73
Vhttp://about.me/paulshadwell
p74
sVcreated_at
p75
VMon Mar 17 13:49:16 +0000 2008
p76
sVcontributors_enabled
p77
I00
sVtime_zone
p78
VBern
p79
sVprotected
p80
I00
sVdefault_profile
p81
I00
sVis_translator
p82
I00
ssS'contributors_enabled'
p83
I00
sS'profile_text_color'
p84
g38
sS'followers_count'
p85
I1473
sS'profile_sidebar_border_color'
p86
g41
sS'location'
p87
g55
sS'default_profile_image'
p88
I00
sS'id_str'
p89
g43
sS'utc_offset'
p90
I7200
sS'statuses_count'
p91
I16296
sS'description'
p92
g52
sS'friends_count'
p93
I1984
sS'profile_link_color'
p94
g57
sS'profile_image_url'
p95
g59
sS'notifications'
p96
NsS'geo_enabled'
p97
I01
sS'profile_background_color'
p98
g45
sS'profile_background_image_url'
p99
g63
sS'name'
p100
g65
sS'lang'
p101
g67
sS'following'
p102
I00
sS'profile_background_tile'
p103
I00
sS'favourites_count'
p104
I128
sS'screen_name'
p105
g71
sS'url'
p106
g74
sS'created_at'
p107
cdatetime
datetime
p108
(S'\x07\xd8\x03\x11\r1\x10\x00\x00\x00'
p109
tp110
Rp111
sS'profile_background_image_url_https'
p112
g48
sS'time_zone'
p113
g79
sS'protected'
p114
I00
sS'default_profile'
p115
I00
sS'is_translator'
p116
I00
sS'listed_count'
p117
I76
sbsS'filter_level'
p118
Vlow
p119
sS'geo'
p120
Nsg24
I619099578017693696
sS'favorite_count'
p121
I0
sS'source'
p122
VTweetbot for Mac
p123
sg101
Ven
p124
sS'author'
p125
g18
sS'in_reply_to_user_id_str'
p126
V17347137
p127
sg28
(dp128
Vcontributors
p129
NsVtruncated
p130
I00
sVtext
p131
g10
sVin_reply_to_status_id
p132
I618789658697277440
sg33
I619099578017693696
sVfavorite_count
p133
I0
sVsource
p134
V<a href="http://tapbots.com/software/tweetbot/mac" rel="nofollow">Tweetbot for Mac</a>
p135
sVretweeted
p136
I00
sVcoordinates
p137
NsVtimestamp_ms
p138
V1436439816370
p139
sVentities
p140
(dp141
Vuser_mentions
p142
(lp143
(dp144
g33
I17347137
sVindices
p145
(lp146
I0
aI11
asg42
V17347137
p147
sg70
VEwenRankin
p148
sg64
VEwen Rankin
p149
sa(dp150
g33
I321966406
sg145
(lp151
I12
aI26
asg42
V321966406
p152
sg70
VPrincessBagel
p153
sg64
VPrincessBagel
p154
sa(dp155
g33
I14302486
sg145
(lp156
I27
aI38
asg42
V14302486
p157
sg70
Vkyleswager
p158
sg64
VKyle Swager \uf8ff
p159
sasVsymbols
p160
(lp161
sVtrends
p162
(lp163
sVhashtags
p164
(lp165
sVurls
p166
(lp167
ssVin_reply_to_screen_name
p168
VEwenRankin
p169
sg42
V619099578017693696
p170
sVretweet_count
p171
I0
sVin_reply_to_user_id
p172
I17347137
sVfavorited
p173
I00
sVuser
p174
g29
sVgeo
p175
NsVin_reply_to_user_id_str
p176
g127
sVpossibly_sensitive
p177
I00
sg66
g124
sg75
VThu Jul 09 11:03:36 +0000 2015
p178
sVfilter_level
p179
g119
sVin_reply_to_status_id_str
p180
V618789658697277440
p181
sVplace
p182
(dp183
Vfull_name
p184
VZurich, Switzerland
p185
sg73
Vhttps://api.twitter.com/1.1/geo/id/3acb748d0f1e9265.json
p186
sVcountry
p187
VSchweiz
p188
sVplace_type
p189
Vcity
p190
sVbounding_box
p191
(dp192
Vtype
p193
VPolygon
p194
sg137
(lp195
(lp196
(lp197
F8.448081
aF47.320183
aa(lp198
F8.448081
aF47.434721
aa(lp199
F8.625442
aF47.434721
aa(lp200
F8.625442
aF47.320183
aaassVcountry_code
p201
VCH
p202
sVattributes
p203
(dp204
sg33
V3acb748d0f1e9265
p205
sg64
VZurich
p206
sssS'coordinates'
p207
NsS'timestamp_ms'
p208
g139
sS'entities'
p209
g141
sS'in_reply_to_status_id_str'
p210
g181
sS'in_reply_to_screen_name'
p211
g169
sg89
g170
sS'retweeted'
p212
I00
sS'place'
p213
g0
(ctweepy.models
Place
p214
g2
Ntp215
Rp216
(dp217
S'full_name'
p218
g185
sg106
g186
sS'country'
p219
g188
sS'place_type'
p220
g190
sS'bounding_box'
p221
g0
(ctweepy.models
BoundingBox
p222
g2
Ntp223
Rp224
(dp225
S'type'
p226
g194
sg207
g195
sbsS'country_code'
p227
g202
sS'attributes'
p228
g204
sg24
g205
sg100
g206
sbsS'retweet_count'
p229
I0
sg107
g108
(S'\x07\xdf\x07\t\x0b\x03$\x00\x00\x00'
p230
tp231
Rp232
sS'in_reply_to_user_id'
p233
I17347137
sb.