ccopy_reg
_reconstructor
p0
(ctweepy.models
Status
p1
c__builtin__
object
p2
Ntp3
Rp4
(dp5
S'favorited'
p6
I00
sS'contributors'
p7
NsS'truncated'
p8
I00
sS'text'
p9
V@Garmin It\u2019s even getting worse, these are my active calories \U0001f633 http://t.co/RdTwxu1v1o
p10
sS'source_url'
p11
Vhttp://tapbots.com/tweetbot
p12
sS'possibly_sensitive'
p13
I00
sS'in_reply_to_status_id'
p14
I620688976135987200
sS'user'
p15
g0
(ctweepy.models
User
p16
g2
Ntp17
Rp18
(dp19
S'follow_request_sent'
p20
NsS'profile_use_background_image'
p21
I00
sS'profile_sidebar_fill_color'
p22
V595959
p23
sS'id'
p24
I30654634
sS'verified'
p25
I00
sS'profile_image_url_https'
p26
Vhttps://pbs.twimg.com/profile_images/865582371/me2square_normal.jpg
p27
sS'_json'
p28
(dp29
Vfollow_request_sent
p30
NsVprofile_use_background_image
p31
I00
sVdefault_profile_image
p32
I00
sVid
p33
I30654634
sVverified
p34
I00
sVprofile_image_url_https
p35
g27
sVprofile_sidebar_fill_color
p36
g23
sVprofile_text_color
p37
V333333
p38
sVfollowers_count
p39
I408
sVprofile_sidebar_border_color
p40
V262626
p41
sVid_str
p42
V30654634
p43
sVprofile_background_color
p44
V474747
p45
sVlisted_count
p46
I25
sVprofile_background_image_url_https
p47
Vhttps://abs.twimg.com/images/themes/theme8/bg.gif
p48
sVutc_offset
p49
I7200
sVstatuses_count
p50
I3453
sVdescription
p51
VEditor/Colorist
p52
sVfriends_count
p53
I632
sVlocation
p54
ViPhone: 47.370369,8.520642
p55
sVprofile_link_color
p56
V868686
p57
sVprofile_image_url
p58
Vhttp://pbs.twimg.com/profile_images/865582371/me2square_normal.jpg
p59
sVfollowing
p60
NsVgeo_enabled
p61
I01
sVprofile_background_image_url
p62
Vhttp://abs.twimg.com/images/themes/theme8/bg.gif
p63
sVname
p64
VShamol Majumder
p65
sVlang
p66
Ven
p67
sVprofile_background_tile
p68
I00
sVfavourites_count
p69
I49
sVscreen_name
p70
VShamol
p71
sVnotifications
p72
NsVurl
p73
NsVcreated_at
p74
VSun Apr 12 14:11:05 +0000 2009
p75
sVcontributors_enabled
p76
I00
sVtime_zone
p77
VBern
p78
sVprotected
p79
I00
sVdefault_profile
p80
I00
sVis_translator
p81
I00
ssS'contributors_enabled'
p82
I00
sS'profile_text_color'
p83
g38
sS'followers_count'
p84
I408
sS'profile_sidebar_border_color'
p85
g41
sS'location'
p86
g55
sS'default_profile_image'
p87
I00
sS'id_str'
p88
g43
sS'utc_offset'
p89
I7200
sS'statuses_count'
p90
I3453
sS'description'
p91
g52
sS'friends_count'
p92
I632
sS'profile_link_color'
p93
g57
sS'profile_image_url'
p94
g59
sS'notifications'
p95
NsS'geo_enabled'
p96
I01
sS'profile_background_color'
p97
g45
sS'profile_background_image_url'
p98
g63
sS'name'
p99
g65
sS'lang'
p100
g67
sS'following'
p101
I00
sS'profile_background_tile'
p102
I00
sS'favourites_count'
p103
I49
sS'screen_name'
p104
g71
sS'url'
p105
NsS'created_at'
p106
cdatetime
datetime
p107
(S'\x07\xd9\x04\x0c\x0e\x0b\x05\x00\x00\x00'
p108
tp109
Rp110
sS'profile_background_image_url_https'
p111
g48
sS'time_zone'
p112
g78
sS'protected'
p113
I00
sS'default_profile'
p114
I00
sS'is_translator'
p115
I00
sS'listed_count'
p116
I25
sbsS'filter_level'
p117
Vlow
p118
sS'geo'
p119
Nsg24
I620690151208058880
sS'favorite_count'
p120
I0
sS'source'
p121
VTweetbot for i\u039fS
p122
sg100
Ven
p123
sS'author'
p124
g18
sS'in_reply_to_user_id_str'
p125
V15324722
p126
sg28
(dp127
Vcontributors
p128
NsVtruncated
p129
I00
sVtext
p130
g10
sVin_reply_to_status_id
p131
I620688976135987200
sg33
I620690151208058880
sVfavorite_count
p132
I0
sVsource
p133
V<a href="http://tapbots.com/tweetbot" rel="nofollow">Tweetbot for i\u039fS</a>
p134
sVretweeted
p135
I00
sVcoordinates
p136
NsVtimestamp_ms
p137
V1436819038570
p138
sVentities
p139
(dp140
Vsymbols
p141
(lp142
sVmedia
p143
(lp144
(dp145
Vexpanded_url
p146
Vhttp://twitter.com/Shamol/status/620690151208058880/photo/1
p147
sVdisplay_url
p148
Vpic.twitter.com/RdTwxu1v1o
p149
sg73
Vhttp://t.co/RdTwxu1v1o
p150
sVmedia_url_https
p151
Vhttps://pbs.twimg.com/media/CJ0iZwPWIAAqOxa.png
p152
sg42
V620690149488336896
p153
sVsizes
p154
(dp155
Vlarge
p156
(dp157
Vh
p158
I1334
sVresize
p159
Vfit
p160
sVw
p161
I750
ssVsmall
p162
(dp163
g158
I604
sg159
Vfit
p164
sg161
I340
ssVmedium
p165
(dp166
g158
I1067
sg159
Vfit
p167
sg161
I600
ssVthumb
p168
(dp169
g158
I150
sg159
Vcrop
p170
sg161
I150
sssVindices
p171
(lp172
I64
aI86
asVtype
p173
Vphoto
p174
sg33
I620690149488336896
sVmedia_url
p175
Vhttp://pbs.twimg.com/media/CJ0iZwPWIAAqOxa.png
p176
sasVhashtags
p177
(lp178
sVuser_mentions
p179
(lp180
(dp181
g33
I15324722
sg171
(lp182
I0
aI7
asg42
V15324722
p183
sg70
VGarmin
p184
sg64
VGarmin
p185
sasVtrends
p186
(lp187
sVurls
p188
(lp189
ssVin_reply_to_screen_name
p190
VGarmin
p191
sg42
V620690151208058880
p192
sVretweet_count
p193
I0
sVin_reply_to_user_id
p194
I15324722
sVfavorited
p195
I00
sVuser
p196
g29
sVgeo
p197
NsVin_reply_to_user_id_str
p198
g126
sVpossibly_sensitive
p199
I00
sg66
g123
sg74
VMon Jul 13 20:23:58 +0000 2015
p200
sVfilter_level
p201
g118
sVin_reply_to_status_id_str
p202
V620688976135987200
p203
sVplace
p204
(dp205
Vfull_name
p206
VZurich, Switzerland
p207
sg73
Vhttps://api.twitter.com/1.1/geo/id/3acb748d0f1e9265.json
p208
sVcountry
p209
VSchweiz
p210
sVplace_type
p211
Vcity
p212
sVbounding_box
p213
(dp214
g173
VPolygon
p215
sg136
(lp216
(lp217
(lp218
F8.448081
aF47.320183
aa(lp219
F8.448081
aF47.434721
aa(lp220
F8.625442
aF47.434721
aa(lp221
F8.625442
aF47.320183
aaassVcountry_code
p222
VCH
p223
sVattributes
p224
(dp225
sg33
V3acb748d0f1e9265
p226
sg64
VZurich
p227
ssVextended_entities
p228
(dp229
g143
(lp230
(dp231
g146
Vhttp://twitter.com/Shamol/status/620690151208058880/photo/1
p232
sg148
Vpic.twitter.com/RdTwxu1v1o
p233
sg73
Vhttp://t.co/RdTwxu1v1o
p234
sg151
Vhttps://pbs.twimg.com/media/CJ0iZwPWIAAqOxa.png
p235
sg42
V620690149488336896
p236
sg154
(dp237
g156
(dp238
g158
I1334
sg159
Vfit
p239
sg161
I750
ssg162
(dp240
g158
I604
sg159
Vfit
p241
sg161
I340
ssg165
(dp242
g158
I1067
sg159
Vfit
p243
sg161
I600
ssg168
(dp244
g158
I150
sg159
Vcrop
p245
sg161
I150
sssg171
(lp246
I64
aI86
asg173
Vphoto
p247
sg33
I620690149488336896
sg175
Vhttp://pbs.twimg.com/media/CJ0iZwPWIAAqOxa.png
p248
sasssS'coordinates'
p249
NsS'timestamp_ms'
p250
g138
sS'entities'
p251
g140
sS'in_reply_to_status_id_str'
p252
g203
sS'in_reply_to_screen_name'
p253
g191
sg88
g192
sS'extended_entities'
p254
g229
sS'retweeted'
p255
I00
sS'place'
p256
g0
(ctweepy.models
Place
p257
g2
Ntp258
Rp259
(dp260
S'full_name'
p261
g207
sg105
g208
sS'country'
p262
g210
sS'place_type'
p263
g212
sS'bounding_box'
p264
g0
(ctweepy.models
BoundingBox
p265
g2
Ntp266
Rp267
(dp268
S'type'
p269
g215
sg249
g216
sbsS'country_code'
p270
g223
sS'attributes'
p271
g225
sg24
g226
sg99
g227
sbsS'retweet_count'
p272
I0
sg106
g107
(S'\x07\xdf\x07\r\x14\x17:\x00\x00\x00'
p273
tp274
Rp275
sS'in_reply_to_user_id'
p276
I15324722
sb.