ccopy_reg
_reconstructor
p0
(ctweepy.models
Status
p1
c__builtin__
object
p2
Ntp3
Rp4
(dp5
S'favorited'
p6
I00
sS'contributors'
p7
NsS'truncated'
p8
I00
sS'text'
p9
VAs you go, make this proclamation: \u2018The kingdom of heaven is at hand.\u2019\u000aMt 10:7
p10
sS'source_url'
p11
Vhttp://twitter.com
p12
sS'possibly_sensitive'
p13
I00
sS'in_reply_to_status_id'
p14
NsS'user'
p15
g0
(ctweepy.models
User
p16
g2
Ntp17
Rp18
(dp19
S'follow_request_sent'
p20
NsS'profile_use_background_image'
p21
I01
sS'profile_sidebar_fill_color'
p22
V8E9EED
p23
sS'id'
p24
I31571271
sS'verified'
p25
I00
sS'profile_image_url_https'
p26
Vhttps://pbs.twimg.com/profile_images/458994614611877888/DfC6CT3K_normal.png
p27
sS'_json'
p28
(dp29
Vfollow_request_sent
p30
NsVprofile_use_background_image
p31
I01
sVdefault_profile_image
p32
I00
sVid
p33
I31571271
sVverified
p34
I00
sVprofile_image_url_https
p35
g27
sVprofile_sidebar_fill_color
p36
g23
sVprofile_text_color
p37
V333333
p38
sVfollowers_count
p39
I342
sVprofile_sidebar_border_color
p40
VFFFFFF
p41
sVid_str
p42
V31571271
p43
sVprofile_background_color
p44
V212129
p45
sVlisted_count
p46
I7
sVprofile_background_image_url_https
p47
Vhttps://pbs.twimg.com/profile_background_images/458671987045306368/Cby-Poot.jpeg
p48
sVutc_offset
p49
I-14400
sVstatuses_count
p50
I2363
sVdescription
p51
VThe Message of Hope Foundation: Integrating Sports into Faith
p52
sVfriends_count
p53
I421
sVlocation
p54
V
p55
sVprofile_link_color
p56
V15161A
p57
sVprofile_image_url
p58
Vhttp://pbs.twimg.com/profile_images/458994614611877888/DfC6CT3K_normal.png
p59
sVfollowing
p60
NsVgeo_enabled
p61
I01
sVprofile_banner_url
p62
Vhttps://pbs.twimg.com/profile_banners/31571271/1398267689
p63
sVprofile_background_image_url
p64
Vhttp://pbs.twimg.com/profile_background_images/458671987045306368/Cby-Poot.jpeg
p65
sVname
p66
VSports into Faith
p67
sVlang
p68
Ven
p69
sVprofile_background_tile
p70
I00
sVfavourites_count
p71
I48
sVscreen_name
p72
VSportsintoFaith
p73
sVnotifications
p74
NsVurl
p75
Vhttp://www.sportsintofaith.com
p76
sVcreated_at
p77
VThu Apr 16 00:16:47 +0000 2009
p78
sVcontributors_enabled
p79
I00
sVtime_zone
p80
VEastern Time (US & Canada)
p81
sVprotected
p82
I00
sVdefault_profile
p83
I00
sVis_translator
p84
I00
ssS'contributors_enabled'
p85
I00
sS'profile_text_color'
p86
g38
sS'followers_count'
p87
I342
sS'profile_sidebar_border_color'
p88
g41
sS'location'
p89
g55
sS'default_profile_image'
p90
I00
sS'id_str'
p91
g43
sS'utc_offset'
p92
I-14400
sS'statuses_count'
p93
I2363
sS'description'
p94
g52
sS'friends_count'
p95
I421
sS'profile_link_color'
p96
g57
sS'profile_image_url'
p97
g59
sS'notifications'
p98
NsS'geo_enabled'
p99
I01
sS'profile_background_color'
p100
g45
sS'profile_banner_url'
p101
g63
sS'profile_background_image_url'
p102
g65
sS'name'
p103
g67
sS'lang'
p104
g69
sS'following'
p105
I00
sS'profile_background_tile'
p106
I00
sS'favourites_count'
p107
I48
sS'screen_name'
p108
g73
sS'url'
p109
g76
sS'created_at'
p110
cdatetime
datetime
p111
(S'\x07\xd9\x04\x10\x00\x10/\x00\x00\x00'
p112
tp113
Rp114
sS'profile_background_image_url_https'
p115
g48
sS'time_zone'
p116
g81
sS'protected'
p117
I00
sS'default_profile'
p118
I00
sS'is_translator'
p119
I00
sS'listed_count'
p120
I7
sbsS'filter_level'
p121
Vlow
p122
sS'geo'
p123
Nsg24
I619079738204794881
sS'favorite_count'
p124
I0
sS'source'
p125
VTwitter Web Client
p126
sg104
Ven
p127
sS'author'
p128
g18
sS'in_reply_to_user_id_str'
p129
Nsg28
(dp130
Vcontributors
p131
NsVtruncated
p132
I00
sVtext
p133
VAs you go, make this proclamation: \u2018The kingdom of heaven is at hand.\u2019\u000aMt 10:7
p134
sVin_reply_to_status_id
p135
Nsg33
I619079738204794881
sVfavorite_count
p136
I0
sVsource
p137
V<a href="http://twitter.com" rel="nofollow">Twitter Web Client</a>
p138
sVretweeted
p139
I00
sVcoordinates
p140
NsVtimestamp_ms
p141
V1436435086190
p142
sVentities
p143
(dp144
Vuser_mentions
p145
(lp146
sVsymbols
p147
(lp148
sVtrends
p149
(lp150
sVhashtags
p151
(lp152
sVurls
p153
(lp154
ssVin_reply_to_screen_name
p155
Nsg42
V619079738204794881
p156
sVretweet_count
p157
I0
sVin_reply_to_user_id
p158
NsVfavorited
p159
I00
sVuser
p160
g29
sVgeo
p161
NsVin_reply_to_user_id_str
p162
NsVpossibly_sensitive
p163
I00
sg68
g127
sg77
VThu Jul 09 09:44:46 +0000 2015
p164
sVfilter_level
p165
g122
sVin_reply_to_status_id_str
p166
NsVplace
p167
(dp168
Vfull_name
p169
VBerne, Switzerland
p170
sg75
Vhttps://api.twitter.com/1.1/geo/id/5868d0e0749c9c47.json
p171
sVcountry
p172
VSchweiz
p173
sVplace_type
p174
Vadmin
p175
sVbounding_box
p176
(dp177
Vtype
p178
VPolygon
p179
sg140
(lp180
(lp181
(lp182
F6.861601
aF46.326441
aa(lp183
F6.861601
aF47.34528
aa(lp184
F8.455051
aF47.34528
aa(lp185
F8.455051
aF46.326441
aaassVcountry_code
p186
VCH
p187
sVattributes
p188
(dp189
sg33
V5868d0e0749c9c47
p190
sg66
VBern
p191
sssS'coordinates'
p192
NsS'timestamp_ms'
p193
g142
sS'entities'
p194
g144
sS'in_reply_to_status_id_str'
p195
NsS'in_reply_to_screen_name'
p196
Nsg91
g156
sS'retweeted'
p197
I00
sS'place'
p198
g0
(ctweepy.models
Place
p199
g2
Ntp200
Rp201
(dp202
S'full_name'
p203
g170
sg109
g171
sS'country'
p204
g173
sS'place_type'
p205
g175
sS'bounding_box'
p206
g0
(ctweepy.models
BoundingBox
p207
g2
Ntp208
Rp209
(dp210
S'type'
p211
g179
sg192
g180
sbsS'country_code'
p212
g187
sS'attributes'
p213
g189
sg24
g190
sg103
g191
sbsS'retweet_count'
p214
I0
sg110
g111
(S'\x07\xdf\x07\t\t,.\x00\x00\x00'
p215
tp216
Rp217
sS'in_reply_to_user_id'
p218
Nsb.