ccopy_reg
_reconstructor
p0
(ctweepy.models
Status
p1
c__builtin__
object
p2
Ntp3
Rp4
(dp5
S'favorited'
p6
I00
sS'contributors'
p7
NsS'truncated'
p8
I00
sS'text'
p9
VQuintessential France: Impressionism started here, with Monet's sunrise in the Le Havre port. http://t.co/6IemdUm5pl http://t.co/3vI8hpJF3h
p10
sS'source_url'
p11
Vhttp://twitter.com
p12
sS'possibly_sensitive'
p13
I00
sS'in_reply_to_status_id'
p14
NsS'user'
p15
g0
(ctweepy.models
User
p16
g2
Ntp17
Rp18
(dp19
S'follow_request_sent'
p20
NsS'profile_use_background_image'
p21
I01
sS'profile_sidebar_fill_color'
p22
VDDEEF6
p23
sS'id'
p24
I164639663
sS'verified'
p25
I00
sS'profile_image_url_https'
p26
Vhttps://pbs.twimg.com/profile_images/610187408836050944/gBVgvrHv_normal.jpg
p27
sS'_json'
p28
(dp29
Vfollow_request_sent
p30
NsVprofile_use_background_image
p31
I01
sVdefault_profile_image
p32
I00
sVid
p33
I164639663
sVverified
p34
I00
sVprofile_image_url_https
p35
g27
sVprofile_sidebar_fill_color
p36
g23
sVprofile_text_color
p37
V333333
p38
sVfollowers_count
p39
I528
sVprofile_sidebar_border_color
p40
VC0DEED
p41
sVid_str
p42
V164639663
p43
sVprofile_background_color
p44
VC0DEED
p45
sVlisted_count
p46
I24
sVprofile_background_image_url_https
p47
Vhttps://abs.twimg.com/images/themes/theme1/bg.png
p48
sVutc_offset
p49
I-7200
sVstatuses_count
p50
I5398
sVdescription
p51
VI'm a food writer and editor specializing in French cuisine. I'm writing a book, What to Eat in France. http://t.co/guV7pdhCJg  #WhatToEatInFrance #FoodWriting
p52
sVfriends_count
p53
I611
sVlocation
p54
VSwitzerland, France
p55
sVprofile_link_color
p56
V0084B4
p57
sVprofile_image_url
p58
Vhttp://pbs.twimg.com/profile_images/610187408836050944/gBVgvrHv_normal.jpg
p59
sVfollowing
p60
NsVgeo_enabled
p61
I01
sVprofile_background_image_url
p62
Vhttp://abs.twimg.com/images/themes/theme1/bg.png
p63
sVname
p64
VJonell Galloway
p65
sVlang
p66
Ven
p67
sVprofile_background_tile
p68
I00
sVfavourites_count
p69
I33
sVscreen_name
p70
VJonellGalloway
p71
sVnotifications
p72
NsVurl
p73
Vhttp://theramblingepicure.com
p74
sVcreated_at
p75
VFri Jul 09 11:01:06 +0000 2010
p76
sVcontributors_enabled
p77
I00
sVtime_zone
p78
VGreenland
p79
sVprotected
p80
I00
sVdefault_profile
p81
I01
sVis_translator
p82
I00
ssS'contributors_enabled'
p83
I00
sS'profile_text_color'
p84
g38
sS'followers_count'
p85
I528
sS'profile_sidebar_border_color'
p86
g41
sS'location'
p87
g55
sS'default_profile_image'
p88
I00
sS'id_str'
p89
g43
sS'utc_offset'
p90
I-7200
sS'statuses_count'
p91
I5398
sS'description'
p92
g52
sS'friends_count'
p93
I611
sS'profile_link_color'
p94
g57
sS'profile_image_url'
p95
g59
sS'notifications'
p96
NsS'geo_enabled'
p97
I01
sS'profile_background_color'
p98
g45
sS'profile_background_image_url'
p99
g63
sS'name'
p100
g65
sS'lang'
p101
g67
sS'following'
p102
I00
sS'profile_background_tile'
p103
I00
sS'favourites_count'
p104
I33
sS'screen_name'
p105
g71
sS'url'
p106
g74
sS'created_at'
p107
cdatetime
datetime
p108
(S'\x07\xda\x07\t\x0b\x01\x06\x00\x00\x00'
p109
tp110
Rp111
sS'profile_background_image_url_https'
p112
g48
sS'time_zone'
p113
g79
sS'protected'
p114
I00
sS'default_profile'
p115
I01
sS'is_translator'
p116
I00
sS'listed_count'
p117
I24
sbsS'filter_level'
p118
Vlow
p119
sS'geo'
p120
Nsg24
I619079164243615744
sS'favorite_count'
p121
I0
sS'source'
p122
VTwitter Web Client
p123
sg101
Ven
p124
sS'author'
p125
g18
sS'in_reply_to_user_id_str'
p126
Nsg28
(dp127
Vcontributors
p128
NsVtruncated
p129
I00
sVtext
p130
g10
sVin_reply_to_status_id
p131
Nsg33
I619079164243615744
sVfavorite_count
p132
I0
sVsource
p133
V<a href="http://twitter.com" rel="nofollow">Twitter Web Client</a>
p134
sVretweeted
p135
I00
sVcoordinates
p136
NsVtimestamp_ms
p137
V1436434949347
p138
sVentities
p139
(dp140
Vsymbols
p141
(lp142
sVmedia
p143
(lp144
(dp145
Vexpanded_url
p146
Vhttp://twitter.com/JonellGalloway/status/619079164243615744/photo/1
p147
sVdisplay_url
p148
Vpic.twitter.com/3vI8hpJF3h
p149
sg73
Vhttp://t.co/3vI8hpJF3h
p150
sVmedia_url_https
p151
Vhttps://pbs.twimg.com/media/CJdpN8IVAAEzg39.jpg
p152
sg42
V619079161987006465
p153
sVsizes
p154
(dp155
Vlarge
p156
(dp157
Vh
p158
I302
sVresize
p159
Vfit
p160
sVw
p161
I430
ssVsmall
p162
(dp163
g158
I238
sg159
Vfit
p164
sg161
I340
ssVmedium
p165
(dp166
g158
I302
sg159
Vfit
p167
sg161
I430
ssVthumb
p168
(dp169
g158
I150
sg159
Vcrop
p170
sg161
I150
sssVindices
p171
(lp172
I117
aI139
asVtype
p173
Vphoto
p174
sg33
I619079161987006465
sVmedia_url
p175
Vhttp://pbs.twimg.com/media/CJdpN8IVAAEzg39.jpg
p176
sasVhashtags
p177
(lp178
sVuser_mentions
p179
(lp180
sVtrends
p181
(lp182
sVurls
p183
(lp184
(dp185
g73
Vhttp://t.co/6IemdUm5pl
p186
sg171
(lp187
I94
aI116
asg146
Vhttp://fb.me/7jeSO39SH
p188
sg148
Vfb.me/7jeSO39SH
p189
sassVin_reply_to_screen_name
p190
Nsg42
V619079164243615744
p191
sVretweet_count
p192
I0
sVin_reply_to_user_id
p193
NsVfavorited
p194
I00
sVuser
p195
g29
sVgeo
p196
NsVin_reply_to_user_id_str
p197
NsVpossibly_sensitive
p198
I00
sg66
g124
sg75
VThu Jul 09 09:42:29 +0000 2015
p199
sVfilter_level
p200
g119
sVin_reply_to_status_id_str
p201
NsVplace
p202
(dp203
Vfull_name
p204
VZurich, Switzerland
p205
sg73
Vhttps://api.twitter.com/1.1/geo/id/3acb748d0f1e9265.json
p206
sVcountry
p207
VSchweiz
p208
sVplace_type
p209
Vcity
p210
sVbounding_box
p211
(dp212
g173
VPolygon
p213
sg136
(lp214
(lp215
(lp216
F8.448081
aF47.320183
aa(lp217
F8.448081
aF47.434721
aa(lp218
F8.625442
aF47.434721
aa(lp219
F8.625442
aF47.320183
aaassVcountry_code
p220
VCH
p221
sVattributes
p222
(dp223
sg33
V3acb748d0f1e9265
p224
sg64
VZurich
p225
ssVextended_entities
p226
(dp227
g143
(lp228
(dp229
g146
Vhttp://twitter.com/JonellGalloway/status/619079164243615744/photo/1
p230
sg148
Vpic.twitter.com/3vI8hpJF3h
p231
sg73
Vhttp://t.co/3vI8hpJF3h
p232
sg151
Vhttps://pbs.twimg.com/media/CJdpN8IVAAEzg39.jpg
p233
sg42
V619079161987006465
p234
sg154
(dp235
g156
(dp236
g158
I302
sg159
Vfit
p237
sg161
I430
ssg162
(dp238
g158
I238
sg159
Vfit
p239
sg161
I340
ssg165
(dp240
g158
I302
sg159
Vfit
p241
sg161
I430
ssg168
(dp242
g158
I150
sg159
Vcrop
p243
sg161
I150
sssg171
(lp244
I117
aI139
asg173
Vphoto
p245
sg33
I619079161987006465
sg175
Vhttp://pbs.twimg.com/media/CJdpN8IVAAEzg39.jpg
p246
sasssS'coordinates'
p247
NsS'timestamp_ms'
p248
g138
sS'entities'
p249
g140
sS'in_reply_to_status_id_str'
p250
NsS'in_reply_to_screen_name'
p251
Nsg89
g191
sS'extended_entities'
p252
g227
sS'retweeted'
p253
I00
sS'place'
p254
g0
(ctweepy.models
Place
p255
g2
Ntp256
Rp257
(dp258
S'full_name'
p259
g205
sg106
g206
sS'country'
p260
g208
sS'place_type'
p261
g210
sS'bounding_box'
p262
g0
(ctweepy.models
BoundingBox
p263
g2
Ntp264
Rp265
(dp266
S'type'
p267
g213
sg247
g214
sbsS'country_code'
p268
g221
sS'attributes'
p269
g223
sg24
g224
sg100
g225
sbsS'retweet_count'
p270
I0
sg107
g108
(S'\x07\xdf\x07\t\t*\x1d\x00\x00\x00'
p271
tp272
Rp273
sS'in_reply_to_user_id'
p274
Nsb.