ccopy_reg
_reconstructor
p0
(ctweepy.models
Status
p1
c__builtin__
object
p2
Ntp3
Rp4
(dp5
S'favorited'
p6
I00
sS'contributors'
p7
NsS'truncated'
p8
I00
sS'text'
p9
VLook fabulous without trying to look younger. https://t.co/FRuGo2veHd @sixtyandme http://t.co/58leAW9uQ5
p10
sS'source_url'
p11
Vhttp://twitter.com
p12
sS'possibly_sensitive'
p13
I00
sS'in_reply_to_status_id'
p14
NsS'user'
p15
g0
(ctweepy.models
User
p16
g2
Ntp17
Rp18
(dp19
S'follow_request_sent'
p20
NsS'profile_use_background_image'
p21
I01
sS'profile_sidebar_fill_color'
p22
VF3F3F3
p23
sS'id'
p24
I955350608
sS'verified'
p25
I00
sS'profile_image_url_https'
p26
Vhttps://pbs.twimg.com/profile_images/564447504066818048/t1W1zL6G_normal.png
p27
sS'_json'
p28
(dp29
Vfollow_request_sent
p30
NsVprofile_use_background_image
p31
I01
sVdefault_profile_image
p32
I00
sVid
p33
I955350608
sVverified
p34
I00
sVprofile_image_url_https
p35
g27
sVprofile_sidebar_fill_color
p36
g23
sVprofile_text_color
p37
V333333
p38
sVfollowers_count
p39
I3621
sVprofile_sidebar_border_color
p40
VDFDFDF
p41
sVid_str
p42
V955350608
p43
sVprofile_background_color
p44
VEBEBEB
p45
sVlisted_count
p46
I112
sVprofile_background_image_url_https
p47
Vhttps://abs.twimg.com/images/themes/theme7/bg.gif
p48
sVutc_offset
p49
NsVstatuses_count
p50
I12150
sVdescription
p51
VSixty and Me is a global community of 100,000 women over 60. Helping boomer women to live healthy, independent and financially secure lives. By Margaret Manning
p52
sVfriends_count
p53
I1781
sVlocation
p54
VSwitzerland 
p55
sVprofile_link_color
p56
V990000
p57
sVprofile_image_url
p58
Vhttp://pbs.twimg.com/profile_images/564447504066818048/t1W1zL6G_normal.png
p59
sVfollowing
p60
NsVgeo_enabled
p61
I01
sVprofile_banner_url
p62
Vhttps://pbs.twimg.com/profile_banners/955350608/1423417866
p63
sVprofile_background_image_url
p64
Vhttp://abs.twimg.com/images/themes/theme7/bg.gif
p65
sVname
p66
VSixty and Me 
p67
sVlang
p68
Ven
p69
sVprofile_background_tile
p70
I00
sVfavourites_count
p71
I256
sVscreen_name
p72
Vsixtyandme
p73
sVnotifications
p74
NsVurl
p75
Vhttp://sixtyandme.com
p76
sVcreated_at
p77
VSun Nov 18 11:54:24 +0000 2012
p78
sVcontributors_enabled
p79
I00
sVtime_zone
p80
NsVprotected
p81
I00
sVdefault_profile
p82
I00
sVis_translator
p83
I00
ssS'contributors_enabled'
p84
I00
sS'profile_text_color'
p85
g38
sS'followers_count'
p86
I3621
sS'profile_sidebar_border_color'
p87
g41
sS'location'
p88
g55
sS'default_profile_image'
p89
I00
sS'id_str'
p90
g43
sS'utc_offset'
p91
NsS'statuses_count'
p92
I12150
sS'description'
p93
g52
sS'friends_count'
p94
I1781
sS'profile_link_color'
p95
g57
sS'profile_image_url'
p96
g59
sS'notifications'
p97
NsS'geo_enabled'
p98
I01
sS'profile_background_color'
p99
g45
sS'profile_banner_url'
p100
g63
sS'profile_background_image_url'
p101
g65
sS'name'
p102
g67
sS'lang'
p103
g69
sS'following'
p104
I00
sS'profile_background_tile'
p105
I00
sS'favourites_count'
p106
I256
sS'screen_name'
p107
g73
sS'url'
p108
g76
sS'created_at'
p109
cdatetime
datetime
p110
(S'\x07\xdc\x0b\x12\x0b6\x18\x00\x00\x00'
p111
tp112
Rp113
sS'profile_background_image_url_https'
p114
g48
sS'time_zone'
p115
NsS'protected'
p116
I00
sS'default_profile'
p117
I00
sS'is_translator'
p118
I00
sS'listed_count'
p119
I112
sbsS'filter_level'
p120
Vlow
p121
sS'geo'
p122
Nsg24
I621185960814977024
sS'favorite_count'
p123
I0
sS'source'
p124
VTwitter Web Client
p125
sg103
Ven
p126
sS'author'
p127
g18
sS'in_reply_to_user_id_str'
p128
Nsg28
(dp129
Vcontributors
p130
NsVtruncated
p131
I00
sVtext
p132
g10
sVin_reply_to_status_id
p133
Nsg33
I621185960814977024
sVfavorite_count
p134
I0
sVsource
p135
V<a href="http://twitter.com" rel="nofollow">Twitter Web Client</a>
p136
sVretweeted
p137
I00
sVcoordinates
p138
NsVtimestamp_ms
p139
V1436937248792
p140
sVentities
p141
(dp142
Vsymbols
p143
(lp144
sVmedia
p145
(lp146
(dp147
Vexpanded_url
p148
Vhttp://twitter.com/sixtyandme/status/621185960814977024/photo/1
p149
sVdisplay_url
p150
Vpic.twitter.com/58leAW9uQ5
p151
sg75
Vhttp://t.co/58leAW9uQ5
p152
sVmedia_url_https
p153
Vhttps://pbs.twimg.com/media/CJ7lVuJWUAAZb4o.jpg
p154
sg42
V621185959950962688
p155
sVsizes
p156
(dp157
Vlarge
p158
(dp159
Vh
p160
I479
sVresize
p161
Vfit
p162
sVw
p163
I846
ssVsmall
p164
(dp165
g160
I192
sg161
Vfit
p166
sg163
I340
ssVmedium
p167
(dp168
g160
I339
sg161
Vfit
p169
sg163
I600
ssVthumb
p170
(dp171
g160
I150
sg161
Vcrop
p172
sg163
I150
sssVindices
p173
(lp174
I82
aI104
asVtype
p175
Vphoto
p176
sg33
I621185959950962688
sVmedia_url
p177
Vhttp://pbs.twimg.com/media/CJ7lVuJWUAAZb4o.jpg
p178
sasVhashtags
p179
(lp180
sVuser_mentions
p181
(lp182
(dp183
g33
I955350608
sg173
(lp184
I70
aI81
asg42
V955350608
p185
sg72
Vsixtyandme
p186
sg66
VSixty and Me 
p187
sasVtrends
p188
(lp189
sVurls
p190
(lp191
(dp192
g75
Vhttps://t.co/FRuGo2veHd
p193
sg173
(lp194
I46
aI69
asg148
Vhttps://www.youtube.com/watch?v=jj4cpOB1T2s
p195
sg150
Vyoutube.com/watch?v=jj4cpO\u2026
p196
sassVin_reply_to_screen_name
p197
Nsg42
V621185960814977024
p198
sVretweet_count
p199
I0
sVin_reply_to_user_id
p200
NsVfavorited
p201
I00
sVuser
p202
g29
sVgeo
p203
NsVin_reply_to_user_id_str
p204
NsVpossibly_sensitive
p205
I00
sg68
g126
sg77
VWed Jul 15 05:14:08 +0000 2015
p206
sVfilter_level
p207
g121
sVin_reply_to_status_id_str
p208
NsVplace
p209
(dp210
Vfull_name
p211
VZurich, Switzerland
p212
sg75
Vhttps://api.twitter.com/1.1/geo/id/3acb748d0f1e9265.json
p213
sVcountry
p214
VSchweiz
p215
sVplace_type
p216
Vcity
p217
sVbounding_box
p218
(dp219
g175
VPolygon
p220
sg138
(lp221
(lp222
(lp223
F8.448081
aF47.320183
aa(lp224
F8.448081
aF47.434721
aa(lp225
F8.625442
aF47.434721
aa(lp226
F8.625442
aF47.320183
aaassVcountry_code
p227
VCH
p228
sVattributes
p229
(dp230
sg33
V3acb748d0f1e9265
p231
sg66
VZurich
p232
ssVextended_entities
p233
(dp234
g145
(lp235
(dp236
g148
Vhttp://twitter.com/sixtyandme/status/621185960814977024/photo/1
p237
sg150
Vpic.twitter.com/58leAW9uQ5
p238
sg75
Vhttp://t.co/58leAW9uQ5
p239
sg153
Vhttps://pbs.twimg.com/media/CJ7lVuJWUAAZb4o.jpg
p240
sg42
V621185959950962688
p241
sg156
(dp242
g158
(dp243
g160
I479
sg161
Vfit
p244
sg163
I846
ssg164
(dp245
g160
I192
sg161
Vfit
p246
sg163
I340
ssg167
(dp247
g160
I339
sg161
Vfit
p248
sg163
I600
ssg170
(dp249
g160
I150
sg161
Vcrop
p250
sg163
I150
sssg173
(lp251
I82
aI104
asg175
Vphoto
p252
sg33
I621185959950962688
sg177
Vhttp://pbs.twimg.com/media/CJ7lVuJWUAAZb4o.jpg
p253
sasssS'coordinates'
p254
NsS'timestamp_ms'
p255
g140
sS'entities'
p256
g142
sS'in_reply_to_status_id_str'
p257
NsS'in_reply_to_screen_name'
p258
Nsg90
g198
sS'extended_entities'
p259
g234
sS'retweeted'
p260
I00
sS'place'
p261
g0
(ctweepy.models
Place
p262
g2
Ntp263
Rp264
(dp265
S'full_name'
p266
g212
sg108
g213
sS'country'
p267
g215
sS'place_type'
p268
g217
sS'bounding_box'
p269
g0
(ctweepy.models
BoundingBox
p270
g2
Ntp271
Rp272
(dp273
S'type'
p274
g220
sg254
g221
sbsS'country_code'
p275
g228
sS'attributes'
p276
g230
sg24
g231
sg102
g232
sbsS'retweet_count'
p277
I0
sg109
g110
(S'\x07\xdf\x07\x0f\x05\x0e\x08\x00\x00\x00'
p278
tp279
Rp280
sS'in_reply_to_user_id'
p281
Nsb.