ccopy_reg
_reconstructor
p0
(ctweepy.models
Status
p1
c__builtin__
object
p2
Ntp3
Rp4
(dp5
S'favorited'
p6
I00
sS'contributors'
p7
NsS'truncated'
p8
I00
sS'text'
p9
VHavin' a picnic by the #LakeZurich.\u000a\u000a#WonderfulDay http://t.co/hZbjZjbXwE
p10
sS'source_url'
p11
Vhttp://twitter.com/download/android
p12
sS'possibly_sensitive'
p13
I00
sS'in_reply_to_status_id'
p14
NsS'user'
p15
g0
(ctweepy.models
User
p16
g2
Ntp17
Rp18
(dp19
S'follow_request_sent'
p20
NsS'profile_use_background_image'
p21
I01
sS'profile_sidebar_fill_color'
p22
VE84F17
p23
sS'id'
p24
I22408286
sS'verified'
p25
I00
sS'profile_image_url_https'
p26
Vhttps://pbs.twimg.com/profile_images/593778267313688578/kQM7mHjl_normal.jpg
p27
sS'_json'
p28
(dp29
Vfollow_request_sent
p30
NsVprofile_use_background_image
p31
I01
sVdefault_profile_image
p32
I00
sVid
p33
I22408286
sVverified
p34
I00
sVprofile_image_url_https
p35
g27
sVprofile_sidebar_fill_color
p36
g23
sVprofile_text_color
p37
V030301
p38
sVfollowers_count
p39
I610
sVprofile_sidebar_border_color
p40
VFFFFFF
p41
sVid_str
p42
V22408286
p43
sVprofile_background_color
p44
V1A12FF
p45
sVlisted_count
p46
I14
sVprofile_background_image_url_https
p47
Vhttps://pbs.twimg.com/profile_background_images/26936294/a.JPG
p48
sVutc_offset
p49
I7200
sVstatuses_count
p50
I8262
sVdescription
p51
V* Ghelo is my nickname * I'm #DJ #BongAguinaldo @ http://www.pinasmusiczone.com * #Blogger @ http://bubong.blogspot.com *#Poet * #Lambily *
p52
sVfriends_count
p53
I852
sVlocation
p54
VZurich, Switzerland
p55
sVprofile_link_color
p56
V4A913C
p57
sVprofile_image_url
p58
Vhttp://pbs.twimg.com/profile_images/593778267313688578/kQM7mHjl_normal.jpg
p59
sVfollowing
p60
NsVgeo_enabled
p61
I01
sVprofile_banner_url
p62
Vhttps://pbs.twimg.com/profile_banners/22408286/1430402720
p63
sVprofile_background_image_url
p64
Vhttp://pbs.twimg.com/profile_background_images/26936294/a.JPG
p65
sVname
p66
VAngelo Zantua
p67
sVlang
p68
Ven
p69
sVprofile_background_tile
p70
I00
sVfavourites_count
p71
I16
sVscreen_name
p72
Vbubong
p73
sVnotifications
p74
NsVurl
p75
Vhttp://instagram.com/bubong
p76
sVcreated_at
p77
VSun Mar 01 21:21:00 +0000 2009
p78
sVcontributors_enabled
p79
I00
sVtime_zone
p80
VBern
p81
sVprotected
p82
I00
sVdefault_profile
p83
I00
sVis_translator
p84
I00
ssS'contributors_enabled'
p85
I00
sS'profile_text_color'
p86
g38
sS'followers_count'
p87
I610
sS'profile_sidebar_border_color'
p88
g41
sS'location'
p89
g55
sS'default_profile_image'
p90
I00
sS'id_str'
p91
g43
sS'utc_offset'
p92
I7200
sS'statuses_count'
p93
I8262
sS'description'
p94
g52
sS'friends_count'
p95
I852
sS'profile_link_color'
p96
g57
sS'profile_image_url'
p97
g59
sS'notifications'
p98
NsS'geo_enabled'
p99
I01
sS'profile_background_color'
p100
g45
sS'profile_banner_url'
p101
g63
sS'profile_background_image_url'
p102
g65
sS'name'
p103
g67
sS'lang'
p104
g69
sS'following'
p105
I00
sS'profile_background_tile'
p106
I00
sS'favourites_count'
p107
I16
sS'screen_name'
p108
g73
sS'url'
p109
g76
sS'created_at'
p110
cdatetime
datetime
p111
(S'\x07\xd9\x03\x01\x15\x15\x00\x00\x00\x00'
p112
tp113
Rp114
sS'profile_background_image_url_https'
p115
g48
sS'time_zone'
p116
g81
sS'protected'
p117
I00
sS'default_profile'
p118
I00
sS'is_translator'
p119
I00
sS'listed_count'
p120
I14
sbsS'filter_level'
p121
Vlow
p122
sS'geo'
p123
Nsg24
I619488611835211777
sS'favorite_count'
p124
I0
sS'source'
p125
VTwitter for Android
p126
sg104
Ven
p127
sS'author'
p128
g18
sS'in_reply_to_user_id_str'
p129
Nsg28
(dp130
Vcontributors
p131
NsVtruncated
p132
I00
sVtext
p133
VHavin' a picnic by the #LakeZurich.\u000a\u000a#WonderfulDay http://t.co/hZbjZjbXwE
p134
sVin_reply_to_status_id
p135
Nsg33
I619488611835211777
sVfavorite_count
p136
I0
sVsource
p137
V<a href="http://twitter.com/download/android" rel="nofollow">Twitter for Android</a>
p138
sVretweeted
p139
I00
sVcoordinates
p140
NsVtimestamp_ms
p141
V1436532569260
p142
sVentities
p143
(dp144
Vsymbols
p145
(lp146
sVmedia
p147
(lp148
(dp149
Vexpanded_url
p150
Vhttp://twitter.com/bubong/status/619488611835211777/photo/1
p151
sVdisplay_url
p152
Vpic.twitter.com/hZbjZjbXwE
p153
sg75
Vhttp://t.co/hZbjZjbXwE
p154
sVmedia_url_https
p155
Vhttps://pbs.twimg.com/media/CJjdmVrUYAA2lrt.jpg
p156
sg42
V619488599487045632
p157
sVsizes
p158
(dp159
Vsmall
p160
(dp161
Vh
p162
I340
sVresize
p163
Vfit
p164
sVw
p165
I340
ssVlarge
p166
(dp167
g162
I984
sg163
Vfit
p168
sg165
I984
ssVmedium
p169
(dp170
g162
I600
sg163
Vfit
p171
sg165
I600
ssVthumb
p172
(dp173
g162
I150
sg163
Vcrop
p174
sg165
I150
sssVindices
p175
(lp176
I51
aI73
asVtype
p177
Vphoto
p178
sg33
I619488599487045632
sVmedia_url
p179
Vhttp://pbs.twimg.com/media/CJjdmVrUYAA2lrt.jpg
p180
sasVhashtags
p181
(lp182
(dp183
g175
(lp184
I23
aI34
asg133
VLakeZurich
p185
sa(dp186
g175
(lp187
I37
aI50
asg133
VWonderfulDay
p188
sasVuser_mentions
p189
(lp190
sVtrends
p191
(lp192
sVurls
p193
(lp194
ssVin_reply_to_screen_name
p195
Nsg42
V619488611835211777
p196
sVretweet_count
p197
I0
sVin_reply_to_user_id
p198
NsVfavorited
p199
I00
sVuser
p200
g29
sVgeo
p201
NsVin_reply_to_user_id_str
p202
NsVpossibly_sensitive
p203
I00
sg68
g127
sg77
VFri Jul 10 12:49:29 +0000 2015
p204
sVfilter_level
p205
g122
sVin_reply_to_status_id_str
p206
NsVplace
p207
(dp208
Vfull_name
p209
VZurich, Switzerland
p210
sg75
Vhttps://api.twitter.com/1.1/geo/id/3acb748d0f1e9265.json
p211
sVcountry
p212
VSchweiz
p213
sVplace_type
p214
Vcity
p215
sVbounding_box
p216
(dp217
g177
VPolygon
p218
sg140
(lp219
(lp220
(lp221
F8.448081
aF47.320183
aa(lp222
F8.448081
aF47.434721
aa(lp223
F8.625442
aF47.434721
aa(lp224
F8.625442
aF47.320183
aaassVcountry_code
p225
VCH
p226
sVattributes
p227
(dp228
sg33
V3acb748d0f1e9265
p229
sg66
VZurich
p230
ssVextended_entities
p231
(dp232
g147
(lp233
(dp234
g150
Vhttp://twitter.com/bubong/status/619488611835211777/photo/1
p235
sg152
Vpic.twitter.com/hZbjZjbXwE
p236
sg75
Vhttp://t.co/hZbjZjbXwE
p237
sg155
Vhttps://pbs.twimg.com/media/CJjdmVrUYAA2lrt.jpg
p238
sg42
V619488599487045632
p239
sg158
(dp240
g160
(dp241
g162
I340
sg163
Vfit
p242
sg165
I340
ssg166
(dp243
g162
I984
sg163
Vfit
p244
sg165
I984
ssg169
(dp245
g162
I600
sg163
Vfit
p246
sg165
I600
ssg172
(dp247
g162
I150
sg163
Vcrop
p248
sg165
I150
sssg175
(lp249
I51
aI73
asg177
Vphoto
p250
sg33
I619488599487045632
sg179
Vhttp://pbs.twimg.com/media/CJjdmVrUYAA2lrt.jpg
p251
sasssS'coordinates'
p252
NsS'timestamp_ms'
p253
g142
sS'entities'
p254
g144
sS'in_reply_to_status_id_str'
p255
NsS'in_reply_to_screen_name'
p256
Nsg91
g196
sS'extended_entities'
p257
g232
sS'retweeted'
p258
I00
sS'place'
p259
g0
(ctweepy.models
Place
p260
g2
Ntp261
Rp262
(dp263
S'full_name'
p264
g210
sg109
g211
sS'country'
p265
g213
sS'place_type'
p266
g215
sS'bounding_box'
p267
g0
(ctweepy.models
BoundingBox
p268
g2
Ntp269
Rp270
(dp271
S'type'
p272
g218
sg252
g219
sbsS'country_code'
p273
g226
sS'attributes'
p274
g228
sg24
g229
sg103
g230
sbsS'retweet_count'
p275
I0
sg110
g111
(S'\x07\xdf\x07\n\x0c1\x1d\x00\x00\x00'
p276
tp277
Rp278
sS'in_reply_to_user_id'
p279
Nsb.