ccopy_reg
_reconstructor
p0
(ctweepy.models
Status
p1
c__builtin__
object
p2
Ntp3
Rp4
(dp5
S'favorited'
p6
I00
sS'contributors'
p7
NsS'truncated'
p8
I00
sS'text'
p9
V@LavrentzosA   SOS  TOS  FILE MOY. \u000aNASAI BEBAIOS OTI AYTO POY EKANE  THA TO BREI MPROSTA TOY,,,AKOMA KAI STIS AITHOYSES TIS DIKAIOSINHS,
p10
sS'source_url'
p11
Vhttp://twitter.com
p12
sS'possibly_sensitive'
p13
I00
sS'in_reply_to_status_id'
p14
I619848868243636224
sS'user'
p15
g0
(ctweepy.models
User
p16
g2
Ntp17
Rp18
(dp19
S'follow_request_sent'
p20
NsS'profile_use_background_image'
p21
I01
sS'profile_sidebar_fill_color'
p22
VDDEEF6
p23
sS'id'
p24
I2842754986
sS'verified'
p25
I00
sS'profile_image_url_https'
p26
Vhttps://abs.twimg.com/sticky/default_profile_images/default_profile_1_normal.png
p27
sS'_json'
p28
(dp29
Vfollow_request_sent
p30
NsVprofile_use_background_image
p31
I01
sVdefault_profile_image
p32
I01
sVid
p33
I2842754986
sVverified
p34
I00
sVprofile_image_url_https
p35
g27
sVprofile_sidebar_fill_color
p36
g23
sVprofile_text_color
p37
V333333
p38
sVfollowers_count
p39
I3
sVprofile_sidebar_border_color
p40
VC0DEED
p41
sVid_str
p42
V2842754986
p43
sVprofile_background_color
p44
VC0DEED
p45
sVlisted_count
p46
I0
sVprofile_background_image_url_https
p47
Vhttps://abs.twimg.com/images/themes/theme1/bg.png
p48
sVutc_offset
p49
NsVstatuses_count
p50
I5
sVdescription
p51
NsVfriends_count
p52
I2
sVlocation
p53
V
p54
sVprofile_link_color
p55
V0084B4
p56
sVprofile_image_url
p57
Vhttp://abs.twimg.com/sticky/default_profile_images/default_profile_1_normal.png
p58
sVfollowing
p59
NsVgeo_enabled
p60
I01
sVprofile_background_image_url
p61
Vhttp://abs.twimg.com/images/themes/theme1/bg.png
p62
sVname
p63
VLoukas  Mpistarakis
p64
sVlang
p65
Ven
p66
sVprofile_background_tile
p67
I00
sVfavourites_count
p68
I0
sVscreen_name
p69
Vmesphingx
p70
sVnotifications
p71
NsVurl
p72
NsVcreated_at
p73
VFri Oct 24 19:10:56 +0000 2014
p74
sVcontributors_enabled
p75
I00
sVtime_zone
p76
NsVprotected
p77
I00
sVdefault_profile
p78
I01
sVis_translator
p79
I00
ssS'contributors_enabled'
p80
I00
sS'profile_text_color'
p81
g38
sS'followers_count'
p82
I3
sS'profile_sidebar_border_color'
p83
g41
sS'location'
p84
g54
sS'default_profile_image'
p85
I01
sS'id_str'
p86
g43
sS'utc_offset'
p87
NsS'statuses_count'
p88
I5
sS'description'
p89
NsS'friends_count'
p90
I2
sS'profile_link_color'
p91
g56
sS'profile_image_url'
p92
g58
sS'notifications'
p93
NsS'geo_enabled'
p94
I01
sS'profile_background_color'
p95
g45
sS'profile_background_image_url'
p96
g62
sS'name'
p97
g64
sS'lang'
p98
g66
sS'following'
p99
I00
sS'profile_background_tile'
p100
I00
sS'favourites_count'
p101
I0
sS'screen_name'
p102
g70
sS'url'
p103
NsS'created_at'
p104
cdatetime
datetime
p105
(S'\x07\xde\n\x18\x13\n8\x00\x00\x00'
p106
tp107
Rp108
sS'profile_background_image_url_https'
p109
g48
sS'time_zone'
p110
NsS'protected'
p111
I00
sS'default_profile'
p112
I01
sS'is_translator'
p113
I00
sS'listed_count'
p114
I0
sbsS'filter_level'
p115
Vlow
p116
sS'geo'
p117
Nsg24
I619907420471619584
sS'favorite_count'
p118
I0
sS'source'
p119
VTwitter Web Client
p120
sg98
Vtl
p121
sS'author'
p122
g18
sS'in_reply_to_user_id_str'
p123
V330200964
p124
sg28
(dp125
Vcontributors
p126
NsVtruncated
p127
I00
sVtext
p128
V@LavrentzosA   SOS  TOS  FILE MOY. \u000aNASAI BEBAIOS OTI AYTO POY EKANE  THA TO BREI MPROSTA TOY,,,AKOMA KAI STIS AITHOYSES TIS DIKAIOSINHS,
p129
sVin_reply_to_status_id
p130
I619848868243636224
sg33
I619907420471619584
sVfavorite_count
p131
I0
sVsource
p132
V<a href="http://twitter.com" rel="nofollow">Twitter Web Client</a>
p133
sVretweeted
p134
I00
sVcoordinates
p135
NsVtimestamp_ms
p136
V1436632421020
p137
sVentities
p138
(dp139
Vuser_mentions
p140
(lp141
(dp142
g33
I330200964
sVindices
p143
(lp144
I0
aI12
asg42
V330200964
p145
sg69
VLavrentzosA
p146
sg63
VLavrentzos Anastasio
p147
sasVsymbols
p148
(lp149
sVtrends
p150
(lp151
sVhashtags
p152
(lp153
sVurls
p154
(lp155
ssVin_reply_to_screen_name
p156
VLavrentzosA
p157
sg42
V619907420471619584
p158
sVretweet_count
p159
I0
sVin_reply_to_user_id
p160
I330200964
sVfavorited
p161
I00
sVuser
p162
g29
sVgeo
p163
NsVin_reply_to_user_id_str
p164
g124
sVpossibly_sensitive
p165
I00
sg65
g121
sg73
VSat Jul 11 16:33:41 +0000 2015
p166
sVfilter_level
p167
g116
sVin_reply_to_status_id_str
p168
V619848868243636224
p169
sVplace
p170
(dp171
Vfull_name
p172
VZurich, Switzerland
p173
sg72
Vhttps://api.twitter.com/1.1/geo/id/3acb748d0f1e9265.json
p174
sVcountry
p175
VSchweiz
p176
sVplace_type
p177
Vcity
p178
sVbounding_box
p179
(dp180
Vtype
p181
VPolygon
p182
sg135
(lp183
(lp184
(lp185
F8.448081
aF47.320183
aa(lp186
F8.448081
aF47.434721
aa(lp187
F8.625442
aF47.434721
aa(lp188
F8.625442
aF47.320183
aaassVcountry_code
p189
VCH
p190
sVattributes
p191
(dp192
sg33
V3acb748d0f1e9265
p193
sg63
VZurich
p194
sssS'coordinates'
p195
NsS'timestamp_ms'
p196
g137
sS'entities'
p197
g139
sS'in_reply_to_status_id_str'
p198
g169
sS'in_reply_to_screen_name'
p199
g157
sg86
g158
sS'retweeted'
p200
I00
sS'place'
p201
g0
(ctweepy.models
Place
p202
g2
Ntp203
Rp204
(dp205
S'full_name'
p206
g173
sg103
g174
sS'country'
p207
g176
sS'place_type'
p208
g178
sS'bounding_box'
p209
g0
(ctweepy.models
BoundingBox
p210
g2
Ntp211
Rp212
(dp213
S'type'
p214
g182
sg195
g183
sbsS'country_code'
p215
g190
sS'attributes'
p216
g192
sg24
g193
sg97
g194
sbsS'retweet_count'
p217
I0
sg104
g105
(S'\x07\xdf\x07\x0b\x10!)\x00\x00\x00'
p218
tp219
Rp220
sS'in_reply_to_user_id'
p221
I330200964
sb.