ccopy_reg
_reconstructor
p0
(ctweepy.models
Status
p1
c__builtin__
object
p2
Ntp3
Rp4
(dp5
S'favorited'
p6
I00
sS'contributors'
p7
NsS'truncated'
p8
I00
sS'text'
p9
V#Romeolaybleeding and I sat crying\U0001f622. What a show! Standing ovation &amp; endless applause richly deserved. BRAVI to all\U0001f44f\U0001f44f http://t.co/zDG6tyUUoy
p10
sS'source_url'
p11
Vhttp://twitter.com/download/android
p12
sS'possibly_sensitive'
p13
I00
sS'in_reply_to_status_id'
p14
NsS'user'
p15
g0
(ctweepy.models
User
p16
g2
Ntp17
Rp18
(dp19
S'follow_request_sent'
p20
NsS'profile_use_background_image'
p21
I01
sS'profile_sidebar_fill_color'
p22
VDDEEF6
p23
sS'id'
p24
I2941344333
sS'verified'
p25
I00
sS'profile_image_url_https'
p26
Vhttps://abs.twimg.com/sticky/default_profile_images/default_profile_4_normal.png
p27
sS'_json'
p28
(dp29
Vfollow_request_sent
p30
NsVprofile_use_background_image
p31
I01
sVdefault_profile_image
p32
I01
sVid
p33
I2941344333
sVverified
p34
I00
sVprofile_image_url_https
p35
g27
sVprofile_sidebar_fill_color
p36
g23
sVprofile_text_color
p37
V333333
p38
sVfollowers_count
p39
I16
sVprofile_sidebar_border_color
p40
VC0DEED
p41
sVid_str
p42
V2941344333
p43
sVprofile_background_color
p44
VC0DEED
p45
sVlisted_count
p46
I2
sVprofile_background_image_url_https
p47
Vhttps://abs.twimg.com/images/themes/theme1/bg.png
p48
sVutc_offset
p49
NsVstatuses_count
p50
I417
sVdescription
p51
VLuxury villa agent, frustrated opera diva & by default devoted classical fan.Also of truffles & donkeys, tolerance peace  beauty & la dolce vita.
p52
sVfriends_count
p53
I22
sVlocation
p54
V
p55
sVprofile_link_color
p56
V0084B4
p57
sVprofile_image_url
p58
Vhttp://abs.twimg.com/sticky/default_profile_images/default_profile_4_normal.png
p59
sVfollowing
p60
NsVgeo_enabled
p61
I01
sVprofile_background_image_url
p62
Vhttp://abs.twimg.com/images/themes/theme1/bg.png
p63
sVname
p64
Vmarina gratsos
p65
sVlang
p66
Ven
p67
sVprofile_background_tile
p68
I00
sVfavourites_count
p69
I991
sVscreen_name
p70
Vmarinaiki123
p71
sVnotifications
p72
NsVurl
p73
Vhttp://www.carpediemtravel.co.uk
p74
sVcreated_at
p75
VThu Dec 25 22:22:15 +0000 2014
p76
sVcontributors_enabled
p77
I00
sVtime_zone
p78
NsVprotected
p79
I00
sVdefault_profile
p80
I01
sVis_translator
p81
I00
ssS'contributors_enabled'
p82
I00
sS'profile_text_color'
p83
g38
sS'followers_count'
p84
I16
sS'profile_sidebar_border_color'
p85
g41
sS'location'
p86
g55
sS'default_profile_image'
p87
I01
sS'id_str'
p88
g43
sS'utc_offset'
p89
NsS'statuses_count'
p90
I417
sS'description'
p91
g52
sS'friends_count'
p92
I22
sS'profile_link_color'
p93
g57
sS'profile_image_url'
p94
g59
sS'notifications'
p95
NsS'geo_enabled'
p96
I01
sS'profile_background_color'
p97
g45
sS'profile_background_image_url'
p98
g63
sS'name'
p99
g65
sS'lang'
p100
g67
sS'following'
p101
I00
sS'profile_background_tile'
p102
I00
sS'favourites_count'
p103
I991
sS'screen_name'
p104
g71
sS'url'
p105
g74
sS'created_at'
p106
cdatetime
datetime
p107
(S'\x07\xde\x0c\x19\x16\x16\x0f\x00\x00\x00'
p108
tp109
Rp110
sS'profile_background_image_url_https'
p111
g48
sS'time_zone'
p112
NsS'protected'
p113
I00
sS'default_profile'
p114
I01
sS'is_translator'
p115
I00
sS'listed_count'
p116
I2
sbsS'filter_level'
p117
Vlow
p118
sS'geo'
p119
Nsg24
I620256260420714497
sS'favorite_count'
p120
I0
sS'source'
p121
VTwitter for Android
p122
sg100
Ven
p123
sS'author'
p124
g18
sS'in_reply_to_user_id_str'
p125
Nsg28
(dp126
Vcontributors
p127
NsVtruncated
p128
I00
sVtext
p129
g10
sVin_reply_to_status_id
p130
Nsg33
I620256260420714497
sVfavorite_count
p131
I0
sVsource
p132
V<a href="http://twitter.com/download/android" rel="nofollow">Twitter for Android</a>
p133
sVretweeted
p134
I00
sVcoordinates
p135
NsVtimestamp_ms
p136
V1436715590945
p137
sVentities
p138
(dp139
Vsymbols
p140
(lp141
sVmedia
p142
(lp143
(dp144
Vexpanded_url
p145
Vhttp://twitter.com/marinaiki123/status/620256260420714497/photo/1
p146
sVdisplay_url
p147
Vpic.twitter.com/zDG6tyUUoy
p148
sg73
Vhttp://t.co/zDG6tyUUoy
p149
sVmedia_url_https
p150
Vhttps://pbs.twimg.com/media/CJuXxeHWgAAjSd1.jpg
p151
sg42
V620256249846857728
p152
sVsizes
p153
(dp154
Vsmall
p155
(dp156
Vh
p157
I191
sVresize
p158
Vfit
p159
sVw
p160
I340
ssVlarge
p161
(dp162
g157
I576
sg158
Vfit
p163
sg160
I1024
ssVmedium
p164
(dp165
g157
I337
sg158
Vfit
p166
sg160
I600
ssVthumb
p167
(dp168
g157
I150
sg158
Vcrop
p169
sg160
I150
sssVindices
p170
(lp171
I122
aI144
asVtype
p172
Vphoto
p173
sg33
I620256249846857728
sVmedia_url
p174
Vhttp://pbs.twimg.com/media/CJuXxeHWgAAjSd1.jpg
p175
sasVhashtags
p176
(lp177
(dp178
g170
(lp179
I0
aI17
asg129
VRomeolaybleeding
p180
sasVuser_mentions
p181
(lp182
sVtrends
p183
(lp184
sVurls
p185
(lp186
ssVin_reply_to_screen_name
p187
Nsg42
V620256260420714497
p188
sVretweet_count
p189
I0
sVin_reply_to_user_id
p190
NsVfavorited
p191
I00
sVuser
p192
g29
sVgeo
p193
NsVin_reply_to_user_id_str
p194
NsVpossibly_sensitive
p195
I00
sg66
g123
sg75
VSun Jul 12 15:39:50 +0000 2015
p196
sVfilter_level
p197
g118
sVin_reply_to_status_id_str
p198
NsVplace
p199
(dp200
Vfull_name
p201
VZurich, Switzerland
p202
sg73
Vhttps://api.twitter.com/1.1/geo/id/3acb748d0f1e9265.json
p203
sVcountry
p204
VSchweiz
p205
sVplace_type
p206
Vcity
p207
sVbounding_box
p208
(dp209
g172
VPolygon
p210
sg135
(lp211
(lp212
(lp213
F8.448081
aF47.320183
aa(lp214
F8.448081
aF47.434721
aa(lp215
F8.625442
aF47.434721
aa(lp216
F8.625442
aF47.320183
aaassVcountry_code
p217
VCH
p218
sVattributes
p219
(dp220
sg33
V3acb748d0f1e9265
p221
sg64
VZurich
p222
ssVextended_entities
p223
(dp224
g142
(lp225
(dp226
g145
Vhttp://twitter.com/marinaiki123/status/620256260420714497/photo/1
p227
sg147
Vpic.twitter.com/zDG6tyUUoy
p228
sg73
Vhttp://t.co/zDG6tyUUoy
p229
sg150
Vhttps://pbs.twimg.com/media/CJuXxeHWgAAjSd1.jpg
p230
sg42
V620256249846857728
p231
sg153
(dp232
g155
(dp233
g157
I191
sg158
Vfit
p234
sg160
I340
ssg161
(dp235
g157
I576
sg158
Vfit
p236
sg160
I1024
ssg164
(dp237
g157
I337
sg158
Vfit
p238
sg160
I600
ssg167
(dp239
g157
I150
sg158
Vcrop
p240
sg160
I150
sssg170
(lp241
I122
aI144
asg172
Vphoto
p242
sg33
I620256249846857728
sg174
Vhttp://pbs.twimg.com/media/CJuXxeHWgAAjSd1.jpg
p243
sasssS'coordinates'
p244
NsS'timestamp_ms'
p245
g137
sS'entities'
p246
g139
sS'in_reply_to_status_id_str'
p247
NsS'in_reply_to_screen_name'
p248
Nsg88
g188
sS'extended_entities'
p249
g224
sS'retweeted'
p250
I00
sS'place'
p251
g0
(ctweepy.models
Place
p252
g2
Ntp253
Rp254
(dp255
S'full_name'
p256
g202
sg105
g203
sS'country'
p257
g205
sS'place_type'
p258
g207
sS'bounding_box'
p259
g0
(ctweepy.models
BoundingBox
p260
g2
Ntp261
Rp262
(dp263
S'type'
p264
g210
sg244
g211
sbsS'country_code'
p265
g218
sS'attributes'
p266
g220
sg24
g221
sg99
g222
sbsS'retweet_count'
p267
I0
sg106
g107
(S"\x07\xdf\x07\x0c\x0f'2\x00\x00\x00"
p268
tp269
Rp270
sS'in_reply_to_user_id'
p271
Nsb.