ccopy_reg
_reconstructor
p0
(ctweepy.models
Status
p1
c__builtin__
object
p2
Ntp3
Rp4
(dp5
S'favorited'
p6
I00
sS'contributors'
p7
NsS'truncated'
p8
I00
sS'text'
p9
Vhttps://t.co/R5BFDjouAa
p10
sS'source_url'
p11
Vhttp://twitter.com
p12
sS'possibly_sensitive'
p13
I00
sS'in_reply_to_status_id'
p14
NsS'user'
p15
g0
(ctweepy.models
User
p16
g2
Ntp17
Rp18
(dp19
S'follow_request_sent'
p20
NsS'profile_use_background_image'
p21
I01
sS'profile_sidebar_fill_color'
p22
VDDEEF6
p23
sS'id'
p24
I2661333835
sS'verified'
p25
I00
sS'profile_image_url_https'
p26
Vhttps://pbs.twimg.com/profile_images/618820259982630912/AwP3crJk_normal.jpg
p27
sS'_json'
p28
(dp29
Vfollow_request_sent
p30
NsVprofile_use_background_image
p31
I01
sVdefault_profile_image
p32
I00
sVid
p33
I2661333835
sVverified
p34
I00
sVprofile_image_url_https
p35
g27
sVprofile_sidebar_fill_color
p36
g23
sVprofile_text_color
p37
V333333
p38
sVfollowers_count
p39
I4
sVprofile_sidebar_border_color
p40
VC0DEED
p41
sVid_str
p42
V2661333835
p43
sVprofile_background_color
p44
VC0DEED
p45
sVlisted_count
p46
I0
sVprofile_background_image_url_https
p47
Vhttps://abs.twimg.com/images/themes/theme1/bg.png
p48
sVutc_offset
p49
NsVstatuses_count
p50
I192
sVdescription
p51
NsVfriends_count
p52
I16
sVlocation
p53
V
p54
sVprofile_link_color
p55
V0084B4
p56
sVprofile_image_url
p57
Vhttp://pbs.twimg.com/profile_images/618820259982630912/AwP3crJk_normal.jpg
p58
sVfollowing
p59
NsVgeo_enabled
p60
I01
sVprofile_banner_url
p61
Vhttps://pbs.twimg.com/profile_banners/2661333835/1436373197
p62
sVprofile_background_image_url
p63
Vhttp://abs.twimg.com/images/themes/theme1/bg.png
p64
sVname
p65
VHosni Guermassi
p66
sVlang
p67
Vfr
p68
sVprofile_background_tile
p69
I00
sVfavourites_count
p70
I1
sVscreen_name
p71
Vzohramoud
p72
sVnotifications
p73
NsVurl
p74
NsVcreated_at
p75
VSun Jul 20 02:10:18 +0000 2014
p76
sVcontributors_enabled
p77
I00
sVtime_zone
p78
NsVprotected
p79
I00
sVdefault_profile
p80
I01
sVis_translator
p81
I00
ssS'contributors_enabled'
p82
I00
sS'profile_text_color'
p83
g38
sS'followers_count'
p84
I4
sS'profile_sidebar_border_color'
p85
g41
sS'location'
p86
g54
sS'default_profile_image'
p87
I00
sS'id_str'
p88
g43
sS'utc_offset'
p89
NsS'statuses_count'
p90
I192
sS'description'
p91
NsS'friends_count'
p92
I16
sS'profile_link_color'
p93
g56
sS'profile_image_url'
p94
g58
sS'notifications'
p95
NsS'geo_enabled'
p96
I01
sS'profile_background_color'
p97
g45
sS'profile_banner_url'
p98
g62
sS'profile_background_image_url'
p99
g64
sS'name'
p100
g66
sS'lang'
p101
g68
sS'following'
p102
I00
sS'profile_background_tile'
p103
I00
sS'favourites_count'
p104
I1
sS'screen_name'
p105
g72
sS'url'
p106
NsS'created_at'
p107
cdatetime
datetime
p108
(S'\x07\xde\x07\x14\x02\n\x12\x00\x00\x00'
p109
tp110
Rp111
sS'profile_background_image_url_https'
p112
g48
sS'time_zone'
p113
NsS'protected'
p114
I00
sS'default_profile'
p115
I01
sS'is_translator'
p116
I00
sS'listed_count'
p117
I0
sbsS'filter_level'
p118
Vlow
p119
sS'geo'
p120
Nsg24
I619075532433551360
sS'favorite_count'
p121
I0
sS'source'
p122
VTwitter Web Client
p123
sg101
Vund
p124
sS'author'
p125
g18
sS'in_reply_to_user_id_str'
p126
Nsg28
(dp127
Vcontributors
p128
NsVtruncated
p129
I00
sVtext
p130
g10
sVin_reply_to_status_id
p131
Nsg33
I619075532433551360
sVfavorite_count
p132
I0
sVsource
p133
V<a href="http://twitter.com" rel="nofollow">Twitter Web Client</a>
p134
sVretweeted
p135
I00
sVcoordinates
p136
NsVtimestamp_ms
p137
V1436434083456
p138
sVentities
p139
(dp140
Vuser_mentions
p141
(lp142
sVsymbols
p143
(lp144
sVtrends
p145
(lp146
sVhashtags
p147
(lp148
sVurls
p149
(lp150
(dp151
g74
Vhttps://t.co/R5BFDjouAa
p152
sVindices
p153
(lp154
I0
aI23
asVexpanded_url
p155
Vhttps://www.facebook.com/mahmoud.guermassi/videos/504607269693910/?pnref=story
p156
sVdisplay_url
p157
Vfacebook.com/mahmoud.guerma\u2026
p158
sassVin_reply_to_screen_name
p159
Nsg42
V619075532433551360
p160
sVretweet_count
p161
I0
sVin_reply_to_user_id
p162
NsVfavorited
p163
I00
sVuser
p164
g29
sVgeo
p165
NsVin_reply_to_user_id_str
p166
NsVpossibly_sensitive
p167
I00
sg67
g124
sg75
VThu Jul 09 09:28:03 +0000 2015
p168
sVfilter_level
p169
g119
sVin_reply_to_status_id_str
p170
NsVplace
p171
(dp172
Vfull_name
p173
VArgovie, Suisse
p174
sg74
Vhttps://api.twitter.com/1.1/geo/id/64c89c3f0e8b8b2e.json
p175
sVcountry
p176
VSchweiz
p177
sVplace_type
p178
Vadmin
p179
sVbounding_box
p180
(dp181
Vtype
p182
VPolygon
p183
sg136
(lp184
(lp185
(lp186
F7.713449
aF47.137443
aa(lp187
F7.713449
aF47.621039
aa(lp188
F8.455222
aF47.621039
aa(lp189
F8.455222
aF47.137443
aaassVcountry_code
p190
VCH
p191
sVattributes
p192
(dp193
sg33
V64c89c3f0e8b8b2e
p194
sg65
VArgovie
p195
sssS'coordinates'
p196
NsS'timestamp_ms'
p197
g138
sS'entities'
p198
g140
sS'in_reply_to_status_id_str'
p199
NsS'in_reply_to_screen_name'
p200
Nsg88
g160
sS'retweeted'
p201
I00
sS'place'
p202
g0
(ctweepy.models
Place
p203
g2
Ntp204
Rp205
(dp206
S'full_name'
p207
g174
sg106
g175
sS'country'
p208
g177
sS'place_type'
p209
g179
sS'bounding_box'
p210
g0
(ctweepy.models
BoundingBox
p211
g2
Ntp212
Rp213
(dp214
S'type'
p215
g183
sg196
g184
sbsS'country_code'
p216
g191
sS'attributes'
p217
g193
sg24
g194
sg100
g195
sbsS'retweet_count'
p218
I0
sg107
g108
(S'\x07\xdf\x07\t\t\x1c\x03\x00\x00\x00'
p219
tp220
Rp221
sS'in_reply_to_user_id'
p222
Nsb.