ccopy_reg
_reconstructor
p0
(ctweepy.models
Status
p1
c__builtin__
object
p2
Ntp3
Rp4
(dp5
S'favorited'
p6
I00
sS'contributors'
p7
NsS'truncated'
p8
I00
sS'text'
p9
VThinking about living with room mates? @goldengirlsnet founder Bonnie Moore has a new book to help you get started http://t.co/2ygdAT1S7f
p10
sS'source_url'
p11
Vhttp://twitter.com
p12
sS'possibly_sensitive'
p13
I00
sS'in_reply_to_status_id'
p14
NsS'user'
p15
g0
(ctweepy.models
User
p16
g2
Ntp17
Rp18
(dp19
S'follow_request_sent'
p20
NsS'profile_use_background_image'
p21
I01
sS'profile_sidebar_fill_color'
p22
VF3F3F3
p23
sS'id'
p24
I955350608
sS'verified'
p25
I00
sS'profile_image_url_https'
p26
Vhttps://pbs.twimg.com/profile_images/564447504066818048/t1W1zL6G_normal.png
p27
sS'_json'
p28
(dp29
Vfollow_request_sent
p30
NsVprofile_use_background_image
p31
I01
sVdefault_profile_image
p32
I00
sVid
p33
I955350608
sVverified
p34
I00
sVprofile_image_url_https
p35
g27
sVprofile_sidebar_fill_color
p36
g23
sVprofile_text_color
p37
V333333
p38
sVfollowers_count
p39
I3611
sVprofile_sidebar_border_color
p40
VDFDFDF
p41
sVid_str
p42
V955350608
p43
sVprofile_background_color
p44
VEBEBEB
p45
sVlisted_count
p46
I112
sVprofile_background_image_url_https
p47
Vhttps://abs.twimg.com/images/themes/theme7/bg.gif
p48
sVutc_offset
p49
NsVstatuses_count
p50
I12124
sVdescription
p51
VSixty and Me is a global community of 100,000 women over 60. Helping boomer women to live healthy, independent and financially secure lives. By Margaret Manning
p52
sVfriends_count
p53
I1779
sVlocation
p54
VSwitzerland 
p55
sVprofile_link_color
p56
V990000
p57
sVprofile_image_url
p58
Vhttp://pbs.twimg.com/profile_images/564447504066818048/t1W1zL6G_normal.png
p59
sVfollowing
p60
NsVgeo_enabled
p61
I01
sVprofile_banner_url
p62
Vhttps://pbs.twimg.com/profile_banners/955350608/1423417866
p63
sVprofile_background_image_url
p64
Vhttp://abs.twimg.com/images/themes/theme7/bg.gif
p65
sVname
p66
VSixty and Me 
p67
sVlang
p68
Ven
p69
sVprofile_background_tile
p70
I00
sVfavourites_count
p71
I253
sVscreen_name
p72
Vsixtyandme
p73
sVnotifications
p74
NsVurl
p75
Vhttp://sixtyandme.com
p76
sVcreated_at
p77
VSun Nov 18 11:54:24 +0000 2012
p78
sVcontributors_enabled
p79
I00
sVtime_zone
p80
NsVprotected
p81
I00
sVdefault_profile
p82
I00
sVis_translator
p83
I00
ssS'contributors_enabled'
p84
I00
sS'profile_text_color'
p85
g38
sS'followers_count'
p86
I3611
sS'profile_sidebar_border_color'
p87
g41
sS'location'
p88
g55
sS'default_profile_image'
p89
I00
sS'id_str'
p90
g43
sS'utc_offset'
p91
NsS'statuses_count'
p92
I12124
sS'description'
p93
g52
sS'friends_count'
p94
I1779
sS'profile_link_color'
p95
g57
sS'profile_image_url'
p96
g59
sS'notifications'
p97
NsS'geo_enabled'
p98
I01
sS'profile_background_color'
p99
g45
sS'profile_banner_url'
p100
g63
sS'profile_background_image_url'
p101
g65
sS'name'
p102
g67
sS'lang'
p103
g69
sS'following'
p104
I00
sS'profile_background_tile'
p105
I00
sS'favourites_count'
p106
I253
sS'screen_name'
p107
g73
sS'url'
p108
g76
sS'created_at'
p109
cdatetime
datetime
p110
(S'\x07\xdc\x0b\x12\x0b6\x18\x00\x00\x00'
p111
tp112
Rp113
sS'profile_background_image_url_https'
p114
g48
sS'time_zone'
p115
NsS'protected'
p116
I00
sS'default_profile'
p117
I00
sS'is_translator'
p118
I00
sS'listed_count'
p119
I112
sbsS'filter_level'
p120
Vlow
p121
sS'geo'
p122
Nsg24
I620490084152967168
sS'favorite_count'
p123
I0
sS'source'
p124
VTwitter Web Client
p125
sg103
Ven
p126
sS'author'
p127
g18
sS'in_reply_to_user_id_str'
p128
Nsg28
(dp129
Vcontributors
p130
NsVtruncated
p131
I00
sVtext
p132
g10
sVin_reply_to_status_id
p133
Nsg33
I620490084152967168
sVfavorite_count
p134
I0
sVsource
p135
V<a href="http://twitter.com" rel="nofollow">Twitter Web Client</a>
p136
sVretweeted
p137
I00
sVcoordinates
p138
NsVtimestamp_ms
p139
V1436771338867
p140
sVentities
p141
(dp142
Vuser_mentions
p143
(lp144
(dp145
g33
I37430098
sVindices
p146
(lp147
I39
aI54
asg42
V37430098
p148
sg72
Vgoldengirlsnet
p149
sg66
VGolden Girls Network
p150
sasVsymbols
p151
(lp152
sVtrends
p153
(lp154
sVhashtags
p155
(lp156
sVurls
p157
(lp158
(dp159
g75
Vhttp://t.co/2ygdAT1S7f
p160
sg146
(lp161
I115
aI137
asVexpanded_url
p162
Vhttp://amzn.to/1PYXOjv
p163
sVdisplay_url
p164
Vamzn.to/1PYXOjv
p165
sassVin_reply_to_screen_name
p166
Nsg42
V620490084152967168
p167
sVretweet_count
p168
I0
sVin_reply_to_user_id
p169
NsVfavorited
p170
I00
sVuser
p171
g29
sVgeo
p172
NsVin_reply_to_user_id_str
p173
NsVpossibly_sensitive
p174
I00
sg68
g126
sg77
VMon Jul 13 07:08:58 +0000 2015
p175
sVfilter_level
p176
g121
sVin_reply_to_status_id_str
p177
NsVplace
p178
(dp179
Vfull_name
p180
VZurich, Switzerland
p181
sg75
Vhttps://api.twitter.com/1.1/geo/id/3acb748d0f1e9265.json
p182
sVcountry
p183
VSchweiz
p184
sVplace_type
p185
Vcity
p186
sVbounding_box
p187
(dp188
Vtype
p189
VPolygon
p190
sg138
(lp191
(lp192
(lp193
F8.448081
aF47.320183
aa(lp194
F8.448081
aF47.434721
aa(lp195
F8.625442
aF47.434721
aa(lp196
F8.625442
aF47.320183
aaassVcountry_code
p197
VCH
p198
sVattributes
p199
(dp200
sg33
V3acb748d0f1e9265
p201
sg66
VZurich
p202
sssS'coordinates'
p203
NsS'timestamp_ms'
p204
g140
sS'entities'
p205
g142
sS'in_reply_to_status_id_str'
p206
NsS'in_reply_to_screen_name'
p207
Nsg90
g167
sS'retweeted'
p208
I00
sS'place'
p209
g0
(ctweepy.models
Place
p210
g2
Ntp211
Rp212
(dp213
S'full_name'
p214
g181
sg108
g182
sS'country'
p215
g184
sS'place_type'
p216
g186
sS'bounding_box'
p217
g0
(ctweepy.models
BoundingBox
p218
g2
Ntp219
Rp220
(dp221
S'type'
p222
g190
sg203
g191
sbsS'country_code'
p223
g198
sS'attributes'
p224
g200
sg24
g201
sg102
g202
sbsS'retweet_count'
p225
I0
sg109
g110
(S'\x07\xdf\x07\r\x07\x08:\x00\x00\x00'
p226
tp227
Rp228
sS'in_reply_to_user_id'
p229
Nsb.