ccopy_reg
_reconstructor
p0
(ctweepy.models
Status
p1
c__builtin__
object
p2
Ntp3
Rp4
(dp5
S'favorited'
p6
I00
sS'contributors'
p7
NsS'truncated'
p8
I00
sS'text'
p9
V@ireneros @passpack has been blocked for shockingly 6hours today. Their answer on support requests: \u201cwe respond in 2-3 working days\u201d \u000a\U0001f611
p10
sS'source_url'
p11
Vhttp://tapbots.com/tweetbot
p12
sS'possibly_sensitive'
p13
I00
sS'in_reply_to_status_id'
p14
I618422506043625473
sS'user'
p15
g0
(ctweepy.models
User
p16
g2
Ntp17
Rp18
(dp19
S'follow_request_sent'
p20
NsS'profile_use_background_image'
p21
I00
sS'profile_sidebar_fill_color'
p22
VE3E3E0
p23
sS'id'
p24
I17863
sS'verified'
p25
I00
sS'profile_image_url_https'
p26
Vhttps://pbs.twimg.com/profile_images/489884179081863168/ecFqRGY-_normal.png
p27
sS'_json'
p28
(dp29
Vfollow_request_sent
p30
NsVprofile_use_background_image
p31
I00
sVdefault_profile_image
p32
I00
sVid
p33
I17863
sVverified
p34
I00
sVprofile_image_url_https
p35
g27
sVprofile_sidebar_fill_color
p36
g23
sVprofile_text_color
p37
VAAAAAA
p38
sVfollowers_count
p39
I2085
sVprofile_sidebar_border_color
p40
VFFFFFF
p41
sVid_str
p42
V17863
p43
sVprofile_background_color
p44
V8B929E
p45
sVlisted_count
p46
I218
sVprofile_background_image_url_https
p47
Vhttps://pbs.twimg.com/profile_background_images/105130299/twitter_bg.png
p48
sVutc_offset
p49
I7200
sVstatuses_count
p50
I3938
sVdescription
p51
VInteraction Designer, Managing Director of @ixt and Editor of @datavis.
p52
sVfriends_count
p53
I579
sVlocation
p54
VAarau, Switzerland
p55
sVprofile_link_color
p56
V445566
p57
sVprofile_image_url
p58
Vhttp://pbs.twimg.com/profile_images/489884179081863168/ecFqRGY-_normal.png
p59
sVfollowing
p60
NsVgeo_enabled
p61
I01
sVprofile_banner_url
p62
Vhttps://pbs.twimg.com/profile_banners/17863/1405674089
p63
sVprofile_background_image_url
p64
Vhttp://pbs.twimg.com/profile_background_images/105130299/twitter_bg.png
p65
sVname
p66
VBenjamin Wiederkehr
p67
sVlang
p68
Ven
p69
sVprofile_background_tile
p70
I00
sVfavourites_count
p71
I1121
sVscreen_name
p72
Vwiederkehr
p73
sVnotifications
p74
NsVurl
p75
Vhttp://interactivethings.com
p76
sVcreated_at
p77
VThu Nov 23 12:16:28 +0000 2006
p78
sVcontributors_enabled
p79
I00
sVtime_zone
p80
VBern
p81
sVprotected
p82
I00
sVdefault_profile
p83
I00
sVis_translator
p84
I00
ssS'contributors_enabled'
p85
I00
sS'profile_text_color'
p86
g38
sS'followers_count'
p87
I2085
sS'profile_sidebar_border_color'
p88
g41
sS'location'
p89
g55
sS'default_profile_image'
p90
I00
sS'id_str'
p91
g43
sS'utc_offset'
p92
I7200
sS'statuses_count'
p93
I3938
sS'description'
p94
g52
sS'friends_count'
p95
I579
sS'profile_link_color'
p96
g57
sS'profile_image_url'
p97
g59
sS'notifications'
p98
NsS'geo_enabled'
p99
I01
sS'profile_background_color'
p100
g45
sS'profile_banner_url'
p101
g63
sS'profile_background_image_url'
p102
g65
sS'name'
p103
g67
sS'lang'
p104
g69
sS'following'
p105
I00
sS'profile_background_tile'
p106
I00
sS'favourites_count'
p107
I1121
sS'screen_name'
p108
g73
sS'url'
p109
g76
sS'created_at'
p110
cdatetime
datetime
p111
(S'\x07\xd6\x0b\x17\x0c\x10\x1c\x00\x00\x00'
p112
tp113
Rp114
sS'profile_background_image_url_https'
p115
g48
sS'time_zone'
p116
g81
sS'protected'
p117
I00
sS'default_profile'
p118
I00
sS'is_translator'
p119
I00
sS'listed_count'
p120
I218
sbsS'filter_level'
p121
Vlow
p122
sS'geo'
p123
Nsg24
I618457713375379456
sS'favorite_count'
p124
I0
sS'source'
p125
VTweetbot for i\u039fS
p126
sg104
Ven
p127
sS'author'
p128
g18
sS'in_reply_to_user_id_str'
p129
V16789581
p130
sg28
(dp131
Vcontributors
p132
NsVtruncated
p133
I00
sVtext
p134
V@ireneros @passpack has been blocked for shockingly 6hours today. Their answer on support requests: \u201cwe respond in 2-3 working days\u201d \u000a\U0001f611
p135
sVin_reply_to_status_id
p136
I618422506043625473
sg33
I618457713375379456
sVfavorite_count
p137
I0
sVsource
p138
V<a href="http://tapbots.com/tweetbot" rel="nofollow">Tweetbot for i\u039fS</a>
p139
sVretweeted
p140
I00
sVcoordinates
p141
NsVtimestamp_ms
p142
V1436286783914
p143
sVentities
p144
(dp145
Vuser_mentions
p146
(lp147
(dp148
g33
I16789581
sVindices
p149
(lp150
I0
aI9
asg42
V16789581
p151
sg72
Vireneros
p152
sg66
VIrene Ros
p153
sa(dp154
g33
I743603
sg149
(lp155
I10
aI19
asg42
V743603
p156
sg72
Vpasspack
p157
sg66
VPasspack
p158
sasVsymbols
p159
(lp160
sVtrends
p161
(lp162
sVhashtags
p163
(lp164
sVurls
p165
(lp166
ssVin_reply_to_screen_name
p167
Vireneros
p168
sg42
V618457713375379456
p169
sVretweet_count
p170
I0
sVin_reply_to_user_id
p171
I16789581
sVfavorited
p172
I00
sVuser
p173
g29
sVgeo
p174
NsVin_reply_to_user_id_str
p175
g130
sVpossibly_sensitive
p176
I00
sg68
g127
sg77
VTue Jul 07 16:33:03 +0000 2015
p177
sVfilter_level
p178
g122
sVin_reply_to_status_id_str
p179
V618422506043625473
p180
sVplace
p181
(dp182
Vfull_name
p183
VZurich, Switzerland
p184
sg75
Vhttps://api.twitter.com/1.1/geo/id/3acb748d0f1e9265.json
p185
sVcountry
p186
VSchweiz
p187
sVplace_type
p188
Vcity
p189
sVbounding_box
p190
(dp191
Vtype
p192
VPolygon
p193
sg141
(lp194
(lp195
(lp196
F8.448081
aF47.320183
aa(lp197
F8.448081
aF47.434721
aa(lp198
F8.625442
aF47.434721
aa(lp199
F8.625442
aF47.320183
aaassVcountry_code
p200
VCH
p201
sVattributes
p202
(dp203
sg33
V3acb748d0f1e9265
p204
sg66
VZurich
p205
sssS'coordinates'
p206
NsS'timestamp_ms'
p207
g143
sS'entities'
p208
g145
sS'in_reply_to_status_id_str'
p209
g180
sS'in_reply_to_screen_name'
p210
g168
sg91
g169
sS'retweeted'
p211
I00
sS'place'
p212
g0
(ctweepy.models
Place
p213
g2
Ntp214
Rp215
(dp216
S'full_name'
p217
g184
sg109
g185
sS'country'
p218
g187
sS'place_type'
p219
g189
sS'bounding_box'
p220
g0
(ctweepy.models
BoundingBox
p221
g2
Ntp222
Rp223
(dp224
S'type'
p225
g193
sg206
g194
sbsS'country_code'
p226
g201
sS'attributes'
p227
g203
sg24
g204
sg103
g205
sbsS'retweet_count'
p228
I0
sg110
g111
(S'\x07\xdf\x07\x07\x10!\x03\x00\x00\x00'
p229
tp230
Rp231
sS'in_reply_to_user_id'
p232
I16789581
sb.