ccopy_reg
_reconstructor
p0
(ctweepy.models
Status
p1
c__builtin__
object
p2
Ntp3
Rp4
(dp5
S'favorited'
p6
I00
sS'contributors'
p7
NsS'truncated'
p8
I00
sS'text'
p9
VStunning night out on the river banks in front of the Grossmunster church. Being spoiled! \u2764\ufe0f @\u2026 https://t.co/V88J5qIhAD
p10
sS'source_url'
p11
Vhttp://instagram.com
p12
sS'possibly_sensitive'
p13
I00
sS'in_reply_to_status_id'
p14
NsS'user'
p15
g0
(ctweepy.models
User
p16
g2
Ntp17
Rp18
(dp19
S'follow_request_sent'
p20
NsS'profile_use_background_image'
p21
I01
sS'profile_sidebar_fill_color'
p22
VC0DFEC
p23
sS'id'
p24
I29772187
sS'verified'
p25
I00
sS'profile_image_url_https'
p26
Vhttps://pbs.twimg.com/profile_images/614675655976849408/njf_GBSq_normal.jpg
p27
sS'_json'
p28
(dp29
Vfollow_request_sent
p30
NsVprofile_use_background_image
p31
I01
sVdefault_profile_image
p32
I00
sVid
p33
I29772187
sVverified
p34
I00
sVprofile_image_url_https
p35
g27
sVprofile_sidebar_fill_color
p36
g23
sVprofile_text_color
p37
V333333
p38
sVfollowers_count
p39
I928
sVprofile_sidebar_border_color
p40
VA8C7F7
p41
sVid_str
p42
V29772187
p43
sVprofile_background_color
p44
V022330
p45
sVlisted_count
p46
I11
sVprofile_background_image_url_https
p47
Vhttps://abs.twimg.com/images/themes/theme15/bg.png
p48
sVutc_offset
p49
I7200
sVstatuses_count
p50
I1870
sVdescription
p51
NsVfriends_count
p52
I631
sVlocation
p53
VCape Town
p54
sVprofile_link_color
p55
V0084B4
p56
sVprofile_image_url
p57
Vhttp://pbs.twimg.com/profile_images/614675655976849408/njf_GBSq_normal.jpg
p58
sVfollowing
p59
NsVgeo_enabled
p60
I01
sVprofile_banner_url
p61
Vhttps://pbs.twimg.com/profile_banners/29772187/1436344934
p62
sVprofile_background_image_url
p63
Vhttp://abs.twimg.com/images/themes/theme15/bg.png
p64
sVname
p65
VAndre Lammers
p66
sVlang
p67
Ven
p68
sVprofile_background_tile
p69
I00
sVfavourites_count
p70
I629
sVscreen_name
p71
Vandrelamb
p72
sVnotifications
p73
NsVurl
p74
NsVcreated_at
p75
VWed Apr 08 17:45:33 +0000 2009
p76
sVcontributors_enabled
p77
I00
sVtime_zone
p78
VPretoria
p79
sVprotected
p80
I00
sVdefault_profile
p81
I00
sVis_translator
p82
I00
ssS'contributors_enabled'
p83
I00
sS'profile_text_color'
p84
g38
sS'followers_count'
p85
I928
sS'profile_sidebar_border_color'
p86
g41
sS'location'
p87
g54
sS'default_profile_image'
p88
I00
sS'id_str'
p89
g43
sS'utc_offset'
p90
I7200
sS'statuses_count'
p91
I1870
sS'description'
p92
NsS'friends_count'
p93
I631
sS'profile_link_color'
p94
g56
sS'profile_image_url'
p95
g58
sS'notifications'
p96
NsS'geo_enabled'
p97
I01
sS'profile_background_color'
p98
g45
sS'profile_banner_url'
p99
g62
sS'profile_background_image_url'
p100
g64
sS'name'
p101
g66
sS'lang'
p102
g68
sS'following'
p103
I00
sS'profile_background_tile'
p104
I00
sS'favourites_count'
p105
I629
sS'screen_name'
p106
g72
sS'url'
p107
NsS'created_at'
p108
cdatetime
datetime
p109
(S'\x07\xd9\x04\x08\x11-!\x00\x00\x00'
p110
tp111
Rp112
sS'profile_background_image_url_https'
p113
g48
sS'time_zone'
p114
g79
sS'protected'
p115
I00
sS'default_profile'
p116
I00
sS'is_translator'
p117
I00
sS'listed_count'
p118
I11
sbsS'filter_level'
p119
Vlow
p120
sS'geo'
p121
(dp122
Vtype
p123
VPoint
p124
sVcoordinates
p125
(lp126
F47.368298
aF8.542361
assg24
I621077299702702081
sS'favorite_count'
p127
I0
sS'source'
p128
VInstagram
p129
sg102
Ven
p130
sS'author'
p131
g18
sS'in_reply_to_user_id_str'
p132
Nsg28
(dp133
Vcontributors
p134
NsVtruncated
p135
I00
sVtext
p136
g10
sVin_reply_to_status_id
p137
Nsg33
I621077299702702081
sVfavorite_count
p138
I0
sVsource
p139
V<a href="http://instagram.com" rel="nofollow">Instagram</a>
p140
sVretweeted
p141
I00
sg125
(dp142
g123
VPoint
p143
sg125
(lp144
F8.542361
aF47.368298
assVtimestamp_ms
p145
V1436911341964
p146
sVentities
p147
(dp148
Vuser_mentions
p149
(lp150
sVsymbols
p151
(lp152
sVtrends
p153
(lp154
sVhashtags
p155
(lp156
sVurls
p157
(lp158
(dp159
g74
Vhttps://t.co/V88J5qIhAD
p160
sVindices
p161
(lp162
I96
aI119
asVexpanded_url
p163
Vhttps://instagram.com/p/5IfHvVIibN/
p164
sVdisplay_url
p165
Vinstagram.com/p/5IfHvVIibN/
p166
sassVin_reply_to_screen_name
p167
Nsg42
V621077299702702081
p168
sVretweet_count
p169
I0
sVin_reply_to_user_id
p170
NsVfavorited
p171
I00
sVuser
p172
g29
sVgeo
p173
g122
sVin_reply_to_user_id_str
p174
NsVpossibly_sensitive
p175
I00
sg67
g130
sg75
VTue Jul 14 22:02:21 +0000 2015
p176
sVfilter_level
p177
g120
sVin_reply_to_status_id_str
p178
NsVplace
p179
(dp180
Vfull_name
p181
VZurich, Switzerland
p182
sg74
Vhttps://api.twitter.com/1.1/geo/id/3acb748d0f1e9265.json
p183
sVcountry
p184
VSchweiz
p185
sVplace_type
p186
Vcity
p187
sVbounding_box
p188
(dp189
g123
VPolygon
p190
sg125
(lp191
(lp192
(lp193
F8.448081
aF47.320183
aa(lp194
F8.448081
aF47.434721
aa(lp195
F8.625442
aF47.434721
aa(lp196
F8.625442
aF47.320183
aaassVcountry_code
p197
VCH
p198
sVattributes
p199
(dp200
sg33
V3acb748d0f1e9265
p201
sg65
VZurich
p202
sssS'coordinates'
p203
g142
sS'timestamp_ms'
p204
g146
sS'entities'
p205
g148
sS'in_reply_to_status_id_str'
p206
NsS'in_reply_to_screen_name'
p207
Nsg89
g168
sS'retweeted'
p208
I00
sS'place'
p209
g0
(ctweepy.models
Place
p210
g2
Ntp211
Rp212
(dp213
S'full_name'
p214
g182
sg107
g183
sS'country'
p215
g185
sS'place_type'
p216
g187
sS'bounding_box'
p217
g0
(ctweepy.models
BoundingBox
p218
g2
Ntp219
Rp220
(dp221
S'type'
p222
g190
sg203
g191
sbsS'country_code'
p223
g198
sS'attributes'
p224
g200
sg24
g201
sg101
g202
sbsS'retweet_count'
p225
I0
sg108
g109
(S'\x07\xdf\x07\x0e\x16\x02\x15\x00\x00\x00'
p226
tp227
Rp228
sS'in_reply_to_user_id'
p229
Nsb.