ccopy_reg
_reconstructor
p0
(ctweepy.models
Status
p1
c__builtin__
object
p2
Ntp3
Rp4
(dp5
S'favorited'
p6
I00
sS'contributors'
p7
NsS'truncated'
p8
I00
sS'text'
p9
VHey @HeffronDrive \u000aWhat do you think about my new tattoo?? :)) http://t.co/GA21d12tLY
p10
sS'source_url'
p11
Vhttp://twitter.com
p12
sS'possibly_sensitive'
p13
I00
sS'in_reply_to_status_id'
p14
NsS'user'
p15
g0
(ctweepy.models
User
p16
g2
Ntp17
Rp18
(dp19
S'follow_request_sent'
p20
NsS'profile_use_background_image'
p21
I01
sS'profile_sidebar_fill_color'
p22
V95E8EC
p23
sS'id'
p24
I349959192
sS'verified'
p25
I00
sS'profile_image_url_https'
p26
Vhttps://pbs.twimg.com/profile_images/620994151857934336/9J96hh-A_normal.jpg
p27
sS'_json'
p28
(dp29
Vfollow_request_sent
p30
NsVprofile_use_background_image
p31
I01
sVdefault_profile_image
p32
I00
sVid
p33
I349959192
sVverified
p34
I00
sVprofile_image_url_https
p35
g27
sVprofile_sidebar_fill_color
p36
g23
sVprofile_text_color
p37
V3C3940
p38
sVfollowers_count
p39
I354
sVprofile_sidebar_border_color
p40
V5ED4DC
p41
sVid_str
p42
V349959192
p43
sVprofile_background_color
p44
V0099B9
p45
sVlisted_count
p46
I2
sVprofile_background_image_url_https
p47
Vhttps://abs.twimg.com/images/themes/theme4/bg.gif
p48
sVutc_offset
p49
I-18000
sVstatuses_count
p50
I4092
sVdescription
p51
VThe most important thing is to enjoy your life - to be happy - it's all that matters.
p52
sVfriends_count
p53
I478
sVlocation
p54
VBern, Schweiz
p55
sVprofile_link_color
p56
V0099B9
p57
sVprofile_image_url
p58
Vhttp://pbs.twimg.com/profile_images/620994151857934336/9J96hh-A_normal.jpg
p59
sVfollowing
p60
NsVgeo_enabled
p61
I01
sVprofile_banner_url
p62
Vhttps://pbs.twimg.com/profile_banners/349959192/1433636337
p63
sVprofile_background_image_url
p64
Vhttp://abs.twimg.com/images/themes/theme4/bg.gif
p65
sVname
p66
VSara
p67
sVlang
p68
Vde
p69
sVprofile_background_tile
p70
I00
sVfavourites_count
p71
I571
sVscreen_name
p72
V_SwissSara23
p73
sVnotifications
p74
NsVurl
p75
NsVcreated_at
p76
VSun Aug 07 00:15:06 +0000 2011
p77
sVcontributors_enabled
p78
I00
sVtime_zone
p79
VCentral Time (US & Canada)
p80
sVprotected
p81
I00
sVdefault_profile
p82
I00
sVis_translator
p83
I00
ssS'contributors_enabled'
p84
I00
sS'profile_text_color'
p85
g38
sS'followers_count'
p86
I354
sS'profile_sidebar_border_color'
p87
g41
sS'location'
p88
g55
sS'default_profile_image'
p89
I00
sS'id_str'
p90
g43
sS'utc_offset'
p91
I-18000
sS'statuses_count'
p92
I4092
sS'description'
p93
g52
sS'friends_count'
p94
I478
sS'profile_link_color'
p95
g57
sS'profile_image_url'
p96
g59
sS'notifications'
p97
NsS'geo_enabled'
p98
I01
sS'profile_background_color'
p99
g45
sS'profile_banner_url'
p100
g63
sS'profile_background_image_url'
p101
g65
sS'name'
p102
g67
sS'lang'
p103
g69
sS'following'
p104
I00
sS'profile_background_tile'
p105
I00
sS'favourites_count'
p106
I571
sS'screen_name'
p107
g73
sS'url'
p108
NsS'created_at'
p109
cdatetime
datetime
p110
(S'\x07\xdb\x08\x07\x00\x0f\x06\x00\x00\x00'
p111
tp112
Rp113
sS'profile_background_image_url_https'
p114
g48
sS'time_zone'
p115
g80
sS'protected'
p116
I00
sS'default_profile'
p117
I00
sS'is_translator'
p118
I00
sS'listed_count'
p119
I2
sbsS'filter_level'
p120
Vlow
p121
sS'geo'
p122
Nsg24
I621343307810107392
sS'favorite_count'
p123
I0
sS'source'
p124
VTwitter Web Client
p125
sg103
Ven
p126
sS'author'
p127
g18
sS'in_reply_to_user_id_str'
p128
Nsg28
(dp129
Vcontributors
p130
NsVtruncated
p131
I00
sVtext
p132
VHey @HeffronDrive \u000aWhat do you think about my new tattoo?? :)) http://t.co/GA21d12tLY
p133
sVin_reply_to_status_id
p134
Nsg33
I621343307810107392
sVfavorite_count
p135
I0
sVsource
p136
V<a href="http://twitter.com" rel="nofollow">Twitter Web Client</a>
p137
sVretweeted
p138
I00
sVcoordinates
p139
NsVtimestamp_ms
p140
V1436974763239
p141
sVentities
p142
(dp143
Vsymbols
p144
(lp145
sVmedia
p146
(lp147
(dp148
Vexpanded_url
p149
Vhttp://twitter.com/_SwissSara23/status/621343307810107392/photo/1
p150
sVdisplay_url
p151
Vpic.twitter.com/GA21d12tLY
p152
sg75
Vhttp://t.co/GA21d12tLY
p153
sVmedia_url_https
p154
Vhttps://pbs.twimg.com/media/CJ90chbW8AAygWg.jpg
p155
sg42
V621343306958696448
p156
sVsizes
p157
(dp158
Vsmall
p159
(dp160
Vh
p161
I453
sVresize
p162
Vfit
p163
sVw
p164
I340
ssVlarge
p165
(dp166
g161
I960
sg162
Vfit
p167
sg164
I720
ssVmedium
p168
(dp169
g161
I800
sg162
Vfit
p170
sg164
I600
ssVthumb
p171
(dp172
g161
I150
sg162
Vcrop
p173
sg164
I150
sssVindices
p174
(lp175
I63
aI85
asVtype
p176
Vphoto
p177
sg33
I621343306958696448
sVmedia_url
p178
Vhttp://pbs.twimg.com/media/CJ90chbW8AAygWg.jpg
p179
sasVhashtags
p180
(lp181
sVuser_mentions
p182
(lp183
(dp184
g33
I29898542
sg174
(lp185
I4
aI17
asg42
V29898542
p186
sg72
VHeffronDrive
p187
sg66
VKendall Schmidt
p188
sasVtrends
p189
(lp190
sVurls
p191
(lp192
ssVin_reply_to_screen_name
p193
Nsg42
V621343307810107392
p194
sVretweet_count
p195
I0
sVin_reply_to_user_id
p196
NsVfavorited
p197
I00
sVuser
p198
g29
sVgeo
p199
NsVin_reply_to_user_id_str
p200
NsVpossibly_sensitive
p201
I00
sg68
g126
sg76
VWed Jul 15 15:39:23 +0000 2015
p202
sVfilter_level
p203
g121
sVin_reply_to_status_id_str
p204
NsVplace
p205
(dp206
Vfull_name
p207
VBern, Schweiz
p208
sg75
Vhttps://api.twitter.com/1.1/geo/id/5868d0e0749c9c47.json
p209
sVcountry
p210
VSchweiz
p211
sVplace_type
p212
Vadmin
p213
sVbounding_box
p214
(dp215
g176
VPolygon
p216
sg139
(lp217
(lp218
(lp219
F6.861601
aF46.326441
aa(lp220
F6.861601
aF47.34528
aa(lp221
F8.455051
aF47.34528
aa(lp222
F8.455051
aF46.326441
aaassVcountry_code
p223
VCH
p224
sVattributes
p225
(dp226
sg33
V5868d0e0749c9c47
p227
sg66
VBern
p228
ssVextended_entities
p229
(dp230
g146
(lp231
(dp232
g149
Vhttp://twitter.com/_SwissSara23/status/621343307810107392/photo/1
p233
sg151
Vpic.twitter.com/GA21d12tLY
p234
sg75
Vhttp://t.co/GA21d12tLY
p235
sg154
Vhttps://pbs.twimg.com/media/CJ90chbW8AAygWg.jpg
p236
sg42
V621343306958696448
p237
sg157
(dp238
g159
(dp239
g161
I453
sg162
Vfit
p240
sg164
I340
ssg165
(dp241
g161
I960
sg162
Vfit
p242
sg164
I720
ssg168
(dp243
g161
I800
sg162
Vfit
p244
sg164
I600
ssg171
(dp245
g161
I150
sg162
Vcrop
p246
sg164
I150
sssg174
(lp247
I63
aI85
asg176
Vphoto
p248
sg33
I621343306958696448
sg178
Vhttp://pbs.twimg.com/media/CJ90chbW8AAygWg.jpg
p249
sasssS'coordinates'
p250
NsS'timestamp_ms'
p251
g141
sS'entities'
p252
g143
sS'in_reply_to_status_id_str'
p253
NsS'in_reply_to_screen_name'
p254
Nsg90
g194
sS'extended_entities'
p255
g230
sS'retweeted'
p256
I00
sS'place'
p257
g0
(ctweepy.models
Place
p258
g2
Ntp259
Rp260
(dp261
S'full_name'
p262
g208
sg108
g209
sS'country'
p263
g211
sS'place_type'
p264
g213
sS'bounding_box'
p265
g0
(ctweepy.models
BoundingBox
p266
g2
Ntp267
Rp268
(dp269
S'type'
p270
g216
sg250
g217
sbsS'country_code'
p271
g224
sS'attributes'
p272
g226
sg24
g227
sg102
g228
sbsS'retweet_count'
p273
I0
sg109
g110
(S"\x07\xdf\x07\x0f\x0f'\x17\x00\x00\x00"
p274
tp275
Rp276
sS'in_reply_to_user_id'
p277
Nsb.