ccopy_reg
_reconstructor
p0
(ctweepy.models
Status
p1
c__builtin__
object
p2
Ntp3
Rp4
(dp5
S'favorited'
p6
I00
sS'contributors'
p7
NsS'truncated'
p8
I00
sS'text'
p9
VIf you are too big to follow rivers, how are you ever going to find the sea ??! #emelisande
p10
sS'source_url'
p11
Vhttp://twitter.com
p12
sS'possibly_sensitive'
p13
I00
sS'in_reply_to_status_id'
p14
NsS'user'
p15
g0
(ctweepy.models
User
p16
g2
Ntp17
Rp18
(dp19
S'follow_request_sent'
p20
NsS'profile_use_background_image'
p21
I00
sS'profile_sidebar_fill_color'
p22
V000000
p23
sS'id'
p24
I3301937975
sS'verified'
p25
I00
sS'profile_image_url_https'
p26
Vhttps://pbs.twimg.com/profile_images/620630905984421888/zRXD4ikO_normal.jpg
p27
sS'_json'
p28
(dp29
Vfollow_request_sent
p30
NsVprofile_use_background_image
p31
I00
sVdefault_profile_image
p32
I00
sVid
p33
I3301937975
sVverified
p34
I00
sVprofile_image_url_https
p35
g27
sVprofile_sidebar_fill_color
p36
g23
sVprofile_text_color
p37
V000000
p38
sVfollowers_count
p39
I4
sVprofile_sidebar_border_color
p40
V000000
p41
sVid_str
p42
V3301937975
p43
sVprofile_background_color
p44
V000000
p45
sVlisted_count
p46
I0
sVprofile_background_image_url_https
p47
Vhttps://abs.twimg.com/images/themes/theme1/bg.png
p48
sVutc_offset
p49
NsVstatuses_count
p50
I18
sVdescription
p51
VIt's not that serious, it never is !!!!
p52
sVfriends_count
p53
I67
sVlocation
p54
VZurich, Switzerland
p55
sVprofile_link_color
p56
V3B94D9
p57
sVprofile_image_url
p58
Vhttp://pbs.twimg.com/profile_images/620630905984421888/zRXD4ikO_normal.jpg
p59
sVfollowing
p60
NsVgeo_enabled
p61
I01
sVprofile_banner_url
p62
Vhttps://pbs.twimg.com/profile_banners/3301937975/1436805442
p63
sVprofile_background_image_url
p64
Vhttp://abs.twimg.com/images/themes/theme1/bg.png
p65
sVname
p66
VPrisca Mutesi Dumas
p67
sVlang
p68
Ven
p69
sVprofile_background_tile
p70
I00
sVfavourites_count
p71
I1
sVscreen_name
p72
VDumasMutesi
p73
sVnotifications
p74
NsVurl
p75
NsVcreated_at
p76
VThu May 28 16:59:57 +0000 2015
p77
sVcontributors_enabled
p78
I00
sVtime_zone
p79
NsVprotected
p80
I00
sVdefault_profile
p81
I00
sVis_translator
p82
I00
ssS'contributors_enabled'
p83
I00
sS'profile_text_color'
p84
g38
sS'followers_count'
p85
I4
sS'profile_sidebar_border_color'
p86
g41
sS'location'
p87
g55
sS'default_profile_image'
p88
I00
sS'id_str'
p89
g43
sS'utc_offset'
p90
NsS'statuses_count'
p91
I18
sS'description'
p92
g52
sS'friends_count'
p93
I67
sS'profile_link_color'
p94
g57
sS'profile_image_url'
p95
g59
sS'notifications'
p96
NsS'geo_enabled'
p97
I01
sS'profile_background_color'
p98
g45
sS'profile_banner_url'
p99
g63
sS'profile_background_image_url'
p100
g65
sS'name'
p101
g67
sS'lang'
p102
g69
sS'following'
p103
I00
sS'profile_background_tile'
p104
I00
sS'favourites_count'
p105
I1
sS'screen_name'
p106
g73
sS'url'
p107
NsS'created_at'
p108
cdatetime
datetime
p109
(S'\x07\xdf\x05\x1c\x10;9\x00\x00\x00'
p110
tp111
Rp112
sS'profile_background_image_url_https'
p113
g48
sS'time_zone'
p114
NsS'protected'
p115
I00
sS'default_profile'
p116
I00
sS'is_translator'
p117
I00
sS'listed_count'
p118
I0
sbsS'filter_level'
p119
Vlow
p120
sS'geo'
p121
Nsg24
I620668287685423104
sS'favorite_count'
p122
I0
sS'source'
p123
VTwitter Web Client
p124
sg102
Ven
p125
sS'author'
p126
g18
sS'in_reply_to_user_id_str'
p127
Nsg28
(dp128
Vcontributors
p129
NsVtruncated
p130
I00
sVtext
p131
g10
sVin_reply_to_status_id
p132
Nsg33
I620668287685423104
sVfavorite_count
p133
I0
sVsource
p134
V<a href="http://twitter.com" rel="nofollow">Twitter Web Client</a>
p135
sVretweeted
p136
I00
sVcoordinates
p137
NsVtimestamp_ms
p138
V1436813825900
p139
sVentities
p140
(dp141
Vuser_mentions
p142
(lp143
sVsymbols
p144
(lp145
sVtrends
p146
(lp147
sVhashtags
p148
(lp149
(dp150
Vindices
p151
(lp152
I80
aI91
asg131
Vemelisande
p153
sasVurls
p154
(lp155
ssVin_reply_to_screen_name
p156
Nsg42
V620668287685423104
p157
sVretweet_count
p158
I0
sVin_reply_to_user_id
p159
NsVfavorited
p160
I00
sVuser
p161
g29
sVgeo
p162
NsVin_reply_to_user_id_str
p163
NsVpossibly_sensitive
p164
I00
sg68
g125
sg76
VMon Jul 13 18:57:05 +0000 2015
p165
sVfilter_level
p166
g120
sVin_reply_to_status_id_str
p167
NsVplace
p168
(dp169
Vfull_name
p170
VZurich, Switzerland
p171
sg75
Vhttps://api.twitter.com/1.1/geo/id/3acb748d0f1e9265.json
p172
sVcountry
p173
VSchweiz
p174
sVplace_type
p175
Vcity
p176
sVbounding_box
p177
(dp178
Vtype
p179
VPolygon
p180
sg137
(lp181
(lp182
(lp183
F8.448081
aF47.320183
aa(lp184
F8.448081
aF47.434721
aa(lp185
F8.625442
aF47.434721
aa(lp186
F8.625442
aF47.320183
aaassVcountry_code
p187
VCH
p188
sVattributes
p189
(dp190
sg33
V3acb748d0f1e9265
p191
sg66
VZurich
p192
sssS'coordinates'
p193
NsS'timestamp_ms'
p194
g139
sS'entities'
p195
g141
sS'in_reply_to_status_id_str'
p196
NsS'in_reply_to_screen_name'
p197
Nsg89
g157
sS'retweeted'
p198
I00
sS'place'
p199
g0
(ctweepy.models
Place
p200
g2
Ntp201
Rp202
(dp203
S'full_name'
p204
g171
sg107
g172
sS'country'
p205
g174
sS'place_type'
p206
g176
sS'bounding_box'
p207
g0
(ctweepy.models
BoundingBox
p208
g2
Ntp209
Rp210
(dp211
S'type'
p212
g180
sg193
g181
sbsS'country_code'
p213
g188
sS'attributes'
p214
g190
sg24
g191
sg101
g192
sbsS'retweet_count'
p215
I0
sg108
g109
(S'\x07\xdf\x07\r\x129\x05\x00\x00\x00'
p216
tp217
Rp218
sS'in_reply_to_user_id'
p219
Nsb.