ccopy_reg
_reconstructor
p0
(ctweepy.models
Status
p1
c__builtin__
object
p2
Ntp3
Rp4
(dp5
S'favorited'
p6
I00
sS'contributors'
p7
NsS'truncated'
p8
I00
sS'text'
p9
V@PeterWoodx really interesting i hadn't thought about this. wonder whether theres an enhanced duty of care owed to data subjects @jonesiom
p10
sS'source_url'
p11
Vhttp://twitter.com
p12
sS'possibly_sensitive'
p13
I00
sS'in_reply_to_status_id'
p14
NsS'user'
p15
g0
(ctweepy.models
User
p16
g2
Ntp17
Rp18
(dp19
S'follow_request_sent'
p20
NsS'profile_use_background_image'
p21
I01
sS'profile_sidebar_fill_color'
p22
VA0C5C7
p23
sS'id'
p24
I28451482
sS'verified'
p25
I00
sS'profile_image_url_https'
p26
Vhttps://pbs.twimg.com/profile_images/970567414/_98Z3925_neu_normal.jpg
p27
sS'_json'
p28
(dp29
Vfollow_request_sent
p30
NsVprofile_use_background_image
p31
I01
sVdefault_profile_image
p32
I00
sVid
p33
I28451482
sVverified
p34
I00
sVprofile_image_url_https
p35
g27
sVprofile_sidebar_fill_color
p36
g23
sVprofile_text_color
p37
V333333
p38
sVfollowers_count
p39
I176
sVprofile_sidebar_border_color
p40
V86A4A6
p41
sVid_str
p42
V28451482
p43
sVprofile_background_color
p44
V709397
p45
sVlisted_count
p46
I11
sVprofile_background_image_url_https
p47
Vhttps://abs.twimg.com/images/themes/theme6/bg.gif
p48
sVutc_offset
p49
I3600
sVstatuses_count
p50
I338
sVdescription
p51
Vcommercial and creative, likes entrepreneurial startups and big corporates, loves mixing two together. http://uk.linkedin.com/in/edharding
p52
sVfriends_count
p53
I114
sVlocation
p54
VBrighton, England
p55
sVprofile_link_color
p56
VFF3300
p57
sVprofile_image_url
p58
Vhttp://pbs.twimg.com/profile_images/970567414/_98Z3925_neu_normal.jpg
p59
sVfollowing
p60
NsVgeo_enabled
p61
I01
sVprofile_background_image_url
p62
Vhttp://abs.twimg.com/images/themes/theme6/bg.gif
p63
sVname
p64
Vedward harding
p65
sVlang
p66
Ven
p67
sVprofile_background_tile
p68
I00
sVfavourites_count
p69
I17
sVscreen_name
p70
Vedward_harding
p71
sVnotifications
p72
NsVurl
p73
NsVcreated_at
p74
VThu Apr 02 23:51:16 +0000 2009
p75
sVcontributors_enabled
p76
I00
sVtime_zone
p77
VLondon
p78
sVprotected
p79
I00
sVdefault_profile
p80
I00
sVis_translator
p81
I00
ssS'contributors_enabled'
p82
I00
sS'profile_text_color'
p83
g38
sS'followers_count'
p84
I176
sS'profile_sidebar_border_color'
p85
g41
sS'location'
p86
g55
sS'default_profile_image'
p87
I00
sS'id_str'
p88
g43
sS'utc_offset'
p89
I3600
sS'statuses_count'
p90
I338
sS'description'
p91
g52
sS'friends_count'
p92
I114
sS'profile_link_color'
p93
g57
sS'profile_image_url'
p94
g59
sS'notifications'
p95
NsS'geo_enabled'
p96
I01
sS'profile_background_color'
p97
g45
sS'profile_background_image_url'
p98
g63
sS'name'
p99
g65
sS'lang'
p100
g67
sS'following'
p101
I00
sS'profile_background_tile'
p102
I00
sS'favourites_count'
p103
I17
sS'screen_name'
p104
g71
sS'url'
p105
NsS'created_at'
p106
cdatetime
datetime
p107
(S'\x07\xd9\x04\x02\x173\x10\x00\x00\x00'
p108
tp109
Rp110
sS'profile_background_image_url_https'
p111
g48
sS'time_zone'
p112
g78
sS'protected'
p113
I00
sS'default_profile'
p114
I00
sS'is_translator'
p115
I00
sS'listed_count'
p116
I11
sbsS'filter_level'
p117
Vlow
p118
sS'geo'
p119
Nsg24
I619372859522195456
sS'favorite_count'
p120
I0
sS'source'
p121
VTwitter Web Client
p122
sg100
Ven
p123
sS'author'
p124
g18
sS'in_reply_to_user_id_str'
p125
V133684800
p126
sg28
(dp127
Vcontributors
p128
NsVtruncated
p129
I00
sVtext
p130
g10
sVin_reply_to_status_id
p131
Nsg33
I619372859522195456
sVfavorite_count
p132
I0
sVsource
p133
V<a href="http://twitter.com" rel="nofollow">Twitter Web Client</a>
p134
sVretweeted
p135
I00
sVcoordinates
p136
NsVtimestamp_ms
p137
V1436504971758
p138
sVentities
p139
(dp140
Vuser_mentions
p141
(lp142
(dp143
g33
I133684800
sVindices
p144
(lp145
I0
aI11
asg42
V133684800
p146
sg70
VPeterWoodx
p147
sg64
VPeter Wood
p148
sa(dp149
g33
I369149221
sg144
(lp150
I129
aI138
asg42
V369149221
p151
sg70
Vjonesiom
p152
sg64
VGraeme Jones
p153
sasVsymbols
p154
(lp155
sVtrends
p156
(lp157
sVhashtags
p158
(lp159
sVurls
p160
(lp161
ssVin_reply_to_screen_name
p162
VPeterWoodx
p163
sg42
V619372859522195456
p164
sVretweet_count
p165
I0
sVin_reply_to_user_id
p166
I133684800
sVfavorited
p167
I00
sVuser
p168
g29
sVgeo
p169
NsVin_reply_to_user_id_str
p170
g126
sVpossibly_sensitive
p171
I00
sg66
g123
sg74
VFri Jul 10 05:09:31 +0000 2015
p172
sVfilter_level
p173
g118
sVin_reply_to_status_id_str
p174
NsVplace
p175
(dp176
Vfull_name
p177
VZurich, Switzerland
p178
sg73
Vhttps://api.twitter.com/1.1/geo/id/db94c1cccc67c4f4.json
p179
sVcountry
p180
VSchweiz
p181
sVplace_type
p182
Vadmin
p183
sVbounding_box
p184
(dp185
Vtype
p186
VPolygon
p187
sg136
(lp188
(lp189
(lp190
F8.357749
aF47.159384
aa(lp191
F8.357749
aF47.694503
aa(lp192
F8.984445
aF47.694503
aa(lp193
F8.984445
aF47.159384
aaassVcountry_code
p194
VCH
p195
sVattributes
p196
(dp197
sg33
Vdb94c1cccc67c4f4
p198
sg64
VZurich
p199
sssS'coordinates'
p200
NsS'timestamp_ms'
p201
g138
sS'entities'
p202
g140
sS'in_reply_to_status_id_str'
p203
NsS'in_reply_to_screen_name'
p204
g163
sg88
g164
sS'retweeted'
p205
I00
sS'place'
p206
g0
(ctweepy.models
Place
p207
g2
Ntp208
Rp209
(dp210
S'full_name'
p211
g178
sg105
g179
sS'country'
p212
g181
sS'place_type'
p213
g183
sS'bounding_box'
p214
g0
(ctweepy.models
BoundingBox
p215
g2
Ntp216
Rp217
(dp218
S'type'
p219
g187
sg200
g188
sbsS'country_code'
p220
g195
sS'attributes'
p221
g197
sg24
g198
sg99
g199
sbsS'retweet_count'
p222
I0
sg106
g107
(S'\x07\xdf\x07\n\x05\t\x1f\x00\x00\x00'
p223
tp224
Rp225
sS'in_reply_to_user_id'
p226
I133684800
sb.