ccopy_reg
_reconstructor
p0
(ctweepy.models
Status
p1
c__builtin__
object
p2
Ntp3
Rp4
(dp5
S'favorited'
p6
I00
sS'contributors'
p7
NsS'truncated'
p8
I00
sS'text'
p9
VAnyone thinking of vacation?#Switzerland
p10
sS'source_url'
p11
Vhttp://twitter.com
p12
sS'possibly_sensitive'
p13
I00
sS'in_reply_to_status_id'
p14
NsS'user'
p15
g0
(ctweepy.models
User
p16
g2
Ntp17
Rp18
(dp19
S'follow_request_sent'
p20
NsS'profile_use_background_image'
p21
I01
sS'profile_sidebar_fill_color'
p22
VDDEEF6
p23
sS'id'
p24
I3060236489
sS'verified'
p25
I00
sS'profile_image_url_https'
p26
Vhttps://pbs.twimg.com/profile_images/570371681437233152/HVxl0CKr_normal.jpeg
p27
sS'_json'
p28
(dp29
Vfollow_request_sent
p30
NsVprofile_use_background_image
p31
I01
sVdefault_profile_image
p32
I00
sVid
p33
I3060236489
sVverified
p34
I00
sVprofile_image_url_https
p35
g27
sVprofile_sidebar_fill_color
p36
g23
sVprofile_text_color
p37
V333333
p38
sVfollowers_count
p39
I52
sVprofile_sidebar_border_color
p40
VC0DEED
p41
sVid_str
p42
V3060236489
p43
sVprofile_background_color
p44
VC0DEED
p45
sVlisted_count
p46
I1
sVprofile_background_image_url_https
p47
Vhttps://abs.twimg.com/images/themes/theme1/bg.png
p48
sVutc_offset
p49
NsVstatuses_count
p50
I19
sVdescription
p51
NsVfriends_count
p52
I64
sVlocation
p53
V
p54
sVprofile_link_color
p55
V0084B4
p56
sVprofile_image_url
p57
Vhttp://pbs.twimg.com/profile_images/570371681437233152/HVxl0CKr_normal.jpeg
p58
sVfollowing
p59
NsVgeo_enabled
p60
I01
sVprofile_banner_url
p61
Vhttps://pbs.twimg.com/profile_banners/3060236489/1424822144
p62
sVprofile_background_image_url
p63
Vhttp://abs.twimg.com/images/themes/theme1/bg.png
p64
sVname
p65
Vroamy
p66
sVlang
p67
Ven
p68
sVprofile_background_tile
p69
I00
sVfavourites_count
p70
I0
sVscreen_name
p71
Vroamy2
p72
sVnotifications
p73
NsVurl
p74
NsVcreated_at
p75
VTue Feb 24 21:04:44 +0000 2015
p76
sVcontributors_enabled
p77
I00
sVtime_zone
p78
NsVprotected
p79
I00
sVdefault_profile
p80
I01
sVis_translator
p81
I00
ssS'contributors_enabled'
p82
I00
sS'profile_text_color'
p83
g38
sS'followers_count'
p84
I52
sS'profile_sidebar_border_color'
p85
g41
sS'location'
p86
g54
sS'default_profile_image'
p87
I00
sS'id_str'
p88
g43
sS'utc_offset'
p89
NsS'statuses_count'
p90
I19
sS'description'
p91
NsS'friends_count'
p92
I64
sS'profile_link_color'
p93
g56
sS'profile_image_url'
p94
g58
sS'notifications'
p95
NsS'geo_enabled'
p96
I01
sS'profile_background_color'
p97
g45
sS'profile_banner_url'
p98
g62
sS'profile_background_image_url'
p99
g64
sS'name'
p100
g66
sS'lang'
p101
g68
sS'following'
p102
I00
sS'profile_background_tile'
p103
I00
sS'favourites_count'
p104
I0
sS'screen_name'
p105
g72
sS'url'
p106
NsS'created_at'
p107
cdatetime
datetime
p108
(S'\x07\xdf\x02\x18\x15\x04,\x00\x00\x00'
p109
tp110
Rp111
sS'profile_background_image_url_https'
p112
g48
sS'time_zone'
p113
NsS'protected'
p114
I00
sS'default_profile'
p115
I01
sS'is_translator'
p116
I00
sS'listed_count'
p117
I1
sbsS'filter_level'
p118
Vlow
p119
sS'geo'
p120
Nsg24
I621088815474720773
sS'favorite_count'
p121
I0
sS'source'
p122
VTwitter Web Client
p123
sg101
Ven
p124
sS'author'
p125
g18
sS'in_reply_to_user_id_str'
p126
Nsg28
(dp127
Vcontributors
p128
NsVtruncated
p129
I00
sVtext
p130
g10
sVin_reply_to_status_id
p131
Nsg33
I621088815474720773
sVfavorite_count
p132
I0
sVsource
p133
V<a href="http://twitter.com" rel="nofollow">Twitter Web Client</a>
p134
sVretweeted
p135
I00
sVcoordinates
p136
NsVtimestamp_ms
p137
V1436914087538
p138
sVentities
p139
(dp140
Vuser_mentions
p141
(lp142
sVsymbols
p143
(lp144
sVtrends
p145
(lp146
sVhashtags
p147
(lp148
(dp149
Vindices
p150
(lp151
I28
aI40
asg130
VSwitzerland
p152
sasVurls
p153
(lp154
ssVin_reply_to_screen_name
p155
Nsg42
V621088815474720773
p156
sVretweet_count
p157
I0
sVin_reply_to_user_id
p158
NsVfavorited
p159
I00
sVuser
p160
g29
sVgeo
p161
NsVin_reply_to_user_id_str
p162
NsVpossibly_sensitive
p163
I00
sg67
g124
sg75
VTue Jul 14 22:48:07 +0000 2015
p164
sVfilter_level
p165
g119
sVin_reply_to_status_id_str
p166
NsVplace
p167
(dp168
Vfull_name
p169
VBerne, Switzerland
p170
sg74
Vhttps://api.twitter.com/1.1/geo/id/5868d0e0749c9c47.json
p171
sVcountry
p172
VSchweiz
p173
sVplace_type
p174
Vadmin
p175
sVbounding_box
p176
(dp177
Vtype
p178
VPolygon
p179
sg136
(lp180
(lp181
(lp182
F6.861601
aF46.326441
aa(lp183
F6.861601
aF47.34528
aa(lp184
F8.455051
aF47.34528
aa(lp185
F8.455051
aF46.326441
aaassVcountry_code
p186
VCH
p187
sVattributes
p188
(dp189
sg33
V5868d0e0749c9c47
p190
sg65
VBern
p191
sssS'coordinates'
p192
NsS'timestamp_ms'
p193
g138
sS'entities'
p194
g140
sS'in_reply_to_status_id_str'
p195
NsS'in_reply_to_screen_name'
p196
Nsg88
g156
sS'retweeted'
p197
I00
sS'place'
p198
g0
(ctweepy.models
Place
p199
g2
Ntp200
Rp201
(dp202
S'full_name'
p203
g170
sg106
g171
sS'country'
p204
g173
sS'place_type'
p205
g175
sS'bounding_box'
p206
g0
(ctweepy.models
BoundingBox
p207
g2
Ntp208
Rp209
(dp210
S'type'
p211
g179
sg192
g180
sbsS'country_code'
p212
g187
sS'attributes'
p213
g189
sg24
g190
sg100
g191
sbsS'retweet_count'
p214
I0
sg107
g108
(S'\x07\xdf\x07\x0e\x160\x07\x00\x00\x00'
p215
tp216
Rp217
sS'in_reply_to_user_id'
p218
Nsb.