ccopy_reg
_reconstructor
p0
(ctweepy.models
Status
p1
c__builtin__
object
p2
Ntp3
Rp4
(dp5
S'favorited'
p6
I00
sS'contributors'
p7
NsS'truncated'
p8
I00
sS'text'
p9
V#ILAUREATI #Ludes!!! https://t.co/R6mkRxDd2W #fisioterapia #university #studenti #lugano #swiss #vacanze #holiday #summer #weekend #top
p10
sS'source_url'
p11
Vhttp://twitter.com
p12
sS'possibly_sensitive'
p13
I00
sS'in_reply_to_status_id'
p14
NsS'user'
p15
g0
(ctweepy.models
User
p16
g2
Ntp17
Rp18
(dp19
S'follow_request_sent'
p20
NsS'profile_use_background_image'
p21
I01
sS'profile_sidebar_fill_color'
p22
VDDEEF6
p23
sS'id'
p24
I252307995
sS'verified'
p25
I00
sS'profile_image_url_https'
p26
Vhttps://pbs.twimg.com/profile_images/443328698607878144/O7scyvL0_normal.jpeg
p27
sS'_json'
p28
(dp29
Vfollow_request_sent
p30
NsVprofile_use_background_image
p31
I01
sVdefault_profile_image
p32
I00
sVid
p33
I252307995
sVverified
p34
I00
sVprofile_image_url_https
p35
g27
sVprofile_sidebar_fill_color
p36
g23
sVprofile_text_color
p37
V333333
p38
sVfollowers_count
p39
I301
sVprofile_sidebar_border_color
p40
VC0DEED
p41
sVid_str
p42
V252307995
p43
sVprofile_background_color
p44
VC0DEED
p45
sVlisted_count
p46
I13
sVprofile_background_image_url_https
p47
Vhttps://abs.twimg.com/images/themes/theme1/bg.png
p48
sVutc_offset
p49
I7200
sVstatuses_count
p50
I1050
sVdescription
p51
VSwiss Education
p52
sVfriends_count
p53
I128
sVlocation
p54
VSwitzerland
p55
sVprofile_link_color
p56
V000FB3
p57
sVprofile_image_url
p58
Vhttp://pbs.twimg.com/profile_images/443328698607878144/O7scyvL0_normal.jpeg
p59
sVfollowing
p60
NsVgeo_enabled
p61
I01
sVprofile_banner_url
p62
Vhttps://pbs.twimg.com/profile_banners/252307995/1432724219
p63
sVprofile_background_image_url
p64
Vhttp://abs.twimg.com/images/themes/theme1/bg.png
p65
sVname
p66
VLudes University
p67
sVlang
p68
Vit
p69
sVprofile_background_tile
p70
I00
sVfavourites_count
p71
I212
sVscreen_name
p72
Vuniludes
p73
sVnotifications
p74
NsVurl
p75
Vhttp://www.uniludes.ch
p76
sVcreated_at
p77
VMon Feb 14 22:56:29 +0000 2011
p78
sVcontributors_enabled
p79
I00
sVtime_zone
p80
VBern
p81
sVprotected
p82
I00
sVdefault_profile
p83
I00
sVis_translator
p84
I00
ssS'contributors_enabled'
p85
I00
sS'profile_text_color'
p86
g38
sS'followers_count'
p87
I301
sS'profile_sidebar_border_color'
p88
g41
sS'location'
p89
g55
sS'default_profile_image'
p90
I00
sS'id_str'
p91
g43
sS'utc_offset'
p92
I7200
sS'statuses_count'
p93
I1050
sS'description'
p94
g52
sS'friends_count'
p95
I128
sS'profile_link_color'
p96
g57
sS'profile_image_url'
p97
g59
sS'notifications'
p98
NsS'geo_enabled'
p99
I01
sS'profile_background_color'
p100
g45
sS'profile_banner_url'
p101
g63
sS'profile_background_image_url'
p102
g65
sS'name'
p103
g67
sS'lang'
p104
g69
sS'following'
p105
I00
sS'profile_background_tile'
p106
I00
sS'favourites_count'
p107
I212
sS'screen_name'
p108
g73
sS'url'
p109
g76
sS'created_at'
p110
cdatetime
datetime
p111
(S'\x07\xdb\x02\x0e\x168\x1d\x00\x00\x00'
p112
tp113
Rp114
sS'profile_background_image_url_https'
p115
g48
sS'time_zone'
p116
g81
sS'protected'
p117
I00
sS'default_profile'
p118
I00
sS'is_translator'
p119
I00
sS'listed_count'
p120
I13
sbsS'filter_level'
p121
Vlow
p122
sS'geo'
p123
Nsg24
I619461073486381057
sS'favorite_count'
p124
I0
sS'source'
p125
VTwitter Web Client
p126
sg104
Vund
p127
sS'author'
p128
g18
sS'in_reply_to_user_id_str'
p129
Nsg28
(dp130
Vcontributors
p131
NsVtruncated
p132
I00
sVtext
p133
g10
sVin_reply_to_status_id
p134
Nsg33
I619461073486381057
sVfavorite_count
p135
I0
sVsource
p136
V<a href="http://twitter.com" rel="nofollow">Twitter Web Client</a>
p137
sVretweeted
p138
I00
sVcoordinates
p139
NsVtimestamp_ms
p140
V1436526003606
p141
sVentities
p142
(dp143
Vuser_mentions
p144
(lp145
sVsymbols
p146
(lp147
sVtrends
p148
(lp149
sVhashtags
p150
(lp151
(dp152
Vindices
p153
(lp154
I0
aI10
asg133
VILAUREATI
p155
sa(dp156
g153
(lp157
I11
aI17
asg133
VLudes
p158
sa(dp159
g153
(lp160
I45
aI58
asg133
Vfisioterapia
p161
sa(dp162
g153
(lp163
I59
aI70
asg133
Vuniversity
p164
sa(dp165
g153
(lp166
I71
aI80
asg133
Vstudenti
p167
sa(dp168
g153
(lp169
I81
aI88
asg133
Vlugano
p170
sa(dp171
g153
(lp172
I89
aI95
asg133
Vswiss
p173
sa(dp174
g153
(lp175
I96
aI104
asg133
Vvacanze
p176
sa(dp177
g153
(lp178
I105
aI113
asg133
Vholiday
p179
sa(dp180
g153
(lp181
I114
aI121
asg133
Vsummer
p182
sa(dp183
g153
(lp184
I122
aI130
asg133
Vweekend
p185
sa(dp186
g153
(lp187
I131
aI135
asg133
Vtop
p188
sasVurls
p189
(lp190
(dp191
g75
Vhttps://t.co/R6mkRxDd2W
p192
sg153
(lp193
I21
aI44
asVexpanded_url
p194
Vhttps://youtu.be/XAJXoA4a92A
p195
sVdisplay_url
p196
Vyoutu.be/XAJXoA4a92A
p197
sassVin_reply_to_screen_name
p198
Nsg42
V619461073486381057
p199
sVretweet_count
p200
I0
sVin_reply_to_user_id
p201
NsVfavorited
p202
I00
sVuser
p203
g29
sVgeo
p204
NsVin_reply_to_user_id_str
p205
NsVpossibly_sensitive
p206
I00
sg68
g127
sg77
VFri Jul 10 11:00:03 +0000 2015
p207
sVfilter_level
p208
g122
sVin_reply_to_status_id_str
p209
NsVplace
p210
(dp211
Vfull_name
p212
VZurigo, Svizzera
p213
sg75
Vhttps://api.twitter.com/1.1/geo/id/db94c1cccc67c4f4.json
p214
sVcountry
p215
VSchweiz
p216
sVplace_type
p217
Vadmin
p218
sVbounding_box
p219
(dp220
Vtype
p221
VPolygon
p222
sg139
(lp223
(lp224
(lp225
F8.357749
aF47.159384
aa(lp226
F8.357749
aF47.694503
aa(lp227
F8.984445
aF47.694503
aa(lp228
F8.984445
aF47.159384
aaassVcountry_code
p229
VCH
p230
sVattributes
p231
(dp232
sg33
Vdb94c1cccc67c4f4
p233
sg66
VZurigo
p234
sssS'coordinates'
p235
NsS'timestamp_ms'
p236
g141
sS'entities'
p237
g143
sS'in_reply_to_status_id_str'
p238
NsS'in_reply_to_screen_name'
p239
Nsg91
g199
sS'retweeted'
p240
I00
sS'place'
p241
g0
(ctweepy.models
Place
p242
g2
Ntp243
Rp244
(dp245
S'full_name'
p246
g213
sg109
g214
sS'country'
p247
g216
sS'place_type'
p248
g218
sS'bounding_box'
p249
g0
(ctweepy.models
BoundingBox
p250
g2
Ntp251
Rp252
(dp253
S'type'
p254
g222
sg235
g223
sbsS'country_code'
p255
g230
sS'attributes'
p256
g232
sg24
g233
sg103
g234
sbsS'retweet_count'
p257
I0
sg110
g111
(S'\x07\xdf\x07\n\x0b\x00\x03\x00\x00\x00'
p258
tp259
Rp260
sS'in_reply_to_user_id'
p261
Nsb.