ccopy_reg
_reconstructor
p0
(ctweepy.models
Status
p1
c__builtin__
object
p2
Ntp3
Rp4
(dp5
S'favorited'
p6
I00
sS'contributors'
p7
NsS'truncated'
p8
I00
sS'text'
p9
VFairline will be officially launching its new East Coast dealership a weekend of celebrations  http://t.co/cgnVFDrXRl http://t.co/Hij88g5Wbm
p10
sS'source_url'
p11
Vhttp://twitter.com
p12
sS'possibly_sensitive'
p13
I00
sS'in_reply_to_status_id'
p14
NsS'user'
p15
g0
(ctweepy.models
User
p16
g2
Ntp17
Rp18
(dp19
S'follow_request_sent'
p20
NsS'profile_use_background_image'
p21
I01
sS'profile_sidebar_fill_color'
p22
VDDFFCC
p23
sS'id'
p24
I16094736
sS'verified'
p25
I00
sS'profile_image_url_https'
p26
Vhttps://pbs.twimg.com/profile_images/1938799134/Twitter_Logo_normal.jpg
p27
sS'_json'
p28
(dp29
Vfollow_request_sent
p30
NsVprofile_use_background_image
p31
I01
sVdefault_profile_image
p32
I00
sVid
p33
I16094736
sVverified
p34
I00
sVprofile_image_url_https
p35
g27
sVprofile_sidebar_fill_color
p36
g23
sVprofile_text_color
p37
V333333
p38
sVfollowers_count
p39
I4855
sVprofile_sidebar_border_color
p40
VFFFFFF
p41
sVid_str
p42
V16094736
p43
sVprofile_background_color
p44
V9AE4E8
p45
sVlisted_count
p46
I95
sVprofile_background_image_url_https
p47
Vhttps://pbs.twimg.com/profile_background_images/556896622471151616/ZV_shLsQ.jpeg
p48
sVutc_offset
p49
I3600
sVstatuses_count
p50
I10175
sVdescription
p51
VWhat Boat? International\u000aSharing our Passion\u000ahttp://www.whatboat.com
p52
sVfriends_count
p53
I3731
sVlocation
p54
VUK
p55
sVprofile_link_color
p56
V0084B4
p57
sVprofile_image_url
p58
Vhttp://pbs.twimg.com/profile_images/1938799134/Twitter_Logo_normal.jpg
p59
sVfollowing
p60
NsVgeo_enabled
p61
I01
sVprofile_banner_url
p62
Vhttps://pbs.twimg.com/profile_banners/16094736/1421610640
p63
sVprofile_background_image_url
p64
Vhttp://pbs.twimg.com/profile_background_images/556896622471151616/ZV_shLsQ.jpeg
p65
sVname
p66
VWhat Boat?
p67
sVlang
p68
Ven
p69
sVprofile_background_tile
p70
I00
sVfavourites_count
p71
I49
sVscreen_name
p72
Vwhatboat
p73
sVnotifications
p74
NsVurl
p75
Vhttp://www.whatboat.com
p76
sVcreated_at
p77
VTue Sep 02 09:49:22 +0000 2008
p78
sVcontributors_enabled
p79
I00
sVtime_zone
p80
VLondon
p81
sVprotected
p82
I00
sVdefault_profile
p83
I00
sVis_translator
p84
I00
ssS'contributors_enabled'
p85
I00
sS'profile_text_color'
p86
g38
sS'followers_count'
p87
I4855
sS'profile_sidebar_border_color'
p88
g41
sS'location'
p89
g55
sS'default_profile_image'
p90
I00
sS'id_str'
p91
g43
sS'utc_offset'
p92
I3600
sS'statuses_count'
p93
I10175
sS'description'
p94
VWhat Boat? International\u000aSharing our Passion\u000ahttp://www.whatboat.com
p95
sS'friends_count'
p96
I3731
sS'profile_link_color'
p97
g57
sS'profile_image_url'
p98
g59
sS'notifications'
p99
NsS'geo_enabled'
p100
I01
sS'profile_background_color'
p101
g45
sS'profile_banner_url'
p102
g63
sS'profile_background_image_url'
p103
g65
sS'name'
p104
g67
sS'lang'
p105
g69
sS'following'
p106
I00
sS'profile_background_tile'
p107
I00
sS'favourites_count'
p108
I49
sS'screen_name'
p109
g73
sS'url'
p110
g76
sS'created_at'
p111
cdatetime
datetime
p112
(S'\x07\xd8\t\x02\t1\x16\x00\x00\x00'
p113
tp114
Rp115
sS'profile_background_image_url_https'
p116
g48
sS'time_zone'
p117
g81
sS'protected'
p118
I00
sS'default_profile'
p119
I00
sS'is_translator'
p120
I00
sS'listed_count'
p121
I95
sbsS'filter_level'
p122
Vlow
p123
sS'geo'
p124
Nsg24
I619064108562939904
sS'favorite_count'
p125
I0
sS'source'
p126
VTwitter Web Client
p127
sg105
Ven
p128
sS'author'
p129
g18
sS'in_reply_to_user_id_str'
p130
Nsg28
(dp131
Vcontributors
p132
NsVtruncated
p133
I00
sVtext
p134
g10
sVin_reply_to_status_id
p135
Nsg33
I619064108562939904
sVfavorite_count
p136
I0
sVsource
p137
V<a href="http://twitter.com" rel="nofollow">Twitter Web Client</a>
p138
sVretweeted
p139
I00
sVcoordinates
p140
NsVtimestamp_ms
p141
V1436431359793
p142
sVentities
p143
(dp144
Vsymbols
p145
(lp146
sVmedia
p147
(lp148
(dp149
Vexpanded_url
p150
Vhttp://twitter.com/whatboat/status/619064108562939904/photo/1
p151
sVdisplay_url
p152
Vpic.twitter.com/Hij88g5Wbm
p153
sg75
Vhttp://t.co/Hij88g5Wbm
p154
sVmedia_url_https
p155
Vhttps://pbs.twimg.com/media/CJdbhpxWIAAkdi0.jpg
p156
sg42
V619064107493367808
p157
sVsizes
p158
(dp159
Vsmall
p160
(dp161
Vh
p162
I153
sVresize
p163
Vfit
p164
sVw
p165
I340
ssVlarge
p166
(dp167
g162
I462
sg163
Vfit
p168
sg165
I1024
ssVmedium
p169
(dp170
g162
I271
sg163
Vfit
p171
sg165
I600
ssVthumb
p172
(dp173
g162
I150
sg163
Vcrop
p174
sg165
I150
sssVindices
p175
(lp176
I118
aI140
asVtype
p177
Vphoto
p178
sg33
I619064107493367808
sVmedia_url
p179
Vhttp://pbs.twimg.com/media/CJdbhpxWIAAkdi0.jpg
p180
sasVhashtags
p181
(lp182
sVuser_mentions
p183
(lp184
sVtrends
p185
(lp186
sVurls
p187
(lp188
(dp189
g75
Vhttp://t.co/cgnVFDrXRl
p190
sg175
(lp191
I95
aI117
asg150
Vhttp://www.whatboat.com/news/fairline-celebrates-the-launch-of-its-east-coast-dealership
p192
sg152
Vwhatboat.com/news/fairline-\u2026
p193
sassVin_reply_to_screen_name
p194
Nsg42
V619064108562939904
p195
sVretweet_count
p196
I0
sVin_reply_to_user_id
p197
NsVfavorited
p198
I00
sVuser
p199
g29
sVgeo
p200
NsVin_reply_to_user_id_str
p201
NsVpossibly_sensitive
p202
I00
sg68
g128
sg77
VThu Jul 09 08:42:39 +0000 2015
p203
sVfilter_level
p204
g123
sVin_reply_to_status_id_str
p205
NsVplace
p206
(dp207
Vfull_name
p208
VZurich, Switzerland
p209
sg75
Vhttps://api.twitter.com/1.1/geo/id/3acb748d0f1e9265.json
p210
sVcountry
p211
VSchweiz
p212
sVplace_type
p213
Vcity
p214
sVbounding_box
p215
(dp216
g177
VPolygon
p217
sg140
(lp218
(lp219
(lp220
F8.448081
aF47.320183
aa(lp221
F8.448081
aF47.434721
aa(lp222
F8.625442
aF47.434721
aa(lp223
F8.625442
aF47.320183
aaassVcountry_code
p224
VCH
p225
sVattributes
p226
(dp227
sg33
V3acb748d0f1e9265
p228
sg66
VZurich
p229
ssVextended_entities
p230
(dp231
g147
(lp232
(dp233
g150
Vhttp://twitter.com/whatboat/status/619064108562939904/photo/1
p234
sg152
Vpic.twitter.com/Hij88g5Wbm
p235
sg75
Vhttp://t.co/Hij88g5Wbm
p236
sg155
Vhttps://pbs.twimg.com/media/CJdbhpxWIAAkdi0.jpg
p237
sg42
V619064107493367808
p238
sg158
(dp239
g160
(dp240
g162
I153
sg163
Vfit
p241
sg165
I340
ssg166
(dp242
g162
I462
sg163
Vfit
p243
sg165
I1024
ssg169
(dp244
g162
I271
sg163
Vfit
p245
sg165
I600
ssg172
(dp246
g162
I150
sg163
Vcrop
p247
sg165
I150
sssg175
(lp248
I118
aI140
asg177
Vphoto
p249
sg33
I619064107493367808
sg179
Vhttp://pbs.twimg.com/media/CJdbhpxWIAAkdi0.jpg
p250
sasssS'coordinates'
p251
NsS'timestamp_ms'
p252
g142
sS'entities'
p253
g144
sS'in_reply_to_status_id_str'
p254
NsS'in_reply_to_screen_name'
p255
Nsg91
g195
sS'extended_entities'
p256
g231
sS'retweeted'
p257
I00
sS'place'
p258
g0
(ctweepy.models
Place
p259
g2
Ntp260
Rp261
(dp262
S'full_name'
p263
g209
sg110
g210
sS'country'
p264
g212
sS'place_type'
p265
g214
sS'bounding_box'
p266
g0
(ctweepy.models
BoundingBox
p267
g2
Ntp268
Rp269
(dp270
S'type'
p271
g217
sg251
g218
sbsS'country_code'
p272
g225
sS'attributes'
p273
g227
sg24
g228
sg104
g229
sbsS'retweet_count'
p274
I0
sg111
g112
(S"\x07\xdf\x07\t\x08*'\x00\x00\x00"
p275
tp276
Rp277
sS'in_reply_to_user_id'
p278
Nsb.