ccopy_reg
_reconstructor
p0
(ctweepy.models
Status
p1
c__builtin__
object
p2
Ntp3
Rp4
(dp5
S'favorited'
p6
I00
sS'contributors'
p7
NsS'truncated'
p8
I00
sS'text'
p9
VCigarette's vending machine somewhere in Zurich... #C215 #zurich #langstrasse #streetart #street\u2026 https://t.co/UndLOJauW4
p10
sS'source_url'
p11
Vhttp://instagram.com
p12
sS'possibly_sensitive'
p13
I00
sS'in_reply_to_status_id'
p14
NsS'user'
p15
g0
(ctweepy.models
User
p16
g2
Ntp17
Rp18
(dp19
S'follow_request_sent'
p20
NsS'profile_use_background_image'
p21
I01
sS'profile_sidebar_fill_color'
p22
VDDEEF6
p23
sS'id'
p24
I997060327
sS'verified'
p25
I00
sS'profile_image_url_https'
p26
Vhttps://pbs.twimg.com/profile_images/2947699317/fbd278d7ae54a6cca684544421f2e3be_normal.jpeg
p27
sS'_json'
p28
(dp29
Vfollow_request_sent
p30
NsVprofile_use_background_image
p31
I01
sVdefault_profile_image
p32
I00
sVid
p33
I997060327
sVverified
p34
I00
sVprofile_image_url_https
p35
g27
sVprofile_sidebar_fill_color
p36
g23
sVprofile_text_color
p37
V333333
p38
sVfollowers_count
p39
I24
sVprofile_sidebar_border_color
p40
VC0DEED
p41
sVid_str
p42
V997060327
p43
sVprofile_background_color
p44
VC0DEED
p45
sVlisted_count
p46
I10
sVprofile_background_image_url_https
p47
Vhttps://abs.twimg.com/images/themes/theme1/bg.png
p48
sVutc_offset
p49
NsVstatuses_count
p50
I329
sVdescription
p51
NsVfriends_count
p52
I101
sVlocation
p53
V
p54
sVprofile_link_color
p55
V0084B4
p56
sVprofile_image_url
p57
Vhttp://pbs.twimg.com/profile_images/2947699317/fbd278d7ae54a6cca684544421f2e3be_normal.jpeg
p58
sVfollowing
p59
NsVgeo_enabled
p60
I01
sVprofile_background_image_url
p61
Vhttp://abs.twimg.com/images/themes/theme1/bg.png
p62
sVname
p63
VTrax51
p64
sVlang
p65
Vfr
p66
sVprofile_background_tile
p67
I00
sVfavourites_count
p68
I34
sVscreen_name
p69
Vtrax51
p70
sVnotifications
p71
NsVurl
p72
NsVcreated_at
p73
VSat Dec 08 12:16:02 +0000 2012
p74
sVcontributors_enabled
p75
I00
sVtime_zone
p76
NsVprotected
p77
I00
sVdefault_profile
p78
I01
sVis_translator
p79
I00
ssS'contributors_enabled'
p80
I00
sS'profile_text_color'
p81
g38
sS'followers_count'
p82
I24
sS'profile_sidebar_border_color'
p83
g41
sS'location'
p84
g54
sS'default_profile_image'
p85
I00
sS'id_str'
p86
g43
sS'utc_offset'
p87
NsS'statuses_count'
p88
I329
sS'description'
p89
NsS'friends_count'
p90
I101
sS'profile_link_color'
p91
g56
sS'profile_image_url'
p92
g58
sS'notifications'
p93
NsS'geo_enabled'
p94
I01
sS'profile_background_color'
p95
g45
sS'profile_background_image_url'
p96
g62
sS'name'
p97
g64
sS'lang'
p98
g66
sS'following'
p99
I00
sS'profile_background_tile'
p100
I00
sS'favourites_count'
p101
I34
sS'screen_name'
p102
g70
sS'url'
p103
NsS'created_at'
p104
cdatetime
datetime
p105
(S'\x07\xdc\x0c\x08\x0c\x10\x02\x00\x00\x00'
p106
tp107
Rp108
sS'profile_background_image_url_https'
p109
g48
sS'time_zone'
p110
NsS'protected'
p111
I00
sS'default_profile'
p112
I01
sS'is_translator'
p113
I00
sS'listed_count'
p114
I10
sbsS'filter_level'
p115
Vlow
p116
sS'geo'
p117
(dp118
Vtype
p119
VPoint
p120
sVcoordinates
p121
(lp122
F47.380241
aF8.52275
assg24
I621115902898106368
sS'favorite_count'
p123
I0
sS'source'
p124
VInstagram
p125
sg98
Ven
p126
sS'author'
p127
g18
sS'in_reply_to_user_id_str'
p128
Nsg28
(dp129
Vcontributors
p130
NsVtruncated
p131
I00
sVtext
p132
g10
sVin_reply_to_status_id
p133
Nsg33
I621115902898106368
sVfavorite_count
p134
I0
sVsource
p135
V<a href="http://instagram.com" rel="nofollow">Instagram</a>
p136
sVretweeted
p137
I00
sg121
(dp138
g119
VPoint
p139
sg121
(lp140
F8.52275
aF47.380241
assVtimestamp_ms
p141
V1436920545683
p142
sVentities
p143
(dp144
Vuser_mentions
p145
(lp146
sVsymbols
p147
(lp148
sVtrends
p149
(lp150
sVhashtags
p151
(lp152
(dp153
Vindices
p154
(lp155
I51
aI56
asg132
VC215
p156
sa(dp157
g154
(lp158
I57
aI64
asg132
Vzurich
p159
sa(dp160
g154
(lp161
I65
aI77
asg132
Vlangstrasse
p162
sa(dp163
g154
(lp164
I78
aI88
asg132
Vstreetart
p165
sa(dp166
g154
(lp167
I89
aI96
asg132
Vstreet
p168
sasVurls
p169
(lp170
(dp171
g72
Vhttps://t.co/UndLOJauW4
p172
sg154
(lp173
I98
aI121
asVexpanded_url
p174
Vhttps://instagram.com/p/5IwrM8laGZ/
p175
sVdisplay_url
p176
Vinstagram.com/p/5IwrM8laGZ/
p177
sassVin_reply_to_screen_name
p178
Nsg42
V621115902898106368
p179
sVretweet_count
p180
I0
sVin_reply_to_user_id
p181
NsVfavorited
p182
I00
sVuser
p183
g29
sVgeo
p184
g118
sVin_reply_to_user_id_str
p185
NsVpossibly_sensitive
p186
I00
sg65
g126
sg73
VWed Jul 15 00:35:45 +0000 2015
p187
sVfilter_level
p188
g116
sVin_reply_to_status_id_str
p189
NsVplace
p190
(dp191
Vfull_name
p192
VZurich, Suisse
p193
sg72
Vhttps://api.twitter.com/1.1/geo/id/3acb748d0f1e9265.json
p194
sVcountry
p195
VSchweiz
p196
sVplace_type
p197
Vcity
p198
sVbounding_box
p199
(dp200
g119
VPolygon
p201
sg121
(lp202
(lp203
(lp204
F8.448081
aF47.320183
aa(lp205
F8.448081
aF47.434721
aa(lp206
F8.625442
aF47.434721
aa(lp207
F8.625442
aF47.320183
aaassVcountry_code
p208
VCH
p209
sVattributes
p210
(dp211
sg33
V3acb748d0f1e9265
p212
sg63
VZurich
p213
sssS'coordinates'
p214
g138
sS'timestamp_ms'
p215
g142
sS'entities'
p216
g144
sS'in_reply_to_status_id_str'
p217
NsS'in_reply_to_screen_name'
p218
Nsg86
g179
sS'retweeted'
p219
I00
sS'place'
p220
g0
(ctweepy.models
Place
p221
g2
Ntp222
Rp223
(dp224
S'full_name'
p225
g193
sg103
g194
sS'country'
p226
g196
sS'place_type'
p227
g198
sS'bounding_box'
p228
g0
(ctweepy.models
BoundingBox
p229
g2
Ntp230
Rp231
(dp232
S'type'
p233
g201
sg214
g202
sbsS'country_code'
p234
g209
sS'attributes'
p235
g211
sg24
g212
sg97
g213
sbsS'retweet_count'
p236
I0
sg104
g105
(S'\x07\xdf\x07\x0f\x00#-\x00\x00\x00'
p237
tp238
Rp239
sS'in_reply_to_user_id'
p240
Nsb.