ccopy_reg
_reconstructor
p0
(ctweepy.models
Status
p1
c__builtin__
object
p2
Ntp3
Rp4
(dp5
S'favorited'
p6
I00
sS'contributors'
p7
NsS'truncated'
p8
I00
sS'text'
p9
Vnunca tendremos "OhNoLouis" porque nos prende fuego a todos lo sabemos \u000a#OhNoHarry \u000a#OhNoLiam \u000a#OhNoNiall
p10
sS'source_url'
p11
Vhttp://twitter.com
p12
sS'possibly_sensitive'
p13
I00
sS'in_reply_to_status_id'
p14
NsS'user'
p15
g0
(ctweepy.models
User
p16
g2
Ntp17
Rp18
(dp19
S'follow_request_sent'
p20
NsS'profile_use_background_image'
p21
I01
sS'profile_sidebar_fill_color'
p22
VE5507E
p23
sS'id'
p24
I130640431
sS'verified'
p25
I00
sS'profile_image_url_https'
p26
Vhttps://pbs.twimg.com/profile_images/618149327953858560/5bf39rkP_normal.jpg
p27
sS'_json'
p28
(dp29
Vfollow_request_sent
p30
NsVprofile_use_background_image
p31
I01
sVdefault_profile_image
p32
I00
sVid
p33
I130640431
sVverified
p34
I00
sVprofile_image_url_https
p35
g27
sVprofile_sidebar_fill_color
p36
g23
sVprofile_text_color
p37
V362720
p38
sVfollowers_count
p39
I690
sVprofile_sidebar_border_color
p40
VFFFFFF
p41
sVid_str
p42
V130640431
p43
sVprofile_background_color
p44
VFF6699
p45
sVlisted_count
p46
I6
sVprofile_background_image_url_https
p47
Vhttps://pbs.twimg.com/profile_background_images/779686728/8d70c90d4aa2e311f145a56a531ffbbf.jpeg
p48
sVutc_offset
p49
I-36000
sVstatuses_count
p50
I31059
sVdescription
p51
V\u27284 in our eyes 5 in our hearts\u2728 \u2716\ufe0fNiallgirl\u2716\ufe0f Nuestros hilos rojos estan unidos.
p52
sVfriends_count
p53
I658
sVlocation
p54
V
p55
sVprofile_link_color
p56
VB40B43
p57
sVprofile_image_url
p58
Vhttp://pbs.twimg.com/profile_images/618149327953858560/5bf39rkP_normal.jpg
p59
sVfollowing
p60
NsVgeo_enabled
p61
I01
sVprofile_banner_url
p62
Vhttps://pbs.twimg.com/profile_banners/130640431/1434396096
p63
sVprofile_background_image_url
p64
Vhttp://pbs.twimg.com/profile_background_images/779686728/8d70c90d4aa2e311f145a56a531ffbbf.jpeg
p65
sVname
p66
V\u274c TYSM OTY/GD3 \u274c
p67
sVlang
p68
Ves
p69
sVprofile_background_tile
p70
I01
sVfavourites_count
p71
I256
sVscreen_name
p72
VFvpz05
p73
sVnotifications
p74
NsVurl
p75
Vhttp://noisetrade.com/cimorelli/hearts-on-fire
p76
sVcreated_at
p77
VWed Apr 07 22:10:59 +0000 2010
p78
sVcontributors_enabled
p79
I00
sVtime_zone
p80
VHawaii
p81
sVprotected
p82
I00
sVdefault_profile
p83
I00
sVis_translator
p84
I00
ssS'contributors_enabled'
p85
I00
sS'profile_text_color'
p86
g38
sS'followers_count'
p87
I690
sS'profile_sidebar_border_color'
p88
g41
sS'location'
p89
g55
sS'default_profile_image'
p90
I00
sS'id_str'
p91
g43
sS'utc_offset'
p92
I-36000
sS'statuses_count'
p93
I31059
sS'description'
p94
g52
sS'friends_count'
p95
I658
sS'profile_link_color'
p96
g57
sS'profile_image_url'
p97
g59
sS'notifications'
p98
NsS'geo_enabled'
p99
I01
sS'profile_background_color'
p100
g45
sS'profile_banner_url'
p101
g63
sS'profile_background_image_url'
p102
g65
sS'name'
p103
g67
sS'lang'
p104
g69
sS'following'
p105
I00
sS'profile_background_tile'
p106
I01
sS'favourites_count'
p107
I256
sS'screen_name'
p108
g73
sS'url'
p109
g76
sS'created_at'
p110
cdatetime
datetime
p111
(S'\x07\xda\x04\x07\x16\n;\x00\x00\x00'
p112
tp113
Rp114
sS'profile_background_image_url_https'
p115
g48
sS'time_zone'
p116
g81
sS'protected'
p117
I00
sS'default_profile'
p118
I00
sS'is_translator'
p119
I00
sS'listed_count'
p120
I6
sbsS'filter_level'
p121
Vlow
p122
sS'geo'
p123
Nsg24
I619622702740074496
sS'favorite_count'
p124
I0
sS'source'
p125
VTwitter Web Client
p126
sg104
Ves
p127
sS'author'
p128
g18
sS'in_reply_to_user_id_str'
p129
Nsg28
(dp130
Vcontributors
p131
NsVtruncated
p132
I00
sVtext
p133
Vnunca tendremos "OhNoLouis" porque nos prende fuego a todos lo sabemos \u000a#OhNoHarry \u000a#OhNoLiam \u000a#OhNoNiall
p134
sVin_reply_to_status_id
p135
Nsg33
I619622702740074496
sVfavorite_count
p136
I0
sVsource
p137
V<a href="http://twitter.com" rel="nofollow">Twitter Web Client</a>
p138
sVretweeted
p139
I00
sVcoordinates
p140
NsVtimestamp_ms
p141
V1436564539023
p142
sVentities
p143
(dp144
Vuser_mentions
p145
(lp146
sVsymbols
p147
(lp148
sVtrends
p149
(lp150
sVhashtags
p151
(lp152
(dp153
Vindices
p154
(lp155
I72
aI82
asg133
VOhNoHarry
p156
sa(dp157
g154
(lp158
I84
aI93
asg133
VOhNoLiam
p159
sa(dp160
g154
(lp161
I95
aI105
asg133
VOhNoNiall
p162
sasVurls
p163
(lp164
ssVin_reply_to_screen_name
p165
Nsg42
V619622702740074496
p166
sVretweet_count
p167
I0
sVin_reply_to_user_id
p168
NsVfavorited
p169
I00
sVuser
p170
g29
sVgeo
p171
NsVin_reply_to_user_id_str
p172
NsVpossibly_sensitive
p173
I00
sg68
g127
sg77
VFri Jul 10 21:42:19 +0000 2015
p174
sVfilter_level
p175
g122
sVin_reply_to_status_id_str
p176
NsVplace
p177
(dp178
Vfull_name
p179
VZurich, Suiza
p180
sg75
Vhttps://api.twitter.com/1.1/geo/id/db94c1cccc67c4f4.json
p181
sVcountry
p182
VSchweiz
p183
sVplace_type
p184
Vadmin
p185
sVbounding_box
p186
(dp187
Vtype
p188
VPolygon
p189
sg140
(lp190
(lp191
(lp192
F8.357749
aF47.159384
aa(lp193
F8.357749
aF47.694503
aa(lp194
F8.984445
aF47.694503
aa(lp195
F8.984445
aF47.159384
aaassVcountry_code
p196
VCH
p197
sVattributes
p198
(dp199
sg33
Vdb94c1cccc67c4f4
p200
sg66
VZurich
p201
sssS'coordinates'
p202
NsS'timestamp_ms'
p203
g142
sS'entities'
p204
g144
sS'in_reply_to_status_id_str'
p205
NsS'in_reply_to_screen_name'
p206
Nsg91
g166
sS'retweeted'
p207
I00
sS'place'
p208
g0
(ctweepy.models
Place
p209
g2
Ntp210
Rp211
(dp212
S'full_name'
p213
g180
sg109
g181
sS'country'
p214
g183
sS'place_type'
p215
g185
sS'bounding_box'
p216
g0
(ctweepy.models
BoundingBox
p217
g2
Ntp218
Rp219
(dp220
S'type'
p221
g189
sg202
g190
sbsS'country_code'
p222
g197
sS'attributes'
p223
g199
sg24
g200
sg103
g201
sbsS'retweet_count'
p224
I0
sg110
g111
(S'\x07\xdf\x07\n\x15*\x13\x00\x00\x00'
p225
tp226
Rp227
sS'in_reply_to_user_id'
p228
Nsb.