ccopy_reg
_reconstructor
p0
(ctweepy.models
Status
p1
c__builtin__
object
p2
Ntp3
Rp4
(dp5
S'favorited'
p6
I00
sS'contributors'
p7
NsS'truncated'
p8
I00
sS'text'
p9
VCelebrating #FF and Positive Ageing with @arianepoole @stylecrone @BoomCindyJoseph @Journeywoman @CarolOrsborn @FeistySideFifty @sixtyandme
p10
sS'source_url'
p11
Vhttp://twitter.com
p12
sS'possibly_sensitive'
p13
I00
sS'in_reply_to_status_id'
p14
NsS'user'
p15
g0
(ctweepy.models
User
p16
g2
Ntp17
Rp18
(dp19
S'follow_request_sent'
p20
NsS'profile_use_background_image'
p21
I01
sS'profile_sidebar_fill_color'
p22
VF3F3F3
p23
sS'id'
p24
I955350608
sS'verified'
p25
I00
sS'profile_image_url_https'
p26
Vhttps://pbs.twimg.com/profile_images/564447504066818048/t1W1zL6G_normal.png
p27
sS'_json'
p28
(dp29
Vfollow_request_sent
p30
NsVprofile_use_background_image
p31
I01
sVdefault_profile_image
p32
I00
sVid
p33
I955350608
sVverified
p34
I00
sVprofile_image_url_https
p35
g27
sVprofile_sidebar_fill_color
p36
g23
sVprofile_text_color
p37
V333333
p38
sVfollowers_count
p39
I3582
sVprofile_sidebar_border_color
p40
VDFDFDF
p41
sVid_str
p42
V955350608
p43
sVprofile_background_color
p44
VEBEBEB
p45
sVlisted_count
p46
I111
sVprofile_background_image_url_https
p47
Vhttps://abs.twimg.com/images/themes/theme7/bg.gif
p48
sVutc_offset
p49
NsVstatuses_count
p50
I12105
sVdescription
p51
VSixty and Me is a global community of 100,000 women over 60. Helping boomer women to live healthy, independent and financially secure lives. By Margaret Manning
p52
sVfriends_count
p53
I1776
sVlocation
p54
VSwitzerland 
p55
sVprofile_link_color
p56
V990000
p57
sVprofile_image_url
p58
Vhttp://pbs.twimg.com/profile_images/564447504066818048/t1W1zL6G_normal.png
p59
sVfollowing
p60
NsVgeo_enabled
p61
I01
sVprofile_banner_url
p62
Vhttps://pbs.twimg.com/profile_banners/955350608/1423417866
p63
sVprofile_background_image_url
p64
Vhttp://abs.twimg.com/images/themes/theme7/bg.gif
p65
sVname
p66
VSixty and Me 
p67
sVlang
p68
Ven
p69
sVprofile_background_tile
p70
I00
sVfavourites_count
p71
I251
sVscreen_name
p72
Vsixtyandme
p73
sVnotifications
p74
NsVurl
p75
Vhttp://sixtyandme.com
p76
sVcreated_at
p77
VSun Nov 18 11:54:24 +0000 2012
p78
sVcontributors_enabled
p79
I00
sVtime_zone
p80
NsVprotected
p81
I00
sVdefault_profile
p82
I00
sVis_translator
p83
I00
ssS'contributors_enabled'
p84
I00
sS'profile_text_color'
p85
g38
sS'followers_count'
p86
I3582
sS'profile_sidebar_border_color'
p87
g41
sS'location'
p88
g55
sS'default_profile_image'
p89
I00
sS'id_str'
p90
g43
sS'utc_offset'
p91
NsS'statuses_count'
p92
I12105
sS'description'
p93
g52
sS'friends_count'
p94
I1776
sS'profile_link_color'
p95
g57
sS'profile_image_url'
p96
g59
sS'notifications'
p97
NsS'geo_enabled'
p98
I01
sS'profile_background_color'
p99
g45
sS'profile_banner_url'
p100
g63
sS'profile_background_image_url'
p101
g65
sS'name'
p102
g67
sS'lang'
p103
g69
sS'following'
p104
I00
sS'profile_background_tile'
p105
I00
sS'favourites_count'
p106
I251
sS'screen_name'
p107
g73
sS'url'
p108
g76
sS'created_at'
p109
cdatetime
datetime
p110
(S'\x07\xdc\x0b\x12\x0b6\x18\x00\x00\x00'
p111
tp112
Rp113
sS'profile_background_image_url_https'
p114
g48
sS'time_zone'
p115
NsS'protected'
p116
I00
sS'default_profile'
p117
I00
sS'is_translator'
p118
I00
sS'listed_count'
p119
I111
sbsS'filter_level'
p120
Vlow
p121
sS'geo'
p122
Nsg24
I619391510090547200
sS'favorite_count'
p123
I0
sS'source'
p124
VTwitter Web Client
p125
sg103
Ven
p126
sS'author'
p127
g18
sS'in_reply_to_user_id_str'
p128
Nsg28
(dp129
Vcontributors
p130
NsVtruncated
p131
I00
sVtext
p132
g10
sVin_reply_to_status_id
p133
Nsg33
I619391510090547200
sVfavorite_count
p134
I0
sVsource
p135
V<a href="http://twitter.com" rel="nofollow">Twitter Web Client</a>
p136
sVretweeted
p137
I00
sVcoordinates
p138
NsVtimestamp_ms
p139
V1436509418400
p140
sVentities
p141
(dp142
Vuser_mentions
p143
(lp144
(dp145
g33
I21756881
sVindices
p146
(lp147
I41
aI53
asg42
V21756881
p148
sg72
Varianepoole
p149
sg66
VAriane Poole
p150
sa(dp151
g33
I197181024
sg146
(lp152
I54
aI65
asg42
V197181024
p153
sg72
Vstylecrone
p154
sg66
VJudith Boyd
p155
sa(dp156
g33
I202809313
sg146
(lp157
I66
aI82
asg42
V202809313
p158
sg72
VBoomCindyJoseph
p159
sg66
VCindy Joseph
p160
sa(dp161
g33
I20555201
sg146
(lp162
I83
aI96
asg42
V20555201
p163
sg72
VJourneywoman
p164
sg66
VEvelyn Hannon
p165
sa(dp166
g33
I37849184
sg146
(lp167
I97
aI110
asg42
V37849184
p168
sg72
VCarolOrsborn
p169
sg66
VCarol Orsborn, Ph.D.
p170
sa(dp171
g33
I19167037
sg146
(lp172
I111
aI127
asg42
V19167037
p173
sg72
VFeistySideFifty
p174
sg66
VM Eileen Williams
p175
sa(dp176
g33
I955350608
sg146
(lp177
I128
aI139
asg42
V955350608
p178
sg72
Vsixtyandme
p179
sg66
VSixty and Me 
p180
sasVsymbols
p181
(lp182
sVtrends
p183
(lp184
sVhashtags
p185
(lp186
(dp187
g146
(lp188
I12
aI15
asg132
VFF
p189
sasVurls
p190
(lp191
ssVin_reply_to_screen_name
p192
Nsg42
V619391510090547200
p193
sVretweet_count
p194
I0
sVin_reply_to_user_id
p195
NsVfavorited
p196
I00
sVuser
p197
g29
sVgeo
p198
NsVin_reply_to_user_id_str
p199
NsVpossibly_sensitive
p200
I00
sg68
g126
sg77
VFri Jul 10 06:23:38 +0000 2015
p201
sVfilter_level
p202
g121
sVin_reply_to_status_id_str
p203
NsVplace
p204
(dp205
Vfull_name
p206
VZurich, Switzerland
p207
sg75
Vhttps://api.twitter.com/1.1/geo/id/3acb748d0f1e9265.json
p208
sVcountry
p209
VSchweiz
p210
sVplace_type
p211
Vcity
p212
sVbounding_box
p213
(dp214
Vtype
p215
VPolygon
p216
sg138
(lp217
(lp218
(lp219
F8.448081
aF47.320183
aa(lp220
F8.448081
aF47.434721
aa(lp221
F8.625442
aF47.434721
aa(lp222
F8.625442
aF47.320183
aaassVcountry_code
p223
VCH
p224
sVattributes
p225
(dp226
sg33
V3acb748d0f1e9265
p227
sg66
VZurich
p228
sssS'coordinates'
p229
NsS'timestamp_ms'
p230
g140
sS'entities'
p231
g142
sS'in_reply_to_status_id_str'
p232
NsS'in_reply_to_screen_name'
p233
Nsg90
g193
sS'retweeted'
p234
I00
sS'place'
p235
g0
(ctweepy.models
Place
p236
g2
Ntp237
Rp238
(dp239
S'full_name'
p240
g207
sg108
g208
sS'country'
p241
g210
sS'place_type'
p242
g212
sS'bounding_box'
p243
g0
(ctweepy.models
BoundingBox
p244
g2
Ntp245
Rp246
(dp247
S'type'
p248
g216
sg229
g217
sbsS'country_code'
p249
g224
sS'attributes'
p250
g226
sg24
g227
sg102
g228
sbsS'retweet_count'
p251
I0
sg109
g110
(S'\x07\xdf\x07\n\x06\x17&\x00\x00\x00'
p252
tp253
Rp254
sS'in_reply_to_user_id'
p255
Nsb.