ccopy_reg
_reconstructor
p0
(ctweepy.models
Status
p1
c__builtin__
object
p2
Ntp3
Rp4
(dp5
S'favorited'
p6
I00
sS'contributors'
p7
NsS'truncated'
p8
I00
sS'text'
p9
V@EnricoLetta @UTS_Business @bobjcarr E`un inizio si per aiutare la GRECIA a convivere in DEMOCRAZIA e non di DEMOCRAZIA altrui !
p10
sS'source_url'
p11
Vhttp://twitter.com
p12
sS'possibly_sensitive'
p13
I00
sS'in_reply_to_status_id'
p14
I619194259011452928
sS'user'
p15
g0
(ctweepy.models
User
p16
g2
Ntp17
Rp18
(dp19
S'follow_request_sent'
p20
NsS'profile_use_background_image'
p21
I01
sS'profile_sidebar_fill_color'
p22
VDDEEF6
p23
sS'id'
p24
I1128044090
sS'verified'
p25
I00
sS'profile_image_url_https'
p26
Vhttps://pbs.twimg.com/profile_images/468467588524015616/YYs0ZsRl_normal.jpeg
p27
sS'_json'
p28
(dp29
Vfollow_request_sent
p30
NsVprofile_use_background_image
p31
I01
sVdefault_profile_image
p32
I00
sVid
p33
I1128044090
sVverified
p34
I00
sVprofile_image_url_https
p35
g27
sVprofile_sidebar_fill_color
p36
g23
sVprofile_text_color
p37
V333333
p38
sVfollowers_count
p39
I38
sVprofile_sidebar_border_color
p40
VC0DEED
p41
sVid_str
p42
V1128044090
p43
sVprofile_background_color
p44
VC0DEED
p45
sVlisted_count
p46
I0
sVprofile_background_image_url_https
p47
Vhttps://abs.twimg.com/images/themes/theme1/bg.png
p48
sVutc_offset
p49
I10800
sVstatuses_count
p50
I9389
sVdescription
p51
NsVfriends_count
p52
I79
sVlocation
p53
V
p54
sVprofile_link_color
p55
V0084B4
p56
sVprofile_image_url
p57
Vhttp://pbs.twimg.com/profile_images/468467588524015616/YYs0ZsRl_normal.jpeg
p58
sVfollowing
p59
NsVgeo_enabled
p60
I01
sVprofile_background_image_url
p61
Vhttp://abs.twimg.com/images/themes/theme1/bg.png
p62
sVname
p63
Vfranco  de marco
p64
sVlang
p65
Vit
p66
sVprofile_background_tile
p67
I00
sVfavourites_count
p68
I6
sVscreen_name
p69
V_fdm1
p70
sVnotifications
p71
NsVurl
p72
NsVcreated_at
p73
VMon Jan 28 13:18:29 +0000 2013
p74
sVcontributors_enabled
p75
I00
sVtime_zone
p76
VAthens
p77
sVprotected
p78
I00
sVdefault_profile
p79
I01
sVis_translator
p80
I00
ssS'contributors_enabled'
p81
I00
sS'profile_text_color'
p82
g38
sS'followers_count'
p83
I38
sS'profile_sidebar_border_color'
p84
g41
sS'location'
p85
g54
sS'default_profile_image'
p86
I00
sS'id_str'
p87
g43
sS'utc_offset'
p88
I10800
sS'statuses_count'
p89
I9389
sS'description'
p90
NsS'friends_count'
p91
I79
sS'profile_link_color'
p92
g56
sS'profile_image_url'
p93
g58
sS'notifications'
p94
NsS'geo_enabled'
p95
I01
sS'profile_background_color'
p96
g45
sS'profile_background_image_url'
p97
g62
sS'name'
p98
g64
sS'lang'
p99
g66
sS'following'
p100
I00
sS'profile_background_tile'
p101
I00
sS'favourites_count'
p102
I6
sS'screen_name'
p103
g70
sS'url'
p104
NsS'created_at'
p105
cdatetime
datetime
p106
(S'\x07\xdd\x01\x1c\r\x12\x1d\x00\x00\x00'
p107
tp108
Rp109
sS'profile_background_image_url_https'
p110
g48
sS'time_zone'
p111
g77
sS'protected'
p112
I00
sS'default_profile'
p113
I01
sS'is_translator'
p114
I00
sS'listed_count'
p115
I0
sbsS'filter_level'
p116
Vlow
p117
sS'geo'
p118
Nsg24
I619227387566387206
sS'favorite_count'
p119
I0
sS'source'
p120
VTwitter Web Client
p121
sg99
Vit
p122
sS'author'
p123
g18
sS'in_reply_to_user_id_str'
p124
V419622371
p125
sg28
(dp126
Vcontributors
p127
NsVtruncated
p128
I00
sVtext
p129
g10
sVin_reply_to_status_id
p130
I619194259011452928
sg33
I619227387566387206
sVfavorite_count
p131
I0
sVsource
p132
V<a href="http://twitter.com" rel="nofollow">Twitter Web Client</a>
p133
sVretweeted
p134
I00
sVcoordinates
p135
NsVtimestamp_ms
p136
V1436470288541
p137
sVentities
p138
(dp139
Vuser_mentions
p140
(lp141
(dp142
g33
I419622371
sVindices
p143
(lp144
I0
aI12
asg42
V419622371
p145
sg69
VEnricoLetta
p146
sg63
VEnrico Letta
p147
sa(dp148
g33
I896287621
sg143
(lp149
I13
aI26
asg42
V896287621
p150
sg69
VUTS_Business
p151
sg63
VUTS Business School
p152
sa(dp153
g33
I183063452
sg143
(lp154
I27
aI36
asg42
V183063452
p155
sg69
Vbobjcarr
p156
sg63
VBob Carr
p157
sasVsymbols
p158
(lp159
sVtrends
p160
(lp161
sVhashtags
p162
(lp163
sVurls
p164
(lp165
ssVin_reply_to_screen_name
p166
VEnricoLetta
p167
sg42
V619227387566387206
p168
sVretweet_count
p169
I0
sVin_reply_to_user_id
p170
I419622371
sVfavorited
p171
I00
sVuser
p172
g29
sVgeo
p173
NsVin_reply_to_user_id_str
p174
g125
sVpossibly_sensitive
p175
I00
sg65
g122
sg73
VThu Jul 09 19:31:28 +0000 2015
p176
sVfilter_level
p177
g117
sVin_reply_to_status_id_str
p178
V619194259011452928
p179
sVplace
p180
(dp181
Vfull_name
p182
VZurigo, Svizzera
p183
sg72
Vhttps://api.twitter.com/1.1/geo/id/3acb748d0f1e9265.json
p184
sVcountry
p185
VSchweiz
p186
sVplace_type
p187
Vcity
p188
sVbounding_box
p189
(dp190
Vtype
p191
VPolygon
p192
sg135
(lp193
(lp194
(lp195
F8.448081
aF47.320183
aa(lp196
F8.448081
aF47.434721
aa(lp197
F8.625442
aF47.434721
aa(lp198
F8.625442
aF47.320183
aaassVcountry_code
p199
VCH
p200
sVattributes
p201
(dp202
sg33
V3acb748d0f1e9265
p203
sg63
VZurigo
p204
sssS'coordinates'
p205
NsS'timestamp_ms'
p206
g137
sS'entities'
p207
g139
sS'in_reply_to_status_id_str'
p208
g179
sS'in_reply_to_screen_name'
p209
g167
sg87
g168
sS'retweeted'
p210
I00
sS'place'
p211
g0
(ctweepy.models
Place
p212
g2
Ntp213
Rp214
(dp215
S'full_name'
p216
g183
sg104
g184
sS'country'
p217
g186
sS'place_type'
p218
g188
sS'bounding_box'
p219
g0
(ctweepy.models
BoundingBox
p220
g2
Ntp221
Rp222
(dp223
S'type'
p224
g192
sg205
g193
sbsS'country_code'
p225
g200
sS'attributes'
p226
g202
sg24
g203
sg98
g204
sbsS'retweet_count'
p227
I0
sg105
g106
(S'\x07\xdf\x07\t\x13\x1f\x1c\x00\x00\x00'
p228
tp229
Rp230
sS'in_reply_to_user_id'
p231
I419622371
sb.