ccopy_reg
_reconstructor
p0
(ctweepy.models
Status
p1
c__builtin__
object
p2
Ntp3
Rp4
(dp5
S'favorited'
p6
I00
sS'contributors'
p7
NsS'truncated'
p8
I00
sS'text'
p9
Vjust watched @NathanFillion at https://t.co/leXx0otwwn so great! what a funny and humble man you are!
p10
sS'source_url'
p11
Vhttp://twitter.com
p12
sS'possibly_sensitive'
p13
I00
sS'in_reply_to_status_id'
p14
NsS'user'
p15
g0
(ctweepy.models
User
p16
g2
Ntp17
Rp18
(dp19
S'follow_request_sent'
p20
NsS'profile_use_background_image'
p21
I00
sS'profile_sidebar_fill_color'
p22
VDDEEF6
p23
sS'id'
p24
I1613167130
sS'verified'
p25
I00
sS'profile_image_url_https'
p26
Vhttps://pbs.twimg.com/profile_images/612109360077012992/dMji8MK8_normal.jpg
p27
sS'_json'
p28
(dp29
Vfollow_request_sent
p30
NsVprofile_use_background_image
p31
I00
sVdefault_profile_image
p32
I00
sVid
p33
I1613167130
sVverified
p34
I00
sVprofile_image_url_https
p35
g27
sVprofile_sidebar_fill_color
p36
g23
sVprofile_text_color
p37
V333333
p38
sVfollowers_count
p39
I396
sVprofile_sidebar_border_color
p40
VFFFFFF
p41
sVid_str
p42
V1613167130
p43
sVprofile_background_color
p44
VC0DEED
p45
sVlisted_count
p46
I11
sVprofile_background_image_url_https
p47
Vhttps://pbs.twimg.com/profile_background_images/603973249425383425/_NhrmLPN.jpg
p48
sVutc_offset
p49
I7200
sVstatuses_count
p50
I9922
sVdescription
p51
VHuge fan of Nathan Fillion. # \u000aNYC lover.  #\u000aOur greatest glory is not in never falling, but in rising every time we fall. Confucius
p52
sVfriends_count
p53
I520
sVlocation
p54
VSwitzerland
p55
sVprofile_link_color
p56
V0084B4
p57
sVprofile_image_url
p58
Vhttp://pbs.twimg.com/profile_images/612109360077012992/dMji8MK8_normal.jpg
p59
sVfollowing
p60
NsVgeo_enabled
p61
I01
sVprofile_banner_url
p62
Vhttps://pbs.twimg.com/profile_banners/1613167130/1432975826
p63
sVprofile_background_image_url
p64
Vhttp://pbs.twimg.com/profile_background_images/603973249425383425/_NhrmLPN.jpg
p65
sVname
p66
VBeth
p67
sVlang
p68
Ven
p69
sVprofile_background_tile
p70
I00
sVfavourites_count
p71
I4188
sVscreen_name
p72
VBeth4gold
p73
sVnotifications
p74
NsVurl
p75
NsVcreated_at
p76
VMon Jul 22 16:19:41 +0000 2013
p77
sVcontributors_enabled
p78
I00
sVtime_zone
p79
VBern
p80
sVprotected
p81
I00
sVdefault_profile
p82
I00
sVis_translator
p83
I00
ssS'contributors_enabled'
p84
I00
sS'profile_text_color'
p85
g38
sS'followers_count'
p86
I396
sS'profile_sidebar_border_color'
p87
g41
sS'location'
p88
g55
sS'default_profile_image'
p89
I00
sS'id_str'
p90
g43
sS'utc_offset'
p91
I7200
sS'statuses_count'
p92
I9922
sS'description'
p93
VHuge fan of Nathan Fillion. # \u000aNYC lover.  #\u000aOur greatest glory is not in never falling, but in rising every time we fall. Confucius
p94
sS'friends_count'
p95
I520
sS'profile_link_color'
p96
g57
sS'profile_image_url'
p97
g59
sS'notifications'
p98
NsS'geo_enabled'
p99
I01
sS'profile_background_color'
p100
g45
sS'profile_banner_url'
p101
g63
sS'profile_background_image_url'
p102
g65
sS'name'
p103
g67
sS'lang'
p104
g69
sS'following'
p105
I00
sS'profile_background_tile'
p106
I00
sS'favourites_count'
p107
I4188
sS'screen_name'
p108
g73
sS'url'
p109
NsS'created_at'
p110
cdatetime
datetime
p111
(S'\x07\xdd\x07\x16\x10\x13)\x00\x00\x00'
p112
tp113
Rp114
sS'profile_background_image_url_https'
p115
g48
sS'time_zone'
p116
g80
sS'protected'
p117
I00
sS'default_profile'
p118
I00
sS'is_translator'
p119
I00
sS'listed_count'
p120
I11
sbsS'filter_level'
p121
Vlow
p122
sS'geo'
p123
Nsg24
I620517660548300804
sS'favorite_count'
p124
I0
sS'source'
p125
VTwitter Web Client
p126
sg104
Ven
p127
sS'author'
p128
g18
sS'in_reply_to_user_id_str'
p129
Nsg28
(dp130
Vcontributors
p131
NsVtruncated
p132
I00
sVtext
p133
g10
sVin_reply_to_status_id
p134
Nsg33
I620517660548300804
sVfavorite_count
p135
I0
sVsource
p136
V<a href="http://twitter.com" rel="nofollow">Twitter Web Client</a>
p137
sVretweeted
p138
I00
sVcoordinates
p139
NsVtimestamp_ms
p140
V1436777913592
p141
sVentities
p142
(dp143
Vuser_mentions
p144
(lp145
(dp146
g33
I31353077
sVindices
p147
(lp148
I13
aI27
asg42
V31353077
p149
sg72
VNathanFillion
p150
sg66
VNathan Fillion
p151
sasVsymbols
p152
(lp153
sVtrends
p154
(lp155
sVhashtags
p156
(lp157
sVurls
p158
(lp159
(dp160
g75
Vhttps://t.co/leXx0otwwn
p161
sg147
(lp162
I31
aI54
asVexpanded_url
p163
Vhttps://www.youtube.com/watch?v=agNYFfgQbS4&feature=youtu.be
p164
sVdisplay_url
p165
Vyoutube.com/watch?v=agNYFf\u2026
p166
sassVin_reply_to_screen_name
p167
Nsg42
V620517660548300804
p168
sVretweet_count
p169
I0
sVin_reply_to_user_id
p170
NsVfavorited
p171
I00
sVuser
p172
g29
sVgeo
p173
NsVin_reply_to_user_id_str
p174
NsVpossibly_sensitive
p175
I00
sg68
g127
sg76
VMon Jul 13 08:58:33 +0000 2015
p176
sVfilter_level
p177
g122
sVin_reply_to_status_id_str
p178
NsVplace
p179
(dp180
Vfull_name
p181
VBerne, Switzerland
p182
sg75
Vhttps://api.twitter.com/1.1/geo/id/5868d0e0749c9c47.json
p183
sVcountry
p184
VSchweiz
p185
sVplace_type
p186
Vadmin
p187
sVbounding_box
p188
(dp189
Vtype
p190
VPolygon
p191
sg139
(lp192
(lp193
(lp194
F6.861601
aF46.326441
aa(lp195
F6.861601
aF47.34528
aa(lp196
F8.455051
aF47.34528
aa(lp197
F8.455051
aF46.326441
aaassVcountry_code
p198
VCH
p199
sVattributes
p200
(dp201
sg33
V5868d0e0749c9c47
p202
sg66
VBern
p203
sssS'coordinates'
p204
NsS'timestamp_ms'
p205
g141
sS'entities'
p206
g143
sS'in_reply_to_status_id_str'
p207
NsS'in_reply_to_screen_name'
p208
Nsg90
g168
sS'retweeted'
p209
I00
sS'place'
p210
g0
(ctweepy.models
Place
p211
g2
Ntp212
Rp213
(dp214
S'full_name'
p215
g182
sg109
g183
sS'country'
p216
g185
sS'place_type'
p217
g187
sS'bounding_box'
p218
g0
(ctweepy.models
BoundingBox
p219
g2
Ntp220
Rp221
(dp222
S'type'
p223
g191
sg204
g192
sbsS'country_code'
p224
g199
sS'attributes'
p225
g201
sg24
g202
sg103
g203
sbsS'retweet_count'
p226
I0
sg110
g111
(S'\x07\xdf\x07\r\x08:!\x00\x00\x00'
p227
tp228
Rp229
sS'in_reply_to_user_id'
p230
Nsb.