ccopy_reg
_reconstructor
p0
(ctweepy.models
Status
p1
c__builtin__
object
p2
Ntp3
Rp4
(dp5
S'favorited'
p6
I00
sS'contributors'
p7
NsS'truncated'
p8
I00
sS'text'
p9
Vtime lapse from early this morning. @naturevibez http://t.co/esymyH2pvy
p10
sS'source_url'
p11
Vhttp://twitter.com/download/iphone
p12
sS'possibly_sensitive'
p13
I00
sS'in_reply_to_status_id'
p14
NsS'user'
p15
g0
(ctweepy.models
User
p16
g2
Ntp17
Rp18
(dp19
S'follow_request_sent'
p20
NsS'profile_use_background_image'
p21
I01
sS'profile_sidebar_fill_color'
p22
VDDEEF6
p23
sS'id'
p24
I277258316
sS'verified'
p25
I00
sS'profile_image_url_https'
p26
Vhttps://pbs.twimg.com/profile_images/619986869296713728/1HELuazN_normal.jpg
p27
sS'_json'
p28
(dp29
Vfollow_request_sent
p30
NsVprofile_use_background_image
p31
I01
sVdefault_profile_image
p32
I00
sVid
p33
I277258316
sVverified
p34
I00
sVprofile_image_url_https
p35
g27
sVprofile_sidebar_fill_color
p36
g23
sVprofile_text_color
p37
V333333
p38
sVfollowers_count
p39
I368
sVprofile_sidebar_border_color
p40
VC0DEED
p41
sVid_str
p42
V277258316
p43
sVprofile_background_color
p44
VC0DEED
p45
sVlisted_count
p46
I3
sVprofile_background_image_url_https
p47
Vhttps://pbs.twimg.com/profile_background_images/623923988/3r55tem3uclwtm61pyel.jpeg
p48
sVutc_offset
p49
I-14400
sVstatuses_count
p50
I2510
sVdescription
p51
Vdon't wanna be cool
p52
sVfriends_count
p53
I264
sVlocation
p54
V\u2660\ufe0f
p55
sVprofile_link_color
p56
V0084B4
p57
sVprofile_image_url
p58
Vhttp://pbs.twimg.com/profile_images/619986869296713728/1HELuazN_normal.jpg
p59
sVfollowing
p60
NsVgeo_enabled
p61
I01
sVprofile_banner_url
p62
Vhttps://pbs.twimg.com/profile_banners/277258316/1436549205
p63
sVprofile_background_image_url
p64
Vhttp://pbs.twimg.com/profile_background_images/623923988/3r55tem3uclwtm61pyel.jpeg
p65
sVname
p66
VAndrew
p67
sVlang
p68
Ven
p69
sVprofile_background_tile
p70
I01
sVfavourites_count
p71
I3532
sVscreen_name
p72
Vaandrewcummings
p73
sVnotifications
p74
NsVurl
p75
Vhttp://aaandrew.vsco.com
p76
sVcreated_at
p77
VTue Apr 05 00:56:09 +0000 2011
p78
sVcontributors_enabled
p79
I00
sVtime_zone
p80
VEastern Time (US & Canada)
p81
sVprotected
p82
I00
sVdefault_profile
p83
I00
sVis_translator
p84
I00
ssS'contributors_enabled'
p85
I00
sS'profile_text_color'
p86
g38
sS'followers_count'
p87
I368
sS'profile_sidebar_border_color'
p88
g41
sS'location'
p89
g55
sS'default_profile_image'
p90
I00
sS'id_str'
p91
g43
sS'utc_offset'
p92
I-14400
sS'statuses_count'
p93
I2510
sS'description'
p94
g52
sS'friends_count'
p95
I264
sS'profile_link_color'
p96
g57
sS'profile_image_url'
p97
g59
sS'notifications'
p98
NsS'geo_enabled'
p99
I01
sS'profile_background_color'
p100
g45
sS'profile_banner_url'
p101
g63
sS'profile_background_image_url'
p102
g65
sS'name'
p103
g67
sS'lang'
p104
g69
sS'following'
p105
I00
sS'profile_background_tile'
p106
I01
sS'favourites_count'
p107
I3532
sS'screen_name'
p108
g73
sS'url'
p109
g76
sS'created_at'
p110
cdatetime
datetime
p111
(S'\x07\xdb\x04\x05\x008\t\x00\x00\x00'
p112
tp113
Rp114
sS'profile_background_image_url_https'
p115
g48
sS'time_zone'
p116
g81
sS'protected'
p117
I00
sS'default_profile'
p118
I00
sS'is_translator'
p119
I00
sS'listed_count'
p120
I3
sbsS'filter_level'
p121
Vlow
p122
sS'geo'
p123
Nsg24
I620001685549793280
sS'favorite_count'
p124
I0
sS'source'
p125
VTwitter for iPhone
p126
sg104
Ven
p127
sS'author'
p128
g18
sS'in_reply_to_user_id_str'
p129
Nsg28
(dp130
Vcontributors
p131
NsVtruncated
p132
I00
sVtext
p133
g10
sVin_reply_to_status_id
p134
Nsg33
I620001685549793280
sVfavorite_count
p135
I0
sVsource
p136
V<a href="http://twitter.com/download/iphone" rel="nofollow">Twitter for iPhone</a>
p137
sVretweeted
p138
I00
sVcoordinates
p139
NsVtimestamp_ms
p140
V1436654895566
p141
sVentities
p142
(dp143
Vsymbols
p144
(lp145
sVmedia
p146
(lp147
(dp148
Vexpanded_url
p149
Vhttp://twitter.com/aandrewcummings/status/620001685549793280/video/1
p150
sVdisplay_url
p151
Vpic.twitter.com/esymyH2pvy
p152
sg75
Vhttp://t.co/esymyH2pvy
p153
sVmedia_url_https
p154
Vhttps://pbs.twimg.com/ext_tw_video_thumb/620001109814419456/pu/img/RapP5T-XB9Um6phe.jpg
p155
sg42
V620001109814419456
p156
sVsizes
p157
(dp158
Vsmall
p159
(dp160
Vh
p161
I191
sVresize
p162
Vfit
p163
sVw
p164
I340
ssVlarge
p165
(dp166
g161
I576
sg162
Vfit
p167
sg164
I1024
ssVmedium
p168
(dp169
g161
I338
sg162
Vfit
p170
sg164
I600
ssVthumb
p171
(dp172
g161
I150
sg162
Vcrop
p173
sg164
I150
sssVindices
p174
(lp175
I49
aI71
asVtype
p176
Vphoto
p177
sg33
I620001109814419456
sVmedia_url
p178
Vhttp://pbs.twimg.com/ext_tw_video_thumb/620001109814419456/pu/img/RapP5T-XB9Um6phe.jpg
p179
sasVhashtags
p180
(lp181
sVuser_mentions
p182
(lp183
(dp184
g33
I2967068523
sg174
(lp185
I36
aI48
asg42
V2967068523
p186
sg72
Vnaturevibez
p187
sg66
Vn a t u r e
p188
sasVtrends
p189
(lp190
sVurls
p191
(lp192
ssVin_reply_to_screen_name
p193
Nsg42
V620001685549793280
p194
sVretweet_count
p195
I0
sVin_reply_to_user_id
p196
NsVfavorited
p197
I00
sVuser
p198
g29
sVgeo
p199
NsVin_reply_to_user_id_str
p200
NsVpossibly_sensitive
p201
I00
sg68
g127
sg77
VSat Jul 11 22:48:15 +0000 2015
p202
sVfilter_level
p203
g122
sVin_reply_to_status_id_str
p204
NsVplace
p205
(dp206
Vfull_name
p207
VBerne, Switzerland
p208
sg75
Vhttps://api.twitter.com/1.1/geo/id/5868d0e0749c9c47.json
p209
sVcountry
p210
VSchweiz
p211
sVplace_type
p212
Vadmin
p213
sVbounding_box
p214
(dp215
g176
VPolygon
p216
sg139
(lp217
(lp218
(lp219
F6.861601
aF46.326441
aa(lp220
F6.861601
aF47.34528
aa(lp221
F8.455051
aF47.34528
aa(lp222
F8.455051
aF46.326441
aaassVcountry_code
p223
VCH
p224
sVattributes
p225
(dp226
sg33
V5868d0e0749c9c47
p227
sg66
VBern
p228
ssVextended_entities
p229
(dp230
g146
(lp231
(dp232
g149
Vhttp://twitter.com/aandrewcummings/status/620001685549793280/video/1
p233
sg151
Vpic.twitter.com/esymyH2pvy
p234
sg75
Vhttp://t.co/esymyH2pvy
p235
sg154
Vhttps://pbs.twimg.com/ext_tw_video_thumb/620001109814419456/pu/img/RapP5T-XB9Um6phe.jpg
p236
sVvideo_info
p237
(dp238
Vaspect_ratio
p239
(lp240
I16
aI9
asVduration_millis
p241
I20033
sVvariants
p242
(lp243
(dp244
g75
Vhttps://video.twimg.com/ext_tw_video/620001109814419456/pu/vid/640x360/L0oyM-dP_OI7KP2X.mp4
p245
sVbitrate
p246
I832000
sVcontent_type
p247
Vvideo/mp4
p248
sa(dp249
g75
Vhttps://video.twimg.com/ext_tw_video/620001109814419456/pu/pl/0rJ9xpAzna4KeBn2.mpd
p250
sg247
Vapplication/dash+xml
p251
sa(dp252
g75
Vhttps://video.twimg.com/ext_tw_video/620001109814419456/pu/vid/320x180/yl2FSO2-YGho8Pt_.mp4
p253
sg246
I320000
sg247
Vvideo/mp4
p254
sa(dp255
g75
Vhttps://video.twimg.com/ext_tw_video/620001109814419456/pu/pl/0rJ9xpAzna4KeBn2.m3u8
p256
sg247
Vapplication/x-mpegURL
p257
sa(dp258
g75
Vhttps://video.twimg.com/ext_tw_video/620001109814419456/pu/vid/640x360/L0oyM-dP_OI7KP2X.webm
p259
sg246
I832000
sg247
Vvideo/webm
p260
sa(dp261
g75
Vhttps://video.twimg.com/ext_tw_video/620001109814419456/pu/vid/1280x720/DYFMT-vK8ClpxQtQ.mp4
p262
sg246
I2176000
sg247
Vvideo/mp4
p263
sassg42
V620001109814419456
p264
sg157
(dp265
g159
(dp266
g161
I191
sg162
Vfit
p267
sg164
I340
ssg165
(dp268
g161
I576
sg162
Vfit
p269
sg164
I1024
ssg168
(dp270
g161
I338
sg162
Vfit
p271
sg164
I600
ssg171
(dp272
g161
I150
sg162
Vcrop
p273
sg164
I150
sssg174
(lp274
I49
aI71
asg176
Vvideo
p275
sg33
I620001109814419456
sg178
Vhttp://pbs.twimg.com/ext_tw_video_thumb/620001109814419456/pu/img/RapP5T-XB9Um6phe.jpg
p276
sasssS'coordinates'
p277
NsS'timestamp_ms'
p278
g141
sS'entities'
p279
g143
sS'in_reply_to_status_id_str'
p280
NsS'in_reply_to_screen_name'
p281
Nsg91
g194
sS'extended_entities'
p282
g230
sS'retweeted'
p283
I00
sS'place'
p284
g0
(ctweepy.models
Place
p285
g2
Ntp286
Rp287
(dp288
S'full_name'
p289
g208
sg109
g209
sS'country'
p290
g211
sS'place_type'
p291
g213
sS'bounding_box'
p292
g0
(ctweepy.models
BoundingBox
p293
g2
Ntp294
Rp295
(dp296
S'type'
p297
g216
sg277
g217
sbsS'country_code'
p298
g224
sS'attributes'
p299
g226
sg24
g227
sg103
g228
sbsS'retweet_count'
p300
I0
sg110
g111
(S'\x07\xdf\x07\x0b\x160\x0f\x00\x00\x00'
p301
tp302
Rp303
sS'in_reply_to_user_id'
p304
Nsb.