ccopy_reg
_reconstructor
p0
(ctweepy.models
Status
p1
c__builtin__
object
p2
Ntp3
Rp4
(dp5
S'favorited'
p6
I00
sS'contributors'
p7
NsS'truncated'
p8
I00
sS'text'
p9
VEntirely new design Optical Shop in Zurich SWI\u000a#architecture #interiordesign #ArtDecor #furniture #madeinItaly. http://t.co/SvV6csv3lV
p10
sS'source_url'
p11
Vhttp://twitter.com
p12
sS'possibly_sensitive'
p13
I00
sS'in_reply_to_status_id'
p14
NsS'user'
p15
g0
(ctweepy.models
User
p16
g2
Ntp17
Rp18
(dp19
S'follow_request_sent'
p20
NsS'profile_use_background_image'
p21
I01
sS'profile_sidebar_fill_color'
p22
VDDEEF6
p23
sS'id'
p24
I2735044318
sS'verified'
p25
I00
sS'profile_image_url_https'
p26
Vhttps://pbs.twimg.com/profile_images/496992656300720128/b2OwDJRM_normal.jpeg
p27
sS'_json'
p28
(dp29
Vfollow_request_sent
p30
NsVprofile_use_background_image
p31
I01
sVdefault_profile_image
p32
I00
sVid
p33
I2735044318
sVverified
p34
I00
sVprofile_image_url_https
p35
g27
sVprofile_sidebar_fill_color
p36
g23
sVprofile_text_color
p37
V333333
p38
sVfollowers_count
p39
I672
sVprofile_sidebar_border_color
p40
VC0DEED
p41
sVid_str
p42
V2735044318
p43
sVprofile_background_color
p44
VC0DEED
p45
sVlisted_count
p46
I16
sVprofile_background_image_url_https
p47
Vhttps://abs.twimg.com/images/themes/theme1/bg.png
p48
sVutc_offset
p49
I7200
sVstatuses_count
p50
I226
sVdescription
p51
VArchitecture | Interior Design| Art & Decor | Furniture. Public and Private Work. \u000aAlso on Facebook. \u000aEmail: info@studiolanoce.it
p52
sVfriends_count
p53
I192
sVlocation
p54
VArchitect
p55
sVprofile_link_color
p56
V0084B4
p57
sVprofile_image_url
p58
Vhttp://pbs.twimg.com/profile_images/496992656300720128/b2OwDJRM_normal.jpeg
p59
sVfollowing
p60
NsVgeo_enabled
p61
I01
sVprofile_banner_url
p62
Vhttps://pbs.twimg.com/profile_banners/2735044318/1423846911
p63
sVprofile_background_image_url
p64
Vhttp://abs.twimg.com/images/themes/theme1/bg.png
p65
sVname
p66
VStudio la Noce
p67
sVlang
p68
Vit
p69
sVprofile_background_tile
p70
I00
sVfavourites_count
p71
I81
sVscreen_name
p72
VStudioNoce
p73
sVnotifications
p74
NsVurl
p75
Vhttp://studiolanoce.it
p76
sVcreated_at
p77
VWed Aug 06 12:09:10 +0000 2014
p78
sVcontributors_enabled
p79
I00
sVtime_zone
p80
VLjubljana
p81
sVprotected
p82
I00
sVdefault_profile
p83
I01
sVis_translator
p84
I00
ssS'contributors_enabled'
p85
I00
sS'profile_text_color'
p86
g38
sS'followers_count'
p87
I672
sS'profile_sidebar_border_color'
p88
g41
sS'location'
p89
g55
sS'default_profile_image'
p90
I00
sS'id_str'
p91
g43
sS'utc_offset'
p92
I7200
sS'statuses_count'
p93
I226
sS'description'
p94
VArchitecture | Interior Design| Art & Decor | Furniture. Public and Private Work. \u000aAlso on Facebook. \u000aEmail: info@studiolanoce.it
p95
sS'friends_count'
p96
I192
sS'profile_link_color'
p97
g57
sS'profile_image_url'
p98
g59
sS'notifications'
p99
NsS'geo_enabled'
p100
I01
sS'profile_background_color'
p101
g45
sS'profile_banner_url'
p102
g63
sS'profile_background_image_url'
p103
g65
sS'name'
p104
g67
sS'lang'
p105
g69
sS'following'
p106
I00
sS'profile_background_tile'
p107
I00
sS'favourites_count'
p108
I81
sS'screen_name'
p109
g73
sS'url'
p110
g76
sS'created_at'
p111
cdatetime
datetime
p112
(S'\x07\xde\x08\x06\x0c\t\n\x00\x00\x00'
p113
tp114
Rp115
sS'profile_background_image_url_https'
p116
g48
sS'time_zone'
p117
g81
sS'protected'
p118
I00
sS'default_profile'
p119
I01
sS'is_translator'
p120
I00
sS'listed_count'
p121
I16
sbsS'filter_level'
p122
Vlow
p123
sS'geo'
p124
Nsg24
I620884579101052928
sS'favorite_count'
p125
I0
sS'source'
p126
VTwitter Web Client
p127
sg105
Ven
p128
sS'author'
p129
g18
sS'in_reply_to_user_id_str'
p130
Nsg28
(dp131
Vcontributors
p132
NsVtruncated
p133
I00
sVtext
p134
VEntirely new design Optical Shop in Zurich SWI\u000a#architecture #interiordesign #ArtDecor #furniture #madeinItaly. http://t.co/SvV6csv3lV
p135
sVin_reply_to_status_id
p136
Nsg33
I620884579101052928
sVfavorite_count
p137
I0
sVsource
p138
V<a href="http://twitter.com" rel="nofollow">Twitter Web Client</a>
p139
sVretweeted
p140
I00
sVcoordinates
p141
NsVtimestamp_ms
p142
V1436865393792
p143
sVentities
p144
(dp145
Vsymbols
p146
(lp147
sVmedia
p148
(lp149
(dp150
Vexpanded_url
p151
Vhttp://twitter.com/StudioNoce/status/620884579101052928/photo/1
p152
sVdisplay_url
p153
Vpic.twitter.com/SvV6csv3lV
p154
sg75
Vhttp://t.co/SvV6csv3lV
p155
sVmedia_url_https
p156
Vhttps://pbs.twimg.com/media/CJ3TO6jXAAAYjG_.jpg
p157
sg42
V620884576836190208
p158
sVsizes
p159
(dp160
Vsmall
p161
(dp162
Vh
p163
I431
sVresize
p164
Vfit
p165
sVw
p166
I340
ssVlarge
p167
(dp168
g163
I1300
sg164
Vfit
p169
sg166
I1024
ssVmedium
p170
(dp171
g163
I762
sg164
Vfit
p172
sg166
I600
ssVthumb
p173
(dp174
g163
I150
sg164
Vcrop
p175
sg166
I150
sssVindices
p176
(lp177
I112
aI134
asVtype
p178
Vphoto
p179
sg33
I620884576836190208
sVmedia_url
p180
Vhttp://pbs.twimg.com/media/CJ3TO6jXAAAYjG_.jpg
p181
sasVhashtags
p182
(lp183
(dp184
g176
(lp185
I47
aI60
asg134
Varchitecture
p186
sa(dp187
g176
(lp188
I61
aI76
asg134
Vinteriordesign
p189
sa(dp190
g176
(lp191
I77
aI86
asg134
VArtDecor
p192
sa(dp193
g176
(lp194
I87
aI97
asg134
Vfurniture
p195
sa(dp196
g176
(lp197
I98
aI110
asg134
VmadeinItaly
p198
sasVuser_mentions
p199
(lp200
sVtrends
p201
(lp202
sVurls
p203
(lp204
ssVin_reply_to_screen_name
p205
Nsg42
V620884579101052928
p206
sVretweet_count
p207
I0
sVin_reply_to_user_id
p208
NsVfavorited
p209
I00
sVuser
p210
g29
sVgeo
p211
NsVin_reply_to_user_id_str
p212
NsVpossibly_sensitive
p213
I00
sg68
g128
sg77
VTue Jul 14 09:16:33 +0000 2015
p214
sVfilter_level
p215
g123
sVin_reply_to_status_id_str
p216
NsVplace
p217
(dp218
Vfull_name
p219
VZurigo, Svizzera
p220
sg75
Vhttps://api.twitter.com/1.1/geo/id/3acb748d0f1e9265.json
p221
sVcountry
p222
VSchweiz
p223
sVplace_type
p224
Vcity
p225
sVbounding_box
p226
(dp227
g178
VPolygon
p228
sg141
(lp229
(lp230
(lp231
F8.448081
aF47.320183
aa(lp232
F8.448081
aF47.434721
aa(lp233
F8.625442
aF47.434721
aa(lp234
F8.625442
aF47.320183
aaassVcountry_code
p235
VCH
p236
sVattributes
p237
(dp238
sg33
V3acb748d0f1e9265
p239
sg66
VZurigo
p240
ssVextended_entities
p241
(dp242
g148
(lp243
(dp244
g151
Vhttp://twitter.com/StudioNoce/status/620884579101052928/photo/1
p245
sg153
Vpic.twitter.com/SvV6csv3lV
p246
sg75
Vhttp://t.co/SvV6csv3lV
p247
sg156
Vhttps://pbs.twimg.com/media/CJ3TO6jXAAAYjG_.jpg
p248
sg42
V620884576836190208
p249
sg159
(dp250
g161
(dp251
g163
I431
sg164
Vfit
p252
sg166
I340
ssg167
(dp253
g163
I1300
sg164
Vfit
p254
sg166
I1024
ssg170
(dp255
g163
I762
sg164
Vfit
p256
sg166
I600
ssg173
(dp257
g163
I150
sg164
Vcrop
p258
sg166
I150
sssg176
(lp259
I112
aI134
asg178
Vphoto
p260
sg33
I620884576836190208
sg180
Vhttp://pbs.twimg.com/media/CJ3TO6jXAAAYjG_.jpg
p261
sasssS'coordinates'
p262
NsS'timestamp_ms'
p263
g143
sS'entities'
p264
g145
sS'in_reply_to_status_id_str'
p265
NsS'in_reply_to_screen_name'
p266
Nsg91
g206
sS'extended_entities'
p267
g242
sS'retweeted'
p268
I00
sS'place'
p269
g0
(ctweepy.models
Place
p270
g2
Ntp271
Rp272
(dp273
S'full_name'
p274
g220
sg110
g221
sS'country'
p275
g223
sS'place_type'
p276
g225
sS'bounding_box'
p277
g0
(ctweepy.models
BoundingBox
p278
g2
Ntp279
Rp280
(dp281
S'type'
p282
g228
sg262
g229
sbsS'country_code'
p283
g236
sS'attributes'
p284
g238
sg24
g239
sg104
g240
sbsS'retweet_count'
p285
I0
sg111
g112
(S'\x07\xdf\x07\x0e\t\x10!\x00\x00\x00'
p286
tp287
Rp288
sS'in_reply_to_user_id'
p289
Nsb.