ccopy_reg
_reconstructor
p0
(ctweepy.models
Status
p1
c__builtin__
object
p2
Ntp3
Rp4
(dp5
S'contributors'
p6
NsS'truncated'
p7
I00
sS'text'
p8
V#ThisIsACoup  https://t.co/owUBVz6uOk
p9
sS'in_reply_to_status_id'
p10
NsS'id'
p11
I620346027221065728
sS'favorite_count'
p12
I0
sS'entities'
p13
(dp14
Vuser_mentions
p15
(lp16
sVsymbols
p17
(lp18
sVtrends
p19
(lp20
sVhashtags
p21
(lp22
(dp23
Vindices
p24
(lp25
I0
aI12
asVtext
p26
VThisIsACoup
p27
sasVurls
p28
(lp29
(dp30
Vurl
p31
Vhttps://t.co/owUBVz6uOk
p32
sg24
(lp33
I14
aI37
asVexpanded_url
p34
Vhttps://twitter.com/nytimeskrugman/status/620332720007323648
p35
sVdisplay_url
p36
Vtwitter.com/nytimeskrugman\u2026
p37
sassS'quoted_status_id'
p38
I620332720007323648
sS'_json'
p39
(dp40
Vcontributors
p41
NsVtruncated
p42
I00
sg26
g9
sVin_reply_to_status_id
p43
NsVid
p44
I620346027221065728
sVfavorite_count
p45
I0
sVsource
p46
V<a href="http://twitter.com/download/iphone" rel="nofollow">Twitter for iPhone</a>
p47
sVquoted_status_id
p48
I620332720007323648
sVretweeted
p49
I00
sVcoordinates
p50
NsVtimestamp_ms
p51
V1436736993018
p52
sVquoted_status
p53
(dp54
g41
Nsg42
I00
sg26
VKilling the European Project http://t.co/YQEdy2MlQE
p55
sg43
Nsg44
I620332720007323648
sg45
I0
sg46
V<a href="http://www.nytimes.com/twitter" rel="nofollow">The New York Times</a>
p56
sg49
I00
sg50
NsVentities
p57
(dp58
g15
(lp59
sg17
(lp60
sg19
(lp61
sg21
(lp62
sg28
(lp63
(dp64
g31
Vhttp://t.co/YQEdy2MlQE
p65
sg24
(lp66
I29
aI51
asg34
Vhttp://nyti.ms/1Cyhydo
p67
sg36
Vnyti.ms/1Cyhydo
p68
sassVin_reply_to_screen_name
p69
NsVid_str
p70
V620332720007323648
p71
sVretweet_count
p72
I0
sVin_reply_to_user_id
p73
NsVfavorited
p74
I00
sVuser
p75
(dp76
Vfollow_request_sent
p77
NsVprofile_use_background_image
p78
I01
sVdefault_profile_image
p79
I00
sg44
I17006157
sVverified
p80
I01
sVprofile_image_url_https
p81
Vhttps://pbs.twimg.com/profile_images/2044852218/NYT_Twitter_Krugman_normal.png
p82
sVprofile_sidebar_fill_color
p83
VDDFFCC
p84
sVprofile_text_color
p85
V333333
p86
sVfollowers_count
p87
I1387899
sVprofile_sidebar_border_color
p88
VBDDCAD
p89
sg70
V17006157
p90
sVprofile_background_color
p91
V9AE4E8
p92
sVlisted_count
p93
I30255
sVprofile_background_image_url_https
p94
Vhttps://pbs.twimg.com/profile_background_images/4431039/twitter_post.png
p95
sVutc_offset
p96
I-14400
sVstatuses_count
p97
I6250
sVdescription
p98
VNobel laureate. Op-Ed columnist, @nytopinion. Author, \u201cThe Return of Depression Economics,\u201d \u201cThe Great Unraveling,\u201d \u201cThe Age of Diminished Expectations\u201d + more.
p99
sVfriends_count
p100
I2
sVlocation
p101
VNew York City
p102
sVprofile_link_color
p103
V0084B4
p104
sVprofile_image_url
p105
Vhttp://pbs.twimg.com/profile_images/2044852218/NYT_Twitter_Krugman_normal.png
p106
sVfollowing
p107
NsVgeo_enabled
p108
I00
sVprofile_background_image_url
p109
Vhttp://pbs.twimg.com/profile_background_images/4431039/twitter_post.png
p110
sVname
p111
VPaul Krugman
p112
sVlang
p113
Ven
p114
sVprofile_background_tile
p115
I01
sVfavourites_count
p116
I7
sVscreen_name
p117
VNYTimeskrugman
p118
sVnotifications
p119
Nsg31
Vhttp://krugman.blogs.nytimes.com/
p120
sVcreated_at
p121
VMon Oct 27 20:17:02 +0000 2008
p122
sVcontributors_enabled
p123
I00
sVtime_zone
p124
VEastern Time (US & Canada)
p125
sVprotected
p126
I00
sVdefault_profile
p127
I00
sVis_translator
p128
I00
ssVgeo
p129
NsVin_reply_to_user_id_str
p130
NsVpossibly_sensitive
p131
I00
sg113
Ven
p132
sg121
VSun Jul 12 20:43:40 +0000 2015
p133
sVfilter_level
p134
Vlow
p135
sVin_reply_to_status_id_str
p136
NsVplace
p137
Nssg57
g14
sg69
Nsg70
V620346027221065728
p138
sg72
I0
sg73
Nsg74
I00
sg75
(dp139
g77
Nsg78
I01
sg79
I00
sg44
I2388609714
sg80
I00
sg81
Vhttps://pbs.twimg.com/profile_images/444375542666493952/LK8Rgm0n_normal.jpeg
p140
sg83
VDDEEF6
p141
sg85
V333333
p142
sg87
I21
sg88
VC0DEED
p143
sg70
V2388609714
p144
sg91
VC0DEED
p145
sg93
I0
sg94
Vhttps://abs.twimg.com/images/themes/theme1/bg.png
p146
sg96
Nsg97
I7
sg98
Nsg100
I63
sg101
V
p147
sg103
V0084B4
p148
sg105
Vhttp://pbs.twimg.com/profile_images/444375542666493952/LK8Rgm0n_normal.jpeg
p149
sg107
Nsg108
I01
sg109
Vhttp://abs.twimg.com/images/themes/theme1/bg.png
p150
sg111
VStavroula Vlachou
p151
sg113
Ven
p152
sg115
I00
sg116
I5
sg117
VStavroulavl24
p153
sg119
Nsg31
Nsg121
VFri Mar 14 07:17:44 +0000 2014
p154
sg123
I00
sg124
Nsg126
I00
sg127
I01
sg128
I00
ssg129
Nsg130
Nsg131
I00
sg113
Vund
p155
sg121
VSun Jul 12 21:36:33 +0000 2015
p156
sVquoted_status_id_str
p157
V620332720007323648
p158
sg134
Vlow
p159
sg136
Nsg137
(dp160
Vfull_name
p161
VZurich, Switzerland
p162
sg31
Vhttps://api.twitter.com/1.1/geo/id/3acb748d0f1e9265.json
p163
sVcountry
p164
VSchweiz
p165
sVplace_type
p166
Vcity
p167
sVbounding_box
p168
(dp169
Vtype
p170
VPolygon
p171
sg50
(lp172
(lp173
(lp174
F8.448081
aF47.320183
aa(lp175
F8.448081
aF47.434721
aa(lp176
F8.625442
aF47.434721
aa(lp177
F8.625442
aF47.320183
aaassVcountry_code
p178
VCH
p179
sVattributes
p180
(dp181
sg44
V3acb748d0f1e9265
p182
sg111
VZurich
p183
sssS'coordinates'
p184
NsS'timestamp_ms'
p185
g52
sS'quoted_status'
p186
g54
sS'source'
p187
VTwitter for iPhone
p188
sS'in_reply_to_screen_name'
p189
NsS'id_str'
p190
g138
sS'retweet_count'
p191
I0
sS'in_reply_to_user_id'
p192
NsS'favorited'
p193
I00
sS'source_url'
p194
Vhttp://twitter.com/download/iphone
p195
sS'user'
p196
g0
(ctweepy.models
User
p197
g2
Ntp198
Rp199
(dp200
S'follow_request_sent'
p201
NsS'profile_use_background_image'
p202
I01
sS'profile_sidebar_fill_color'
p203
g141
sg11
I2388609714
sS'verified'
p204
I00
sS'profile_image_url_https'
p205
g140
sg39
g139
sS'contributors_enabled'
p206
I00
sS'profile_text_color'
p207
g142
sS'followers_count'
p208
I21
sS'profile_sidebar_border_color'
p209
g143
sS'location'
p210
g147
sS'default_profile_image'
p211
I00
sg190
g144
sS'utc_offset'
p212
NsS'statuses_count'
p213
I7
sS'description'
p214
NsS'friends_count'
p215
I63
sS'profile_link_color'
p216
g148
sS'profile_image_url'
p217
g149
sS'notifications'
p218
NsS'geo_enabled'
p219
I01
sS'profile_background_color'
p220
g145
sS'profile_background_image_url'
p221
g150
sS'name'
p222
g151
sS'lang'
p223
g152
sS'following'
p224
I00
sS'profile_background_tile'
p225
I00
sS'favourites_count'
p226
I5
sS'screen_name'
p227
g153
sS'url'
p228
NsS'created_at'
p229
cdatetime
datetime
p230
(S'\x07\xde\x03\x0e\x07\x11,\x00\x00\x00'
p231
tp232
Rp233
sS'profile_background_image_url_https'
p234
g146
sS'time_zone'
p235
NsS'protected'
p236
I00
sS'default_profile'
p237
I01
sS'is_translator'
p238
I00
sS'listed_count'
p239
I0
sbsS'geo'
p240
NsS'in_reply_to_user_id_str'
p241
NsS'possibly_sensitive'
p242
I00
sg223
g155
sg229
g230
(S'\x07\xdf\x07\x0c\x15$!\x00\x00\x00'
p243
tp244
Rp245
sS'author'
p246
g199
sS'quoted_status_id_str'
p247
g158
sS'filter_level'
p248
g159
sS'in_reply_to_status_id_str'
p249
NsS'place'
p250
g0
(ctweepy.models
Place
p251
g2
Ntp252
Rp253
(dp254
S'full_name'
p255
g162
sg228
g163
sS'country'
p256
g165
sS'place_type'
p257
g167
sS'bounding_box'
p258
g0
(ctweepy.models
BoundingBox
p259
g2
Ntp260
Rp261
(dp262
S'type'
p263
g171
sg184
g172
sbsS'country_code'
p264
g179
sS'attributes'
p265
g181
sg11
g182
sg222
g183
sbsS'retweeted'
p266
I00
sb.