ccopy_reg
_reconstructor
p0
(ctweepy.models
Status
p1
c__builtin__
object
p2
Ntp3
Rp4
(dp5
S'favorited'
p6
I00
sS'contributors'
p7
NsS'truncated'
p8
I00
sS'text'
p9
V@h0ers @mirahwood @JulietteIsabell @SenSanders \u000aBERNIEEEEEEEEEEEEEEEE HAHAHAHAHAHAHAHA NEXT @SenWarren OKLAHONTAS\u000ahttp://t.co/vVS6IlYTkj
p10
sS'source_url'
p11
Vhttp://twitter.com
p12
sS'possibly_sensitive'
p13
I00
sS'in_reply_to_status_id'
p14
I620063519220731905
sS'user'
p15
g0
(ctweepy.models
User
p16
g2
Ntp17
Rp18
(dp19
S'follow_request_sent'
p20
NsS'profile_use_background_image'
p21
I00
sS'profile_sidebar_fill_color'
p22
V000000
p23
sS'id'
p24
I2879569993
sS'verified'
p25
I00
sS'profile_image_url_https'
p26
Vhttps://pbs.twimg.com/profile_images/610874208827146241/voSDsKk8_normal.png
p27
sS'_json'
p28
(dp29
Vfollow_request_sent
p30
NsVprofile_use_background_image
p31
I00
sVdefault_profile_image
p32
I00
sVid
p33
I2879569993
sVverified
p34
I00
sVprofile_image_url_https
p35
g27
sVprofile_sidebar_fill_color
p36
g23
sVprofile_text_color
p37
V000000
p38
sVfollowers_count
p39
I252
sVprofile_sidebar_border_color
p40
V000000
p41
sVid_str
p42
V2879569993
p43
sVprofile_background_color
p44
V000000
p45
sVlisted_count
p46
I3
sVprofile_background_image_url_https
p47
Vhttps://abs.twimg.com/images/themes/theme14/bg.gif
p48
sVutc_offset
p49
NsVstatuses_count
p50
I1308
sVdescription
p51
VNEVER COULD HIDE WHO I AM. \u000a.http://ish.re/JJRT -not me.
p52
sVfriends_count
p53
I277
sVlocation
p54
VRepublic of Mozambique
p55
sVprofile_link_color
p56
VDD2E44
p57
sVprofile_image_url
p58
Vhttp://pbs.twimg.com/profile_images/610874208827146241/voSDsKk8_normal.png
p59
sVfollowing
p60
NsVgeo_enabled
p61
I01
sVprofile_banner_url
p62
Vhttps://pbs.twimg.com/profile_banners/2879569993/1434478513
p63
sVprofile_background_image_url
p64
Vhttp://abs.twimg.com/images/themes/theme14/bg.gif
p65
sVname
p66
VD\u2200MN\u2200L\u308bX 
p67
sVlang
p68
Ven
p69
sVprofile_background_tile
p70
I00
sVfavourites_count
p71
I29
sVscreen_name
p72
VDd0xblack1
p73
sVnotifications
p74
NsVurl
p75
NsVcreated_at
p76
VMon Oct 27 13:04:37 +0000 2014
p77
sVcontributors_enabled
p78
I00
sVtime_zone
p79
NsVprotected
p80
I00
sVdefault_profile
p81
I00
sVis_translator
p82
I00
ssS'contributors_enabled'
p83
I00
sS'profile_text_color'
p84
g38
sS'followers_count'
p85
I252
sS'profile_sidebar_border_color'
p86
g41
sS'location'
p87
g55
sS'default_profile_image'
p88
I00
sS'id_str'
p89
g43
sS'utc_offset'
p90
NsS'statuses_count'
p91
I1308
sS'description'
p92
VNEVER COULD HIDE WHO I AM. \u000a.http://ish.re/JJRT -not me.
p93
sS'friends_count'
p94
I277
sS'profile_link_color'
p95
g57
sS'profile_image_url'
p96
g59
sS'notifications'
p97
NsS'geo_enabled'
p98
I01
sS'profile_background_color'
p99
g45
sS'profile_banner_url'
p100
g63
sS'profile_background_image_url'
p101
g65
sS'name'
p102
g67
sS'lang'
p103
g69
sS'following'
p104
I00
sS'profile_background_tile'
p105
I00
sS'favourites_count'
p106
I29
sS'screen_name'
p107
g73
sS'url'
p108
NsS'created_at'
p109
cdatetime
datetime
p110
(S'\x07\xde\n\x1b\r\x04%\x00\x00\x00'
p111
tp112
Rp113
sS'profile_background_image_url_https'
p114
g48
sS'time_zone'
p115
NsS'protected'
p116
I00
sS'default_profile'
p117
I00
sS'is_translator'
p118
I00
sS'listed_count'
p119
I3
sbsS'filter_level'
p120
Vlow
p121
sS'geo'
p122
Nsg24
I620064531809763328
sS'favorite_count'
p123
I0
sS'source'
p124
VTwitter Web Client
p125
sg103
Vtl
p126
sS'author'
p127
g18
sS'in_reply_to_user_id_str'
p128
V3192567474
p129
sg28
(dp130
Vcontributors
p131
NsVtruncated
p132
I00
sVtext
p133
V@h0ers @mirahwood @JulietteIsabell @SenSanders \u000aBERNIEEEEEEEEEEEEEEEE HAHAHAHAHAHAHAHA NEXT @SenWarren OKLAHONTAS\u000ahttp://t.co/vVS6IlYTkj
p134
sVin_reply_to_status_id
p135
I620063519220731905
sg33
I620064531809763328
sVfavorite_count
p136
I0
sVsource
p137
V<a href="http://twitter.com" rel="nofollow">Twitter Web Client</a>
p138
sVretweeted
p139
I00
sVcoordinates
p140
NsVtimestamp_ms
p141
V1436669879282
p142
sVentities
p143
(dp144
Vsymbols
p145
(lp146
sVmedia
p147
(lp148
(dp149
Vsource_status_id_str
p150
V618993260770500609
p151
sVexpanded_url
p152
Vhttp://twitter.com/fame_hoe/status/618993260770500609/photo/1
p153
sVdisplay_url
p154
Vpic.twitter.com/vVS6IlYTkj
p155
sg75
Vhttp://t.co/vVS6IlYTkj
p156
sVmedia_url_https
p157
Vhttps://pbs.twimg.com/tweet_video_thumb/CJcbFxvVEAEwsCm.png
p158
sVsource_status_id
p159
I618993260770500609
sg42
V618993259851878401
p160
sVsizes
p161
(dp162
Vlarge
p163
(dp164
Vh
p165
I400
sVresize
p166
Vfit
p167
sVw
p168
I600
ssVsmall
p169
(dp170
g165
I226
sg166
Vfit
p171
sg168
I340
ssVmedium
p172
(dp173
g165
I400
sg166
Vfit
p174
sg168
I600
ssVthumb
p175
(dp176
g165
I150
sg166
Vcrop
p177
sg168
I150
sssVindices
p178
(lp179
I114
aI136
asVtype
p180
Vphoto
p181
sg33
I618993259851878401
sVmedia_url
p182
Vhttp://pbs.twimg.com/tweet_video_thumb/CJcbFxvVEAEwsCm.png
p183
sasVhashtags
p184
(lp185
sVuser_mentions
p186
(lp187
(dp188
g33
I3192567474
sg178
(lp189
I0
aI6
asg42
V3192567474
p190
sg72
Vh0ers
p191
sg66
Vendiapered hoers
p192
sa(dp193
g33
I48278272
sg178
(lp194
I7
aI17
asg42
V48278272
p195
sg72
Vmirahwood
p196
sg66
VMirah Atabaki
p197
sa(dp198
g33
I457448375
sg178
(lp199
I18
aI34
asg42
V457448375
p200
sg72
VJulietteIsabell
p201
sg66
VJuliette Isabella
p202
sa(dp203
g33
I29442313
sg178
(lp204
I35
aI46
asg42
V29442313
p205
sg72
VSenSanders
p206
sg66
VBernie Sanders
p207
sa(dp208
g33
I970207298
sg178
(lp209
I92
aI102
asg42
V970207298
p210
sg72
VSenWarren
p211
sg66
VElizabeth Warren
p212
sasVtrends
p213
(lp214
sVurls
p215
(lp216
ssVin_reply_to_screen_name
p217
Vh0ers
p218
sg42
V620064531809763328
p219
sVretweet_count
p220
I0
sVin_reply_to_user_id
p221
I3192567474
sVfavorited
p222
I00
sVuser
p223
g29
sVgeo
p224
NsVin_reply_to_user_id_str
p225
g129
sVpossibly_sensitive
p226
I00
sg68
g126
sg76
VSun Jul 12 02:57:59 +0000 2015
p227
sVfilter_level
p228
g121
sVin_reply_to_status_id_str
p229
V620063519220731905
p230
sVplace
p231
(dp232
Vfull_name
p233
VBerne, Switzerland
p234
sg75
Vhttps://api.twitter.com/1.1/geo/id/5868d0e0749c9c47.json
p235
sVcountry
p236
VSchweiz
p237
sVplace_type
p238
Vadmin
p239
sVbounding_box
p240
(dp241
g180
VPolygon
p242
sg140
(lp243
(lp244
(lp245
F6.861601
aF46.326441
aa(lp246
F6.861601
aF47.34528
aa(lp247
F8.455051
aF47.34528
aa(lp248
F8.455051
aF46.326441
aaassVcountry_code
p249
VCH
p250
sVattributes
p251
(dp252
sg33
V5868d0e0749c9c47
p253
sg66
VBern
p254
ssVextended_entities
p255
(dp256
g147
(lp257
(dp258
g150
V618993260770500609
p259
sg152
Vhttp://twitter.com/fame_hoe/status/618993260770500609/photo/1
p260
sg154
Vpic.twitter.com/vVS6IlYTkj
p261
sg75
Vhttp://t.co/vVS6IlYTkj
p262
sg157
Vhttps://pbs.twimg.com/tweet_video_thumb/CJcbFxvVEAEwsCm.png
p263
sg159
I618993260770500609
sVvideo_info
p264
(dp265
Vaspect_ratio
p266
(lp267
I3
aI2
asVvariants
p268
(lp269
(dp270
g75
Vhttps://pbs.twimg.com/tweet_video/CJcbFxvVEAEwsCm.mp4
p271
sVbitrate
p272
I0
sVcontent_type
p273
Vvideo/mp4
p274
sassg42
V618993259851878401
p275
sg161
(dp276
g163
(dp277
g165
I400
sg166
Vfit
p278
sg168
I600
ssg169
(dp279
g165
I226
sg166
Vfit
p280
sg168
I340
ssg172
(dp281
g165
I400
sg166
Vfit
p282
sg168
I600
ssg175
(dp283
g165
I150
sg166
Vcrop
p284
sg168
I150
sssg178
(lp285
I114
aI136
asg180
Vanimated_gif
p286
sg33
I618993259851878401
sg182
Vhttp://pbs.twimg.com/tweet_video_thumb/CJcbFxvVEAEwsCm.png
p287
sasssS'coordinates'
p288
NsS'timestamp_ms'
p289
g142
sS'entities'
p290
g144
sS'in_reply_to_status_id_str'
p291
g230
sS'in_reply_to_screen_name'
p292
g218
sg89
g219
sS'extended_entities'
p293
g256
sS'retweeted'
p294
I00
sS'place'
p295
g0
(ctweepy.models
Place
p296
g2
Ntp297
Rp298
(dp299
S'full_name'
p300
g234
sg108
g235
sS'country'
p301
g237
sS'place_type'
p302
g239
sS'bounding_box'
p303
g0
(ctweepy.models
BoundingBox
p304
g2
Ntp305
Rp306
(dp307
S'type'
p308
g242
sg288
g243
sbsS'country_code'
p309
g250
sS'attributes'
p310
g252
sg24
g253
sg102
g254
sbsS'retweet_count'
p311
I0
sg109
g110
(S'\x07\xdf\x07\x0c\x029;\x00\x00\x00'
p312
tp313
Rp314
sS'in_reply_to_user_id'
p315
I3192567474
sb.