ccopy_reg
_reconstructor
p0
(ctweepy.models
Status
p1
c__builtin__
object
p2
Ntp3
Rp4
(dp5
S'favorited'
p6
I00
sS'contributors'
p7
NsS'truncated'
p8
I00
sS'text'
p9
VWenn schon #Swissmade und #healthy, warum nicht gleich auch #bio und lokal statt importiert? ;-)  @ValoraGroup @kkiosk @SlowFoodCH
p10
sS'source_url'
p11
Vhttp://twitter.com
p12
sS'possibly_sensitive'
p13
I00
sS'in_reply_to_status_id'
p14
NsS'user'
p15
g0
(ctweepy.models
User
p16
g2
Ntp17
Rp18
(dp19
S'follow_request_sent'
p20
NsS'profile_use_background_image'
p21
I01
sS'profile_sidebar_fill_color'
p22
VDDEEF6
p23
sS'id'
p24
I533460538
sS'verified'
p25
I00
sS'profile_image_url_https'
p26
Vhttps://pbs.twimg.com/profile_images/529600486400200705/YIBqYDDI_normal.jpeg
p27
sS'_json'
p28
(dp29
Vfollow_request_sent
p30
NsVprofile_use_background_image
p31
I01
sVdefault_profile_image
p32
I00
sVid
p33
I533460538
sVverified
p34
I00
sVprofile_image_url_https
p35
g27
sVprofile_sidebar_fill_color
p36
g23
sVprofile_text_color
p37
V333333
p38
sVfollowers_count
p39
I72
sVprofile_sidebar_border_color
p40
VFFFFFF
p41
sVid_str
p42
V533460538
p43
sVprofile_background_color
p44
VC0DEED
p45
sVlisted_count
p46
I3
sVprofile_background_image_url_https
p47
Vhttps://pbs.twimg.com/profile_background_images/838958322/462c259ef8fafcbbc68fa9d31f82ea3e.jpeg
p48
sVutc_offset
p49
I10800
sVstatuses_count
p50
I91
sVdescription
p51
VReal Food re-invented from The Yogi's ancient secrets!  Always produced by The Yogi whilst meditating on one toe.  Fact.
p52
sVfriends_count
p53
I231
sVlocation
p54
VSecret Alpine Cave
p55
sVprofile_link_color
p56
V0084B4
p57
sVprofile_image_url
p58
Vhttp://pbs.twimg.com/profile_images/529600486400200705/YIBqYDDI_normal.jpeg
p59
sVfollowing
p60
NsVgeo_enabled
p61
I01
sVprofile_banner_url
p62
Vhttps://pbs.twimg.com/profile_banners/533460538/1415101552
p63
sVprofile_background_image_url
p64
Vhttp://pbs.twimg.com/profile_background_images/838958322/462c259ef8fafcbbc68fa9d31f82ea3e.jpeg
p65
sVname
p66
VRhythm108
p67
sVlang
p68
Ven
p69
sVprofile_background_tile
p70
I01
sVfavourites_count
p71
I6
sVscreen_name
p72
VRhythm108
p73
sVnotifications
p74
NsVurl
p75
Vhttp://www.rhythm108.com
p76
sVcreated_at
p77
VThu Mar 22 20:16:29 +0000 2012
p78
sVcontributors_enabled
p79
I00
sVtime_zone
p80
VAthens
p81
sVprotected
p82
I00
sVdefault_profile
p83
I00
sVis_translator
p84
I00
ssS'contributors_enabled'
p85
I00
sS'profile_text_color'
p86
g38
sS'followers_count'
p87
I72
sS'profile_sidebar_border_color'
p88
g41
sS'location'
p89
g55
sS'default_profile_image'
p90
I00
sS'id_str'
p91
g43
sS'utc_offset'
p92
I10800
sS'statuses_count'
p93
I91
sS'description'
p94
g52
sS'friends_count'
p95
I231
sS'profile_link_color'
p96
g57
sS'profile_image_url'
p97
g59
sS'notifications'
p98
NsS'geo_enabled'
p99
I01
sS'profile_background_color'
p100
g45
sS'profile_banner_url'
p101
g63
sS'profile_background_image_url'
p102
g65
sS'name'
p103
g67
sS'lang'
p104
g69
sS'following'
p105
I00
sS'profile_background_tile'
p106
I01
sS'favourites_count'
p107
I6
sS'screen_name'
p108
g73
sS'url'
p109
g76
sS'created_at'
p110
cdatetime
datetime
p111
(S'\x07\xdc\x03\x16\x14\x10\x1d\x00\x00\x00'
p112
tp113
Rp114
sS'profile_background_image_url_https'
p115
g48
sS'time_zone'
p116
g81
sS'protected'
p117
I00
sS'default_profile'
p118
I00
sS'is_translator'
p119
I00
sS'listed_count'
p120
I3
sbsS'filter_level'
p121
Vlow
p122
sS'geo'
p123
Nsg24
I620888176501129216
sS'favorite_count'
p124
I0
sS'source'
p125
VTwitter Web Client
p126
sg104
Vde
p127
sS'author'
p128
g18
sS'in_reply_to_user_id_str'
p129
Nsg28
(dp130
Vcontributors
p131
NsVtruncated
p132
I00
sVtext
p133
g10
sVin_reply_to_status_id
p134
Nsg33
I620888176501129216
sVfavorite_count
p135
I0
sVsource
p136
V<a href="http://twitter.com" rel="nofollow">Twitter Web Client</a>
p137
sVretweeted
p138
I00
sVcoordinates
p139
NsVtimestamp_ms
p140
V1436866251479
p141
sVentities
p142
(dp143
Vuser_mentions
p144
(lp145
(dp146
g33
I856409228
sVindices
p147
(lp148
I98
aI110
asg42
V856409228
p149
sg72
VValoraGroup
p150
sg66
VValora Group
p151
sa(dp152
g33
I243207702
sg147
(lp153
I111
aI118
asg42
V243207702
p154
sg72
Vkkiosk
p155
sg66
Vkkiosk Customer Care
p156
sa(dp157
g33
I324845357
sg147
(lp158
I119
aI130
asg42
V324845357
p159
sg72
VSlowFoodCH
p160
sg66
VSlow Food CH
p161
sasVsymbols
p162
(lp163
sVtrends
p164
(lp165
sVhashtags
p166
(lp167
(dp168
g147
(lp169
I11
aI21
asg133
VSwissmade
p170
sa(dp171
g147
(lp172
I26
aI34
asg133
Vhealthy
p173
sa(dp174
g147
(lp175
I60
aI64
asg133
Vbio
p176
sasVurls
p177
(lp178
ssVin_reply_to_screen_name
p179
Nsg42
V620888176501129216
p180
sVretweet_count
p181
I0
sVin_reply_to_user_id
p182
NsVfavorited
p183
I00
sVuser
p184
g29
sVgeo
p185
NsVin_reply_to_user_id_str
p186
NsVpossibly_sensitive
p187
I00
sg68
g127
sg77
VTue Jul 14 09:30:51 +0000 2015
p188
sVfilter_level
p189
g122
sVin_reply_to_status_id_str
p190
NsVplace
p191
(dp192
Vfull_name
p193
VZurich, Switzerland
p194
sg75
Vhttps://api.twitter.com/1.1/geo/id/3acb748d0f1e9265.json
p195
sVcountry
p196
VSchweiz
p197
sVplace_type
p198
Vcity
p199
sVbounding_box
p200
(dp201
Vtype
p202
VPolygon
p203
sg139
(lp204
(lp205
(lp206
F8.448081
aF47.320183
aa(lp207
F8.448081
aF47.434721
aa(lp208
F8.625442
aF47.434721
aa(lp209
F8.625442
aF47.320183
aaassVcountry_code
p210
VCH
p211
sVattributes
p212
(dp213
sg33
V3acb748d0f1e9265
p214
sg66
VZurich
p215
sssS'coordinates'
p216
NsS'timestamp_ms'
p217
g141
sS'entities'
p218
g143
sS'in_reply_to_status_id_str'
p219
NsS'in_reply_to_screen_name'
p220
Nsg91
g180
sS'retweeted'
p221
I00
sS'place'
p222
g0
(ctweepy.models
Place
p223
g2
Ntp224
Rp225
(dp226
S'full_name'
p227
g194
sg109
g195
sS'country'
p228
g197
sS'place_type'
p229
g199
sS'bounding_box'
p230
g0
(ctweepy.models
BoundingBox
p231
g2
Ntp232
Rp233
(dp234
S'type'
p235
g203
sg216
g204
sbsS'country_code'
p236
g211
sS'attributes'
p237
g213
sg24
g214
sg103
g215
sbsS'retweet_count'
p238
I0
sg110
g111
(S'\x07\xdf\x07\x0e\t\x1e3\x00\x00\x00'
p239
tp240
Rp241
sS'in_reply_to_user_id'
p242
Nsb.