ccopy_reg
_reconstructor
p0
(ctweepy.models
Status
p1
c__builtin__
object
p2
Ntp3
Rp4
(dp5
S'favorited'
p6
I00
sS'contributors'
p7
NsS'truncated'
p8
I00
sS'text'
p9
V@indosatcare di zona 2 tarif roaming ada 169rb/hr  target all operator, apakah maksudnya network di set automatic saja / bukan manual? trims
p10
sS'source_url'
p11
Vhttp://twitter.com
p12
sS'possibly_sensitive'
p13
I00
sS'in_reply_to_status_id'
p14
NsS'user'
p15
g0
(ctweepy.models
User
p16
g2
Ntp17
Rp18
(dp19
S'follow_request_sent'
p20
NsS'profile_use_background_image'
p21
I01
sS'profile_sidebar_fill_color'
p22
V252429
p23
sS'id'
p24
I36112927
sS'verified'
p25
I00
sS'profile_image_url_https'
p26
Vhttps://pbs.twimg.com/profile_images/2437424883/image_normal.jpg
p27
sS'_json'
p28
(dp29
Vfollow_request_sent
p30
NsVprofile_use_background_image
p31
I01
sVdefault_profile_image
p32
I00
sVid
p33
I36112927
sVverified
p34
I00
sVprofile_image_url_https
p35
g27
sVprofile_sidebar_fill_color
p36
g23
sVprofile_text_color
p37
V666666
p38
sVfollowers_count
p39
I511
sVprofile_sidebar_border_color
p40
VFFFFFF
p41
sVid_str
p42
V36112927
p43
sVprofile_background_color
p44
V1A1B1F
p45
sVlisted_count
p46
I11
sVprofile_background_image_url_https
p47
Vhttps://pbs.twimg.com/profile_background_images/756012043/65811d2a9ee39c3b081620a810a81776.jpeg
p48
sVutc_offset
p49
I25200
sVstatuses_count
p50
I3205
sVdescription
p51
NsVfriends_count
p52
I287
sVlocation
p53
Vsomewhere
p54
sVprofile_link_color
p55
V2FC2EF
p56
sVprofile_image_url
p57
Vhttp://pbs.twimg.com/profile_images/2437424883/image_normal.jpg
p58
sVfollowing
p59
NsVgeo_enabled
p60
I01
sVprofile_banner_url
p61
Vhttps://pbs.twimg.com/profile_banners/36112927/1408269012
p62
sVprofile_background_image_url
p63
Vhttp://pbs.twimg.com/profile_background_images/756012043/65811d2a9ee39c3b081620a810a81776.jpeg
p64
sVname
p65
Vroy ps
p66
sVlang
p67
Ven
p68
sVprofile_background_tile
p69
I00
sVfavourites_count
p70
I4
sVscreen_name
p71
Vroy679
p72
sVnotifications
p73
NsVurl
p74
NsVcreated_at
p75
VTue Apr 28 16:42:14 +0000 2009
p76
sVcontributors_enabled
p77
I00
sVtime_zone
p78
VJakarta
p79
sVprotected
p80
I00
sVdefault_profile
p81
I00
sVis_translator
p82
I00
ssS'contributors_enabled'
p83
I00
sS'profile_text_color'
p84
g38
sS'followers_count'
p85
I511
sS'profile_sidebar_border_color'
p86
g41
sS'location'
p87
g54
sS'default_profile_image'
p88
I00
sS'id_str'
p89
g43
sS'utc_offset'
p90
I25200
sS'statuses_count'
p91
I3205
sS'description'
p92
NsS'friends_count'
p93
I287
sS'profile_link_color'
p94
g56
sS'profile_image_url'
p95
g58
sS'notifications'
p96
NsS'geo_enabled'
p97
I01
sS'profile_background_color'
p98
g45
sS'profile_banner_url'
p99
g62
sS'profile_background_image_url'
p100
g64
sS'name'
p101
g66
sS'lang'
p102
g68
sS'following'
p103
I00
sS'profile_background_tile'
p104
I00
sS'favourites_count'
p105
I4
sS'screen_name'
p106
g72
sS'url'
p107
NsS'created_at'
p108
cdatetime
datetime
p109
(S'\x07\xd9\x04\x1c\x10*\x0e\x00\x00\x00'
p110
tp111
Rp112
sS'profile_background_image_url_https'
p113
g48
sS'time_zone'
p114
g79
sS'protected'
p115
I00
sS'default_profile'
p116
I00
sS'is_translator'
p117
I00
sS'listed_count'
p118
I11
sbsS'filter_level'
p119
Vlow
p120
sS'geo'
p121
Nsg24
I619721978354733056
sS'favorite_count'
p122
I0
sS'source'
p123
VTwitter Web Client
p124
sg102
Vin
p125
sS'author'
p126
g18
sS'in_reply_to_user_id_str'
p127
V548904824
p128
sg28
(dp129
Vcontributors
p130
NsVtruncated
p131
I00
sVtext
p132
g10
sVin_reply_to_status_id
p133
Nsg33
I619721978354733056
sVfavorite_count
p134
I0
sVsource
p135
V<a href="http://twitter.com" rel="nofollow">Twitter Web Client</a>
p136
sVretweeted
p137
I00
sVcoordinates
p138
NsVtimestamp_ms
p139
V1436588208174
p140
sVentities
p141
(dp142
Vuser_mentions
p143
(lp144
(dp145
g33
I548904824
sVindices
p146
(lp147
I0
aI12
asg42
V548904824
p148
sg71
Vindosatcare
p149
sg65
VIndosat CustomerCare
p150
sasVsymbols
p151
(lp152
sVtrends
p153
(lp154
sVhashtags
p155
(lp156
sVurls
p157
(lp158
ssVin_reply_to_screen_name
p159
Vindosatcare
p160
sg42
V619721978354733056
p161
sVretweet_count
p162
I0
sVin_reply_to_user_id
p163
I548904824
sVfavorited
p164
I00
sVuser
p165
g29
sVgeo
p166
NsVin_reply_to_user_id_str
p167
g128
sVpossibly_sensitive
p168
I00
sg67
g125
sg75
VSat Jul 11 04:16:48 +0000 2015
p169
sVfilter_level
p170
g120
sVin_reply_to_status_id_str
p171
NsVplace
p172
(dp173
Vfull_name
p174
VZurich, Switzerland
p175
sg74
Vhttps://api.twitter.com/1.1/geo/id/3acb748d0f1e9265.json
p176
sVcountry
p177
VSchweiz
p178
sVplace_type
p179
Vcity
p180
sVbounding_box
p181
(dp182
Vtype
p183
VPolygon
p184
sg138
(lp185
(lp186
(lp187
F8.448081
aF47.320183
aa(lp188
F8.448081
aF47.434721
aa(lp189
F8.625442
aF47.434721
aa(lp190
F8.625442
aF47.320183
aaassVcountry_code
p191
VCH
p192
sVattributes
p193
(dp194
sg33
V3acb748d0f1e9265
p195
sg65
VZurich
p196
sssS'coordinates'
p197
NsS'timestamp_ms'
p198
g140
sS'entities'
p199
g142
sS'in_reply_to_status_id_str'
p200
NsS'in_reply_to_screen_name'
p201
g160
sg89
g161
sS'retweeted'
p202
I00
sS'place'
p203
g0
(ctweepy.models
Place
p204
g2
Ntp205
Rp206
(dp207
S'full_name'
p208
g175
sg107
g176
sS'country'
p209
g178
sS'place_type'
p210
g180
sS'bounding_box'
p211
g0
(ctweepy.models
BoundingBox
p212
g2
Ntp213
Rp214
(dp215
S'type'
p216
g184
sg197
g185
sbsS'country_code'
p217
g192
sS'attributes'
p218
g194
sg24
g195
sg101
g196
sbsS'retweet_count'
p219
I0
sg108
g109
(S'\x07\xdf\x07\x0b\x04\x100\x00\x00\x00'
p220
tp221
Rp222
sS'in_reply_to_user_id'
p223
I548904824
sb.