ccopy_reg
_reconstructor
p0
(ctweepy.models
Status
p1
c__builtin__
object
p2
Ntp3
Rp4
(dp5
S'favorited'
p6
I00
sS'contributors'
p7
NsS'truncated'
p8
I00
sS'text'
p9
V@Cyberlane I use @HuBoard for a lot of my personal projects. Very happy with it
p10
sS'source_url'
p11
Vhttp://twitter.com
p12
sS'possibly_sensitive'
p13
I00
sS'in_reply_to_status_id'
p14
I621217994480451584
sS'user'
p15
g0
(ctweepy.models
User
p16
g2
Ntp17
Rp18
(dp19
S'follow_request_sent'
p20
NsS'profile_use_background_image'
p21
I01
sS'profile_sidebar_fill_color'
p22
VEFEFEF
p23
sS'id'
p24
I5966642
sS'verified'
p25
I00
sS'profile_image_url_https'
p26
Vhttps://pbs.twimg.com/profile_images/1829752770/portrait_normal.png
p27
sS'_json'
p28
(dp29
Vfollow_request_sent
p30
NsVprofile_use_background_image
p31
I01
sVdefault_profile_image
p32
I00
sVid
p33
I5966642
sVverified
p34
I00
sVprofile_image_url_https
p35
g27
sVprofile_sidebar_fill_color
p36
g23
sVprofile_text_color
p37
V333333
p38
sVfollowers_count
p39
I1070
sVprofile_sidebar_border_color
p40
VFFFFFF
p41
sVid_str
p42
V5966642
p43
sVprofile_background_color
p44
V131516
p45
sVlisted_count
p46
I45
sVprofile_background_image_url_https
p47
Vhttps://pbs.twimg.com/profile_background_images/449201336731439105/nfRXUnN5.jpeg
p48
sVutc_offset
p49
I7200
sVstatuses_count
p50
I7229
sVdescription
p51
V.NET MVP  Committer/owner of @scriptcsnet, @baubuild, @fakeiteasyfx, @xbehavenet, ConfigR  Blogs a bit  Snowboards a lot  Fails to surf
p52
sVfriends_count
p53
I502
sVlocation
p54
VFlims/Zurich, Switzerland
p55
sVprofile_link_color
p56
V3478ED
p57
sVprofile_image_url
p58
Vhttp://pbs.twimg.com/profile_images/1829752770/portrait_normal.png
p59
sVfollowing
p60
NsVgeo_enabled
p61
I01
sVprofile_banner_url
p62
Vhttps://pbs.twimg.com/profile_banners/5966642/1421650587
p63
sVprofile_background_image_url
p64
Vhttp://pbs.twimg.com/profile_background_images/449201336731439105/nfRXUnN5.jpeg
p65
sVname
p66
VAdam Ralph
p67
sVlang
p68
Ven
p69
sVprofile_background_tile
p70
I01
sVfavourites_count
p71
I195
sVscreen_name
p72
Vadamralph
p73
sVnotifications
p74
NsVurl
p75
Vhttp://www.adamralph.com
p76
sVcreated_at
p77
VFri May 11 16:22:53 +0000 2007
p78
sVcontributors_enabled
p79
I00
sVtime_zone
p80
VBern
p81
sVprotected
p82
I00
sVdefault_profile
p83
I00
sVis_translator
p84
I00
ssS'contributors_enabled'
p85
I00
sS'profile_text_color'
p86
g38
sS'followers_count'
p87
I1070
sS'profile_sidebar_border_color'
p88
g41
sS'location'
p89
g55
sS'default_profile_image'
p90
I00
sS'id_str'
p91
g43
sS'utc_offset'
p92
I7200
sS'statuses_count'
p93
I7229
sS'description'
p94
g52
sS'friends_count'
p95
I502
sS'profile_link_color'
p96
g57
sS'profile_image_url'
p97
g59
sS'notifications'
p98
NsS'geo_enabled'
p99
I01
sS'profile_background_color'
p100
g45
sS'profile_banner_url'
p101
g63
sS'profile_background_image_url'
p102
g65
sS'name'
p103
g67
sS'lang'
p104
g69
sS'following'
p105
I00
sS'profile_background_tile'
p106
I01
sS'favourites_count'
p107
I195
sS'screen_name'
p108
g73
sS'url'
p109
g76
sS'created_at'
p110
cdatetime
datetime
p111
(S'\x07\xd7\x05\x0b\x10\x165\x00\x00\x00'
p112
tp113
Rp114
sS'profile_background_image_url_https'
p115
g48
sS'time_zone'
p116
g81
sS'protected'
p117
I00
sS'default_profile'
p118
I00
sS'is_translator'
p119
I00
sS'listed_count'
p120
I45
sbsS'filter_level'
p121
Vlow
p122
sS'geo'
p123
Nsg24
I621218412044419072
sS'favorite_count'
p124
I0
sS'source'
p125
VTwitter Web Client
p126
sg104
Ven
p127
sS'author'
p128
g18
sS'in_reply_to_user_id_str'
p129
V40292678
p130
sg28
(dp131
Vcontributors
p132
NsVtruncated
p133
I00
sVtext
p134
g10
sVin_reply_to_status_id
p135
I621217994480451584
sg33
I621218412044419072
sVfavorite_count
p136
I0
sVsource
p137
V<a href="http://twitter.com" rel="nofollow">Twitter Web Client</a>
p138
sVretweeted
p139
I00
sVcoordinates
p140
NsVtimestamp_ms
p141
V1436944985768
p142
sVentities
p143
(dp144
Vuser_mentions
p145
(lp146
(dp147
g33
I40292678
sVindices
p148
(lp149
I0
aI10
asg42
V40292678
p150
sg72
VCyberlane
p151
sg66
VJustin Nel
p152
sa(dp153
g33
I463232400
sg148
(lp154
I17
aI25
asg42
V463232400
p155
sg72
VHuBoard
p156
sg66
VHuBoard
p157
sasVsymbols
p158
(lp159
sVtrends
p160
(lp161
sVhashtags
p162
(lp163
sVurls
p164
(lp165
ssVin_reply_to_screen_name
p166
VCyberlane
p167
sg42
V621218412044419072
p168
sVretweet_count
p169
I0
sVin_reply_to_user_id
p170
I40292678
sVfavorited
p171
I00
sVuser
p172
g29
sVgeo
p173
NsVin_reply_to_user_id_str
p174
g130
sVpossibly_sensitive
p175
I00
sg68
g127
sg77
VWed Jul 15 07:23:05 +0000 2015
p176
sVfilter_level
p177
g122
sVin_reply_to_status_id_str
p178
V621217994480451584
p179
sVplace
p180
(dp181
Vfull_name
p182
VZurich, Switzerland
p183
sg75
Vhttps://api.twitter.com/1.1/geo/id/3acb748d0f1e9265.json
p184
sVcountry
p185
VSchweiz
p186
sVplace_type
p187
Vcity
p188
sVbounding_box
p189
(dp190
Vtype
p191
VPolygon
p192
sg140
(lp193
(lp194
(lp195
F8.448081
aF47.320183
aa(lp196
F8.448081
aF47.434721
aa(lp197
F8.625442
aF47.434721
aa(lp198
F8.625442
aF47.320183
aaassVcountry_code
p199
VCH
p200
sVattributes
p201
(dp202
sg33
V3acb748d0f1e9265
p203
sg66
VZurich
p204
sssS'coordinates'
p205
NsS'timestamp_ms'
p206
g142
sS'entities'
p207
g144
sS'in_reply_to_status_id_str'
p208
g179
sS'in_reply_to_screen_name'
p209
g167
sg91
g168
sS'retweeted'
p210
I00
sS'place'
p211
g0
(ctweepy.models
Place
p212
g2
Ntp213
Rp214
(dp215
S'full_name'
p216
g183
sg109
g184
sS'country'
p217
g186
sS'place_type'
p218
g188
sS'bounding_box'
p219
g0
(ctweepy.models
BoundingBox
p220
g2
Ntp221
Rp222
(dp223
S'type'
p224
g192
sg205
g193
sbsS'country_code'
p225
g200
sS'attributes'
p226
g202
sg24
g203
sg103
g204
sbsS'retweet_count'
p227
I0
sg110
g111
(S'\x07\xdf\x07\x0f\x07\x17\x05\x00\x00\x00'
p228
tp229
Rp230
sS'in_reply_to_user_id'
p231
I40292678
sb.