ccopy_reg
_reconstructor
p0
(ctweepy.models
Status
p1
c__builtin__
object
p2
Ntp3
Rp4
(dp5
S'favorited'
p6
I00
sS'contributors'
p7
NsS'truncated'
p8
I00
sS'text'
p9
V11 #interior decorating ideas to steal from the #Scandinavians http://t.co/ietO7FVxBF\u000a#design #home #interiordesign http://t.co/2W8E8E45br
p10
sS'source_url'
p11
Vhttp://twitter.com/download/iphone
p12
sS'possibly_sensitive'
p13
I00
sS'in_reply_to_status_id'
p14
NsS'user'
p15
g0
(ctweepy.models
User
p16
g2
Ntp17
Rp18
(dp19
S'follow_request_sent'
p20
NsS'profile_use_background_image'
p21
I00
sS'profile_sidebar_fill_color'
p22
VDAECF4
p23
sS'id'
p24
I28296260
sS'verified'
p25
I00
sS'profile_image_url_https'
p26
Vhttps://pbs.twimg.com/profile_images/613571492547268609/CtSn14hY_normal.jpg
p27
sS'_json'
p28
(dp29
Vfollow_request_sent
p30
NsVprofile_use_background_image
p31
I00
sVdefault_profile_image
p32
I00
sVid
p33
I28296260
sVverified
p34
I00
sVprofile_image_url_https
p35
g27
sVprofile_sidebar_fill_color
p36
g23
sVprofile_text_color
p37
V0F0802
p38
sVfollowers_count
p39
I533
sVprofile_sidebar_border_color
p40
VFFFFFF
p41
sVid_str
p42
V28296260
p43
sVprofile_background_color
p44
V85B7F5
p45
sVlisted_count
p46
I17
sVprofile_background_image_url_https
p47
Vhttps://pbs.twimg.com/profile_background_images/859620450/c9554d651533d28691c1681471817961.jpeg
p48
sVutc_offset
p49
I7200
sVstatuses_count
p50
I16403
sVdescription
p51
Vhave camera will travel
p52
sVfriends_count
p53
I210
sVlocation
p54
VZurich
p55
sVprofile_link_color
p56
V429CF5
p57
sVprofile_image_url
p58
Vhttp://pbs.twimg.com/profile_images/613571492547268609/CtSn14hY_normal.jpg
p59
sVfollowing
p60
NsVgeo_enabled
p61
I01
sVprofile_background_image_url
p62
Vhttp://pbs.twimg.com/profile_background_images/859620450/c9554d651533d28691c1681471817961.jpeg
p63
sVname
p64
VSteven Anggrek
p65
sVlang
p66
Ven
p67
sVprofile_background_tile
p68
I00
sVfavourites_count
p69
I236
sVscreen_name
p70
Vstevenanggrek
p71
sVnotifications
p72
NsVurl
p73
Vhttp://www.stevenanggrek.ch
p74
sVcreated_at
p75
VThu Apr 02 06:46:57 +0000 2009
p76
sVcontributors_enabled
p77
I00
sVtime_zone
p78
VParis
p79
sVprotected
p80
I00
sVdefault_profile
p81
I00
sVis_translator
p82
I00
ssS'contributors_enabled'
p83
I00
sS'profile_text_color'
p84
g38
sS'followers_count'
p85
I533
sS'profile_sidebar_border_color'
p86
g41
sS'location'
p87
g55
sS'default_profile_image'
p88
I00
sS'id_str'
p89
g43
sS'utc_offset'
p90
I7200
sS'statuses_count'
p91
I16403
sS'description'
p92
g52
sS'friends_count'
p93
I210
sS'profile_link_color'
p94
g57
sS'profile_image_url'
p95
g59
sS'notifications'
p96
NsS'geo_enabled'
p97
I01
sS'profile_background_color'
p98
g45
sS'profile_background_image_url'
p99
g63
sS'name'
p100
g65
sS'lang'
p101
g67
sS'following'
p102
I00
sS'profile_background_tile'
p103
I00
sS'favourites_count'
p104
I236
sS'screen_name'
p105
g71
sS'url'
p106
g74
sS'created_at'
p107
cdatetime
datetime
p108
(S'\x07\xd9\x04\x02\x06.9\x00\x00\x00'
p109
tp110
Rp111
sS'profile_background_image_url_https'
p112
g48
sS'time_zone'
p113
g79
sS'protected'
p114
I00
sS'default_profile'
p115
I00
sS'is_translator'
p116
I00
sS'listed_count'
p117
I17
sbsS'filter_level'
p118
Vlow
p119
sS'geo'
p120
Nsg24
I619057183775399936
sS'favorite_count'
p121
I0
sS'source'
p122
VTwitter for iPhone
p123
sg101
Ven
p124
sS'author'
p125
g18
sS'in_reply_to_user_id_str'
p126
Nsg28
(dp127
Vcontributors
p128
NsVtruncated
p129
I00
sVtext
p130
V11 #interior decorating ideas to steal from the #Scandinavians http://t.co/ietO7FVxBF\u000a#design #home #interiordesign http://t.co/2W8E8E45br
p131
sVin_reply_to_status_id
p132
Nsg33
I619057183775399936
sVfavorite_count
p133
I0
sVsource
p134
V<a href="http://twitter.com/download/iphone" rel="nofollow">Twitter for iPhone</a>
p135
sVretweeted
p136
I00
sVcoordinates
p137
NsVtimestamp_ms
p138
V1436429708795
p139
sVentities
p140
(dp141
Vsymbols
p142
(lp143
sVmedia
p144
(lp145
(dp146
Vexpanded_url
p147
Vhttp://twitter.com/stevenanggrek/status/619057183775399936/photo/1
p148
sVdisplay_url
p149
Vpic.twitter.com/2W8E8E45br
p150
sg73
Vhttp://t.co/2W8E8E45br
p151
sVmedia_url_https
p152
Vhttps://pbs.twimg.com/media/CJdVN9lXAAATX-w.jpg
p153
sg42
V619057172144652288
p154
sVsizes
p155
(dp156
Vlarge
p157
(dp158
Vh
p159
I678
sVresize
p160
Vfit
p161
sVw
p162
I645
ssVsmall
p163
(dp164
g159
I357
sg160
Vfit
p165
sg162
I340
ssVmedium
p166
(dp167
g159
I630
sg160
Vfit
p168
sg162
I600
ssVthumb
p169
(dp170
g159
I150
sg160
Vcrop
p171
sg162
I150
sssVindices
p172
(lp173
I116
aI138
asVtype
p174
Vphoto
p175
sg33
I619057172144652288
sVmedia_url
p176
Vhttp://pbs.twimg.com/media/CJdVN9lXAAATX-w.jpg
p177
sasVhashtags
p178
(lp179
(dp180
g172
(lp181
I3
aI12
asg130
Vinterior
p182
sa(dp183
g172
(lp184
I48
aI62
asg130
VScandinavians
p185
sa(dp186
g172
(lp187
I86
aI93
asg130
Vdesign
p188
sa(dp189
g172
(lp190
I94
aI99
asg130
Vhome
p191
sa(dp192
g172
(lp193
I100
aI115
asg130
Vinteriordesign
p194
sasVuser_mentions
p195
(lp196
sVtrends
p197
(lp198
sVurls
p199
(lp200
(dp201
g73
Vhttp://t.co/ietO7FVxBF
p202
sg172
(lp203
I63
aI85
asg147
Vhttp://www.brit.co/scandinavian-decorating-ideas-home/
p204
sg149
Vbrit.co/scandinavian-d\u2026
p205
sassVin_reply_to_screen_name
p206
Nsg42
V619057183775399936
p207
sVretweet_count
p208
I0
sVin_reply_to_user_id
p209
NsVfavorited
p210
I00
sVuser
p211
g29
sVgeo
p212
NsVin_reply_to_user_id_str
p213
NsVpossibly_sensitive
p214
I00
sg66
g124
sg75
VThu Jul 09 08:15:08 +0000 2015
p215
sVfilter_level
p216
g119
sVin_reply_to_status_id_str
p217
NsVplace
p218
(dp219
Vfull_name
p220
VZurich, Switzerland
p221
sg73
Vhttps://api.twitter.com/1.1/geo/id/3acb748d0f1e9265.json
p222
sVcountry
p223
VSchweiz
p224
sVplace_type
p225
Vcity
p226
sVbounding_box
p227
(dp228
g174
VPolygon
p229
sg137
(lp230
(lp231
(lp232
F8.448081
aF47.320183
aa(lp233
F8.448081
aF47.434721
aa(lp234
F8.625442
aF47.434721
aa(lp235
F8.625442
aF47.320183
aaassVcountry_code
p236
VCH
p237
sVattributes
p238
(dp239
sg33
V3acb748d0f1e9265
p240
sg64
VZurich
p241
ssVextended_entities
p242
(dp243
g144
(lp244
(dp245
g147
Vhttp://twitter.com/stevenanggrek/status/619057183775399936/photo/1
p246
sg149
Vpic.twitter.com/2W8E8E45br
p247
sg73
Vhttp://t.co/2W8E8E45br
p248
sg152
Vhttps://pbs.twimg.com/media/CJdVN9lXAAATX-w.jpg
p249
sg42
V619057172144652288
p250
sg155
(dp251
g157
(dp252
g159
I678
sg160
Vfit
p253
sg162
I645
ssg163
(dp254
g159
I357
sg160
Vfit
p255
sg162
I340
ssg166
(dp256
g159
I630
sg160
Vfit
p257
sg162
I600
ssg169
(dp258
g159
I150
sg160
Vcrop
p259
sg162
I150
sssg172
(lp260
I116
aI138
asg174
Vphoto
p261
sg33
I619057172144652288
sg176
Vhttp://pbs.twimg.com/media/CJdVN9lXAAATX-w.jpg
p262
sasssS'coordinates'
p263
NsS'timestamp_ms'
p264
g139
sS'entities'
p265
g141
sS'in_reply_to_status_id_str'
p266
NsS'in_reply_to_screen_name'
p267
Nsg89
g207
sS'extended_entities'
p268
g243
sS'retweeted'
p269
I00
sS'place'
p270
g0
(ctweepy.models
Place
p271
g2
Ntp272
Rp273
(dp274
S'full_name'
p275
g221
sg106
g222
sS'country'
p276
g224
sS'place_type'
p277
g226
sS'bounding_box'
p278
g0
(ctweepy.models
BoundingBox
p279
g2
Ntp280
Rp281
(dp282
S'type'
p283
g229
sg263
g230
sbsS'country_code'
p284
g237
sS'attributes'
p285
g239
sg24
g240
sg100
g241
sbsS'retweet_count'
p286
I0
sg107
g108
(S'\x07\xdf\x07\t\x08\x0f\x08\x00\x00\x00'
p287
tp288
Rp289
sS'in_reply_to_user_id'
p290
Nsb.