ccopy_reg
_reconstructor
p0
(ctweepy.models
Status
p1
c__builtin__
object
p2
Ntp3
Rp4
(dp5
S'favorited'
p6
I00
sS'contributors'
p7
NsS'truncated'
p8
I00
sS'text'
p9
VFrank Armstrong's @frankarmstrong2 review of my book The Body&amp;Shame in this month's Village Magazine @VillageMagIRE http://t.co/JPmU3PBeIe
p10
sS'source_url'
p11
Vhttp://twitter.com
p12
sS'possibly_sensitive'
p13
I00
sS'in_reply_to_status_id'
p14
NsS'user'
p15
g0
(ctweepy.models
User
p16
g2
Ntp17
Rp18
(dp19
S'follow_request_sent'
p20
NsS'profile_use_background_image'
p21
I01
sS'profile_sidebar_fill_color'
p22
VDDEEF6
p23
sS'id'
p24
I601786883
sS'verified'
p25
I00
sS'profile_image_url_https'
p26
Vhttps://pbs.twimg.com/profile_images/433280507581722624/M-5FmrmD_normal.jpeg
p27
sS'_json'
p28
(dp29
Vfollow_request_sent
p30
NsVprofile_use_background_image
p31
I01
sVdefault_profile_image
p32
I00
sVid
p33
I601786883
sVverified
p34
I00
sVprofile_image_url_https
p35
g27
sVprofile_sidebar_fill_color
p36
g23
sVprofile_text_color
p37
V333333
p38
sVfollowers_count
p39
I376
sVprofile_sidebar_border_color
p40
VC0DEED
p41
sVid_str
p42
V601786883
p43
sVprofile_background_color
p44
VC0DEED
p45
sVlisted_count
p46
I16
sVprofile_background_image_url_https
p47
Vhttps://abs.twimg.com/images/themes/theme1/bg.png
p48
sVutc_offset
p49
NsVstatuses_count
p50
I309
sVdescription
p51
VIRC ELEVATE/Marie Curie Postdoc Fellow, Dept of Philosophy, Durham University; Medical Humanities, Philosophy, Phenomenology. Yoga Teacher & Fraoch Retreats.
p52
sVfriends_count
p53
I590
sVlocation
p54
VDublin, Ireland
p55
sVprofile_link_color
p56
V0084B4
p57
sVprofile_image_url
p58
Vhttp://pbs.twimg.com/profile_images/433280507581722624/M-5FmrmD_normal.jpeg
p59
sVfollowing
p60
NsVgeo_enabled
p61
I01
sVprofile_banner_url
p62
Vhttps://pbs.twimg.com/profile_banners/601786883/1369144451
p63
sVprofile_background_image_url
p64
Vhttp://abs.twimg.com/images/themes/theme1/bg.png
p65
sVname
p66
VLuna Dolezal
p67
sVlang
p68
Ven
p69
sVprofile_background_tile
p70
I00
sVfavourites_count
p71
I168
sVscreen_name
p72
Vlunadolezal
p73
sVnotifications
p74
NsVurl
p75
NsVcreated_at
p76
VThu Jun 07 11:26:50 +0000 2012
p77
sVcontributors_enabled
p78
I00
sVtime_zone
p79
NsVprotected
p80
I00
sVdefault_profile
p81
I01
sVis_translator
p82
I00
ssS'contributors_enabled'
p83
I00
sS'profile_text_color'
p84
g38
sS'followers_count'
p85
I376
sS'profile_sidebar_border_color'
p86
g41
sS'location'
p87
g55
sS'default_profile_image'
p88
I00
sS'id_str'
p89
g43
sS'utc_offset'
p90
NsS'statuses_count'
p91
I309
sS'description'
p92
g52
sS'friends_count'
p93
I590
sS'profile_link_color'
p94
g57
sS'profile_image_url'
p95
g59
sS'notifications'
p96
NsS'geo_enabled'
p97
I01
sS'profile_background_color'
p98
g45
sS'profile_banner_url'
p99
g63
sS'profile_background_image_url'
p100
g65
sS'name'
p101
g67
sS'lang'
p102
g69
sS'following'
p103
I00
sS'profile_background_tile'
p104
I00
sS'favourites_count'
p105
I168
sS'screen_name'
p106
g73
sS'url'
p107
NsS'created_at'
p108
cdatetime
datetime
p109
(S'\x07\xdc\x06\x07\x0b\x1a2\x00\x00\x00'
p110
tp111
Rp112
sS'profile_background_image_url_https'
p113
g48
sS'time_zone'
p114
NsS'protected'
p115
I00
sS'default_profile'
p116
I01
sS'is_translator'
p117
I00
sS'listed_count'
p118
I16
sbsS'filter_level'
p119
Vlow
p120
sS'geo'
p121
Nsg24
I620566994664996864
sS'favorite_count'
p122
I0
sS'source'
p123
VTwitter Web Client
p124
sg102
Ven
p125
sS'author'
p126
g18
sS'in_reply_to_user_id_str'
p127
Nsg28
(dp128
Vcontributors
p129
NsVtruncated
p130
I00
sVtext
p131
g10
sVin_reply_to_status_id
p132
Nsg33
I620566994664996864
sVfavorite_count
p133
I0
sVsource
p134
V<a href="http://twitter.com" rel="nofollow">Twitter Web Client</a>
p135
sVretweeted
p136
I00
sVcoordinates
p137
NsVtimestamp_ms
p138
V1436789675762
p139
sVentities
p140
(dp141
Vsymbols
p142
(lp143
sVmedia
p144
(lp145
(dp146
Vexpanded_url
p147
Vhttp://twitter.com/lunadolezal/status/620566994664996864/photo/1
p148
sVdisplay_url
p149
Vpic.twitter.com/JPmU3PBeIe
p150
sg75
Vhttp://t.co/JPmU3PBeIe
p151
sVmedia_url_https
p152
Vhttps://pbs.twimg.com/media/CJyyZGRUAAAiGFe.jpg
p153
sg42
V620566992919986176
p154
sVsizes
p155
(dp156
Vlarge
p157
(dp158
Vh
p159
I960
sVresize
p160
Vfit
p161
sVw
p162
I539
ssVsmall
p163
(dp164
g159
I605
sg160
Vfit
p165
sg162
I340
ssVmedium
p166
(dp167
g159
I960
sg160
Vfit
p168
sg162
I539
ssVthumb
p169
(dp170
g159
I150
sg160
Vcrop
p171
sg162
I150
sssVindices
p172
(lp173
I120
aI142
asVtype
p174
Vphoto
p175
sg33
I620566992919986176
sVmedia_url
p176
Vhttp://pbs.twimg.com/media/CJyyZGRUAAAiGFe.jpg
p177
sasVhashtags
p178
(lp179
sVuser_mentions
p180
(lp181
(dp182
g33
I283638910
sg172
(lp183
I18
aI34
asg42
V283638910
p184
sg72
Vfrankarmstrong2
p185
sg66
VFrank Armstrong
p186
sa(dp187
g33
I70140960
sg172
(lp188
I105
aI119
asg42
V70140960
p189
sg72
VVillageMagIRE
p190
sg66
VVillage Magazine
p191
sasVtrends
p192
(lp193
sVurls
p194
(lp195
ssVin_reply_to_screen_name
p196
Nsg42
V620566994664996864
p197
sVretweet_count
p198
I0
sVin_reply_to_user_id
p199
NsVfavorited
p200
I00
sVuser
p201
g29
sVgeo
p202
NsVin_reply_to_user_id_str
p203
NsVpossibly_sensitive
p204
I00
sg68
g125
sg76
VMon Jul 13 12:14:35 +0000 2015
p205
sVfilter_level
p206
g120
sVin_reply_to_status_id_str
p207
NsVplace
p208
(dp209
Vfull_name
p210
VZurich, Switzerland
p211
sg75
Vhttps://api.twitter.com/1.1/geo/id/3acb748d0f1e9265.json
p212
sVcountry
p213
VSchweiz
p214
sVplace_type
p215
Vcity
p216
sVbounding_box
p217
(dp218
g174
VPolygon
p219
sg137
(lp220
(lp221
(lp222
F8.448081
aF47.320183
aa(lp223
F8.448081
aF47.434721
aa(lp224
F8.625442
aF47.434721
aa(lp225
F8.625442
aF47.320183
aaassVcountry_code
p226
VCH
p227
sVattributes
p228
(dp229
sg33
V3acb748d0f1e9265
p230
sg66
VZurich
p231
ssVextended_entities
p232
(dp233
g144
(lp234
(dp235
g147
Vhttp://twitter.com/lunadolezal/status/620566994664996864/photo/1
p236
sg149
Vpic.twitter.com/JPmU3PBeIe
p237
sg75
Vhttp://t.co/JPmU3PBeIe
p238
sg152
Vhttps://pbs.twimg.com/media/CJyyZGRUAAAiGFe.jpg
p239
sg42
V620566992919986176
p240
sg155
(dp241
g157
(dp242
g159
I960
sg160
Vfit
p243
sg162
I539
ssg163
(dp244
g159
I605
sg160
Vfit
p245
sg162
I340
ssg166
(dp246
g159
I960
sg160
Vfit
p247
sg162
I539
ssg169
(dp248
g159
I150
sg160
Vcrop
p249
sg162
I150
sssg172
(lp250
I120
aI142
asg174
Vphoto
p251
sg33
I620566992919986176
sg176
Vhttp://pbs.twimg.com/media/CJyyZGRUAAAiGFe.jpg
p252
sasssS'coordinates'
p253
NsS'timestamp_ms'
p254
g139
sS'entities'
p255
g141
sS'in_reply_to_status_id_str'
p256
NsS'in_reply_to_screen_name'
p257
Nsg89
g197
sS'extended_entities'
p258
g233
sS'retweeted'
p259
I00
sS'place'
p260
g0
(ctweepy.models
Place
p261
g2
Ntp262
Rp263
(dp264
S'full_name'
p265
g211
sg107
g212
sS'country'
p266
g214
sS'place_type'
p267
g216
sS'bounding_box'
p268
g0
(ctweepy.models
BoundingBox
p269
g2
Ntp270
Rp271
(dp272
S'type'
p273
g219
sg253
g220
sbsS'country_code'
p274
g227
sS'attributes'
p275
g229
sg24
g230
sg101
g231
sbsS'retweet_count'
p276
I0
sg108
g109
(S'\x07\xdf\x07\r\x0c\x0e#\x00\x00\x00'
p277
tp278
Rp279
sS'in_reply_to_user_id'
p280
Nsb.