ccopy_reg
_reconstructor
p0
(ctweepy.models
Status
p1
c__builtin__
object
p2
Ntp3
Rp4
(dp5
S'favorited'
p6
I00
sS'contributors'
p7
NsS'truncated'
p8
I00
sS'text'
p9
V@jamieosh thanks. She is an english setter \U0001f60e\u000aSnowdonia was great - fond memories
p10
sS'source_url'
p11
Vhttp://twitter.com/download/iphone
p12
sS'possibly_sensitive'
p13
I00
sS'in_reply_to_status_id'
p14
I621079978101338112
sS'user'
p15
g0
(ctweepy.models
User
p16
g2
Ntp17
Rp18
(dp19
S'follow_request_sent'
p20
NsS'profile_use_background_image'
p21
I01
sS'profile_sidebar_fill_color'
p22
V252429
p23
sS'id'
p24
I46051644
sS'verified'
p25
I00
sS'profile_image_url_https'
p26
Vhttps://pbs.twimg.com/profile_images/1589782028/RalphJochamImagePortrait_normal.jpg
p27
sS'_json'
p28
(dp29
Vfollow_request_sent
p30
NsVprofile_use_background_image
p31
I01
sVdefault_profile_image
p32
I00
sVid
p33
I46051644
sVverified
p34
I00
sVprofile_image_url_https
p35
g27
sVprofile_sidebar_fill_color
p36
g23
sVprofile_text_color
p37
V666666
p38
sVfollowers_count
p39
I441
sVprofile_sidebar_border_color
p40
V181A1E
p41
sVid_str
p42
V46051644
p43
sVprofile_background_color
p44
V1A1B1F
p45
sVlisted_count
p46
I42
sVprofile_background_image_url_https
p47
Vhttps://abs.twimg.com/images/themes/theme9/bg.gif
p48
sVutc_offset
p49
NsVstatuses_count
p50
I1046
sVdescription
p51
VFounder of effective agile a premier agile coaching and consulting company. Official trainer for Scrum.org and expert in XP. Regular speaker at conferences.
p52
sVfriends_count
p53
I72
sVlocation
p54
VCH Bern
p55
sVprofile_link_color
p56
V2FC2EF
p57
sVprofile_image_url
p58
Vhttp://pbs.twimg.com/profile_images/1589782028/RalphJochamImagePortrait_normal.jpg
p59
sVfollowing
p60
NsVgeo_enabled
p61
I01
sVprofile_background_image_url
p62
Vhttp://abs.twimg.com/images/themes/theme9/bg.gif
p63
sVname
p64
VRalph Jocham
p65
sVlang
p66
Ven
p67
sVprofile_background_tile
p68
I00
sVfavourites_count
p69
I11
sVscreen_name
p70
Vrjocham
p71
sVnotifications
p72
NsVurl
p73
Vhttp://www.effectiveagile.com
p74
sVcreated_at
p75
VWed Jun 10 06:14:45 +0000 2009
p76
sVcontributors_enabled
p77
I00
sVtime_zone
p78
NsVprotected
p79
I00
sVdefault_profile
p80
I00
sVis_translator
p81
I00
ssS'contributors_enabled'
p82
I00
sS'profile_text_color'
p83
g38
sS'followers_count'
p84
I441
sS'profile_sidebar_border_color'
p85
g41
sS'location'
p86
g55
sS'default_profile_image'
p87
I00
sS'id_str'
p88
g43
sS'utc_offset'
p89
NsS'statuses_count'
p90
I1046
sS'description'
p91
g52
sS'friends_count'
p92
I72
sS'profile_link_color'
p93
g57
sS'profile_image_url'
p94
g59
sS'notifications'
p95
NsS'geo_enabled'
p96
I01
sS'profile_background_color'
p97
g45
sS'profile_background_image_url'
p98
g63
sS'name'
p99
g65
sS'lang'
p100
g67
sS'following'
p101
I00
sS'profile_background_tile'
p102
I00
sS'favourites_count'
p103
I11
sS'screen_name'
p104
g71
sS'url'
p105
g74
sS'created_at'
p106
cdatetime
datetime
p107
(S'\x07\xd9\x06\n\x06\x0e-\x00\x00\x00'
p108
tp109
Rp110
sS'profile_background_image_url_https'
p111
g48
sS'time_zone'
p112
NsS'protected'
p113
I00
sS'default_profile'
p114
I00
sS'is_translator'
p115
I00
sS'listed_count'
p116
I42
sbsS'filter_level'
p117
Vlow
p118
sS'geo'
p119
Nsg24
I621242293140496384
sS'favorite_count'
p120
I0
sS'source'
p121
VTwitter for iPhone
p122
sg100
Ven
p123
sS'author'
p124
g18
sS'in_reply_to_user_id_str'
p125
V15027789
p126
sg28
(dp127
Vcontributors
p128
NsVtruncated
p129
I00
sVtext
p130
V@jamieosh thanks. She is an english setter \U0001f60e\u000aSnowdonia was great - fond memories
p131
sVin_reply_to_status_id
p132
I621079978101338112
sg33
I621242293140496384
sVfavorite_count
p133
I0
sVsource
p134
V<a href="http://twitter.com/download/iphone" rel="nofollow">Twitter for iPhone</a>
p135
sVretweeted
p136
I00
sVcoordinates
p137
NsVtimestamp_ms
p138
V1436950679465
p139
sVentities
p140
(dp141
Vuser_mentions
p142
(lp143
(dp144
g33
I15027789
sVindices
p145
(lp146
I0
aI9
asg42
V15027789
p147
sg70
Vjamieosh
p148
sg64
VJamie O'Shaughnessy
p149
sasVsymbols
p150
(lp151
sVtrends
p152
(lp153
sVhashtags
p154
(lp155
sVurls
p156
(lp157
ssVin_reply_to_screen_name
p158
Vjamieosh
p159
sg42
V621242293140496384
p160
sVretweet_count
p161
I0
sVin_reply_to_user_id
p162
I15027789
sVfavorited
p163
I00
sVuser
p164
g29
sVgeo
p165
NsVin_reply_to_user_id_str
p166
g126
sVpossibly_sensitive
p167
I00
sg66
g123
sg75
VWed Jul 15 08:57:59 +0000 2015
p168
sVfilter_level
p169
g118
sVin_reply_to_status_id_str
p170
V621079978101338112
p171
sVplace
p172
(dp173
Vfull_name
p174
VZurich, Switzerland
p175
sg73
Vhttps://api.twitter.com/1.1/geo/id/3acb748d0f1e9265.json
p176
sVcountry
p177
VSchweiz
p178
sVplace_type
p179
Vcity
p180
sVbounding_box
p181
(dp182
Vtype
p183
VPolygon
p184
sg137
(lp185
(lp186
(lp187
F8.448081
aF47.320183
aa(lp188
F8.448081
aF47.434721
aa(lp189
F8.625442
aF47.434721
aa(lp190
F8.625442
aF47.320183
aaassVcountry_code
p191
VCH
p192
sVattributes
p193
(dp194
sg33
V3acb748d0f1e9265
p195
sg64
VZurich
p196
sssS'coordinates'
p197
NsS'timestamp_ms'
p198
g139
sS'entities'
p199
g141
sS'in_reply_to_status_id_str'
p200
g171
sS'in_reply_to_screen_name'
p201
g159
sg88
g160
sS'retweeted'
p202
I00
sS'place'
p203
g0
(ctweepy.models
Place
p204
g2
Ntp205
Rp206
(dp207
S'full_name'
p208
g175
sg105
g176
sS'country'
p209
g178
sS'place_type'
p210
g180
sS'bounding_box'
p211
g0
(ctweepy.models
BoundingBox
p212
g2
Ntp213
Rp214
(dp215
S'type'
p216
g184
sg197
g185
sbsS'country_code'
p217
g192
sS'attributes'
p218
g194
sg24
g195
sg99
g196
sbsS'retweet_count'
p219
I0
sg106
g107
(S'\x07\xdf\x07\x0f\x089;\x00\x00\x00'
p220
tp221
Rp222
sS'in_reply_to_user_id'
p223
I15027789
sb.