ccopy_reg
_reconstructor
p0
(ctweepy.models
Status
p1
c__builtin__
object
p2
Ntp3
Rp4
(dp5
S'favorited'
p6
I00
sS'contributors'
p7
NsS'truncated'
p8
I00
sS'text'
p9
V@StuartSkelton no better Vorbild.
p10
sS'source_url'
p11
Vhttp://twitter.com/#!/download/ipad
p12
sS'possibly_sensitive'
p13
I00
sS'in_reply_to_status_id'
p14
I619986801675997184
sS'user'
p15
g0
(ctweepy.models
User
p16
g2
Ntp17
Rp18
(dp19
S'follow_request_sent'
p20
NsS'profile_use_background_image'
p21
I01
sS'profile_sidebar_fill_color'
p22
VDDEEF6
p23
sS'id'
p24
I257387240
sS'verified'
p25
I00
sS'profile_image_url_https'
p26
Vhttps://pbs.twimg.com/profile_images/551334069318201344/RER1oHjk_normal.jpeg
p27
sS'_json'
p28
(dp29
Vfollow_request_sent
p30
NsVprofile_use_background_image
p31
I01
sVdefault_profile_image
p32
I00
sVid
p33
I257387240
sVverified
p34
I00
sVprofile_image_url_https
p35
g27
sVprofile_sidebar_fill_color
p36
g23
sVprofile_text_color
p37
V333333
p38
sVfollowers_count
p39
I1172
sVprofile_sidebar_border_color
p40
VC0DEED
p41
sVid_str
p42
V257387240
p43
sVprofile_background_color
p44
VC0DEED
p45
sVlisted_count
p46
I25
sVprofile_background_image_url_https
p47
Vhttps://abs.twimg.com/images/themes/theme1/bg.png
p48
sVutc_offset
p49
NsVstatuses_count
p50
I11672
sVdescription
p51
VSemi retired but still working to fund itinerant opera addiction, combined with cultural and culinary wanderings.
p52
sVfriends_count
p53
I1863
sVlocation
p54
VLeafy Suburbia
p55
sVprofile_link_color
p56
V0084B4
p57
sVprofile_image_url
p58
Vhttp://pbs.twimg.com/profile_images/551334069318201344/RER1oHjk_normal.jpeg
p59
sVfollowing
p60
NsVgeo_enabled
p61
I01
sVprofile_banner_url
p62
Vhttps://pbs.twimg.com/profile_banners/257387240/1427197683
p63
sVprofile_background_image_url
p64
Vhttp://abs.twimg.com/images/themes/theme1/bg.png
p65
sVname
p66
VJohn Johnston
p67
sVlang
p68
Ven
p69
sVprofile_background_tile
p70
I00
sVfavourites_count
p71
I4315
sVscreen_name
p72
VJohnVecchio
p73
sVnotifications
p74
NsVurl
p75
NsVcreated_at
p76
VFri Feb 25 09:16:47 +0000 2011
p77
sVcontributors_enabled
p78
I00
sVtime_zone
p79
NsVprotected
p80
I00
sVdefault_profile
p81
I01
sVis_translator
p82
I00
ssS'contributors_enabled'
p83
I00
sS'profile_text_color'
p84
g38
sS'followers_count'
p85
I1172
sS'profile_sidebar_border_color'
p86
g41
sS'location'
p87
g55
sS'default_profile_image'
p88
I00
sS'id_str'
p89
g43
sS'utc_offset'
p90
NsS'statuses_count'
p91
I11672
sS'description'
p92
g52
sS'friends_count'
p93
I1863
sS'profile_link_color'
p94
g57
sS'profile_image_url'
p95
g59
sS'notifications'
p96
NsS'geo_enabled'
p97
I01
sS'profile_background_color'
p98
g45
sS'profile_banner_url'
p99
g63
sS'profile_background_image_url'
p100
g65
sS'name'
p101
g67
sS'lang'
p102
g69
sS'following'
p103
I00
sS'profile_background_tile'
p104
I00
sS'favourites_count'
p105
I4315
sS'screen_name'
p106
g73
sS'url'
p107
NsS'created_at'
p108
cdatetime
datetime
p109
(S'\x07\xdb\x02\x19\t\x10/\x00\x00\x00'
p110
tp111
Rp112
sS'profile_background_image_url_https'
p113
g48
sS'time_zone'
p114
NsS'protected'
p115
I00
sS'default_profile'
p116
I01
sS'is_translator'
p117
I00
sS'listed_count'
p118
I25
sbsS'filter_level'
p119
Vlow
p120
sS'geo'
p121
Nsg24
I619990340741824512
sS'favorite_count'
p122
I0
sS'source'
p123
VTwitter for iPad
p124
sg102
Ven
p125
sS'author'
p126
g18
sS'in_reply_to_user_id_str'
p127
V136317356
p128
sg28
(dp129
Vcontributors
p130
NsVtruncated
p131
I00
sVtext
p132
g10
sVin_reply_to_status_id
p133
I619986801675997184
sg33
I619990340741824512
sVfavorite_count
p134
I0
sVsource
p135
V<a href="http://twitter.com/#!/download/ipad" rel="nofollow">Twitter for iPad</a>
p136
sVretweeted
p137
I00
sVcoordinates
p138
NsVtimestamp_ms
p139
V1436652190753
p140
sVentities
p141
(dp142
Vuser_mentions
p143
(lp144
(dp145
g33
I136317356
sVindices
p146
(lp147
I0
aI14
asg42
V136317356
p148
sg72
VStuartSkelton
p149
sg66
VStuart Skelton
p150
sasVsymbols
p151
(lp152
sVtrends
p153
(lp154
sVhashtags
p155
(lp156
sVurls
p157
(lp158
ssVin_reply_to_screen_name
p159
VStuartSkelton
p160
sg42
V619990340741824512
p161
sVretweet_count
p162
I0
sVin_reply_to_user_id
p163
I136317356
sVfavorited
p164
I00
sVuser
p165
g29
sVgeo
p166
NsVin_reply_to_user_id_str
p167
g128
sVpossibly_sensitive
p168
I00
sg68
g125
sg76
VSat Jul 11 22:03:10 +0000 2015
p169
sVfilter_level
p170
g120
sVin_reply_to_status_id_str
p171
V619986801675997184
p172
sVplace
p173
(dp174
Vfull_name
p175
VZurich, Switzerland
p176
sg75
Vhttps://api.twitter.com/1.1/geo/id/3acb748d0f1e9265.json
p177
sVcountry
p178
VSchweiz
p179
sVplace_type
p180
Vcity
p181
sVbounding_box
p182
(dp183
Vtype
p184
VPolygon
p185
sg138
(lp186
(lp187
(lp188
F8.448081
aF47.320183
aa(lp189
F8.448081
aF47.434721
aa(lp190
F8.625442
aF47.434721
aa(lp191
F8.625442
aF47.320183
aaassVcountry_code
p192
VCH
p193
sVattributes
p194
(dp195
sg33
V3acb748d0f1e9265
p196
sg66
VZurich
p197
sssS'coordinates'
p198
NsS'timestamp_ms'
p199
g140
sS'entities'
p200
g142
sS'in_reply_to_status_id_str'
p201
g172
sS'in_reply_to_screen_name'
p202
g160
sg89
g161
sS'retweeted'
p203
I00
sS'place'
p204
g0
(ctweepy.models
Place
p205
g2
Ntp206
Rp207
(dp208
S'full_name'
p209
g176
sg107
g177
sS'country'
p210
g179
sS'place_type'
p211
g181
sS'bounding_box'
p212
g0
(ctweepy.models
BoundingBox
p213
g2
Ntp214
Rp215
(dp216
S'type'
p217
g185
sg198
g186
sbsS'country_code'
p218
g193
sS'attributes'
p219
g195
sg24
g196
sg101
g197
sbsS'retweet_count'
p220
I0
sg108
g109
(S'\x07\xdf\x07\x0b\x16\x03\n\x00\x00\x00'
p221
tp222
Rp223
sS'in_reply_to_user_id'
p224
I136317356
sb.