ccopy_reg
_reconstructor
p0
(ctweepy.models
Status
p1
c__builtin__
object
p2
Ntp3
Rp4
(dp5
S'contributors'
p6
NsS'truncated'
p7
I00
sS'text'
p8
VYay! #ios9 https://t.co/6HZ84NhcGo
p9
sS'in_reply_to_status_id'
p10
NsS'id'
p11
I619607129683566592
sS'favorite_count'
p12
I0
sS'entities'
p13
(dp14
Vuser_mentions
p15
(lp16
sVsymbols
p17
(lp18
sVtrends
p19
(lp20
sVhashtags
p21
(lp22
(dp23
Vindices
p24
(lp25
I5
aI10
asVtext
p26
Vios9
p27
sasVurls
p28
(lp29
(dp30
Vurl
p31
Vhttps://t.co/6HZ84NhcGo
p32
sg24
(lp33
I11
aI34
asVexpanded_url
p34
Vhttps://twitter.com/rrenna/status/619599422876483585
p35
sVdisplay_url
p36
Vtwitter.com/rrenna/status/\u2026
p37
sassS'quoted_status_id'
p38
I619599422876483585
sS'_json'
p39
(dp40
Vcontributors
p41
NsVtruncated
p42
I00
sg26
g9
sVin_reply_to_status_id
p43
NsVid
p44
I619607129683566592
sVfavorite_count
p45
I0
sVsource
p46
V<a href="http://tapbots.com/tweetbot" rel="nofollow">Tweetbot for i\u039fS</a>
p47
sVquoted_status_id
p48
I619599422876483585
sVretweeted
p49
I00
sVcoordinates
p50
NsVtimestamp_ms
p51
V1436560826117
p52
sVquoted_status
p53
(dp54
g41
Nsg42
I00
sg26
V.@fraserspeirs whoa. Finally. http://t.co/TNUYKsLXDA
p55
sg43
I619584329635766273
sg44
I619599422876483585
sg45
I0
sg46
V<a href="http://tapbots.com/tweetbot" rel="nofollow">Tweetbot for i\u039fS</a>
p56
sg49
I00
sg50
NsVentities
p57
(dp58
g17
(lp59
sVmedia
p60
(lp61
(dp62
g34
Vhttp://twitter.com/rrenna/status/619599422876483585/photo/1
p63
sg36
Vpic.twitter.com/TNUYKsLXDA
p64
sg31
Vhttp://t.co/TNUYKsLXDA
p65
sVmedia_url_https
p66
Vhttps://pbs.twimg.com/media/CJlCY_bUMAEjWy_.png
p67
sVid_str
p68
V619599420850450433
p69
sVsizes
p70
(dp71
Vlarge
p72
(dp73
Vh
p74
I1334
sVresize
p75
Vfit
p76
sVw
p77
I750
ssVsmall
p78
(dp79
g74
I604
sg75
Vfit
p80
sg77
I340
ssVmedium
p81
(dp82
g74
I1067
sg75
Vfit
p83
sg77
I600
ssVthumb
p84
(dp85
g74
I150
sg75
Vcrop
p86
sg77
I150
sssg24
(lp87
I30
aI52
asVtype
p88
Vphoto
p89
sg44
I619599420850450433
sVmedia_url
p90
Vhttp://pbs.twimg.com/media/CJlCY_bUMAEjWy_.png
p91
sasg21
(lp92
sg15
(lp93
(dp94
g44
I644603
sg24
(lp95
I1
aI14
asg68
V644603
p96
sVscreen_name
p97
Vfraserspeirs
p98
sVname
p99
VFraser Speirs
p100
sasg19
(lp101
sg28
(lp102
ssVin_reply_to_screen_name
p103
Vfraserspeirs
p104
sg68
V619599422876483585
p105
sVretweet_count
p106
I0
sVin_reply_to_user_id
p107
I644603
sVfavorited
p108
I00
sVuser
p109
(dp110
Vfollow_request_sent
p111
NsVprofile_use_background_image
p112
I01
sVdefault_profile_image
p113
I00
sg44
I49685297
sVverified
p114
I00
sVprofile_image_url_https
p115
Vhttps://pbs.twimg.com/profile_images/606512781832155136/DlXyac_3_normal.jpg
p116
sVprofile_sidebar_fill_color
p117
V252429
p118
sVprofile_text_color
p119
V666666
p120
sVfollowers_count
p121
I163
sVprofile_sidebar_border_color
p122
V181A1E
p123
sg68
V49685297
p124
sVprofile_background_color
p125
V1A1B1F
p126
sVlisted_count
p127
I13
sVprofile_background_image_url_https
p128
Vhttps://abs.twimg.com/images/themes/theme9/bg.gif
p129
sVutc_offset
p130
I-14400
sVstatuses_count
p131
I3148
sVdescription
p132
VA film loving, board game addicted nerd and professional iOS ninja living in Canada. Co-founder / Senior Developer of @getraur
p133
sVfriends_count
p134
I246
sVlocation
p135
VCanada
p136
sVprofile_link_color
p137
V2FC2EF
p138
sVprofile_image_url
p139
Vhttp://pbs.twimg.com/profile_images/606512781832155136/DlXyac_3_normal.jpg
p140
sVfollowing
p141
NsVgeo_enabled
p142
I01
sVprofile_banner_url
p143
Vhttps://pbs.twimg.com/profile_banners/49685297/1363671519
p144
sVprofile_background_image_url
p145
Vhttp://abs.twimg.com/images/themes/theme9/bg.gif
p146
sg99
VRyan Renna
p147
sVlang
p148
Ven
p149
sVprofile_background_tile
p150
I00
sVfavourites_count
p151
I279
sg97
Vrrenna
p152
sVnotifications
p153
Nsg31
Vhttp://www.raur.co
p154
sVcreated_at
p155
VMon Jun 22 16:46:51 +0000 2009
p156
sVcontributors_enabled
p157
I00
sVtime_zone
p158
VEastern Time (US & Canada)
p159
sVprotected
p160
I00
sVdefault_profile
p161
I00
sVis_translator
p162
I00
ssVgeo
p163
NsVin_reply_to_user_id_str
p164
V644603
p165
sVpossibly_sensitive
p166
I00
sg148
Ven
p167
sg155
VFri Jul 10 20:09:48 +0000 2015
p168
sVfilter_level
p169
Vlow
p170
sVin_reply_to_status_id_str
p171
V619584329635766273
p172
sVplace
p173
NsVextended_entities
p174
(dp175
g60
(lp176
(dp177
g34
Vhttp://twitter.com/rrenna/status/619599422876483585/photo/1
p178
sg36
Vpic.twitter.com/TNUYKsLXDA
p179
sg31
Vhttp://t.co/TNUYKsLXDA
p180
sg66
Vhttps://pbs.twimg.com/media/CJlCY_bUMAEjWy_.png
p181
sg68
V619599420850450433
p182
sg70
(dp183
g72
(dp184
g74
I1334
sg75
Vfit
p185
sg77
I750
ssg78
(dp186
g74
I604
sg75
Vfit
p187
sg77
I340
ssg81
(dp188
g74
I1067
sg75
Vfit
p189
sg77
I600
ssg84
(dp190
g74
I150
sg75
Vcrop
p191
sg77
I150
sssg24
(lp192
I30
aI52
asg88
Vphoto
p193
sg44
I619599420850450433
sg90
Vhttp://pbs.twimg.com/media/CJlCY_bUMAEjWy_.png
p194
sasssg57
g14
sg103
Nsg68
V619607129683566592
p195
sg106
I0
sg107
Nsg108
I00
sg109
(dp196
g111
Nsg112
I01
sg113
I00
sg44
I25335178
sg114
I00
sg115
Vhttps://pbs.twimg.com/profile_images/462166175770624000/DIKoIZVC_normal.png
p197
sg117
V99CC33
p198
sg119
V3E4415
p199
sg121
I709
sg122
VFFFFFF
p200
sg68
V25335178
p201
sg125
VC0DEED
p202
sg127
I51
sg128
Vhttps://pbs.twimg.com/profile_background_images/462168939229745153/FzMhdu55.png
p203
sg130
I-7200
sg131
I4507
sg132
ViOS developer. Geek. Member @wearerequired and founder of appart15 GmbH.
p204
sg134
I429
sg135
VZurich, Switzerland
p205
sg137
V3E7DCF
p206
sg139
Vhttp://pbs.twimg.com/profile_images/462166175770624000/DIKoIZVC_normal.png
p207
sg141
Nsg142
I01
sg143
Vhttps://pbs.twimg.com/profile_banners/25335178/1399024158
p208
sg145
Vhttp://pbs.twimg.com/profile_background_images/462168939229745153/FzMhdu55.png
p209
sg99
VDavid Condrau
p210
sg148
Ven
p211
sg150
I01
sg151
I1050
sg97
Vdcondrau
p212
sg153
Nsg31
Vhttp://www.appart15.com
p213
sg155
VThu Mar 19 16:49:12 +0000 2009
p214
sg157
I00
sg158
VGreenland
p215
sg160
I00
sg161
I00
sg162
I00
ssg163
Nsg164
Nsg166
I00
sg148
Vund
p216
sg155
VFri Jul 10 20:40:26 +0000 2015
p217
sVquoted_status_id_str
p218
V619599422876483585
p219
sg169
Vlow
p220
sg171
Nsg173
(dp221
Vfull_name
p222
VZurich, Switzerland
p223
sg31
Vhttps://api.twitter.com/1.1/geo/id/3acb748d0f1e9265.json
p224
sVcountry
p225
VSchweiz
p226
sVplace_type
p227
Vcity
p228
sVbounding_box
p229
(dp230
g88
VPolygon
p231
sg50
(lp232
(lp233
(lp234
F8.448081
aF47.320183
aa(lp235
F8.448081
aF47.434721
aa(lp236
F8.625442
aF47.434721
aa(lp237
F8.625442
aF47.320183
aaassVcountry_code
p238
VCH
p239
sVattributes
p240
(dp241
sg44
V3acb748d0f1e9265
p242
sg99
VZurich
p243
sssS'coordinates'
p244
NsS'timestamp_ms'
p245
g52
sS'quoted_status'
p246
g54
sS'source'
p247
VTweetbot for i\u039fS
p248
sS'in_reply_to_screen_name'
p249
NsS'id_str'
p250
g195
sS'retweet_count'
p251
I0
sS'in_reply_to_user_id'
p252
NsS'favorited'
p253
I00
sS'source_url'
p254
Vhttp://tapbots.com/tweetbot
p255
sS'user'
p256
g0
(ctweepy.models
User
p257
g2
Ntp258
Rp259
(dp260
S'follow_request_sent'
p261
NsS'profile_use_background_image'
p262
I01
sS'profile_sidebar_fill_color'
p263
g198
sg11
I25335178
sS'verified'
p264
I00
sS'profile_image_url_https'
p265
g197
sg39
g196
sS'contributors_enabled'
p266
I00
sS'profile_text_color'
p267
g199
sS'followers_count'
p268
I709
sS'profile_sidebar_border_color'
p269
g200
sS'location'
p270
g205
sS'default_profile_image'
p271
I00
sg250
g201
sS'utc_offset'
p272
I-7200
sS'statuses_count'
p273
I4507
sS'description'
p274
g204
sS'friends_count'
p275
I429
sS'profile_link_color'
p276
g206
sS'profile_image_url'
p277
g207
sS'notifications'
p278
NsS'geo_enabled'
p279
I01
sS'profile_background_color'
p280
g202
sS'profile_banner_url'
p281
g208
sS'profile_background_image_url'
p282
g209
sS'name'
p283
g210
sS'lang'
p284
g211
sS'following'
p285
I00
sS'profile_background_tile'
p286
I01
sS'favourites_count'
p287
I1050
sS'screen_name'
p288
g212
sS'url'
p289
g213
sS'created_at'
p290
cdatetime
datetime
p291
(S'\x07\xd9\x03\x13\x101\x0c\x00\x00\x00'
p292
tp293
Rp294
sS'profile_background_image_url_https'
p295
g203
sS'time_zone'
p296
g215
sS'protected'
p297
I00
sS'default_profile'
p298
I00
sS'is_translator'
p299
I00
sS'listed_count'
p300
I51
sbsS'geo'
p301
NsS'in_reply_to_user_id_str'
p302
NsS'possibly_sensitive'
p303
I00
sg284
g216
sg290
g291
(S'\x07\xdf\x07\n\x14(\x1a\x00\x00\x00'
p304
tp305
Rp306
sS'author'
p307
g259
sS'quoted_status_id_str'
p308
g219
sS'filter_level'
p309
g220
sS'in_reply_to_status_id_str'
p310
NsS'place'
p311
g0
(ctweepy.models
Place
p312
g2
Ntp313
Rp314
(dp315
S'full_name'
p316
g223
sg289
g224
sS'country'
p317
g226
sS'place_type'
p318
g228
sS'bounding_box'
p319
g0
(ctweepy.models
BoundingBox
p320
g2
Ntp321
Rp322
(dp323
S'type'
p324
g231
sg244
g232
sbsS'country_code'
p325
g239
sS'attributes'
p326
g241
sg11
g242
sg283
g243
sbsS'retweeted'
p327
I00
sb.