ccopy_reg
_reconstructor
p0
(ctweepy.models
Status
p1
c__builtin__
object
p2
Ntp3
Rp4
(dp5
S'favorited'
p6
I00
sS'contributors'
p7
NsS'truncated'
p8
I00
sS'text'
p9
V@ken_wheeler @scotch_io @simeydotme works on codepen but not here http://t.co/sHmXb89JPK
p10
sS'source_url'
p11
Vhttp://tapbots.com/tweetbot
p12
sS'possibly_sensitive'
p13
I00
sS'in_reply_to_status_id'
p14
I619262231310671872
sS'user'
p15
g0
(ctweepy.models
User
p16
g2
Ntp17
Rp18
(dp19
S'follow_request_sent'
p20
NsS'profile_use_background_image'
p21
I01
sS'profile_sidebar_fill_color'
p22
VDDEEF6
p23
sS'id'
p24
I14418232
sS'verified'
p25
I00
sS'profile_image_url_https'
p26
Vhttps://pbs.twimg.com/profile_images/2578649021/ehg7a5y5h9s3wxhbtfn4_normal.jpeg
p27
sS'_json'
p28
(dp29
Vfollow_request_sent
p30
NsVprofile_use_background_image
p31
I01
sVdefault_profile_image
p32
I00
sVid
p33
I14418232
sVverified
p34
I00
sVprofile_image_url_https
p35
g27
sVprofile_sidebar_fill_color
p36
g23
sVprofile_text_color
p37
V333333
p38
sVfollowers_count
p39
I1492
sVprofile_sidebar_border_color
p40
VFFFFFF
p41
sVid_str
p42
V14418232
p43
sVprofile_background_color
p44
VC0DEED
p45
sVlisted_count
p46
I64
sVprofile_background_image_url_https
p47
Vhttps://abs.twimg.com/images/themes/theme1/bg.png
p48
sVutc_offset
p49
I7200
sVstatuses_count
p50
I6226
sVdescription
p51
VPartner and Software Engineer @gridonic. Colorful terminal and coffee addict. Loves sports. And great food.
p52
sVfriends_count
p53
I658
sVlocation
p54
VZurich, Switzerland
p55
sVprofile_link_color
p56
V0084B4
p57
sVprofile_image_url
p58
Vhttp://pbs.twimg.com/profile_images/2578649021/ehg7a5y5h9s3wxhbtfn4_normal.jpeg
p59
sVfollowing
p60
NsVgeo_enabled
p61
I01
sVprofile_banner_url
p62
Vhttps://pbs.twimg.com/profile_banners/14418232/1351462160
p63
sVprofile_background_image_url
p64
Vhttp://abs.twimg.com/images/themes/theme1/bg.png
p65
sVname
p66
VPeter Siska
p67
sVlang
p68
Ven
p69
sVprofile_background_tile
p70
I00
sVfavourites_count
p71
I1002
sVscreen_name
p72
Vpeschee
p73
sVnotifications
p74
NsVurl
p75
Vhttp://gridonic.ch
p76
sVcreated_at
p77
VThu Apr 17 08:53:54 +0000 2008
p78
sVcontributors_enabled
p79
I00
sVtime_zone
p80
VBern
p81
sVprotected
p82
I00
sVdefault_profile
p83
I00
sVis_translator
p84
I00
ssS'contributors_enabled'
p85
I00
sS'profile_text_color'
p86
g38
sS'followers_count'
p87
I1492
sS'profile_sidebar_border_color'
p88
g41
sS'location'
p89
g55
sS'default_profile_image'
p90
I00
sS'id_str'
p91
g43
sS'utc_offset'
p92
I7200
sS'statuses_count'
p93
I6226
sS'description'
p94
g52
sS'friends_count'
p95
I658
sS'profile_link_color'
p96
g57
sS'profile_image_url'
p97
g59
sS'notifications'
p98
NsS'geo_enabled'
p99
I01
sS'profile_background_color'
p100
g45
sS'profile_banner_url'
p101
g63
sS'profile_background_image_url'
p102
g65
sS'name'
p103
g67
sS'lang'
p104
g69
sS'following'
p105
I00
sS'profile_background_tile'
p106
I00
sS'favourites_count'
p107
I1002
sS'screen_name'
p108
g73
sS'url'
p109
g76
sS'created_at'
p110
cdatetime
datetime
p111
(S'\x07\xd8\x04\x11\x0856\x00\x00\x00'
p112
tp113
Rp114
sS'profile_background_image_url_https'
p115
g48
sS'time_zone'
p116
g81
sS'protected'
p117
I00
sS'default_profile'
p118
I00
sS'is_translator'
p119
I00
sS'listed_count'
p120
I64
sbsS'filter_level'
p121
Vlow
p122
sS'geo'
p123
(dp124
Vtype
p125
VPoint
p126
sVcoordinates
p127
(lp128
F47.394907
aF8.522022
assg24
I619268805697642496
sS'favorite_count'
p129
I0
sS'source'
p130
VTweetbot for i\u039fS
p131
sg104
Ven
p132
sS'author'
p133
g18
sS'in_reply_to_user_id_str'
p134
V167193309
p135
sg28
(dp136
Vcontributors
p137
NsVtruncated
p138
I00
sVtext
p139
g10
sVin_reply_to_status_id
p140
I619262231310671872
sg33
I619268805697642496
sVfavorite_count
p141
I0
sVsource
p142
V<a href="http://tapbots.com/tweetbot" rel="nofollow">Tweetbot for i\u039fS</a>
p143
sVretweeted
p144
I00
sg127
(dp145
g125
VPoint
p146
sg127
(lp147
F8.522022
aF47.394907
assVtimestamp_ms
p148
V1436480163393
p149
sVentities
p150
(dp151
Vuser_mentions
p152
(lp153
(dp154
g33
I167193309
sVindices
p155
(lp156
I0
aI12
asg42
V167193309
p157
sg72
Vken_wheeler
p158
sg66
VKen Wheeler
p159
sa(dp160
g33
I1122906733
sg155
(lp161
I13
aI23
asg42
V1122906733
p162
sg72
Vscotch_io
p163
sg66
VScotch Development
p164
sa(dp165
g33
I95399869
sg155
(lp166
I24
aI35
asg42
V95399869
p167
sg72
Vsimeydotme
p168
sg66
Vsimeydotme
p169
sasVsymbols
p170
(lp171
sVtrends
p172
(lp173
sVhashtags
p174
(lp175
sVurls
p176
(lp177
(dp178
g75
Vhttp://t.co/sHmXb89JPK
p179
sg155
(lp180
I66
aI88
asVexpanded_url
p181
Vhttp://simeydotme.github.io/jQuery-ui-Slider-Pips/#styling-flat
p182
sVdisplay_url
p183
Vsimeydotme.github.io/jQuery-ui-Slid\u2026
p184
sassVin_reply_to_screen_name
p185
Vken_wheeler
p186
sg42
V619268805697642496
p187
sVretweet_count
p188
I0
sVin_reply_to_user_id
p189
I167193309
sVfavorited
p190
I00
sVuser
p191
g29
sVgeo
p192
g124
sVin_reply_to_user_id_str
p193
g135
sVpossibly_sensitive
p194
I00
sg68
g132
sg77
VThu Jul 09 22:16:03 +0000 2015
p195
sVfilter_level
p196
g122
sVin_reply_to_status_id_str
p197
V619262231310671872
p198
sVplace
p199
(dp200
Vfull_name
p201
VZurich, Switzerland
p202
sg75
Vhttps://api.twitter.com/1.1/geo/id/3acb748d0f1e9265.json
p203
sVcountry
p204
VSchweiz
p205
sVplace_type
p206
Vcity
p207
sVbounding_box
p208
(dp209
g125
VPolygon
p210
sg127
(lp211
(lp212
(lp213
F8.448081
aF47.320183
aa(lp214
F8.448081
aF47.434721
aa(lp215
F8.625442
aF47.434721
aa(lp216
F8.625442
aF47.320183
aaassVcountry_code
p217
VCH
p218
sVattributes
p219
(dp220
sg33
V3acb748d0f1e9265
p221
sg66
VZurich
p222
sssS'coordinates'
p223
g145
sS'timestamp_ms'
p224
g149
sS'entities'
p225
g151
sS'in_reply_to_status_id_str'
p226
g198
sS'in_reply_to_screen_name'
p227
g186
sg91
g187
sS'retweeted'
p228
I00
sS'place'
p229
g0
(ctweepy.models
Place
p230
g2
Ntp231
Rp232
(dp233
S'full_name'
p234
g202
sg109
g203
sS'country'
p235
g205
sS'place_type'
p236
g207
sS'bounding_box'
p237
g0
(ctweepy.models
BoundingBox
p238
g2
Ntp239
Rp240
(dp241
S'type'
p242
g210
sg223
g211
sbsS'country_code'
p243
g218
sS'attributes'
p244
g220
sg24
g221
sg103
g222
sbsS'retweet_count'
p245
I0
sg110
g111
(S'\x07\xdf\x07\t\x16\x10\x03\x00\x00\x00'
p246
tp247
Rp248
sS'in_reply_to_user_id'
p249
I167193309
sb.