ccopy_reg
_reconstructor
p0
(ctweepy.models
Status
p1
c__builtin__
object
p2
Ntp3
Rp4
(dp5
S'favorited'
p6
I00
sS'contributors'
p7
NsS'truncated'
p8
I00
sS'text'
p9
VAttractive commercial areas with #ottotiles\u000a\u000a#ottomantiles\u000a#cementtiles\u000a#zementfliesen #tiles\u2026 https://t.co/WUOtDDmvtC
p10
sS'source_url'
p11
Vhttp://instagram.com
p12
sS'possibly_sensitive'
p13
I00
sS'in_reply_to_status_id'
p14
NsS'user'
p15
g0
(ctweepy.models
User
p16
g2
Ntp17
Rp18
(dp19
S'follow_request_sent'
p20
NsS'profile_use_background_image'
p21
I01
sS'profile_sidebar_fill_color'
p22
VDDEEF6
p23
sS'id'
p24
I2753405169
sS'verified'
p25
I00
sS'profile_image_url_https'
p26
Vhttps://pbs.twimg.com/profile_images/520127368418312192/6mrpXPCQ_normal.jpeg
p27
sS'_json'
p28
(dp29
Vfollow_request_sent
p30
NsVprofile_use_background_image
p31
I01
sVdefault_profile_image
p32
I00
sVid
p33
I2753405169
sVverified
p34
I00
sVprofile_image_url_https
p35
g27
sVprofile_sidebar_fill_color
p36
g23
sVprofile_text_color
p37
V333333
p38
sVfollowers_count
p39
I38
sVprofile_sidebar_border_color
p40
VC0DEED
p41
sVid_str
p42
V2753405169
p43
sVprofile_background_color
p44
VC0DEED
p45
sVlisted_count
p46
I3
sVprofile_background_image_url_https
p47
Vhttps://abs.twimg.com/images/themes/theme1/bg.png
p48
sVutc_offset
p49
NsVstatuses_count
p50
I196
sVdescription
p51
VBased in Istanbul we are a specialist and unique international exporter of exclusive hand crafted cement tiles, and Topkapi Palace tiles.
p52
sVfriends_count
p53
I64
sVlocation
p54
VIstanbul
p55
sVprofile_link_color
p56
V0084B4
p57
sVprofile_image_url
p58
Vhttp://pbs.twimg.com/profile_images/520127368418312192/6mrpXPCQ_normal.jpeg
p59
sVfollowing
p60
NsVgeo_enabled
p61
I01
sVprofile_banner_url
p62
Vhttps://pbs.twimg.com/profile_banners/2753405169/1412843328
p63
sVprofile_background_image_url
p64
Vhttp://abs.twimg.com/images/themes/theme1/bg.png
p65
sVname
p66
VOtto tiles
p67
sVlang
p68
Ven
p69
sVprofile_background_tile
p70
I00
sVfavourites_count
p71
I3
sVscreen_name
p72
Vottotiles
p73
sVnotifications
p74
NsVurl
p75
Vhttp://www.ottomantile.com
p76
sVcreated_at
p77
VThu Aug 28 16:11:46 +0000 2014
p78
sVcontributors_enabled
p79
I00
sVtime_zone
p80
NsVprotected
p81
I00
sVdefault_profile
p82
I01
sVis_translator
p83
I00
ssS'contributors_enabled'
p84
I00
sS'profile_text_color'
p85
g38
sS'followers_count'
p86
I38
sS'profile_sidebar_border_color'
p87
g41
sS'location'
p88
g55
sS'default_profile_image'
p89
I00
sS'id_str'
p90
g43
sS'utc_offset'
p91
NsS'statuses_count'
p92
I196
sS'description'
p93
g52
sS'friends_count'
p94
I64
sS'profile_link_color'
p95
g57
sS'profile_image_url'
p96
g59
sS'notifications'
p97
NsS'geo_enabled'
p98
I01
sS'profile_background_color'
p99
g45
sS'profile_banner_url'
p100
g63
sS'profile_background_image_url'
p101
g65
sS'name'
p102
g67
sS'lang'
p103
g69
sS'following'
p104
I00
sS'profile_background_tile'
p105
I00
sS'favourites_count'
p106
I3
sS'screen_name'
p107
g73
sS'url'
p108
g76
sS'created_at'
p109
cdatetime
datetime
p110
(S'\x07\xde\x08\x1c\x10\x0b.\x00\x00\x00'
p111
tp112
Rp113
sS'profile_background_image_url_https'
p114
g48
sS'time_zone'
p115
NsS'protected'
p116
I00
sS'default_profile'
p117
I01
sS'is_translator'
p118
I00
sS'listed_count'
p119
I3
sbsS'filter_level'
p120
Vlow
p121
sS'geo'
p122
(dp123
Vtype
p124
VPoint
p125
sVcoordinates
p126
(lp127
F47.376356
aF8.541816
assg24
I618729674093535233
sS'favorite_count'
p128
I0
sS'source'
p129
VInstagram
p130
sg103
Ven
p131
sS'author'
p132
g18
sS'in_reply_to_user_id_str'
p133
Nsg28
(dp134
Vcontributors
p135
NsVtruncated
p136
I00
sVtext
p137
VAttractive commercial areas with #ottotiles\u000a\u000a#ottomantiles\u000a#cementtiles\u000a#zementfliesen #tiles\u2026 https://t.co/WUOtDDmvtC
p138
sVin_reply_to_status_id
p139
Nsg33
I618729674093535233
sVfavorite_count
p140
I0
sVsource
p141
V<a href="http://instagram.com" rel="nofollow">Instagram</a>
p142
sVretweeted
p143
I00
sg126
(dp144
g124
VPoint
p145
sg126
(lp146
F8.541816
aF47.376356
assVtimestamp_ms
p147
V1436351624402
p148
sVentities
p149
(dp150
Vuser_mentions
p151
(lp152
sVsymbols
p153
(lp154
sVtrends
p155
(lp156
sVhashtags
p157
(lp158
(dp159
Vindices
p160
(lp161
I33
aI43
asg137
Vottotiles
p162
sa(dp163
g160
(lp164
I45
aI58
asg137
Vottomantiles
p165
sa(dp166
g160
(lp167
I59
aI71
asg137
Vcementtiles
p168
sa(dp169
g160
(lp170
I72
aI86
asg137
Vzementfliesen
p171
sa(dp172
g160
(lp173
I87
aI93
asg137
Vtiles
p174
sasVurls
p175
(lp176
(dp177
g75
Vhttps://t.co/WUOtDDmvtC
p178
sg160
(lp179
I95
aI118
asVexpanded_url
p180
Vhttps://instagram.com/p/43YHBpJD5Z/
p181
sVdisplay_url
p182
Vinstagram.com/p/43YHBpJD5Z/
p183
sassVin_reply_to_screen_name
p184
Nsg42
V618729674093535233
p185
sVretweet_count
p186
I0
sVin_reply_to_user_id
p187
NsVfavorited
p188
I00
sVuser
p189
g29
sVgeo
p190
g123
sVin_reply_to_user_id_str
p191
NsVpossibly_sensitive
p192
I00
sg68
g131
sg77
VWed Jul 08 10:33:44 +0000 2015
p193
sVfilter_level
p194
g121
sVin_reply_to_status_id_str
p195
NsVplace
p196
(dp197
Vfull_name
p198
VZurich, Switzerland
p199
sg75
Vhttps://api.twitter.com/1.1/geo/id/3acb748d0f1e9265.json
p200
sVcountry
p201
VSchweiz
p202
sVplace_type
p203
Vcity
p204
sVbounding_box
p205
(dp206
g124
VPolygon
p207
sg126
(lp208
(lp209
(lp210
F8.448081
aF47.320183
aa(lp211
F8.448081
aF47.434721
aa(lp212
F8.625442
aF47.434721
aa(lp213
F8.625442
aF47.320183
aaassVcountry_code
p214
VCH
p215
sVattributes
p216
(dp217
sg33
V3acb748d0f1e9265
p218
sg66
VZurich
p219
sssS'coordinates'
p220
g144
sS'timestamp_ms'
p221
g148
sS'entities'
p222
g150
sS'in_reply_to_status_id_str'
p223
NsS'in_reply_to_screen_name'
p224
Nsg90
g185
sS'retweeted'
p225
I00
sS'place'
p226
g0
(ctweepy.models
Place
p227
g2
Ntp228
Rp229
(dp230
S'full_name'
p231
g199
sg108
g200
sS'country'
p232
g202
sS'place_type'
p233
g204
sS'bounding_box'
p234
g0
(ctweepy.models
BoundingBox
p235
g2
Ntp236
Rp237
(dp238
S'type'
p239
g207
sg220
g208
sbsS'country_code'
p240
g215
sS'attributes'
p241
g217
sg24
g218
sg102
g219
sbsS'retweet_count'
p242
I0
sg109
g110
(S'\x07\xdf\x07\x08\n!,\x00\x00\x00'
p243
tp244
Rp245
sS'in_reply_to_user_id'
p246
Nsb.