ccopy_reg
_reconstructor
p0
(ctweepy.models
Status
p1
c__builtin__
object
p2
Ntp3
Rp4
(dp5
S'favorited'
p6
I00
sS'contributors'
p7
NsS'truncated'
p8
I00
sS'text'
p9
VMaschine @DjokerNole Bravo Nole!!  #WimbledonFinal
p10
sS'source_url'
p11
Vhttp://twitter.com/download/iphone
p12
sS'possibly_sensitive'
p13
I00
sS'in_reply_to_status_id'
p14
NsS'user'
p15
g0
(ctweepy.models
User
p16
g2
Ntp17
Rp18
(dp19
S'follow_request_sent'
p20
NsS'profile_use_background_image'
p21
I01
sS'profile_sidebar_fill_color'
p22
VDDEEF6
p23
sS'id'
p24
I247595301
sS'verified'
p25
I00
sS'profile_image_url_https'
p26
Vhttps://pbs.twimg.com/profile_images/594670793642123264/cV8Xx7kX_normal.jpg
p27
sS'_json'
p28
(dp29
Vfollow_request_sent
p30
NsVprofile_use_background_image
p31
I01
sVdefault_profile_image
p32
I00
sVid
p33
I247595301
sVverified
p34
I00
sVprofile_image_url_https
p35
g27
sVprofile_sidebar_fill_color
p36
g23
sVprofile_text_color
p37
V333333
p38
sVfollowers_count
p39
I406
sVprofile_sidebar_border_color
p40
VFFFFFF
p41
sVid_str
p42
V247595301
p43
sVprofile_background_color
p44
VC0DEED
p45
sVlisted_count
p46
I7
sVprofile_background_image_url_https
p47
Vhttps://pbs.twimg.com/profile_background_images/799386702/af282178c78084ad64339359782d305f.jpeg
p48
sVutc_offset
p49
I-7200
sVstatuses_count
p50
I10186
sVdescription
p51
NsVfriends_count
p52
I123
sVlocation
p53
VZurich, Switzerland 
p54
sVprofile_link_color
p55
V0084B4
p56
sVprofile_image_url
p57
Vhttp://pbs.twimg.com/profile_images/594670793642123264/cV8Xx7kX_normal.jpg
p58
sVfollowing
p59
NsVgeo_enabled
p60
I01
sVprofile_banner_url
p61
Vhttps://pbs.twimg.com/profile_banners/247595301/1430615876
p62
sVprofile_background_image_url
p63
Vhttp://pbs.twimg.com/profile_background_images/799386702/af282178c78084ad64339359782d305f.jpeg
p64
sVname
p65
VEF
p66
sVlang
p67
Ven
p68
sVprofile_background_tile
p69
I01
sVfavourites_count
p70
I1872
sVscreen_name
p71
VEMIFENTY
p72
sVnotifications
p73
NsVurl
p74
NsVcreated_at
p75
VSat Feb 05 04:01:51 +0000 2011
p76
sVcontributors_enabled
p77
I00
sVtime_zone
p78
VGreenland
p79
sVprotected
p80
I00
sVdefault_profile
p81
I00
sVis_translator
p82
I00
ssS'contributors_enabled'
p83
I00
sS'profile_text_color'
p84
g38
sS'followers_count'
p85
I406
sS'profile_sidebar_border_color'
p86
g41
sS'location'
p87
g54
sS'default_profile_image'
p88
I00
sS'id_str'
p89
g43
sS'utc_offset'
p90
I-7200
sS'statuses_count'
p91
I10186
sS'description'
p92
NsS'friends_count'
p93
I123
sS'profile_link_color'
p94
g56
sS'profile_image_url'
p95
g58
sS'notifications'
p96
NsS'geo_enabled'
p97
I01
sS'profile_background_color'
p98
g45
sS'profile_banner_url'
p99
g62
sS'profile_background_image_url'
p100
g64
sS'name'
p101
g66
sS'lang'
p102
g68
sS'following'
p103
I00
sS'profile_background_tile'
p104
I01
sS'favourites_count'
p105
I1872
sS'screen_name'
p106
g72
sS'url'
p107
NsS'created_at'
p108
cdatetime
datetime
p109
(S'\x07\xdb\x02\x05\x04\x013\x00\x00\x00'
p110
tp111
Rp112
sS'profile_background_image_url_https'
p113
g48
sS'time_zone'
p114
g79
sS'protected'
p115
I00
sS'default_profile'
p116
I00
sS'is_translator'
p117
I00
sS'listed_count'
p118
I7
sbsS'filter_level'
p119
Vlow
p120
sS'geo'
p121
Nsg24
I620277173287583744
sS'favorite_count'
p122
I0
sS'source'
p123
VTwitter for iPhone
p124
sg102
Vit
p125
sS'author'
p126
g18
sS'in_reply_to_user_id_str'
p127
Nsg28
(dp128
Vcontributors
p129
NsVtruncated
p130
I00
sVtext
p131
g10
sVin_reply_to_status_id
p132
Nsg33
I620277173287583744
sVfavorite_count
p133
I0
sVsource
p134
V<a href="http://twitter.com/download/iphone" rel="nofollow">Twitter for iPhone</a>
p135
sVretweeted
p136
I00
sVcoordinates
p137
NsVtimestamp_ms
p138
V1436720576961
p139
sVentities
p140
(dp141
Vuser_mentions
p142
(lp143
(dp144
g33
I259925559
sVindices
p145
(lp146
I9
aI20
asg42
V259925559
p147
sg71
VDjokerNole
p148
sg65
VNovak Djokovic
p149
sasVsymbols
p150
(lp151
sVtrends
p152
(lp153
sVhashtags
p154
(lp155
(dp156
g145
(lp157
I35
aI50
asg131
VWimbledonFinal
p158
sasVurls
p159
(lp160
ssVin_reply_to_screen_name
p161
Nsg42
V620277173287583744
p162
sVretweet_count
p163
I0
sVin_reply_to_user_id
p164
NsVfavorited
p165
I00
sVuser
p166
g29
sVgeo
p167
NsVin_reply_to_user_id_str
p168
NsVpossibly_sensitive
p169
I00
sg67
g125
sg75
VSun Jul 12 17:02:56 +0000 2015
p170
sVfilter_level
p171
g120
sVin_reply_to_status_id_str
p172
NsVplace
p173
(dp174
Vfull_name
p175
VZurich, Switzerland
p176
sg74
Vhttps://api.twitter.com/1.1/geo/id/db94c1cccc67c4f4.json
p177
sVcountry
p178
VSchweiz
p179
sVplace_type
p180
Vadmin
p181
sVbounding_box
p182
(dp183
Vtype
p184
VPolygon
p185
sg137
(lp186
(lp187
(lp188
F8.357749
aF47.159384
aa(lp189
F8.357749
aF47.694503
aa(lp190
F8.984445
aF47.694503
aa(lp191
F8.984445
aF47.159384
aaassVcountry_code
p192
VCH
p193
sVattributes
p194
(dp195
sg33
Vdb94c1cccc67c4f4
p196
sg65
VZurich
p197
sssS'coordinates'
p198
NsS'timestamp_ms'
p199
g139
sS'entities'
p200
g141
sS'in_reply_to_status_id_str'
p201
NsS'in_reply_to_screen_name'
p202
Nsg89
g162
sS'retweeted'
p203
I00
sS'place'
p204
g0
(ctweepy.models
Place
p205
g2
Ntp206
Rp207
(dp208
S'full_name'
p209
g176
sg107
g177
sS'country'
p210
g179
sS'place_type'
p211
g181
sS'bounding_box'
p212
g0
(ctweepy.models
BoundingBox
p213
g2
Ntp214
Rp215
(dp216
S'type'
p217
g185
sg198
g186
sbsS'country_code'
p218
g193
sS'attributes'
p219
g195
sg24
g196
sg101
g197
sbsS'retweet_count'
p220
I0
sg108
g109
(S'\x07\xdf\x07\x0c\x11\x028\x00\x00\x00'
p221
tp222
Rp223
sS'in_reply_to_user_id'
p224
Nsb.