ccopy_reg
_reconstructor
p0
(ctweepy.models
Status
p1
c__builtin__
object
p2
Ntp3
Rp4
(dp5
S'contributors'
p6
NsS'truncated'
p7
I00
sS'text'
p8
V\u201c@pegoCATS: @thorharris666 watch this! So smart &amp; kind. https://t.co/kMJm6Pr8OP\u201d so wise and kind.
p9
sS'in_reply_to_status_id'
p10
I620693259556225024
sS'id'
p11
I620697723273105408
sS'favorite_count'
p12
I0
sS'entities'
p13
(dp14
Vuser_mentions
p15
(lp16
(dp17
Vid
p18
I3259461721
sVindices
p19
(lp20
I1
aI10
asVid_str
p21
V3259461721
p22
sVscreen_name
p23
VpegoCATS
p24
sVname
p25
VpegoCATS
p26
sa(dp27
g18
I284545091
sg19
(lp28
I12
aI26
asg21
V284545091
p29
sg23
Vthorharris666
p30
sg25
Vthor harris
p31
sasVsymbols
p32
(lp33
sVtrends
p34
(lp35
sVhashtags
p36
(lp37
sVurls
p38
(lp39
(dp40
Vurl
p41
Vhttps://t.co/kMJm6Pr8OP
p42
sg19
(lp43
I60
aI83
asVexpanded_url
p44
Vhttps://twitter.com/fakedansavage/status/619170079033442304
p45
sVdisplay_url
p46
Vtwitter.com/fakedansavage/\u2026
p47
sassS'quoted_status_id'
p48
I619170079033442304
sS'_json'
p49
(dp50
Vcontributors
p51
NsVtruncated
p52
I00
sVtext
p53
g9
sVin_reply_to_status_id
p54
I620693259556225024
sg18
I620697723273105408
sVfavorite_count
p55
I0
sVsource
p56
V<a href="http://twitter.com/download/iphone" rel="nofollow">Twitter for iPhone</a>
p57
sVquoted_status_id
p58
I619170079033442304
sVretweeted
p59
I00
sVcoordinates
p60
NsVtimestamp_ms
p61
V1436820843891
p62
sVquoted_status
p63
(dp64
g51
Nsg52
I00
sg53
VEverything you know about addiction is wrong\u2014@johannhari101's @TEDTalks. Watch: http://t.co/mcJ2kchKGH
p65
sg54
Nsg18
I619170079033442304
sg55
I0
sg56
V<a href="http://twitter.com" rel="nofollow">Twitter Web Client</a>
p66
sg59
I00
sg60
NsVentities
p67
(dp68
g15
(lp69
(dp70
g18
I78890225
sg19
(lp71
I45
aI59
asg21
V78890225
p72
sg23
Vjohannhari101
p73
sg25
VJohann Hari
p74
sa(dp75
g18
I15492359
sg19
(lp76
I62
aI71
asg21
V15492359
p77
sg23
VTEDTalks
p78
sg25
VTED Talks
p79
sasg32
(lp80
sg34
(lp81
sg36
(lp82
sg38
(lp83
(dp84
g41
Vhttp://t.co/mcJ2kchKGH
p85
sg19
(lp86
I80
aI102
asg44
Vhttp://www.ted.com/talks/johann_hari_everything_you_think_you_know_about_addiction_is_wrong
p87
sg46
Vted.com/talks/johann_h\u2026
p88
sassVin_reply_to_screen_name
p89
Nsg21
V619170079033442304
p90
sVretweet_count
p91
I0
sVin_reply_to_user_id
p92
NsVfavorited
p93
I00
sVuser
p94
(dp95
Vfollow_request_sent
p96
NsVprofile_use_background_image
p97
I01
sVdefault_profile_image
p98
I00
sg18
I313091751
sVverified
p99
I01
sVprofile_image_url_https
p100
Vhttps://pbs.twimg.com/profile_images/606872264609431552/7nEkRJd__normal.jpg
p101
sVprofile_sidebar_fill_color
p102
VDDEEF6
p103
sVprofile_text_color
p104
V333333
p105
sVfollowers_count
p106
I227657
sVprofile_sidebar_border_color
p107
VC0DEED
p108
sg21
V313091751
p109
sVprofile_background_color
p110
VC0DEED
p111
sVlisted_count
p112
I3488
sVprofile_background_image_url_https
p113
Vhttps://abs.twimg.com/images/themes/theme1/bg.png
p114
sVutc_offset
p115
I-25200
sVstatuses_count
p116
I22065
sVdescription
p117
VI write Savage Love and host the weekly Savage Lovecast. Mentally ill sodomite.
p118
sVfriends_count
p119
I978
sVlocation
p120
VSeattle
p121
sVprofile_link_color
p122
V0084B4
p123
sVprofile_image_url
p124
Vhttp://pbs.twimg.com/profile_images/606872264609431552/7nEkRJd__normal.jpg
p125
sVfollowing
p126
NsVgeo_enabled
p127
I01
sVprofile_banner_url
p128
Vhttps://pbs.twimg.com/profile_banners/313091751/1417387357
p129
sVprofile_background_image_url
p130
Vhttp://abs.twimg.com/images/themes/theme1/bg.png
p131
sg25
VDan Savage
p132
sVlang
p133
Ven
p134
sVprofile_background_tile
p135
I00
sVfavourites_count
p136
I89
sg23
Vfakedansavage
p137
sVnotifications
p138
Nsg41
Vhttp://www.savagelovecast.com
p139
sVcreated_at
p140
VWed Jun 08 04:05:58 +0000 2011
p141
sVcontributors_enabled
p142
I00
sVtime_zone
p143
VArizona
p144
sVprotected
p145
I00
sVdefault_profile
p146
I01
sVis_translator
p147
I00
ssVgeo
p148
NsVin_reply_to_user_id_str
p149
NsVpossibly_sensitive
p150
I00
sg133
Ven
p151
sg140
VThu Jul 09 15:43:45 +0000 2015
p152
sVfilter_level
p153
Vlow
p154
sVin_reply_to_status_id_str
p155
NsVplace
p156
Nssg67
g14
sg89
VpegoCATS
p157
sg21
V620697723273105408
p158
sg91
I0
sg92
I3259461721
sg93
I00
sg94
(dp159
g96
Nsg97
I01
sg98
I00
sg18
I284545091
sg99
I00
sg100
Vhttps://pbs.twimg.com/profile_images/572114725535805442/_9kuQFwh_normal.jpeg
p160
sg102
VDDEEF6
p161
sg104
V333333
p162
sg106
I4954
sg107
VC0DEED
p163
sg21
V284545091
p164
sg110
VC0DEED
p165
sg112
I85
sg113
Vhttps://abs.twimg.com/images/themes/theme1/bg.png
p166
sg115
I-18000
sg116
I15184
sg117
VI play drums
p167
sg119
I508
sg120
VAustin Texas
p168
sg122
V0084B4
p169
sg124
Vhttp://pbs.twimg.com/profile_images/572114725535805442/_9kuQFwh_normal.jpeg
p170
sg126
Nsg127
I01
sg128
Vhttps://pbs.twimg.com/profile_banners/284545091/1381869811
p171
sg130
Vhttp://abs.twimg.com/images/themes/theme1/bg.png
p172
sg25
Vthor harris
p173
sg133
Ven
p174
sg135
I00
sg136
I8991
sg23
Vthorharris666
p175
sg138
Nsg41
Nsg140
VTue Apr 19 13:50:14 +0000 2011
p176
sg142
I00
sg143
VQuito
p177
sg145
I00
sg146
I01
sg147
I00
ssg148
Nsg149
V3259461721
p178
sg150
I00
sg133
Ven
p179
sg140
VMon Jul 13 20:54:03 +0000 2015
p180
sVquoted_status_id_str
p181
V619170079033442304
p182
sg153
Vlow
p183
sg155
V620693259556225024
p184
sg156
(dp185
Vfull_name
p186
VZurich, Switzerland
p187
sg41
Vhttps://api.twitter.com/1.1/geo/id/3acb748d0f1e9265.json
p188
sVcountry
p189
VSchweiz
p190
sVplace_type
p191
Vcity
p192
sVbounding_box
p193
(dp194
Vtype
p195
VPolygon
p196
sg60
(lp197
(lp198
(lp199
F8.448081
aF47.320183
aa(lp200
F8.448081
aF47.434721
aa(lp201
F8.625442
aF47.434721
aa(lp202
F8.625442
aF47.320183
aaassVcountry_code
p203
VCH
p204
sVattributes
p205
(dp206
sg18
V3acb748d0f1e9265
p207
sg25
VZurich
p208
sssS'coordinates'
p209
NsS'timestamp_ms'
p210
g62
sS'quoted_status'
p211
g64
sS'source'
p212
VTwitter for iPhone
p213
sS'in_reply_to_screen_name'
p214
g157
sS'id_str'
p215
g158
sS'retweet_count'
p216
I0
sS'in_reply_to_user_id'
p217
I3259461721
sS'favorited'
p218
I00
sS'source_url'
p219
Vhttp://twitter.com/download/iphone
p220
sS'user'
p221
g0
(ctweepy.models
User
p222
g2
Ntp223
Rp224
(dp225
S'follow_request_sent'
p226
NsS'profile_use_background_image'
p227
I01
sS'profile_sidebar_fill_color'
p228
g161
sg11
I284545091
sS'verified'
p229
I00
sS'profile_image_url_https'
p230
g160
sg49
g159
sS'contributors_enabled'
p231
I00
sS'profile_text_color'
p232
g162
sS'followers_count'
p233
I4954
sS'profile_sidebar_border_color'
p234
g163
sS'location'
p235
g168
sS'default_profile_image'
p236
I00
sg215
g164
sS'utc_offset'
p237
I-18000
sS'statuses_count'
p238
I15184
sS'description'
p239
g167
sS'friends_count'
p240
I508
sS'profile_link_color'
p241
g169
sS'profile_image_url'
p242
g170
sS'notifications'
p243
NsS'geo_enabled'
p244
I01
sS'profile_background_color'
p245
g165
sS'profile_banner_url'
p246
g171
sS'profile_background_image_url'
p247
g172
sS'name'
p248
g173
sS'lang'
p249
g174
sS'following'
p250
I00
sS'profile_background_tile'
p251
I00
sS'favourites_count'
p252
I8991
sS'screen_name'
p253
g175
sS'url'
p254
NsS'created_at'
p255
cdatetime
datetime
p256
(S'\x07\xdb\x04\x13\r2\x0e\x00\x00\x00'
p257
tp258
Rp259
sS'profile_background_image_url_https'
p260
g166
sS'time_zone'
p261
g177
sS'protected'
p262
I00
sS'default_profile'
p263
I01
sS'is_translator'
p264
I00
sS'listed_count'
p265
I85
sbsS'geo'
p266
NsS'in_reply_to_user_id_str'
p267
g178
sS'possibly_sensitive'
p268
I00
sg249
g179
sg255
g256
(S'\x07\xdf\x07\r\x146\x03\x00\x00\x00'
p269
tp270
Rp271
sS'author'
p272
g224
sS'quoted_status_id_str'
p273
g182
sS'filter_level'
p274
g183
sS'in_reply_to_status_id_str'
p275
g184
sS'place'
p276
g0
(ctweepy.models
Place
p277
g2
Ntp278
Rp279
(dp280
S'full_name'
p281
g187
sg254
g188
sS'country'
p282
g190
sS'place_type'
p283
g192
sS'bounding_box'
p284
g0
(ctweepy.models
BoundingBox
p285
g2
Ntp286
Rp287
(dp288
S'type'
p289
g196
sg209
g197
sbsS'country_code'
p290
g204
sS'attributes'
p291
g206
sg11
g207
sg248
g208
sbsS'retweeted'
p292
I00
sb.