ccopy_reg
_reconstructor
p0
(ctweepy.models
Status
p1
c__builtin__
object
p2
Ntp3
Rp4
(dp5
S'favorited'
p6
I00
sS'contributors'
p7
NsS'truncated'
p8
I00
sS'text'
p9
VIs French cuisine dead? Twitter chat TODAY 1 pm EDT @RamblingEpicure. Type #FutureFrenchCuisine in search box &amp; refresh to follow it.
p10
sS'source_url'
p11
Vhttp://twitter.com
p12
sS'possibly_sensitive'
p13
I00
sS'in_reply_to_status_id'
p14
NsS'user'
p15
g0
(ctweepy.models
User
p16
g2
Ntp17
Rp18
(dp19
S'follow_request_sent'
p20
NsS'profile_use_background_image'
p21
I01
sS'profile_sidebar_fill_color'
p22
VDDEEF6
p23
sS'id'
p24
I164639663
sS'verified'
p25
I00
sS'profile_image_url_https'
p26
Vhttps://pbs.twimg.com/profile_images/610187408836050944/gBVgvrHv_normal.jpg
p27
sS'_json'
p28
(dp29
Vfollow_request_sent
p30
NsVprofile_use_background_image
p31
I01
sVdefault_profile_image
p32
I00
sVid
p33
I164639663
sVverified
p34
I00
sVprofile_image_url_https
p35
g27
sVprofile_sidebar_fill_color
p36
g23
sVprofile_text_color
p37
V333333
p38
sVfollowers_count
p39
I531
sVprofile_sidebar_border_color
p40
VC0DEED
p41
sVid_str
p42
V164639663
p43
sVprofile_background_color
p44
VC0DEED
p45
sVlisted_count
p46
I24
sVprofile_background_image_url_https
p47
Vhttps://abs.twimg.com/images/themes/theme1/bg.png
p48
sVutc_offset
p49
I-7200
sVstatuses_count
p50
I5400
sVdescription
p51
VI'm a food writer and editor specializing in French cuisine. I'm writing a book, What to Eat in France. http://t.co/guV7pdhCJg  #WhatToEatInFrance #FoodWriting
p52
sVfriends_count
p53
I615
sVlocation
p54
VSwitzerland, France
p55
sVprofile_link_color
p56
V0084B4
p57
sVprofile_image_url
p58
Vhttp://pbs.twimg.com/profile_images/610187408836050944/gBVgvrHv_normal.jpg
p59
sVfollowing
p60
NsVgeo_enabled
p61
I01
sVprofile_background_image_url
p62
Vhttp://abs.twimg.com/images/themes/theme1/bg.png
p63
sVname
p64
VJonell Galloway
p65
sVlang
p66
Ven
p67
sVprofile_background_tile
p68
I00
sVfavourites_count
p69
I33
sVscreen_name
p70
VJonellGalloway
p71
sVnotifications
p72
NsVurl
p73
Vhttp://theramblingepicure.com
p74
sVcreated_at
p75
VFri Jul 09 11:01:06 +0000 2010
p76
sVcontributors_enabled
p77
I00
sVtime_zone
p78
VGreenland
p79
sVprotected
p80
I00
sVdefault_profile
p81
I01
sVis_translator
p82
I00
ssS'contributors_enabled'
p83
I00
sS'profile_text_color'
p84
g38
sS'followers_count'
p85
I531
sS'profile_sidebar_border_color'
p86
g41
sS'location'
p87
g55
sS'default_profile_image'
p88
I00
sS'id_str'
p89
g43
sS'utc_offset'
p90
I-7200
sS'statuses_count'
p91
I5400
sS'description'
p92
g52
sS'friends_count'
p93
I615
sS'profile_link_color'
p94
g57
sS'profile_image_url'
p95
g59
sS'notifications'
p96
NsS'geo_enabled'
p97
I01
sS'profile_background_color'
p98
g45
sS'profile_background_image_url'
p99
g63
sS'name'
p100
g65
sS'lang'
p101
g67
sS'following'
p102
I00
sS'profile_background_tile'
p103
I00
sS'favourites_count'
p104
I33
sS'screen_name'
p105
g71
sS'url'
p106
g74
sS'created_at'
p107
cdatetime
datetime
p108
(S'\x07\xda\x07\t\x0b\x01\x06\x00\x00\x00'
p109
tp110
Rp111
sS'profile_background_image_url_https'
p112
g48
sS'time_zone'
p113
g79
sS'protected'
p114
I00
sS'default_profile'
p115
I01
sS'is_translator'
p116
I00
sS'listed_count'
p117
I24
sbsS'filter_level'
p118
Vlow
p119
sS'geo'
p120
Nsg24
I619175793760018432
sS'favorite_count'
p121
I0
sS'source'
p122
VTwitter Web Client
p123
sg101
Ven
p124
sS'author'
p125
g18
sS'in_reply_to_user_id_str'
p126
Nsg28
(dp127
Vcontributors
p128
NsVtruncated
p129
I00
sVtext
p130
g10
sVin_reply_to_status_id
p131
Nsg33
I619175793760018432
sVfavorite_count
p132
I0
sVsource
p133
V<a href="http://twitter.com" rel="nofollow">Twitter Web Client</a>
p134
sVretweeted
p135
I00
sVcoordinates
p136
NsVtimestamp_ms
p137
V1436457987619
p138
sVentities
p139
(dp140
Vuser_mentions
p141
(lp142
(dp143
g33
I62246266
sVindices
p144
(lp145
I52
aI68
asg42
V62246266
p146
sg70
VRamblingEpicure
p147
sg64
VJonell Galloway
p148
sasVsymbols
p149
(lp150
sVtrends
p151
(lp152
sVhashtags
p153
(lp154
(dp155
g144
(lp156
I75
aI95
asg130
VFutureFrenchCuisine
p157
sasVurls
p158
(lp159
ssVin_reply_to_screen_name
p160
Nsg42
V619175793760018432
p161
sVretweet_count
p162
I0
sVin_reply_to_user_id
p163
NsVfavorited
p164
I00
sVuser
p165
g29
sVgeo
p166
NsVin_reply_to_user_id_str
p167
NsVpossibly_sensitive
p168
I00
sg66
g124
sg75
VThu Jul 09 16:06:27 +0000 2015
p169
sVfilter_level
p170
g119
sVin_reply_to_status_id_str
p171
NsVplace
p172
(dp173
Vfull_name
p174
VZurich, Switzerland
p175
sg73
Vhttps://api.twitter.com/1.1/geo/id/3acb748d0f1e9265.json
p176
sVcountry
p177
VSchweiz
p178
sVplace_type
p179
Vcity
p180
sVbounding_box
p181
(dp182
Vtype
p183
VPolygon
p184
sg136
(lp185
(lp186
(lp187
F8.448081
aF47.320183
aa(lp188
F8.448081
aF47.434721
aa(lp189
F8.625442
aF47.434721
aa(lp190
F8.625442
aF47.320183
aaassVcountry_code
p191
VCH
p192
sVattributes
p193
(dp194
sg33
V3acb748d0f1e9265
p195
sg64
VZurich
p196
sssS'coordinates'
p197
NsS'timestamp_ms'
p198
g138
sS'entities'
p199
g140
sS'in_reply_to_status_id_str'
p200
NsS'in_reply_to_screen_name'
p201
Nsg89
g161
sS'retweeted'
p202
I00
sS'place'
p203
g0
(ctweepy.models
Place
p204
g2
Ntp205
Rp206
(dp207
S'full_name'
p208
g175
sg106
g176
sS'country'
p209
g178
sS'place_type'
p210
g180
sS'bounding_box'
p211
g0
(ctweepy.models
BoundingBox
p212
g2
Ntp213
Rp214
(dp215
S'type'
p216
g184
sg197
g185
sbsS'country_code'
p217
g192
sS'attributes'
p218
g194
sg24
g195
sg100
g196
sbsS'retweet_count'
p219
I0
sg107
g108
(S'\x07\xdf\x07\t\x10\x06\x1b\x00\x00\x00'
p220
tp221
Rp222
sS'in_reply_to_user_id'
p223
Nsb.