ccopy_reg
_reconstructor
p0
(ctweepy.models
Status
p1
c__builtin__
object
p2
Ntp3
Rp4
(dp5
S'favorited'
p6
I00
sS'contributors'
p7
NsS'truncated'
p8
I00
sS'text'
p9
V@dangkyroibo Glen Miley Collier Twitter Spambot Accounts http://t.co/3JDlWROLSw @FBIJacksonville
p10
sS'source_url'
p11
Vhttp://twitter.com
p12
sS'possibly_sensitive'
p13
I00
sS'in_reply_to_status_id'
p14
NsS'user'
p15
g0
(ctweepy.models
User
p16
g2
Ntp17
Rp18
(dp19
S'follow_request_sent'
p20
NsS'profile_use_background_image'
p21
I00
sS'profile_sidebar_fill_color'
p22
V000000
p23
sS'id'
p24
I2879569993
sS'verified'
p25
I00
sS'profile_image_url_https'
p26
Vhttps://pbs.twimg.com/profile_images/610874208827146241/voSDsKk8_normal.png
p27
sS'_json'
p28
(dp29
Vfollow_request_sent
p30
NsVprofile_use_background_image
p31
I00
sVdefault_profile_image
p32
I00
sVid
p33
I2879569993
sVverified
p34
I00
sVprofile_image_url_https
p35
g27
sVprofile_sidebar_fill_color
p36
g23
sVprofile_text_color
p37
V000000
p38
sVfollowers_count
p39
I251
sVprofile_sidebar_border_color
p40
V000000
p41
sVid_str
p42
V2879569993
p43
sVprofile_background_color
p44
V000000
p45
sVlisted_count
p46
I3
sVprofile_background_image_url_https
p47
Vhttps://abs.twimg.com/images/themes/theme14/bg.gif
p48
sVutc_offset
p49
I-25200
sVstatuses_count
p50
I1394
sVdescription
p51
VNEVER COULD HIDE WHO I AM.  .http://ish.re/JJRT -not me. @PROTONMAIL.COM
p52
sVfriends_count
p53
I284
sVlocation
p54
VRepublic of Mozambique
p55
sVprofile_link_color
p56
VDD2E44
p57
sVprofile_image_url
p58
Vhttp://pbs.twimg.com/profile_images/610874208827146241/voSDsKk8_normal.png
p59
sVfollowing
p60
NsVgeo_enabled
p61
I01
sVprofile_banner_url
p62
Vhttps://pbs.twimg.com/profile_banners/2879569993/1434478513
p63
sVprofile_background_image_url
p64
Vhttp://abs.twimg.com/images/themes/theme14/bg.gif
p65
sVname
p66
VD\u2200MN\u2200L\u308bX 
p67
sVlang
p68
Ven
p69
sVprofile_background_tile
p70
I00
sVfavourites_count
p71
I30
sVscreen_name
p72
VDd0xblack1
p73
sVnotifications
p74
NsVurl
p75
NsVcreated_at
p76
VMon Oct 27 13:04:37 +0000 2014
p77
sVcontributors_enabled
p78
I00
sVtime_zone
p79
VPacific Time (US & Canada)
p80
sVprotected
p81
I00
sVdefault_profile
p82
I00
sVis_translator
p83
I00
ssS'contributors_enabled'
p84
I00
sS'profile_text_color'
p85
g38
sS'followers_count'
p86
I251
sS'profile_sidebar_border_color'
p87
g41
sS'location'
p88
g55
sS'default_profile_image'
p89
I00
sS'id_str'
p90
g43
sS'utc_offset'
p91
I-25200
sS'statuses_count'
p92
I1394
sS'description'
p93
g52
sS'friends_count'
p94
I284
sS'profile_link_color'
p95
g57
sS'profile_image_url'
p96
g59
sS'notifications'
p97
NsS'geo_enabled'
p98
I01
sS'profile_background_color'
p99
g45
sS'profile_banner_url'
p100
g63
sS'profile_background_image_url'
p101
g65
sS'name'
p102
g67
sS'lang'
p103
g69
sS'following'
p104
I00
sS'profile_background_tile'
p105
I00
sS'favourites_count'
p106
I30
sS'screen_name'
p107
g73
sS'url'
p108
NsS'created_at'
p109
cdatetime
datetime
p110
(S'\x07\xde\n\x1b\r\x04%\x00\x00\x00'
p111
tp112
Rp113
sS'profile_background_image_url_https'
p114
g48
sS'time_zone'
p115
g80
sS'protected'
p116
I00
sS'default_profile'
p117
I00
sS'is_translator'
p118
I00
sS'listed_count'
p119
I3
sbsS'filter_level'
p120
Vlow
p121
sS'geo'
p122
Nsg24
I621062502806228992
sS'favorite_count'
p123
I0
sS'source'
p124
VTwitter Web Client
p125
sg103
Ven
p126
sS'author'
p127
g18
sS'in_reply_to_user_id_str'
p128
V1422546763
p129
sg28
(dp130
Vcontributors
p131
NsVtruncated
p132
I00
sVtext
p133
g10
sVin_reply_to_status_id
p134
Nsg33
I621062502806228992
sVfavorite_count
p135
I0
sVsource
p136
V<a href="http://twitter.com" rel="nofollow">Twitter Web Client</a>
p137
sVretweeted
p138
I00
sVcoordinates
p139
NsVtimestamp_ms
p140
V1436907814109
p141
sVentities
p142
(dp143
Vuser_mentions
p144
(lp145
(dp146
g33
I1422546763
sVindices
p147
(lp148
I0
aI12
asg42
V1422546763
p149
sg72
Vdangkyroibo
p150
sg66
Vnhut vien
p151
sa(dp152
g33
I349287347
sg147
(lp153
I80
aI96
asg42
V349287347
p154
sg72
VFBIJacksonville
p155
sg66
VFBI Jacksonville
p156
sasVsymbols
p157
(lp158
sVtrends
p159
(lp160
sVhashtags
p161
(lp162
sVurls
p163
(lp164
(dp165
g75
Vhttp://t.co/3JDlWROLSw
p166
sg147
(lp167
I57
aI79
asVexpanded_url
p168
Vhttp://9rie.st/glen-miley-collier-twitter-spambot-accounts/
p169
sVdisplay_url
p170
V9rie.st/glen-miley-col\u2026
p171
sassVin_reply_to_screen_name
p172
Vdangkyroibo
p173
sg42
V621062502806228992
p174
sVretweet_count
p175
I0
sVin_reply_to_user_id
p176
I1422546763
sVfavorited
p177
I00
sVuser
p178
g29
sVgeo
p179
NsVin_reply_to_user_id_str
p180
g129
sVpossibly_sensitive
p181
I00
sg68
g126
sg76
VTue Jul 14 21:03:34 +0000 2015
p182
sVfilter_level
p183
g121
sVin_reply_to_status_id_str
p184
NsVplace
p185
(dp186
Vfull_name
p187
VBerne, Switzerland
p188
sg75
Vhttps://api.twitter.com/1.1/geo/id/5868d0e0749c9c47.json
p189
sVcountry
p190
VSchweiz
p191
sVplace_type
p192
Vadmin
p193
sVbounding_box
p194
(dp195
Vtype
p196
VPolygon
p197
sg139
(lp198
(lp199
(lp200
F6.861601
aF46.326441
aa(lp201
F6.861601
aF47.34528
aa(lp202
F8.455051
aF47.34528
aa(lp203
F8.455051
aF46.326441
aaassVcountry_code
p204
VCH
p205
sVattributes
p206
(dp207
sg33
V5868d0e0749c9c47
p208
sg66
VBern
p209
sssS'coordinates'
p210
NsS'timestamp_ms'
p211
g141
sS'entities'
p212
g143
sS'in_reply_to_status_id_str'
p213
NsS'in_reply_to_screen_name'
p214
g173
sg90
g174
sS'retweeted'
p215
I00
sS'place'
p216
g0
(ctweepy.models
Place
p217
g2
Ntp218
Rp219
(dp220
S'full_name'
p221
g188
sg108
g189
sS'country'
p222
g191
sS'place_type'
p223
g193
sS'bounding_box'
p224
g0
(ctweepy.models
BoundingBox
p225
g2
Ntp226
Rp227
(dp228
S'type'
p229
g197
sg210
g198
sbsS'country_code'
p230
g205
sS'attributes'
p231
g207
sg24
g208
sg102
g209
sbsS'retweet_count'
p232
I0
sg109
g110
(S'\x07\xdf\x07\x0e\x15\x03"\x00\x00\x00'
p233
tp234
Rp235
sS'in_reply_to_user_id'
p236
I1422546763
sb.