ccopy_reg
_reconstructor
p0
(ctweepy.models
Status
p1
c__builtin__
object
p2
Ntp3
Rp4
(dp5
S'favorited'
p6
I00
sS'contributors'
p7
NsS'truncated'
p8
I00
sS'text'
p9
V@emerald007 @eoghancrawford http://t.co/NBqPM25Vhk
p10
sS'source_url'
p11
Vhttp://twitter.com/download/iphone
p12
sS'possibly_sensitive'
p13
I00
sS'in_reply_to_status_id'
p14
I620691549039554560
sS'user'
p15
g0
(ctweepy.models
User
p16
g2
Ntp17
Rp18
(dp19
S'follow_request_sent'
p20
NsS'profile_use_background_image'
p21
I01
sS'profile_sidebar_fill_color'
p22
VEFEFEF
p23
sS'id'
p24
I198212427
sS'verified'
p25
I00
sS'profile_image_url_https'
p26
Vhttps://pbs.twimg.com/profile_images/3579847527/2a68b44ef4f590b11b5b9d8d42c879c7_normal.jpeg
p27
sS'_json'
p28
(dp29
Vfollow_request_sent
p30
NsVprofile_use_background_image
p31
I01
sVdefault_profile_image
p32
I00
sVid
p33
I198212427
sVverified
p34
I00
sVprofile_image_url_https
p35
g27
sVprofile_sidebar_fill_color
p36
g23
sVprofile_text_color
p37
V333333
p38
sVfollowers_count
p39
I66
sVprofile_sidebar_border_color
p40
VEEEEEE
p41
sVid_str
p42
V198212427
p43
sVprofile_background_color
p44
V131516
p45
sVlisted_count
p46
I4
sVprofile_background_image_url_https
p47
Vhttps://abs.twimg.com/images/themes/theme14/bg.gif
p48
sVutc_offset
p49
NsVstatuses_count
p50
I2123
sVdescription
p51
VTaking the shortest route since 1976.
p52
sVfriends_count
p53
I56
sVlocation
p54
VDublin Zuerich
p55
sVprofile_link_color
p56
V009999
p57
sVprofile_image_url
p58
Vhttp://pbs.twimg.com/profile_images/3579847527/2a68b44ef4f590b11b5b9d8d42c879c7_normal.jpeg
p59
sVfollowing
p60
NsVgeo_enabled
p61
I01
sVprofile_banner_url
p62
Vhttps://pbs.twimg.com/profile_banners/198212427/1428754031
p63
sVprofile_background_image_url
p64
Vhttp://abs.twimg.com/images/themes/theme14/bg.gif
p65
sVname
p66
Vasthecrawflies
p67
sVlang
p68
Ven
p69
sVprofile_background_tile
p70
I01
sVfavourites_count
p71
I46
sVscreen_name
p72
Vasthecrawflies
p73
sVnotifications
p74
NsVurl
p75
NsVcreated_at
p76
VSun Oct 03 17:32:21 +0000 2010
p77
sVcontributors_enabled
p78
I00
sVtime_zone
p79
NsVprotected
p80
I00
sVdefault_profile
p81
I00
sVis_translator
p82
I00
ssS'contributors_enabled'
p83
I00
sS'profile_text_color'
p84
g38
sS'followers_count'
p85
I66
sS'profile_sidebar_border_color'
p86
g41
sS'location'
p87
g55
sS'default_profile_image'
p88
I00
sS'id_str'
p89
g43
sS'utc_offset'
p90
NsS'statuses_count'
p91
I2123
sS'description'
p92
g52
sS'friends_count'
p93
I56
sS'profile_link_color'
p94
g57
sS'profile_image_url'
p95
g59
sS'notifications'
p96
NsS'geo_enabled'
p97
I01
sS'profile_background_color'
p98
g45
sS'profile_banner_url'
p99
g63
sS'profile_background_image_url'
p100
g65
sS'name'
p101
g67
sS'lang'
p102
g69
sS'following'
p103
I00
sS'profile_background_tile'
p104
I01
sS'favourites_count'
p105
I46
sS'screen_name'
p106
g73
sS'url'
p107
NsS'created_at'
p108
cdatetime
datetime
p109
(S'\x07\xda\n\x03\x11 \x15\x00\x00\x00'
p110
tp111
Rp112
sS'profile_background_image_url_https'
p113
g48
sS'time_zone'
p114
NsS'protected'
p115
I00
sS'default_profile'
p116
I00
sS'is_translator'
p117
I00
sS'listed_count'
p118
I4
sbsS'filter_level'
p119
Vlow
p120
sS'geo'
p121
Nsg24
I620692402152558592
sS'favorite_count'
p122
I0
sS'source'
p123
VTwitter for iPhone
p124
sg102
Vund
p125
sS'author'
p126
g18
sS'in_reply_to_user_id_str'
p127
V18586775
p128
sg28
(dp129
Vcontributors
p130
NsVtruncated
p131
I00
sVtext
p132
g10
sVin_reply_to_status_id
p133
I620691549039554560
sg33
I620692402152558592
sVfavorite_count
p134
I0
sVsource
p135
V<a href="http://twitter.com/download/iphone" rel="nofollow">Twitter for iPhone</a>
p136
sVretweeted
p137
I00
sVcoordinates
p138
NsVtimestamp_ms
p139
V1436819575237
p140
sVentities
p141
(dp142
Vsymbols
p143
(lp144
sVmedia
p145
(lp146
(dp147
Vexpanded_url
p148
Vhttp://twitter.com/asthecrawflies/status/620692402152558592/photo/1
p149
sVdisplay_url
p150
Vpic.twitter.com/NBqPM25Vhk
p151
sg75
Vhttp://t.co/NBqPM25Vhk
p152
sVmedia_url_https
p153
Vhttps://pbs.twimg.com/media/CJ0kcPwUMAAUrFk.jpg
p154
sg42
V620692391331115008
p155
sVsizes
p156
(dp157
Vsmall
p158
(dp159
Vh
p160
I313
sVresize
p161
Vfit
p162
sVw
p163
I340
ssVlarge
p164
(dp165
g160
I505
sg161
Vfit
p166
sg163
I548
ssVmedium
p167
(dp168
g160
I505
sg161
Vfit
p169
sg163
I548
ssVthumb
p170
(dp171
g160
I150
sg161
Vcrop
p172
sg163
I150
sssVindices
p173
(lp174
I28
aI50
asVtype
p175
Vphoto
p176
sg33
I620692391331115008
sVmedia_url
p177
Vhttp://pbs.twimg.com/media/CJ0kcPwUMAAUrFk.jpg
p178
sasVhashtags
p179
(lp180
sVuser_mentions
p181
(lp182
(dp183
g33
I18586775
sg173
(lp184
I0
aI11
asg42
V18586775
p185
sg72
Vemerald007
p186
sg66
Vemerald007
p187
sa(dp188
g33
I30855284
sg173
(lp189
I12
aI27
asg42
V30855284
p190
sg72
Veoghancrawford
p191
sg66
VEoghan Crawford
p192
sasVtrends
p193
(lp194
sVurls
p195
(lp196
ssVin_reply_to_screen_name
p197
Vemerald007
p198
sg42
V620692402152558592
p199
sVretweet_count
p200
I0
sVin_reply_to_user_id
p201
I18586775
sVfavorited
p202
I00
sVuser
p203
g29
sVgeo
p204
NsVin_reply_to_user_id_str
p205
g128
sVpossibly_sensitive
p206
I00
sg68
g125
sg76
VMon Jul 13 20:32:55 +0000 2015
p207
sVfilter_level
p208
g120
sVin_reply_to_status_id_str
p209
V620691549039554560
p210
sVplace
p211
(dp212
Vfull_name
p213
VZurich, Switzerland
p214
sg75
Vhttps://api.twitter.com/1.1/geo/id/3acb748d0f1e9265.json
p215
sVcountry
p216
VSchweiz
p217
sVplace_type
p218
Vcity
p219
sVbounding_box
p220
(dp221
g175
VPolygon
p222
sg138
(lp223
(lp224
(lp225
F8.448081
aF47.320183
aa(lp226
F8.448081
aF47.434721
aa(lp227
F8.625442
aF47.434721
aa(lp228
F8.625442
aF47.320183
aaassVcountry_code
p229
VCH
p230
sVattributes
p231
(dp232
sg33
V3acb748d0f1e9265
p233
sg66
VZurich
p234
ssVextended_entities
p235
(dp236
g145
(lp237
(dp238
g148
Vhttp://twitter.com/asthecrawflies/status/620692402152558592/photo/1
p239
sg150
Vpic.twitter.com/NBqPM25Vhk
p240
sg75
Vhttp://t.co/NBqPM25Vhk
p241
sg153
Vhttps://pbs.twimg.com/media/CJ0kcPwUMAAUrFk.jpg
p242
sg42
V620692391331115008
p243
sg156
(dp244
g158
(dp245
g160
I313
sg161
Vfit
p246
sg163
I340
ssg164
(dp247
g160
I505
sg161
Vfit
p248
sg163
I548
ssg167
(dp249
g160
I505
sg161
Vfit
p250
sg163
I548
ssg170
(dp251
g160
I150
sg161
Vcrop
p252
sg163
I150
sssg173
(lp253
I28
aI50
asg175
Vphoto
p254
sg33
I620692391331115008
sg177
Vhttp://pbs.twimg.com/media/CJ0kcPwUMAAUrFk.jpg
p255
sasssS'coordinates'
p256
NsS'timestamp_ms'
p257
g140
sS'entities'
p258
g142
sS'in_reply_to_status_id_str'
p259
g210
sS'in_reply_to_screen_name'
p260
g198
sg89
g199
sS'extended_entities'
p261
g236
sS'retweeted'
p262
I00
sS'place'
p263
g0
(ctweepy.models
Place
p264
g2
Ntp265
Rp266
(dp267
S'full_name'
p268
g214
sg107
g215
sS'country'
p269
g217
sS'place_type'
p270
g219
sS'bounding_box'
p271
g0
(ctweepy.models
BoundingBox
p272
g2
Ntp273
Rp274
(dp275
S'type'
p276
g222
sg256
g223
sbsS'country_code'
p277
g230
sS'attributes'
p278
g232
sg24
g233
sg101
g234
sbsS'retweet_count'
p279
I0
sg108
g109
(S'\x07\xdf\x07\r\x14 7\x00\x00\x00'
p280
tp281
Rp282
sS'in_reply_to_user_id'
p283
I18586775
sb.