ccopy_reg
_reconstructor
p0
(ctweepy.models
Status
p1
c__builtin__
object
p2
Ntp3
Rp4
(dp5
S'favorited'
p6
I00
sS'contributors'
p7
NsS'truncated'
p8
I00
sS'text'
p9
VSwitzerland money ain't no joke \U0001f4b0 @ Travelers paradise https://t.co/fx7KSjFEkm
p10
sS'source_url'
p11
Vhttp://instagram.com
p12
sS'possibly_sensitive'
p13
I00
sS'in_reply_to_status_id'
p14
NsS'user'
p15
g0
(ctweepy.models
User
p16
g2
Ntp17
Rp18
(dp19
S'follow_request_sent'
p20
NsS'profile_use_background_image'
p21
I01
sS'profile_sidebar_fill_color'
p22
VDDEEF6
p23
sS'id'
p24
I233087509
sS'verified'
p25
I00
sS'profile_image_url_https'
p26
Vhttps://pbs.twimg.com/profile_images/513851556353953792/aICHntPO_normal.jpeg
p27
sS'_json'
p28
(dp29
Vfollow_request_sent
p30
NsVprofile_use_background_image
p31
I01
sVdefault_profile_image
p32
I00
sVid
p33
I233087509
sVverified
p34
I00
sVprofile_image_url_https
p35
g27
sVprofile_sidebar_fill_color
p36
g23
sVprofile_text_color
p37
V333333
p38
sVfollowers_count
p39
I462
sVprofile_sidebar_border_color
p40
VFFFFFF
p41
sVid_str
p42
V233087509
p43
sVprofile_background_color
p44
VC0DEED
p45
sVlisted_count
p46
I0
sVprofile_background_image_url_https
p47
Vhttps://pbs.twimg.com/profile_background_images/378800000119054081/05e300a2c0c6d2e844f64e46a33c5a3e.jpeg
p48
sVutc_offset
p49
I-18000
sVstatuses_count
p50
I4109
sVdescription
p51
VI\u2019m going to reveal the two secrets of my success: 1\u20e3 Don\u2019t reveal everything. SM\u2796insta:iam.voosh snap:vooshster
p52
sVfriends_count
p53
I429
sVlocation
p54
VJacksonville
p55
sVprofile_link_color
p56
V0084B4
p57
sVprofile_image_url
p58
Vhttp://pbs.twimg.com/profile_images/513851556353953792/aICHntPO_normal.jpeg
p59
sVfollowing
p60
NsVgeo_enabled
p61
I01
sVprofile_background_image_url
p62
Vhttp://pbs.twimg.com/profile_background_images/378800000119054081/05e300a2c0c6d2e844f64e46a33c5a3e.jpeg
p63
sVname
p64
VVOOSH
p65
sVlang
p66
Ven
p67
sVprofile_background_tile
p68
I00
sVfavourites_count
p69
I1243
sVscreen_name
p70
VBig_Voosh
p71
sVnotifications
p72
NsVurl
p73
NsVcreated_at
p74
VSun Jan 02 07:01:39 +0000 2011
p75
sVcontributors_enabled
p76
I00
sVtime_zone
p77
VQuito
p78
sVprotected
p79
I00
sVdefault_profile
p80
I00
sVis_translator
p81
I00
ssS'contributors_enabled'
p82
I00
sS'profile_text_color'
p83
g38
sS'followers_count'
p84
I462
sS'profile_sidebar_border_color'
p85
g41
sS'location'
p86
g55
sS'default_profile_image'
p87
I00
sS'id_str'
p88
g43
sS'utc_offset'
p89
I-18000
sS'statuses_count'
p90
I4109
sS'description'
p91
g52
sS'friends_count'
p92
I429
sS'profile_link_color'
p93
g57
sS'profile_image_url'
p94
g59
sS'notifications'
p95
NsS'geo_enabled'
p96
I01
sS'profile_background_color'
p97
g45
sS'profile_background_image_url'
p98
g63
sS'name'
p99
g65
sS'lang'
p100
g67
sS'following'
p101
I00
sS'profile_background_tile'
p102
I00
sS'favourites_count'
p103
I1243
sS'screen_name'
p104
g71
sS'url'
p105
NsS'created_at'
p106
cdatetime
datetime
p107
(S"\x07\xdb\x01\x02\x07\x01'\x00\x00\x00"
p108
tp109
Rp110
sS'profile_background_image_url_https'
p111
g48
sS'time_zone'
p112
g78
sS'protected'
p113
I00
sS'default_profile'
p114
I00
sS'is_translator'
p115
I00
sS'listed_count'
p116
I0
sbsS'filter_level'
p117
Vlow
p118
sS'geo'
p119
(dp120
Vtype
p121
VPoint
p122
sVcoordinates
p123
(lp124
F47.370983
aF8.535978
assg24
I620000404236013568
sS'favorite_count'
p125
I0
sS'source'
p126
VInstagram
p127
sg100
Ven
p128
sS'author'
p129
g18
sS'in_reply_to_user_id_str'
p130
Nsg28
(dp131
Vcontributors
p132
NsVtruncated
p133
I00
sVtext
p134
g10
sVin_reply_to_status_id
p135
Nsg33
I620000404236013568
sVfavorite_count
p136
I0
sVsource
p137
V<a href="http://instagram.com" rel="nofollow">Instagram</a>
p138
sVretweeted
p139
I00
sg123
(dp140
g121
VPoint
p141
sg123
(lp142
F8.535978
aF47.370983
assVtimestamp_ms
p143
V1436654590077
p144
sVentities
p145
(dp146
Vuser_mentions
p147
(lp148
sVsymbols
p149
(lp150
sVtrends
p151
(lp152
sVhashtags
p153
(lp154
sVurls
p155
(lp156
(dp157
g73
Vhttps://t.co/fx7KSjFEkm
p158
sVindices
p159
(lp160
I55
aI78
asVexpanded_url
p161
Vhttps://instagram.com/p/5A1Z89K0PV/
p162
sVdisplay_url
p163
Vinstagram.com/p/5A1Z89K0PV/
p164
sassVin_reply_to_screen_name
p165
Nsg42
V620000404236013568
p166
sVretweet_count
p167
I0
sVin_reply_to_user_id
p168
NsVfavorited
p169
I00
sVuser
p170
g29
sVgeo
p171
g120
sVin_reply_to_user_id_str
p172
NsVpossibly_sensitive
p173
I00
sg66
g128
sg74
VSat Jul 11 22:43:10 +0000 2015
p174
sVfilter_level
p175
g118
sVin_reply_to_status_id_str
p176
NsVplace
p177
(dp178
Vfull_name
p179
VZurich, Switzerland
p180
sg73
Vhttps://api.twitter.com/1.1/geo/id/3acb748d0f1e9265.json
p181
sVcountry
p182
VSchweiz
p183
sVplace_type
p184
Vcity
p185
sVbounding_box
p186
(dp187
g121
VPolygon
p188
sg123
(lp189
(lp190
(lp191
F8.448081
aF47.320183
aa(lp192
F8.448081
aF47.434721
aa(lp193
F8.625442
aF47.434721
aa(lp194
F8.625442
aF47.320183
aaassVcountry_code
p195
VCH
p196
sVattributes
p197
(dp198
sg33
V3acb748d0f1e9265
p199
sg64
VZurich
p200
sssS'coordinates'
p201
g140
sS'timestamp_ms'
p202
g144
sS'entities'
p203
g146
sS'in_reply_to_status_id_str'
p204
NsS'in_reply_to_screen_name'
p205
Nsg88
g166
sS'retweeted'
p206
I00
sS'place'
p207
g0
(ctweepy.models
Place
p208
g2
Ntp209
Rp210
(dp211
S'full_name'
p212
g180
sg105
g181
sS'country'
p213
g183
sS'place_type'
p214
g185
sS'bounding_box'
p215
g0
(ctweepy.models
BoundingBox
p216
g2
Ntp217
Rp218
(dp219
S'type'
p220
g188
sg201
g189
sbsS'country_code'
p221
g196
sS'attributes'
p222
g198
sg24
g199
sg99
g200
sbsS'retweet_count'
p223
I0
sg106
g107
(S'\x07\xdf\x07\x0b\x16+\n\x00\x00\x00'
p224
tp225
Rp226
sS'in_reply_to_user_id'
p227
Nsb.