ccopy_reg
_reconstructor
p0
(ctweepy.models
Status
p1
c__builtin__
object
p2
Ntp3
Rp4
(dp5
S'favorited'
p6
I00
sS'contributors'
p7
NsS'truncated'
p8
I00
sS'text'
p9
VNokia should forget smartphones and look to the future http://t.co/sWxTJQlnsY by @TheNextWoods --&gt; They are already! #Morph @NokiaResearch
p10
sS'source_url'
p11
Vhttp://twitter.com
p12
sS'possibly_sensitive'
p13
I01
sS'in_reply_to_status_id'
p14
NsS'user'
p15
g0
(ctweepy.models
User
p16
g2
Ntp17
Rp18
(dp19
S'follow_request_sent'
p20
NsS'profile_use_background_image'
p21
I00
sS'profile_sidebar_fill_color'
p22
VDDEEF6
p23
sS'id'
p24
I64404895
sS'verified'
p25
I00
sS'profile_image_url_https'
p26
Vhttps://pbs.twimg.com/profile_images/532304119596601345/NCceuQWC_normal.jpeg
p27
sS'_json'
p28
(dp29
Vfollow_request_sent
p30
NsVprofile_use_background_image
p31
I00
sVdefault_profile_image
p32
I00
sVid
p33
I64404895
sVverified
p34
I00
sVprofile_image_url_https
p35
g27
sVprofile_sidebar_fill_color
p36
g23
sVprofile_text_color
p37
V333333
p38
sVfollowers_count
p39
I1177
sVprofile_sidebar_border_color
p40
VFFFFFF
p41
sVid_str
p42
V64404895
p43
sVprofile_background_color
p44
VF7F7F7
p45
sVlisted_count
p46
I59
sVprofile_background_image_url_https
p47
Vhttps://pbs.twimg.com/profile_background_images/455393916062162944/jmENSek7.jpeg
p48
sVutc_offset
p49
I3600
sVstatuses_count
p50
I2700
sVdescription
p51
VConnecting dots to advance Swiss Higher Education @switch_ch ; #Internet Service #Innovation Researcher; Innovator; Passionate about Tech ; dogfather; O|||||||O
p52
sVfriends_count
p53
I2000
sVlocation
p54
VZurich, Switzerland
p55
sVprofile_link_color
p56
V3B94D9
p57
sVprofile_image_url
p58
Vhttp://pbs.twimg.com/profile_images/532304119596601345/NCceuQWC_normal.jpeg
p59
sVfollowing
p60
NsVgeo_enabled
p61
I01
sVprofile_banner_url
p62
Vhttps://pbs.twimg.com/profile_banners/64404895/1431541449
p63
sVprofile_background_image_url
p64
Vhttp://pbs.twimg.com/profile_background_images/455393916062162944/jmENSek7.jpeg
p65
sVname
p66
VSebastian Sigloch
p67
sVlang
p68
Ven
p69
sVprofile_background_tile
p70
I00
sVfavourites_count
p71
I1632
sVscreen_name
p72
VSebSigloch
p73
sVnotifications
p74
NsVurl
p75
NsVcreated_at
p76
VMon Aug 10 13:38:45 +0000 2009
p77
sVcontributors_enabled
p78
I00
sVtime_zone
p79
VLondon
p80
sVprotected
p81
I00
sVdefault_profile
p82
I00
sVis_translator
p83
I00
ssS'contributors_enabled'
p84
I00
sS'profile_text_color'
p85
g38
sS'followers_count'
p86
I1177
sS'profile_sidebar_border_color'
p87
g41
sS'location'
p88
g55
sS'default_profile_image'
p89
I00
sS'id_str'
p90
g43
sS'utc_offset'
p91
I3600
sS'statuses_count'
p92
I2700
sS'description'
p93
g52
sS'friends_count'
p94
I2000
sS'profile_link_color'
p95
g57
sS'profile_image_url'
p96
g59
sS'notifications'
p97
NsS'geo_enabled'
p98
I01
sS'profile_background_color'
p99
g45
sS'profile_banner_url'
p100
g63
sS'profile_background_image_url'
p101
g65
sS'name'
p102
g67
sS'lang'
p103
g69
sS'following'
p104
I00
sS'profile_background_tile'
p105
I00
sS'favourites_count'
p106
I1632
sS'screen_name'
p107
g73
sS'url'
p108
NsS'created_at'
p109
cdatetime
datetime
p110
(S'\x07\xd9\x08\n\r&-\x00\x00\x00'
p111
tp112
Rp113
sS'profile_background_image_url_https'
p114
g48
sS'time_zone'
p115
g80
sS'protected'
p116
I00
sS'default_profile'
p117
I00
sS'is_translator'
p118
I00
sS'listed_count'
p119
I59
sbsS'filter_level'
p120
Vlow
p121
sS'geo'
p122
Nsg24
I621204966015959040
sS'favorite_count'
p123
I0
sS'source'
p124
VTwitter Web Client
p125
sg103
Ven
p126
sS'author'
p127
g18
sS'in_reply_to_user_id_str'
p128
Nsg28
(dp129
Vcontributors
p130
NsVtruncated
p131
I00
sVtext
p132
g10
sVin_reply_to_status_id
p133
Nsg33
I621204966015959040
sVfavorite_count
p134
I0
sVsource
p135
V<a href="http://twitter.com" rel="nofollow">Twitter Web Client</a>
p136
sVretweeted
p137
I00
sVcoordinates
p138
NsVtimestamp_ms
p139
V1436941779985
p140
sVentities
p141
(dp142
Vuser_mentions
p143
(lp144
(dp145
g33
I163032364
sVindices
p146
(lp147
I81
aI94
asg42
V163032364
p148
sg72
VTheNextWoods
p149
sg66
VBen Woods
p150
sa(dp151
g33
I50819145
sg146
(lp152
I127
aI141
asg42
V50819145
p153
sg72
VNokiaResearch
p154
sg66
VNokiaResearchCenter
p155
sasVsymbols
p156
(lp157
sVtrends
p158
(lp159
sVhashtags
p160
(lp161
(dp162
g146
(lp163
I120
aI126
asg132
VMorph
p164
sasVurls
p165
(lp166
(dp167
g75
Vhttp://t.co/sWxTJQlnsY
p168
sg146
(lp169
I55
aI77
asVexpanded_url
p170
Vhttp://tnw.to/b4jVC
p171
sVdisplay_url
p172
Vtnw.to/b4jVC
p173
sassVin_reply_to_screen_name
p174
Nsg42
V621204966015959040
p175
sVretweet_count
p176
I0
sVin_reply_to_user_id
p177
NsVfavorited
p178
I00
sVuser
p179
g29
sVgeo
p180
NsVin_reply_to_user_id_str
p181
NsVpossibly_sensitive
p182
I01
sg68
g126
sg76
VWed Jul 15 06:29:39 +0000 2015
p183
sVfilter_level
p184
g121
sVin_reply_to_status_id_str
p185
NsVplace
p186
(dp187
Vfull_name
p188
VZurich, Switzerland
p189
sg75
Vhttps://api.twitter.com/1.1/geo/id/3acb748d0f1e9265.json
p190
sVcountry
p191
VSchweiz
p192
sVplace_type
p193
Vcity
p194
sVbounding_box
p195
(dp196
Vtype
p197
VPolygon
p198
sg138
(lp199
(lp200
(lp201
F8.448081
aF47.320183
aa(lp202
F8.448081
aF47.434721
aa(lp203
F8.625442
aF47.434721
aa(lp204
F8.625442
aF47.320183
aaassVcountry_code
p205
VCH
p206
sVattributes
p207
(dp208
sg33
V3acb748d0f1e9265
p209
sg66
VZurich
p210
sssS'coordinates'
p211
NsS'timestamp_ms'
p212
g140
sS'entities'
p213
g142
sS'in_reply_to_status_id_str'
p214
NsS'in_reply_to_screen_name'
p215
Nsg90
g175
sS'retweeted'
p216
I00
sS'place'
p217
g0
(ctweepy.models
Place
p218
g2
Ntp219
Rp220
(dp221
S'full_name'
p222
g189
sg108
g190
sS'country'
p223
g192
sS'place_type'
p224
g194
sS'bounding_box'
p225
g0
(ctweepy.models
BoundingBox
p226
g2
Ntp227
Rp228
(dp229
S'type'
p230
g198
sg211
g199
sbsS'country_code'
p231
g206
sS'attributes'
p232
g208
sg24
g209
sg102
g210
sbsS'retweet_count'
p233
I0
sg109
g110
(S"\x07\xdf\x07\x0f\x06\x1d'\x00\x00\x00"
p234
tp235
Rp236
sS'in_reply_to_user_id'
p237
Nsb.