ccopy_reg
_reconstructor
p0
(ctweepy.models
Status
p1
c__builtin__
object
p2
Ntp3
Rp4
(dp5
S'favorited'
p6
I00
sS'contributors'
p7
NsS'truncated'
p8
I00
sS'text'
p9
V@L0RD_H #askthewife #wawaw
p10
sS'source_url'
p11
Vhttp://twitter.com
p12
sS'possibly_sensitive'
p13
I00
sS'in_reply_to_status_id'
p14
I619541329220108288
sS'user'
p15
g0
(ctweepy.models
User
p16
g2
Ntp17
Rp18
(dp19
S'follow_request_sent'
p20
NsS'profile_use_background_image'
p21
I01
sS'profile_sidebar_fill_color'
p22
VDDEEF6
p23
sS'id'
p24
I74424395
sS'verified'
p25
I00
sS'profile_image_url_https'
p26
Vhttps://pbs.twimg.com/profile_images/378800000034592130/47927e1ba62076a19094366074e52aa5_normal.jpeg
p27
sS'_json'
p28
(dp29
Vfollow_request_sent
p30
NsVprofile_use_background_image
p31
I01
sVdefault_profile_image
p32
I00
sVid
p33
I74424395
sVverified
p34
I00
sVprofile_image_url_https
p35
g27
sVprofile_sidebar_fill_color
p36
g23
sVprofile_text_color
p37
V333333
p38
sVfollowers_count
p39
I1083
sVprofile_sidebar_border_color
p40
VC0DEED
p41
sVid_str
p42
V74424395
p43
sVprofile_background_color
p44
VC0DEED
p45
sVlisted_count
p46
I7
sVprofile_background_image_url_https
p47
Vhttps://abs.twimg.com/images/themes/theme1/bg.png
p48
sVutc_offset
p49
I7200
sVstatuses_count
p50
I12279
sVdescription
p51
VDonny lad dragged to Switzerland 14 years ago, still loving the owls from afar. Massive back where they belong soon rather than later wawaw
p52
sVfriends_count
p53
I1166
sVlocation
p54
VSwitzerland
p55
sVprofile_link_color
p56
V0084B4
p57
sVprofile_image_url
p58
Vhttp://pbs.twimg.com/profile_images/378800000034592130/47927e1ba62076a19094366074e52aa5_normal.jpeg
p59
sVfollowing
p60
NsVgeo_enabled
p61
I01
sVprofile_banner_url
p62
Vhttps://pbs.twimg.com/profile_banners/74424395/1397376932
p63
sVprofile_background_image_url
p64
Vhttp://abs.twimg.com/images/themes/theme1/bg.png
p65
sVname
p66
VSwissowls
p67
sVlang
p68
Ven
p69
sVprofile_background_tile
p70
I00
sVfavourites_count
p71
I11715
sVscreen_name
p72
Vbadendido
p73
sVnotifications
p74
NsVurl
p75
NsVcreated_at
p76
VTue Sep 15 11:30:41 +0000 2009
p77
sVcontributors_enabled
p78
I00
sVtime_zone
p79
VBern
p80
sVprotected
p81
I00
sVdefault_profile
p82
I01
sVis_translator
p83
I00
ssS'contributors_enabled'
p84
I00
sS'profile_text_color'
p85
g38
sS'followers_count'
p86
I1083
sS'profile_sidebar_border_color'
p87
g41
sS'location'
p88
g55
sS'default_profile_image'
p89
I00
sS'id_str'
p90
g43
sS'utc_offset'
p91
I7200
sS'statuses_count'
p92
I12279
sS'description'
p93
g52
sS'friends_count'
p94
I1166
sS'profile_link_color'
p95
g57
sS'profile_image_url'
p96
g59
sS'notifications'
p97
NsS'geo_enabled'
p98
I01
sS'profile_background_color'
p99
g45
sS'profile_banner_url'
p100
g63
sS'profile_background_image_url'
p101
g65
sS'name'
p102
g67
sS'lang'
p103
g69
sS'following'
p104
I00
sS'profile_background_tile'
p105
I00
sS'favourites_count'
p106
I11715
sS'screen_name'
p107
g73
sS'url'
p108
NsS'created_at'
p109
cdatetime
datetime
p110
(S'\x07\xd9\t\x0f\x0b\x1e)\x00\x00\x00'
p111
tp112
Rp113
sS'profile_background_image_url_https'
p114
g48
sS'time_zone'
p115
g80
sS'protected'
p116
I00
sS'default_profile'
p117
I01
sS'is_translator'
p118
I00
sS'listed_count'
p119
I7
sbsS'filter_level'
p120
Vlow
p121
sS'geo'
p122
Nsg24
I619541435679948800
sS'favorite_count'
p123
I0
sS'source'
p124
VTwitter Web Client
p125
sg103
Vund
p126
sS'author'
p127
g18
sS'in_reply_to_user_id_str'
p128
V411445848
p129
sg28
(dp130
Vcontributors
p131
NsVtruncated
p132
I00
sVtext
p133
g10
sVin_reply_to_status_id
p134
I619541329220108288
sg33
I619541435679948800
sVfavorite_count
p135
I0
sVsource
p136
V<a href="http://twitter.com" rel="nofollow">Twitter Web Client</a>
p137
sVretweeted
p138
I00
sVcoordinates
p139
NsVtimestamp_ms
p140
V1436545163446
p141
sVentities
p142
(dp143
Vuser_mentions
p144
(lp145
(dp146
g33
I411445848
sVindices
p147
(lp148
I0
aI7
asg42
V411445848
p149
sg72
VL0RD_H
p150
sg66
VLord Hillsborough
p151
sasVsymbols
p152
(lp153
sVtrends
p154
(lp155
sVhashtags
p156
(lp157
(dp158
g147
(lp159
I8
aI19
asg133
Vaskthewife
p160
sa(dp161
g147
(lp162
I20
aI26
asg133
Vwawaw
p163
sasVurls
p164
(lp165
ssVin_reply_to_screen_name
p166
VL0RD_H
p167
sg42
V619541435679948800
p168
sVretweet_count
p169
I0
sVin_reply_to_user_id
p170
I411445848
sVfavorited
p171
I00
sVuser
p172
g29
sVgeo
p173
NsVin_reply_to_user_id_str
p174
g129
sVpossibly_sensitive
p175
I00
sg68
g126
sg76
VFri Jul 10 16:19:23 +0000 2015
p176
sVfilter_level
p177
g121
sVin_reply_to_status_id_str
p178
V619541329220108288
p179
sVplace
p180
(dp181
Vfull_name
p182
VZurich, Switzerland
p183
sg75
Vhttps://api.twitter.com/1.1/geo/id/3acb748d0f1e9265.json
p184
sVcountry
p185
VSchweiz
p186
sVplace_type
p187
Vcity
p188
sVbounding_box
p189
(dp190
Vtype
p191
VPolygon
p192
sg139
(lp193
(lp194
(lp195
F8.448081
aF47.320183
aa(lp196
F8.448081
aF47.434721
aa(lp197
F8.625442
aF47.434721
aa(lp198
F8.625442
aF47.320183
aaassVcountry_code
p199
VCH
p200
sVattributes
p201
(dp202
sg33
V3acb748d0f1e9265
p203
sg66
VZurich
p204
sssS'coordinates'
p205
NsS'timestamp_ms'
p206
g141
sS'entities'
p207
g143
sS'in_reply_to_status_id_str'
p208
g179
sS'in_reply_to_screen_name'
p209
g167
sg90
g168
sS'retweeted'
p210
I00
sS'place'
p211
g0
(ctweepy.models
Place
p212
g2
Ntp213
Rp214
(dp215
S'full_name'
p216
g183
sg108
g184
sS'country'
p217
g186
sS'place_type'
p218
g188
sS'bounding_box'
p219
g0
(ctweepy.models
BoundingBox
p220
g2
Ntp221
Rp222
(dp223
S'type'
p224
g192
sg205
g193
sbsS'country_code'
p225
g200
sS'attributes'
p226
g202
sg24
g203
sg102
g204
sbsS'retweet_count'
p227
I0
sg109
g110
(S'\x07\xdf\x07\n\x10\x13\x17\x00\x00\x00'
p228
tp229
Rp230
sS'in_reply_to_user_id'
p231
I411445848
sb.