ccopy_reg
_reconstructor
p0
(ctweepy.models
Status
p1
c__builtin__
object
p2
Ntp3
Rp4
(dp5
S'contributors'
p6
NsS'truncated'
p7
I00
sS'text'
p8
VInteresting to explore #digital #salestips #sales https://t.co/8rj6aX5CAs
p9
sS'in_reply_to_status_id'
p10
NsS'id'
p11
I619237718506274816
sS'favorite_count'
p12
I0
sS'entities'
p13
(dp14
Vuser_mentions
p15
(lp16
sVsymbols
p17
(lp18
sVtrends
p19
(lp20
sVhashtags
p21
(lp22
(dp23
Vindices
p24
(lp25
I23
aI31
asVtext
p26
Vdigital
p27
sa(dp28
g24
(lp29
I32
aI42
asg26
Vsalestips
p30
sa(dp31
g24
(lp32
I43
aI49
asg26
Vsales
p33
sasVurls
p34
(lp35
(dp36
Vurl
p37
Vhttps://t.co/8rj6aX5CAs
p38
sg24
(lp39
I50
aI73
asVexpanded_url
p40
Vhttps://twitter.com/growthhackers/status/619134216601776128
p41
sVdisplay_url
p42
Vtwitter.com/growthhackers/\u2026
p43
sassS'quoted_status_id'
p44
I619134216601776128
sS'_json'
p45
(dp46
Vcontributors
p47
NsVtruncated
p48
I00
sg26
g9
sVin_reply_to_status_id
p49
NsVid
p50
I619237718506274816
sVfavorite_count
p51
I0
sVsource
p52
V<a href="http://twitter.com/download/iphone" rel="nofollow">Twitter for iPhone</a>
p53
sVquoted_status_id
p54
I619134216601776128
sVretweeted
p55
I00
sVcoordinates
p56
NsVtimestamp_ms
p57
V1436472751629
p58
sVquoted_status
p59
(dp60
g47
Nsg48
I00
sg26
VSales Funnel Optimization For #SaaS Startups https://t.co/b0f132xcv0 http://t.co/KbVg09yWIY
p61
sg49
Nsg50
I619134216601776128
sg51
I0
sg52
V<a href="http://bufferapp.com" rel="nofollow">Buffer</a>
p62
sg55
I00
sg56
NsVentities
p63
(dp64
g17
(lp65
sVmedia
p66
(lp67
(dp68
g40
Vhttp://twitter.com/GrowthHackers/status/619134216601776128/photo/1
p69
sg42
Vpic.twitter.com/KbVg09yWIY
p70
sg37
Vhttp://t.co/KbVg09yWIY
p71
sVmedia_url_https
p72
Vhttps://pbs.twimg.com/media/CJebSiMXAAAYZvF.png
p73
sVid_str
p74
V619134216505327616
p75
sVsizes
p76
(dp77
Vlarge
p78
(dp79
Vh
p80
I464
sVresize
p81
Vfit
p82
sVw
p83
I989
ssVsmall
p84
(dp85
g80
I159
sg81
Vfit
p86
sg83
I340
ssVmedium
p87
(dp88
g80
I281
sg81
Vfit
p89
sg83
I600
ssVthumb
p90
(dp91
g80
I150
sg81
Vcrop
p92
sg83
I150
sssg24
(lp93
I69
aI91
asVtype
p94
Vphoto
p95
sg50
I619134216505327616
sVmedia_url
p96
Vhttp://pbs.twimg.com/media/CJebSiMXAAAYZvF.png
p97
sasg21
(lp98
(dp99
g24
(lp100
I30
aI35
asg26
VSaaS
p101
sasg15
(lp102
sg19
(lp103
sg34
(lp104
(dp105
g37
Vhttps://t.co/b0f132xcv0
p106
sg24
(lp107
I45
aI68
asg40
Vhttps://growthhackers.com/sales-funnel-optimization-for-saas-startups/
p108
sg42
Vgrowthhackers.com/sales-funnel-o\u2026
p109
sassVin_reply_to_screen_name
p110
Nsg74
V619134216601776128
p111
sVretweet_count
p112
I0
sVin_reply_to_user_id
p113
NsVfavorited
p114
I00
sVuser
p115
(dp116
Vfollow_request_sent
p117
NsVprofile_use_background_image
p118
I01
sVdefault_profile_image
p119
I00
sg50
I1705885393
sVverified
p120
I00
sVprofile_image_url_https
p121
Vhttps://pbs.twimg.com/profile_images/595698783461253120/dZEKStgB_normal.jpg
p122
sVprofile_sidebar_fill_color
p123
VEFEFEF
p124
sVprofile_text_color
p125
V333333
p126
sVfollowers_count
p127
I128299
sVprofile_sidebar_border_color
p128
VEEEEEE
p129
sg74
V1705885393
p130
sVprofile_background_color
p131
V131516
p132
sVlisted_count
p133
I4440
sVprofile_background_image_url_https
p134
Vhttps://abs.twimg.com/images/themes/theme14/bg.gif
p135
sVutc_offset
p136
I-25200
sVstatuses_count
p137
I65684
sVdescription
p138
VThe Official Twitter Account of http://GrowthHackers.com. Premiere destination to collaborate and get inspired to help grow your business.
p139
sVfriends_count
p140
I54281
sVlocation
p141
VEverywhere
p142
sVprofile_link_color
p143
V12AC8E
p144
sVprofile_image_url
p145
Vhttp://pbs.twimg.com/profile_images/595698783461253120/dZEKStgB_normal.jpg
p146
sVfollowing
p147
NsVgeo_enabled
p148
I00
sVprofile_banner_url
p149
Vhttps://pbs.twimg.com/profile_banners/1705885393/1430860664
p150
sVprofile_background_image_url
p151
Vhttp://abs.twimg.com/images/themes/theme14/bg.gif
p152
sVname
p153
VGrowthHackers
p154
sVlang
p155
Ven
p156
sVprofile_background_tile
p157
I01
sVfavourites_count
p158
I1857
sVscreen_name
p159
VGrowthHackers
p160
sVnotifications
p161
Nsg37
Vhttp://growthhackers.com
p162
sVcreated_at
p163
VTue Aug 27 23:38:53 +0000 2013
p164
sVcontributors_enabled
p165
I00
sVtime_zone
p166
VPacific Time (US & Canada)
p167
sVprotected
p168
I00
sVdefault_profile
p169
I00
sVis_translator
p170
I00
ssVgeo
p171
NsVin_reply_to_user_id_str
p172
NsVpossibly_sensitive
p173
I00
sg155
Ven
p174
sg163
VThu Jul 09 13:21:14 +0000 2015
p175
sVfilter_level
p176
Vlow
p177
sVin_reply_to_status_id_str
p178
NsVplace
p179
NsVextended_entities
p180
(dp181
g66
(lp182
(dp183
g40
Vhttp://twitter.com/GrowthHackers/status/619134216601776128/photo/1
p184
sg42
Vpic.twitter.com/KbVg09yWIY
p185
sg37
Vhttp://t.co/KbVg09yWIY
p186
sg72
Vhttps://pbs.twimg.com/media/CJebSiMXAAAYZvF.png
p187
sg74
V619134216505327616
p188
sg76
(dp189
g78
(dp190
g80
I464
sg81
Vfit
p191
sg83
I989
ssg84
(dp192
g80
I159
sg81
Vfit
p193
sg83
I340
ssg87
(dp194
g80
I281
sg81
Vfit
p195
sg83
I600
ssg90
(dp196
g80
I150
sg81
Vcrop
p197
sg83
I150
sssg24
(lp198
I69
aI91
asg94
Vphoto
p199
sg50
I619134216505327616
sg96
Vhttp://pbs.twimg.com/media/CJebSiMXAAAYZvF.png
p200
sasssg63
g14
sg110
Nsg74
V619237718506274816
p201
sg112
I0
sg113
Nsg114
I00
sg115
(dp202
g117
Nsg118
I00
sg119
I00
sg50
I2912785725
sg120
I00
sg121
Vhttps://pbs.twimg.com/profile_images/542335263872417794/H7Jeb9Bi_normal.jpeg
p203
sg123
V000000
p204
sg125
V000000
p205
sg127
I45
sg128
V000000
p206
sg74
V2912785725
p207
sg131
V000000
p208
sg133
I7
sg134
Vhttps://abs.twimg.com/images/themes/theme1/bg.png
p209
sg136
Nsg137
I97
sg138
VI am passionate about technologies and ideas that help people simplify and enrich their lives.
p210
sg140
I96
sg141
VHelsinki, Finland
p211
sg143
VFA743E
p212
sg145
Vhttp://pbs.twimg.com/profile_images/542335263872417794/H7Jeb9Bi_normal.jpeg
p213
sg147
Nsg148
I01
sg149
Vhttps://pbs.twimg.com/profile_banners/2912785725/1418460238
p214
sg151
Vhttp://abs.twimg.com/images/themes/theme1/bg.png
p215
sg153
VConstantin Buda
p216
sg155
Ven
p217
sg157
I00
sg158
I12
sg159
VConstantinBuda
p218
sg161
Nsg37
Nsg163
VTue Dec 09 15:01:29 +0000 2014
p219
sg165
I00
sg166
Nsg168
I00
sg169
I00
sg170
I00
ssg171
Nsg172
Nsg173
I00
sg155
Ven
p220
sg163
VThu Jul 09 20:12:31 +0000 2015
p221
sVquoted_status_id_str
p222
V619134216601776128
p223
sg176
Vlow
p224
sg178
Nsg179
(dp225
Vfull_name
p226
VZurich, Switzerland
p227
sg37
Vhttps://api.twitter.com/1.1/geo/id/3acb748d0f1e9265.json
p228
sVcountry
p229
VSchweiz
p230
sVplace_type
p231
Vcity
p232
sVbounding_box
p233
(dp234
g94
VPolygon
p235
sg56
(lp236
(lp237
(lp238
F8.448081
aF47.320183
aa(lp239
F8.448081
aF47.434721
aa(lp240
F8.625442
aF47.434721
aa(lp241
F8.625442
aF47.320183
aaassVcountry_code
p242
VCH
p243
sVattributes
p244
(dp245
sg50
V3acb748d0f1e9265
p246
sg153
VZurich
p247
sssS'coordinates'
p248
NsS'timestamp_ms'
p249
g58
sS'quoted_status'
p250
g60
sS'source'
p251
VTwitter for iPhone
p252
sS'in_reply_to_screen_name'
p253
NsS'id_str'
p254
g201
sS'retweet_count'
p255
I0
sS'in_reply_to_user_id'
p256
NsS'favorited'
p257
I00
sS'source_url'
p258
Vhttp://twitter.com/download/iphone
p259
sS'user'
p260
g0
(ctweepy.models
User
p261
g2
Ntp262
Rp263
(dp264
S'follow_request_sent'
p265
NsS'profile_use_background_image'
p266
I00
sS'profile_sidebar_fill_color'
p267
g204
sg11
I2912785725
sS'verified'
p268
I00
sS'profile_image_url_https'
p269
g203
sg45
g202
sS'contributors_enabled'
p270
I00
sS'profile_text_color'
p271
g205
sS'followers_count'
p272
I45
sS'profile_sidebar_border_color'
p273
g206
sS'location'
p274
g211
sS'default_profile_image'
p275
I00
sg254
g207
sS'utc_offset'
p276
NsS'statuses_count'
p277
I97
sS'description'
p278
g210
sS'friends_count'
p279
I96
sS'profile_link_color'
p280
g212
sS'profile_image_url'
p281
g213
sS'notifications'
p282
NsS'geo_enabled'
p283
I01
sS'profile_background_color'
p284
g208
sS'profile_banner_url'
p285
g214
sS'profile_background_image_url'
p286
g215
sS'name'
p287
g216
sS'lang'
p288
g217
sS'following'
p289
I00
sS'profile_background_tile'
p290
I00
sS'favourites_count'
p291
I12
sS'screen_name'
p292
g218
sS'url'
p293
NsS'created_at'
p294
cdatetime
datetime
p295
(S'\x07\xde\x0c\t\x0f\x01\x1d\x00\x00\x00'
p296
tp297
Rp298
sS'profile_background_image_url_https'
p299
g209
sS'time_zone'
p300
NsS'protected'
p301
I00
sS'default_profile'
p302
I00
sS'is_translator'
p303
I00
sS'listed_count'
p304
I7
sbsS'geo'
p305
NsS'in_reply_to_user_id_str'
p306
NsS'possibly_sensitive'
p307
I00
sg288
g220
sg294
g295
(S'\x07\xdf\x07\t\x14\x0c\x1f\x00\x00\x00'
p308
tp309
Rp310
sS'author'
p311
g263
sS'quoted_status_id_str'
p312
g223
sS'filter_level'
p313
g224
sS'in_reply_to_status_id_str'
p314
NsS'place'
p315
g0
(ctweepy.models
Place
p316
g2
Ntp317
Rp318
(dp319
S'full_name'
p320
g227
sg293
g228
sS'country'
p321
g230
sS'place_type'
p322
g232
sS'bounding_box'
p323
g0
(ctweepy.models
BoundingBox
p324
g2
Ntp325
Rp326
(dp327
S'type'
p328
g235
sg248
g236
sbsS'country_code'
p329
g243
sS'attributes'
p330
g245
sg11
g246
sg287
g247
sbsS'retweeted'
p331
I00
sb.