ccopy_reg
_reconstructor
p0
(ctweepy.models
Status
p1
c__builtin__
object
p2
Ntp3
Rp4
(dp5
S'favorited'
p6
I00
sS'contributors'
p7
NsS'truncated'
p8
I00
sS'text'
p9
VPurpose is not in what you do, it\u2019s in who you are. #amirZoghi #success #love #freedom \u000ahttp://t.co/8Ze2iaCTy6
p10
sS'source_url'
p11
Vhttp://twitter.com/download/iphone
p12
sS'possibly_sensitive'
p13
I00
sS'in_reply_to_status_id'
p14
NsS'user'
p15
g0
(ctweepy.models
User
p16
g2
Ntp17
Rp18
(dp19
S'follow_request_sent'
p20
NsS'profile_use_background_image'
p21
I00
sS'profile_sidebar_fill_color'
p22
V281E17
p23
sS'id'
p24
I2155060090
sS'verified'
p25
I00
sS'profile_image_url_https'
p26
Vhttps://pbs.twimg.com/profile_images/598937589681381376/1g9UWJxZ_normal.jpg
p27
sS'_json'
p28
(dp29
Vfollow_request_sent
p30
NsVprofile_use_background_image
p31
I00
sVdefault_profile_image
p32
I00
sVid
p33
I2155060090
sVverified
p34
I00
sVprofile_image_url_https
p35
g27
sVprofile_sidebar_fill_color
p36
g23
sVprofile_text_color
p37
V7A5C45
p38
sVfollowers_count
p39
I221
sVprofile_sidebar_border_color
p40
V7A5C45
p41
sVid_str
p42
V2155060090
p43
sVprofile_background_color
p44
V3C2C22
p45
sVlisted_count
p46
I11
sVprofile_background_image_url_https
p47
Vhttps://pbs.twimg.com/profile_background_images/451992280618909697/CoFMFxeE.jpeg
p48
sVutc_offset
p49
NsVstatuses_count
p50
I389
sVdescription
p51
Vgot and stayed drunk on travelling, marketing, laughing and whatever! agrees with frida kahlo that 'tragedy is the most ridiculous thing' #bergkinder
p52
sVfriends_count
p53
I288
sVlocation
p54
V
p55
sVprofile_link_color
p56
V54493E
p57
sVprofile_image_url
p58
Vhttp://pbs.twimg.com/profile_images/598937589681381376/1g9UWJxZ_normal.jpg
p59
sVfollowing
p60
NsVgeo_enabled
p61
I01
sVprofile_banner_url
p62
Vhttps://pbs.twimg.com/profile_banners/2155060090/1416576077
p63
sVprofile_background_image_url
p64
Vhttp://pbs.twimg.com/profile_background_images/451992280618909697/CoFMFxeE.jpeg
p65
sVname
p66
VLa Lena
p67
sVlang
p68
Ven
p69
sVprofile_background_tile
p70
I00
sVfavourites_count
p71
I408
sVscreen_name
p72
Vsoamea
p73
sVnotifications
p74
NsVurl
p75
Vhttp://www.bergkinder.com
p76
sVcreated_at
p77
VSun Oct 27 00:37:13 +0000 2013
p78
sVcontributors_enabled
p79
I00
sVtime_zone
p80
NsVprotected
p81
I00
sVdefault_profile
p82
I00
sVis_translator
p83
I00
ssS'contributors_enabled'
p84
I00
sS'profile_text_color'
p85
g38
sS'followers_count'
p86
I221
sS'profile_sidebar_border_color'
p87
g41
sS'location'
p88
g55
sS'default_profile_image'
p89
I00
sS'id_str'
p90
g43
sS'utc_offset'
p91
NsS'statuses_count'
p92
I389
sS'description'
p93
g52
sS'friends_count'
p94
I288
sS'profile_link_color'
p95
g57
sS'profile_image_url'
p96
g59
sS'notifications'
p97
NsS'geo_enabled'
p98
I01
sS'profile_background_color'
p99
g45
sS'profile_banner_url'
p100
g63
sS'profile_background_image_url'
p101
g65
sS'name'
p102
g67
sS'lang'
p103
g69
sS'following'
p104
I00
sS'profile_background_tile'
p105
I00
sS'favourites_count'
p106
I408
sS'screen_name'
p107
g73
sS'url'
p108
g76
sS'created_at'
p109
cdatetime
datetime
p110
(S'\x07\xdd\n\x1b\x00%\r\x00\x00\x00'
p111
tp112
Rp113
sS'profile_background_image_url_https'
p114
g48
sS'time_zone'
p115
NsS'protected'
p116
I00
sS'default_profile'
p117
I00
sS'is_translator'
p118
I00
sS'listed_count'
p119
I11
sbsS'filter_level'
p120
Vlow
p121
sS'geo'
p122
Nsg24
I621028330616279040
sS'favorite_count'
p123
I0
sS'source'
p124
VTwitter for iPhone
p125
sg103
Ven
p126
sS'author'
p127
g18
sS'in_reply_to_user_id_str'
p128
Nsg28
(dp129
Vcontributors
p130
NsVtruncated
p131
I00
sVtext
p132
VPurpose is not in what you do, it\u2019s in who you are. #amirZoghi #success #love #freedom \u000ahttp://t.co/8Ze2iaCTy6
p133
sVin_reply_to_status_id
p134
Nsg33
I621028330616279040
sVfavorite_count
p135
I0
sVsource
p136
V<a href="http://twitter.com/download/iphone" rel="nofollow">Twitter for iPhone</a>
p137
sVretweeted
p138
I00
sVcoordinates
p139
NsVtimestamp_ms
p140
V1436899666824
p141
sVentities
p142
(dp143
Vuser_mentions
p144
(lp145
sVsymbols
p146
(lp147
sVtrends
p148
(lp149
sVhashtags
p150
(lp151
(dp152
Vindices
p153
(lp154
I52
aI62
asg132
VamirZoghi
p155
sa(dp156
g153
(lp157
I63
aI71
asg132
Vsuccess
p158
sa(dp159
g153
(lp160
I72
aI77
asg132
Vlove
p161
sa(dp162
g153
(lp163
I78
aI86
asg132
Vfreedom
p164
sasVurls
p165
(lp166
(dp167
g75
Vhttp://t.co/8Ze2iaCTy6
p168
sg153
(lp169
I88
aI110
asVexpanded_url
p170
Vhttp://youtu.be/xIVfFJNqIso
p171
sVdisplay_url
p172
Vyoutu.be/xIVfFJNqIso
p173
sassVin_reply_to_screen_name
p174
Nsg42
V621028330616279040
p175
sVretweet_count
p176
I0
sVin_reply_to_user_id
p177
NsVfavorited
p178
I00
sVuser
p179
g29
sVgeo
p180
NsVin_reply_to_user_id_str
p181
NsVpossibly_sensitive
p182
I00
sg68
g126
sg77
VTue Jul 14 18:47:46 +0000 2015
p183
sVfilter_level
p184
g121
sVin_reply_to_status_id_str
p185
NsVplace
p186
(dp187
Vfull_name
p188
VZurich, Switzerland
p189
sg75
Vhttps://api.twitter.com/1.1/geo/id/db94c1cccc67c4f4.json
p190
sVcountry
p191
VSchweiz
p192
sVplace_type
p193
Vadmin
p194
sVbounding_box
p195
(dp196
Vtype
p197
VPolygon
p198
sg139
(lp199
(lp200
(lp201
F8.357749
aF47.159384
aa(lp202
F8.357749
aF47.694503
aa(lp203
F8.984445
aF47.694503
aa(lp204
F8.984445
aF47.159384
aaassVcountry_code
p205
VCH
p206
sVattributes
p207
(dp208
sg33
Vdb94c1cccc67c4f4
p209
sg66
VZurich
p210
sssS'coordinates'
p211
NsS'timestamp_ms'
p212
g141
sS'entities'
p213
g143
sS'in_reply_to_status_id_str'
p214
NsS'in_reply_to_screen_name'
p215
Nsg90
g175
sS'retweeted'
p216
I00
sS'place'
p217
g0
(ctweepy.models
Place
p218
g2
Ntp219
Rp220
(dp221
S'full_name'
p222
g189
sg108
g190
sS'country'
p223
g192
sS'place_type'
p224
g194
sS'bounding_box'
p225
g0
(ctweepy.models
BoundingBox
p226
g2
Ntp227
Rp228
(dp229
S'type'
p230
g198
sg211
g199
sbsS'country_code'
p231
g206
sS'attributes'
p232
g208
sg24
g209
sg102
g210
sbsS'retweet_count'
p233
I0
sg109
g110
(S'\x07\xdf\x07\x0e\x12/.\x00\x00\x00'
p234
tp235
Rp236
sS'in_reply_to_user_id'
p237
Nsb.