ccopy_reg
_reconstructor
p0
(ctweepy.models
Status
p1
c__builtin__
object
p2
Ntp3
Rp4
(dp5
S'favorited'
p6
I00
sS'contributors'
p7
NsS'truncated'
p8
I00
sS'text'
p9
VGerade von @sunnyandquincy erhalten ... Die Jungs...Freu mich auf den Feierabend \u2600\ufe0f http://t.co/wuqvxsIkJi
p10
sS'source_url'
p11
Vhttp://twitter.com/download/iphone
p12
sS'possibly_sensitive'
p13
I00
sS'in_reply_to_status_id'
p14
NsS'user'
p15
g0
(ctweepy.models
User
p16
g2
Ntp17
Rp18
(dp19
S'follow_request_sent'
p20
NsS'profile_use_background_image'
p21
I01
sS'profile_sidebar_fill_color'
p22
VDDEEF6
p23
sS'id'
p24
I346109522
sS'verified'
p25
I00
sS'profile_image_url_https'
p26
Vhttps://pbs.twimg.com/profile_images/602524148125081600/eyE26FAu_normal.jpg
p27
sS'_json'
p28
(dp29
Vfollow_request_sent
p30
NsVprofile_use_background_image
p31
I01
sVdefault_profile_image
p32
I00
sVid
p33
I346109522
sVverified
p34
I00
sVprofile_image_url_https
p35
g27
sVprofile_sidebar_fill_color
p36
g23
sVprofile_text_color
p37
V333333
p38
sVfollowers_count
p39
I1303
sVprofile_sidebar_border_color
p40
VC0DEED
p41
sVid_str
p42
V346109522
p43
sVprofile_background_color
p44
VC0DEED
p45
sVlisted_count
p46
I58
sVprofile_background_image_url_https
p47
Vhttps://abs.twimg.com/images/themes/theme1/bg.png
p48
sVutc_offset
p49
NsVstatuses_count
p50
I11950
sVdescription
p51
VQuincy und Sunny die Fellnasen, die Natur, Haus und Garten sowie Saas-Fee - das sind die Themen - die Chefin twittert hie und da unter @sunnyandquincy
p52
sVfriends_count
p53
I1488
sVlocation
p54
VSwitzerland
p55
sVprofile_link_color
p56
V0084B4
p57
sVprofile_image_url
p58
Vhttp://pbs.twimg.com/profile_images/602524148125081600/eyE26FAu_normal.jpg
p59
sVfollowing
p60
NsVgeo_enabled
p61
I01
sVprofile_banner_url
p62
Vhttps://pbs.twimg.com/profile_banners/346109522/1353845607
p63
sVprofile_background_image_url
p64
Vhttp://abs.twimg.com/images/themes/theme1/bg.png
p65
sVname
p66
VQuincy und Sunny
p67
sVlang
p68
Vde
p69
sVprofile_background_tile
p70
I00
sVfavourites_count
p71
I56924
sVscreen_name
p72
Vsunny3906
p73
sVnotifications
p74
NsVurl
p75
NsVcreated_at
p76
VSun Jul 31 18:56:03 +0000 2011
p77
sVcontributors_enabled
p78
I00
sVtime_zone
p79
NsVprotected
p80
I00
sVdefault_profile
p81
I01
sVis_translator
p82
I00
ssS'contributors_enabled'
p83
I00
sS'profile_text_color'
p84
g38
sS'followers_count'
p85
I1303
sS'profile_sidebar_border_color'
p86
g41
sS'location'
p87
g55
sS'default_profile_image'
p88
I00
sS'id_str'
p89
g43
sS'utc_offset'
p90
NsS'statuses_count'
p91
I11950
sS'description'
p92
g52
sS'friends_count'
p93
I1488
sS'profile_link_color'
p94
g57
sS'profile_image_url'
p95
g59
sS'notifications'
p96
NsS'geo_enabled'
p97
I01
sS'profile_background_color'
p98
g45
sS'profile_banner_url'
p99
g63
sS'profile_background_image_url'
p100
g65
sS'name'
p101
g67
sS'lang'
p102
g69
sS'following'
p103
I00
sS'profile_background_tile'
p104
I00
sS'favourites_count'
p105
I56924
sS'screen_name'
p106
g73
sS'url'
p107
NsS'created_at'
p108
cdatetime
datetime
p109
(S'\x07\xdb\x07\x1f\x128\x03\x00\x00\x00'
p110
tp111
Rp112
sS'profile_background_image_url_https'
p113
g48
sS'time_zone'
p114
NsS'protected'
p115
I00
sS'default_profile'
p116
I01
sS'is_translator'
p117
I00
sS'listed_count'
p118
I58
sbsS'filter_level'
p119
Vlow
p120
sS'geo'
p121
Nsg24
I621316717852143616
sS'favorite_count'
p122
I0
sS'source'
p123
VTwitter for iPhone
p124
sg102
Vde
p125
sS'author'
p126
g18
sS'in_reply_to_user_id_str'
p127
Nsg28
(dp128
Vcontributors
p129
NsVtruncated
p130
I00
sVtext
p131
g10
sVin_reply_to_status_id
p132
Nsg33
I621316717852143616
sVfavorite_count
p133
I0
sVsource
p134
V<a href="http://twitter.com/download/iphone" rel="nofollow">Twitter for iPhone</a>
p135
sVretweeted
p136
I00
sVcoordinates
p137
NsVtimestamp_ms
p138
V1436968423699
p139
sVentities
p140
(dp141
Vsymbols
p142
(lp143
sVmedia
p144
(lp145
(dp146
Vexpanded_url
p147
Vhttp://twitter.com/sunny3906/status/621316717852143616/photo/1
p148
sVdisplay_url
p149
Vpic.twitter.com/wuqvxsIkJi
p150
sg75
Vhttp://t.co/wuqvxsIkJi
p151
sVmedia_url_https
p152
Vhttps://pbs.twimg.com/media/CJ9cFCpUwAAh5HA.jpg
p153
sg42
V621316515279716352
p154
sVsizes
p155
(dp156
Vsmall
p157
(dp158
Vh
p159
I453
sVresize
p160
Vfit
p161
sVw
p162
I340
ssVlarge
p163
(dp164
g159
I1024
sg160
Vfit
p165
sg162
I768
ssVmedium
p166
(dp167
g159
I800
sg160
Vfit
p168
sg162
I600
ssVthumb
p169
(dp170
g159
I150
sg160
Vcrop
p171
sg162
I150
sssVindices
p172
(lp173
I84
aI106
asVtype
p174
Vphoto
p175
sg33
I621316515279716352
sVmedia_url
p176
Vhttp://pbs.twimg.com/media/CJ9cFCpUwAAh5HA.jpg
p177
sasVhashtags
p178
(lp179
sVuser_mentions
p180
(lp181
(dp182
g33
I725834574
sg172
(lp183
I11
aI26
asg42
V725834574
p184
sg72
Vsunnyandquincy
p185
sg66
VCornelia und Jungs
p186
sasVtrends
p187
(lp188
sVurls
p189
(lp190
ssVin_reply_to_screen_name
p191
Nsg42
V621316717852143616
p192
sVretweet_count
p193
I0
sVin_reply_to_user_id
p194
NsVfavorited
p195
I00
sVuser
p196
g29
sVgeo
p197
NsVin_reply_to_user_id_str
p198
NsVpossibly_sensitive
p199
I00
sg68
g125
sg76
VWed Jul 15 13:53:43 +0000 2015
p200
sVfilter_level
p201
g120
sVin_reply_to_status_id_str
p202
NsVplace
p203
(dp204
Vfull_name
p205
VBern, Schweiz
p206
sg75
Vhttps://api.twitter.com/1.1/geo/id/5868d0e0749c9c47.json
p207
sVcountry
p208
VSchweiz
p209
sVplace_type
p210
Vadmin
p211
sVbounding_box
p212
(dp213
g174
VPolygon
p214
sg137
(lp215
(lp216
(lp217
F6.861601
aF46.326441
aa(lp218
F6.861601
aF47.34528
aa(lp219
F8.455051
aF47.34528
aa(lp220
F8.455051
aF46.326441
aaassVcountry_code
p221
VCH
p222
sVattributes
p223
(dp224
sg33
V5868d0e0749c9c47
p225
sg66
VBern
p226
ssVextended_entities
p227
(dp228
g144
(lp229
(dp230
g147
Vhttp://twitter.com/sunny3906/status/621316717852143616/photo/1
p231
sg149
Vpic.twitter.com/wuqvxsIkJi
p232
sg75
Vhttp://t.co/wuqvxsIkJi
p233
sg152
Vhttps://pbs.twimg.com/media/CJ9cFCpUwAAh5HA.jpg
p234
sg42
V621316515279716352
p235
sg155
(dp236
g157
(dp237
g159
I453
sg160
Vfit
p238
sg162
I340
ssg163
(dp239
g159
I1024
sg160
Vfit
p240
sg162
I768
ssg166
(dp241
g159
I800
sg160
Vfit
p242
sg162
I600
ssg169
(dp243
g159
I150
sg160
Vcrop
p244
sg162
I150
sssg172
(lp245
I84
aI106
asg174
Vphoto
p246
sg33
I621316515279716352
sg176
Vhttp://pbs.twimg.com/media/CJ9cFCpUwAAh5HA.jpg
p247
sa(dp248
g147
Vhttp://twitter.com/sunny3906/status/621316717852143616/photo/1
p249
sg149
Vpic.twitter.com/wuqvxsIkJi
p250
sg75
Vhttp://t.co/wuqvxsIkJi
p251
sg152
Vhttps://pbs.twimg.com/media/CJ9cFC1UsAA981e.jpg
p252
sg42
V621316515330043904
p253
sg155
(dp254
g157
(dp255
g159
I453
sg160
Vfit
p256
sg162
I340
ssg163
(dp257
g159
I1024
sg160
Vfit
p258
sg162
I768
ssg166
(dp259
g159
I800
sg160
Vfit
p260
sg162
I600
ssg169
(dp261
g159
I150
sg160
Vcrop
p262
sg162
I150
sssg172
(lp263
I84
aI106
asg174
Vphoto
p264
sg33
I621316515330043904
sg176
Vhttp://pbs.twimg.com/media/CJ9cFC1UsAA981e.jpg
p265
sasssS'coordinates'
p266
NsS'timestamp_ms'
p267
g139
sS'entities'
p268
g141
sS'in_reply_to_status_id_str'
p269
NsS'in_reply_to_screen_name'
p270
Nsg89
g192
sS'extended_entities'
p271
g228
sS'retweeted'
p272
I00
sS'place'
p273
g0
(ctweepy.models
Place
p274
g2
Ntp275
Rp276
(dp277
S'full_name'
p278
g206
sg107
g207
sS'country'
p279
g209
sS'place_type'
p280
g211
sS'bounding_box'
p281
g0
(ctweepy.models
BoundingBox
p282
g2
Ntp283
Rp284
(dp285
S'type'
p286
g214
sg266
g215
sbsS'country_code'
p287
g222
sS'attributes'
p288
g224
sg24
g225
sg101
g226
sbsS'retweet_count'
p289
I0
sg108
g109
(S'\x07\xdf\x07\x0f\r5+\x00\x00\x00'
p290
tp291
Rp292
sS'in_reply_to_user_id'
p293
Nsb.