ccopy_reg
_reconstructor
p0
(ctweepy.models
Status
p1
c__builtin__
object
p2
Ntp3
Rp4
(dp5
S'contributors'
p6
NsS'truncated'
p7
I00
sS'text'
p8
VNice! Good in him! https://t.co/QxVDZHXQKf
p9
sS'in_reply_to_status_id'
p10
NsS'id'
p11
I621286617215594496
sS'favorite_count'
p12
I0
sS'entities'
p13
(dp14
Vuser_mentions
p15
(lp16
sVsymbols
p17
(lp18
sVtrends
p19
(lp20
sVhashtags
p21
(lp22
sVurls
p23
(lp24
(dp25
Vurl
p26
Vhttps://t.co/QxVDZHXQKf
p27
sVindices
p28
(lp29
I19
aI42
asVexpanded_url
p30
Vhttps://twitter.com/brokep/status/621236652762116096
p31
sVdisplay_url
p32
Vtwitter.com/brokep/status/\u2026
p33
sassS'quoted_status_id'
p34
I621236652762116096
sS'_json'
p35
(dp36
Vcontributors
p37
NsVtruncated
p38
I00
sVtext
p39
g9
sVin_reply_to_status_id
p40
NsVid
p41
I621286617215594496
sVfavorite_count
p42
I0
sVsource
p43
V<a href="http://twitter.com/download/iphone" rel="nofollow">Twitter for iPhone</a>
p44
sVquoted_status_id
p45
I621236652762116096
sVretweeted
p46
I00
sVcoordinates
p47
NsVtimestamp_ms
p48
V1436961247148
p49
sVquoted_status
p50
(dp51
g37
Nsg38
I00
sg39
VBest moment this week was the old, big bodied man looking at himself in a mirror, very slowly combing his beard while smiling at himself.
p52
sg40
Nsg41
I621236652762116096
sg42
I0
sg43
V<a href="http://twitter.com" rel="nofollow">Twitter Web Client</a>
p53
sg46
I00
sg47
NsVentities
p54
(dp55
g15
(lp56
sg17
(lp57
sg19
(lp58
sg21
(lp59
sg23
(lp60
ssVin_reply_to_screen_name
p61
NsVid_str
p62
V621236652762116096
p63
sVretweet_count
p64
I0
sVin_reply_to_user_id
p65
NsVfavorited
p66
I00
sVuser
p67
(dp68
Vfollow_request_sent
p69
NsVprofile_use_background_image
p70
I01
sVdefault_profile_image
p71
I00
sg41
I19033675
sVverified
p72
I00
sVprofile_image_url_https
p73
Vhttps://pbs.twimg.com/profile_images/538544063507476481/wLCNImgT_normal.png
p74
sVprofile_sidebar_fill_color
p75
V252429
p76
sVprofile_text_color
p77
V666666
p78
sVfollowers_count
p79
I40950
sVprofile_sidebar_border_color
p80
V181A1E
p81
sg62
V19033675
p82
sVprofile_background_color
p83
V1A1B1F
p84
sVlisted_count
p85
I1088
sVprofile_background_image_url_https
p86
Vhttps://abs.twimg.com/images/themes/theme9/bg.gif
p87
sVutc_offset
p88
I16200
sVstatuses_count
p89
I6828
sVdescription
p90
V(co-/)founder of @Flattr, @IpredatorVPN, @TPBdotORG, @KonstHack etc etc. Socialist, vegetarian, finnish & norwegian.
p91
sVfriends_count
p92
I741
sVlocation
p93
VInternets
p94
sVprofile_link_color
p95
V2FC2EF
p96
sVprofile_image_url
p97
Vhttp://pbs.twimg.com/profile_images/538544063507476481/wLCNImgT_normal.png
p98
sVfollowing
p99
NsVgeo_enabled
p100
I00
sVprofile_banner_url
p101
Vhttps://pbs.twimg.com/profile_banners/19033675/1417234043
p102
sVprofile_background_image_url
p103
Vhttp://abs.twimg.com/images/themes/theme9/bg.gif
p104
sVname
p105
VPeter Sunde
p106
sVlang
p107
Ven
p108
sVprofile_background_tile
p109
I00
sVfavourites_count
p110
I17
sVscreen_name
p111
Vbrokep
p112
sVnotifications
p113
Nsg26
Vhttp://blog.brokep.com
p114
sVcreated_at
p115
VThu Jan 15 19:00:52 +0000 2009
p116
sVcontributors_enabled
p117
I00
sVtime_zone
p118
VTehran
p119
sVprotected
p120
I00
sVdefault_profile
p121
I00
sVis_translator
p122
I00
ssVgeo
p123
NsVin_reply_to_user_id_str
p124
NsVpossibly_sensitive
p125
I00
sg107
Ven
p126
sg115
VWed Jul 15 08:35:34 +0000 2015
p127
sVfilter_level
p128
Vlow
p129
sVin_reply_to_status_id_str
p130
NsVplace
p131
Nssg54
g14
sg61
Nsg62
V621286617215594496
p132
sg64
I0
sg65
Nsg66
I00
sg67
(dp133
g69
Nsg70
I01
sg71
I00
sg41
I82830800
sg72
I00
sg73
Vhttps://pbs.twimg.com/profile_images/551827664882106369/-BthMPzx_normal.jpeg
p134
sg75
VF6FFD1
p135
sg77
V333333
p136
sg79
I635
sg80
VFFF8AD
p137
sg62
V82830800
p138
sg83
VFFF04D
p139
sg85
I35
sg86
Vhttps://abs.twimg.com/images/themes/theme19/bg.gif
p140
sg88
I7200
sg89
I1871
sg90
VWorking at SwissRe, channel mgmt, Zurich; before: NZZ digital media, Stimmt AG, Neuroinformatics; \u000aenjoys digital stuff, strategy, customer experience, and life
p141
sg92
I532
sg93
VZurich, Switzerland
p142
sg95
V2684B3
p143
sg97
Vhttp://pbs.twimg.com/profile_images/551827664882106369/-BthMPzx_normal.jpeg
p144
sg99
Nsg100
I01
sg101
Vhttps://pbs.twimg.com/profile_banners/82830800/1399591448
p145
sg103
Vhttp://abs.twimg.com/images/themes/theme19/bg.gif
p146
sg105
Vgudrun moeller
p147
sg107
Ven
p148
sg109
I00
sg110
I708
sg111
Vgum_o
p149
sg113
Nsg26
Nsg115
VFri Oct 16 08:21:32 +0000 2009
p150
sg117
I00
sg118
VBern
p151
sg120
I00
sg121
I00
sg122
I00
ssg123
Nsg124
Nsg125
I00
sg107
Ven
p152
sg115
VWed Jul 15 11:54:07 +0000 2015
p153
sVquoted_status_id_str
p154
V621236652762116096
p155
sg128
Vlow
p156
sg130
Nsg131
(dp157
Vfull_name
p158
VZurich, Switzerland
p159
sg26
Vhttps://api.twitter.com/1.1/geo/id/3acb748d0f1e9265.json
p160
sVcountry
p161
VSchweiz
p162
sVplace_type
p163
Vcity
p164
sVbounding_box
p165
(dp166
Vtype
p167
VPolygon
p168
sg47
(lp169
(lp170
(lp171
F8.448081
aF47.320183
aa(lp172
F8.448081
aF47.434721
aa(lp173
F8.625442
aF47.434721
aa(lp174
F8.625442
aF47.320183
aaassVcountry_code
p175
VCH
p176
sVattributes
p177
(dp178
sg41
V3acb748d0f1e9265
p179
sg105
VZurich
p180
sssS'coordinates'
p181
NsS'timestamp_ms'
p182
g49
sS'quoted_status'
p183
g51
sS'source'
p184
VTwitter for iPhone
p185
sS'in_reply_to_screen_name'
p186
NsS'id_str'
p187
g132
sS'retweet_count'
p188
I0
sS'in_reply_to_user_id'
p189
NsS'favorited'
p190
I00
sS'source_url'
p191
Vhttp://twitter.com/download/iphone
p192
sS'user'
p193
g0
(ctweepy.models
User
p194
g2
Ntp195
Rp196
(dp197
S'follow_request_sent'
p198
NsS'profile_use_background_image'
p199
I01
sS'profile_sidebar_fill_color'
p200
g135
sg11
I82830800
sS'verified'
p201
I00
sS'profile_image_url_https'
p202
g134
sg35
g133
sS'contributors_enabled'
p203
I00
sS'profile_text_color'
p204
g136
sS'followers_count'
p205
I635
sS'profile_sidebar_border_color'
p206
g137
sS'location'
p207
g142
sS'default_profile_image'
p208
I00
sg187
g138
sS'utc_offset'
p209
I7200
sS'statuses_count'
p210
I1871
sS'description'
p211
VWorking at SwissRe, channel mgmt, Zurich; before: NZZ digital media, Stimmt AG, Neuroinformatics; \u000aenjoys digital stuff, strategy, customer experience, and life
p212
sS'friends_count'
p213
I532
sS'profile_link_color'
p214
g143
sS'profile_image_url'
p215
g144
sS'notifications'
p216
NsS'geo_enabled'
p217
I01
sS'profile_background_color'
p218
g139
sS'profile_banner_url'
p219
g145
sS'profile_background_image_url'
p220
g146
sS'name'
p221
g147
sS'lang'
p222
g148
sS'following'
p223
I00
sS'profile_background_tile'
p224
I00
sS'favourites_count'
p225
I708
sS'screen_name'
p226
g149
sS'url'
p227
NsS'created_at'
p228
cdatetime
datetime
p229
(S'\x07\xd9\n\x10\x08\x15 \x00\x00\x00'
p230
tp231
Rp232
sS'profile_background_image_url_https'
p233
g140
sS'time_zone'
p234
g151
sS'protected'
p235
I00
sS'default_profile'
p236
I00
sS'is_translator'
p237
I00
sS'listed_count'
p238
I35
sbsS'geo'
p239
NsS'in_reply_to_user_id_str'
p240
NsS'possibly_sensitive'
p241
I00
sg222
g152
sg228
g229
(S'\x07\xdf\x07\x0f\x0b6\x07\x00\x00\x00'
p242
tp243
Rp244
sS'author'
p245
g196
sS'quoted_status_id_str'
p246
g155
sS'filter_level'
p247
g156
sS'in_reply_to_status_id_str'
p248
NsS'place'
p249
g0
(ctweepy.models
Place
p250
g2
Ntp251
Rp252
(dp253
S'full_name'
p254
g159
sg227
g160
sS'country'
p255
g162
sS'place_type'
p256
g164
sS'bounding_box'
p257
g0
(ctweepy.models
BoundingBox
p258
g2
Ntp259
Rp260
(dp261
S'type'
p262
g168
sg181
g169
sbsS'country_code'
p263
g176
sS'attributes'
p264
g178
sg11
g179
sg221
g180
sbsS'retweeted'
p265
I00
sb.