ccopy_reg
_reconstructor
p0
(ctweepy.models
Status
p1
c__builtin__
object
p2
Ntp3
Rp4
(dp5
S'favorited'
p6
I00
sS'contributors'
p7
NsS'truncated'
p8
I00
sS'text'
p9
V#YourCountry Do you believe in the vision of @CodeWeekEU and want to promote coding innovation?http://t.co/9OmrFwV87H http://t.co/sd2aYVMHTW
p10
sS'source_url'
p11
Vhttp://twitter.com
p12
sS'possibly_sensitive'
p13
I00
sS'in_reply_to_status_id'
p14
NsS'user'
p15
g0
(ctweepy.models
User
p16
g2
Ntp17
Rp18
(dp19
S'follow_request_sent'
p20
NsS'profile_use_background_image'
p21
I01
sS'profile_sidebar_fill_color'
p22
VFFFFFF
p23
sS'id'
p24
I121089496
sS'verified'
p25
I00
sS'profile_image_url_https'
p26
Vhttps://pbs.twimg.com/profile_images/527127081285873664/X4sPnT5y_normal.jpeg
p27
sS'_json'
p28
(dp29
Vfollow_request_sent
p30
NsVprofile_use_background_image
p31
I01
sVdefault_profile_image
p32
I00
sVid
p33
I121089496
sVverified
p34
I00
sVprofile_image_url_https
p35
g27
sVprofile_sidebar_fill_color
p36
g23
sVprofile_text_color
p37
V2C2C2C
p38
sVfollowers_count
p39
I1224
sVprofile_sidebar_border_color
p40
V000000
p41
sVid_str
p42
V121089496
p43
sVprofile_background_color
p44
VFFFFFF
p45
sVlisted_count
p46
I138
sVprofile_background_image_url_https
p47
Vhttps://pbs.twimg.com/profile_background_images/706754059/5bfecc3586f44a8aa08baa4f7e15dd5b.jpeg
p48
sVutc_offset
p49
NsVstatuses_count
p50
I5581
sVdescription
p51
Vdesignminded marketing communication specialist, socialmedia digital startup storytelling food runner 3mum @codeweekEU Amb @CdT_digital @RailsGirls_TI @RG_Leman
p52
sVfriends_count
p53
I2001
sVlocation
p54
V
p55
sVprofile_link_color
p56
VDD2E44
p57
sVprofile_image_url
p58
Vhttp://pbs.twimg.com/profile_images/527127081285873664/X4sPnT5y_normal.jpeg
p59
sVfollowing
p60
NsVgeo_enabled
p61
I01
sVprofile_banner_url
p62
Vhttps://pbs.twimg.com/profile_banners/121089496/1407476715
p63
sVprofile_background_image_url
p64
Vhttp://pbs.twimg.com/profile_background_images/706754059/5bfecc3586f44a8aa08baa4f7e15dd5b.jpeg
p65
sVname
p66
Vgabri fumagalli
p67
sVlang
p68
Vit
p69
sVprofile_background_tile
p70
I00
sVfavourites_count
p71
I3526
sVscreen_name
p72
Vgabrivev
p73
sVnotifications
p74
NsVurl
p75
Vhttp://about.me/gabriella.vivreenvert
p76
sVcreated_at
p77
VMon Mar 08 12:02:24 +0000 2010
p78
sVcontributors_enabled
p79
I00
sVtime_zone
p80
NsVprotected
p81
I00
sVdefault_profile
p82
I00
sVis_translator
p83
I00
ssS'contributors_enabled'
p84
I00
sS'profile_text_color'
p85
g38
sS'followers_count'
p86
I1224
sS'profile_sidebar_border_color'
p87
g41
sS'location'
p88
g55
sS'default_profile_image'
p89
I00
sS'id_str'
p90
g43
sS'utc_offset'
p91
NsS'statuses_count'
p92
I5581
sS'description'
p93
g52
sS'friends_count'
p94
I2001
sS'profile_link_color'
p95
g57
sS'profile_image_url'
p96
g59
sS'notifications'
p97
NsS'geo_enabled'
p98
I01
sS'profile_background_color'
p99
g45
sS'profile_banner_url'
p100
g63
sS'profile_background_image_url'
p101
g65
sS'name'
p102
g67
sS'lang'
p103
g69
sS'following'
p104
I00
sS'profile_background_tile'
p105
I00
sS'favourites_count'
p106
I3526
sS'screen_name'
p107
g73
sS'url'
p108
g76
sS'created_at'
p109
cdatetime
datetime
p110
(S'\x07\xda\x03\x08\x0c\x02\x18\x00\x00\x00'
p111
tp112
Rp113
sS'profile_background_image_url_https'
p114
g48
sS'time_zone'
p115
NsS'protected'
p116
I00
sS'default_profile'
p117
I00
sS'is_translator'
p118
I00
sS'listed_count'
p119
I138
sbsS'filter_level'
p120
Vlow
p121
sS'geo'
p122
Nsg24
I620513450826047489
sS'favorite_count'
p123
I0
sS'source'
p124
VTwitter Web Client
p125
sg103
Ven
p126
sS'author'
p127
g18
sS'in_reply_to_user_id_str'
p128
Nsg28
(dp129
Vcontributors
p130
NsVtruncated
p131
I00
sVtext
p132
g10
sVin_reply_to_status_id
p133
Nsg33
I620513450826047489
sVfavorite_count
p134
I0
sVsource
p135
V<a href="http://twitter.com" rel="nofollow">Twitter Web Client</a>
p136
sVretweeted
p137
I00
sVcoordinates
p138
NsVtimestamp_ms
p139
V1436776909916
p140
sVentities
p141
(dp142
Vsymbols
p143
(lp144
sVmedia
p145
(lp146
(dp147
Vexpanded_url
p148
Vhttp://twitter.com/gabrivev/status/620513450826047489/photo/1
p149
sVdisplay_url
p150
Vpic.twitter.com/sd2aYVMHTW
p151
sg75
Vhttp://t.co/sd2aYVMHTW
p152
sVmedia_url_https
p153
Vhttps://pbs.twimg.com/media/CJyBsccUMAAbh-Y.png
p154
sg42
V620513449219469312
p155
sVsizes
p156
(dp157
Vlarge
p158
(dp159
Vh
p160
I768
sVresize
p161
Vfit
p162
sVw
p163
I1024
ssVsmall
p164
(dp165
g160
I255
sg161
Vfit
p166
sg163
I340
ssVmedium
p167
(dp168
g160
I450
sg161
Vfit
p169
sg163
I600
ssVthumb
p170
(dp171
g160
I150
sg161
Vcrop
p172
sg163
I150
sssVindices
p173
(lp174
I118
aI140
asVtype
p175
Vphoto
p176
sg33
I620513449219469312
sVmedia_url
p177
Vhttp://pbs.twimg.com/media/CJyBsccUMAAbh-Y.png
p178
sasVhashtags
p179
(lp180
(dp181
g173
(lp182
I0
aI12
asg132
VYourCountry
p183
sasVuser_mentions
p184
(lp185
(dp186
g33
I1712364560
sg173
(lp187
I45
aI56
asg42
V1712364560
p188
sg72
VCodeWeekEU
p189
sg66
VCodeWeekEU
p190
sasVtrends
p191
(lp192
sVurls
p193
(lp194
(dp195
g75
Vhttp://t.co/9OmrFwV87H
p196
sg173
(lp197
I95
aI117
asg148
Vhttp://codeweek.eu/beambassador
p198
sg150
Vcodeweek.eu/beambassador
p199
sassVin_reply_to_screen_name
p200
Nsg42
V620513450826047489
p201
sVretweet_count
p202
I0
sVin_reply_to_user_id
p203
NsVfavorited
p204
I00
sVuser
p205
g29
sVgeo
p206
NsVin_reply_to_user_id_str
p207
NsVpossibly_sensitive
p208
I00
sg68
g126
sg77
VMon Jul 13 08:41:49 +0000 2015
p209
sVfilter_level
p210
g121
sVin_reply_to_status_id_str
p211
NsVplace
p212
(dp213
Vfull_name
p214
VZurigo, Svizzera
p215
sg75
Vhttps://api.twitter.com/1.1/geo/id/3acb748d0f1e9265.json
p216
sVcountry
p217
VSchweiz
p218
sVplace_type
p219
Vcity
p220
sVbounding_box
p221
(dp222
g175
VPolygon
p223
sg138
(lp224
(lp225
(lp226
F8.448081
aF47.320183
aa(lp227
F8.448081
aF47.434721
aa(lp228
F8.625442
aF47.434721
aa(lp229
F8.625442
aF47.320183
aaassVcountry_code
p230
VCH
p231
sVattributes
p232
(dp233
sg33
V3acb748d0f1e9265
p234
sg66
VZurigo
p235
ssVextended_entities
p236
(dp237
g145
(lp238
(dp239
g148
Vhttp://twitter.com/gabrivev/status/620513450826047489/photo/1
p240
sg150
Vpic.twitter.com/sd2aYVMHTW
p241
sg75
Vhttp://t.co/sd2aYVMHTW
p242
sg153
Vhttps://pbs.twimg.com/media/CJyBsccUMAAbh-Y.png
p243
sg42
V620513449219469312
p244
sg156
(dp245
g158
(dp246
g160
I768
sg161
Vfit
p247
sg163
I1024
ssg164
(dp248
g160
I255
sg161
Vfit
p249
sg163
I340
ssg167
(dp250
g160
I450
sg161
Vfit
p251
sg163
I600
ssg170
(dp252
g160
I150
sg161
Vcrop
p253
sg163
I150
sssg173
(lp254
I118
aI140
asg175
Vphoto
p255
sg33
I620513449219469312
sg177
Vhttp://pbs.twimg.com/media/CJyBsccUMAAbh-Y.png
p256
sasssS'coordinates'
p257
NsS'timestamp_ms'
p258
g140
sS'entities'
p259
g142
sS'in_reply_to_status_id_str'
p260
NsS'in_reply_to_screen_name'
p261
Nsg90
g201
sS'extended_entities'
p262
g237
sS'retweeted'
p263
I00
sS'place'
p264
g0
(ctweepy.models
Place
p265
g2
Ntp266
Rp267
(dp268
S'full_name'
p269
g215
sg108
g216
sS'country'
p270
g218
sS'place_type'
p271
g220
sS'bounding_box'
p272
g0
(ctweepy.models
BoundingBox
p273
g2
Ntp274
Rp275
(dp276
S'type'
p277
g223
sg257
g224
sbsS'country_code'
p278
g231
sS'attributes'
p279
g233
sg24
g234
sg102
g235
sbsS'retweet_count'
p280
I0
sg109
g110
(S'\x07\xdf\x07\r\x08)1\x00\x00\x00'
p281
tp282
Rp283
sS'in_reply_to_user_id'
p284
Nsb.