ccopy_reg
_reconstructor
p0
(ctweepy.models
Status
p1
c__builtin__
object
p2
Ntp3
Rp4
(dp5
S'favorited'
p6
I00
sS'contributors'
p7
NsS'truncated'
p8
I00
sS'text'
p9
VOUR #BEAUTYCOORDINATOR @castleburgh ENJOYING HER WELL DESERVED #VACAYS BEFORE THE LAUNCH OF\u2026 https://t.co/YEsN4oPFO3
p10
sS'source_url'
p11
Vhttp://instagram.com
p12
sS'possibly_sensitive'
p13
I00
sS'in_reply_to_status_id'
p14
NsS'user'
p15
g0
(ctweepy.models
User
p16
g2
Ntp17
Rp18
(dp19
S'follow_request_sent'
p20
NsS'profile_use_background_image'
p21
I01
sS'profile_sidebar_fill_color'
p22
V7AC3EE
p23
sS'id'
p24
I91610335
sS'verified'
p25
I00
sS'profile_image_url_https'
p26
Vhttps://pbs.twimg.com/profile_images/619639763038007296/n2bZfiiX_normal.jpg
p27
sS'_json'
p28
(dp29
Vfollow_request_sent
p30
NsVprofile_use_background_image
p31
I01
sVdefault_profile_image
p32
I00
sVid
p33
I91610335
sVverified
p34
I00
sVprofile_image_url_https
p35
g27
sVprofile_sidebar_fill_color
p36
g23
sVprofile_text_color
p37
V3D1957
p38
sVfollowers_count
p39
I300
sVprofile_sidebar_border_color
p40
V65B0DA
p41
sVid_str
p42
V91610335
p43
sVprofile_background_color
p44
V642D8B
p45
sVlisted_count
p46
I8
sVprofile_background_image_url_https
p47
Vhttps://pbs.twimg.com/profile_background_images/207394587/THINK_PINK2.jpg
p48
sVutc_offset
p49
I-7200
sVstatuses_count
p50
I4391
sVdescription
p51
VEDITOR IN CHIEF AT NU ICONS MAG\u000a             NU ICONS FOUNDER
p52
sVfriends_count
p53
I137
sVlocation
p54
VZURICH
p55
sVprofile_link_color
p56
VFF0000
p57
sVprofile_image_url
p58
Vhttp://pbs.twimg.com/profile_images/619639763038007296/n2bZfiiX_normal.jpg
p59
sVfollowing
p60
NsVgeo_enabled
p61
I01
sVprofile_background_image_url
p62
Vhttp://pbs.twimg.com/profile_background_images/207394587/THINK_PINK2.jpg
p63
sVname
p64
VGRAY CASTILLO
p65
sVlang
p66
Ven
p67
sVprofile_background_tile
p68
I01
sVfavourites_count
p69
I364
sVscreen_name
p70
VBOOTIESONMYFEET
p71
sVnotifications
p72
NsVurl
p73
Vhttp://www.nuicons.com
p74
sVcreated_at
p75
VSat Nov 21 17:03:47 +0000 2009
p76
sVcontributors_enabled
p77
I00
sVtime_zone
p78
VGreenland
p79
sVprotected
p80
I00
sVdefault_profile
p81
I00
sVis_translator
p82
I00
ssS'contributors_enabled'
p83
I00
sS'profile_text_color'
p84
g38
sS'followers_count'
p85
I300
sS'profile_sidebar_border_color'
p86
g41
sS'location'
p87
g55
sS'default_profile_image'
p88
I00
sS'id_str'
p89
g43
sS'utc_offset'
p90
I-7200
sS'statuses_count'
p91
I4391
sS'description'
p92
VEDITOR IN CHIEF AT NU ICONS MAG\u000a             NU ICONS FOUNDER
p93
sS'friends_count'
p94
I137
sS'profile_link_color'
p95
g57
sS'profile_image_url'
p96
g59
sS'notifications'
p97
NsS'geo_enabled'
p98
I01
sS'profile_background_color'
p99
g45
sS'profile_background_image_url'
p100
g63
sS'name'
p101
g65
sS'lang'
p102
g67
sS'following'
p103
I00
sS'profile_background_tile'
p104
I01
sS'favourites_count'
p105
I364
sS'screen_name'
p106
g71
sS'url'
p107
g74
sS'created_at'
p108
cdatetime
datetime
p109
(S'\x07\xd9\x0b\x15\x11\x03/\x00\x00\x00'
p110
tp111
Rp112
sS'profile_background_image_url_https'
p113
g48
sS'time_zone'
p114
g79
sS'protected'
p115
I00
sS'default_profile'
p116
I00
sS'is_translator'
p117
I00
sS'listed_count'
p118
I8
sbsS'filter_level'
p119
Vlow
p120
sS'geo'
p121
(dp122
Vtype
p123
VPoint
p124
sVcoordinates
p125
(lp126
F47.375487
aF8.516256
assg24
I621691803322822656
sS'favorite_count'
p127
I0
sS'source'
p128
VInstagram
p129
sg102
Ven
p130
sS'author'
p131
g18
sS'in_reply_to_user_id_str'
p132
Nsg28
(dp133
Vcontributors
p134
NsVtruncated
p135
I00
sVtext
p136
g10
sVin_reply_to_status_id
p137
Nsg33
I621691803322822656
sVfavorite_count
p138
I0
sVsource
p139
V<a href="http://instagram.com" rel="nofollow">Instagram</a>
p140
sVretweeted
p141
I00
sg125
(dp142
g123
VPoint
p143
sg125
(lp144
F8.516256
aF47.375487
assVtimestamp_ms
p145
V1437057851044
p146
sVentities
p147
(dp148
Vuser_mentions
p149
(lp150
(dp151
g33
I373843982
sVindices
p152
(lp153
I23
aI35
asg42
V373843982
p154
sg70
Vcastleburgh
p155
sg64
VCaroline
p156
sasVsymbols
p157
(lp158
sVtrends
p159
(lp160
sVhashtags
p161
(lp162
(dp163
g152
(lp164
I4
aI22
asg136
VBEAUTYCOORDINATOR
p165
sa(dp166
g152
(lp167
I63
aI70
asg136
VVACAYS
p168
sasVurls
p169
(lp170
(dp171
g73
Vhttps://t.co/YEsN4oPFO3
p172
sg152
(lp173
I93
aI116
asVexpanded_url
p174
Vhttps://instagram.com/p/5M2jtZTHtX/
p175
sVdisplay_url
p176
Vinstagram.com/p/5M2jtZTHtX/
p177
sassVin_reply_to_screen_name
p178
Nsg42
V621691803322822656
p179
sVretweet_count
p180
I0
sVin_reply_to_user_id
p181
NsVfavorited
p182
I00
sVuser
p183
g29
sVgeo
p184
g122
sVin_reply_to_user_id_str
p185
NsVpossibly_sensitive
p186
I00
sg66
g130
sg75
VThu Jul 16 14:44:11 +0000 2015
p187
sVfilter_level
p188
g120
sVin_reply_to_status_id_str
p189
NsVplace
p190
(dp191
Vfull_name
p192
VZurich, Switzerland
p193
sg73
Vhttps://api.twitter.com/1.1/geo/id/3acb748d0f1e9265.json
p194
sVcountry
p195
VSchweiz
p196
sVplace_type
p197
Vcity
p198
sVbounding_box
p199
(dp200
g123
VPolygon
p201
sg125
(lp202
(lp203
(lp204
F8.448081
aF47.320183
aa(lp205
F8.448081
aF47.434721
aa(lp206
F8.625442
aF47.434721
aa(lp207
F8.625442
aF47.320183
aaassVcountry_code
p208
VCH
p209
sVattributes
p210
(dp211
sg33
V3acb748d0f1e9265
p212
sg64
VZurich
p213
sssS'coordinates'
p214
g142
sS'timestamp_ms'
p215
g146
sS'entities'
p216
g148
sS'in_reply_to_status_id_str'
p217
NsS'in_reply_to_screen_name'
p218
Nsg89
g179
sS'retweeted'
p219
I00
sS'place'
p220
g0
(ctweepy.models
Place
p221
g2
Ntp222
Rp223
(dp224
S'full_name'
p225
g193
sg107
g194
sS'country'
p226
g196
sS'place_type'
p227
g198
sS'bounding_box'
p228
g0
(ctweepy.models
BoundingBox
p229
g2
Ntp230
Rp231
(dp232
S'type'
p233
g201
sg214
g202
sbsS'country_code'
p234
g209
sS'attributes'
p235
g211
sg24
g212
sg101
g213
sbsS'retweet_count'
p236
I0
sg108
g109
(S'\x07\xdf\x07\x10\x0e,\x0b\x00\x00\x00'
p237
tp238
Rp239
sS'in_reply_to_user_id'
p240
Nsb.