ccopy_reg
_reconstructor
p0
(ctweepy.models
Status
p1
c__builtin__
object
p2
Ntp3
Rp4
(dp5
S'favorited'
p6
I00
sS'contributors'
p7
NsS'truncated'
p8
I00
sS'text'
p9
V@FormallyTom Its not abnormal for indep. publishers to pull a double or triple shift, towards a cause to shine sportlight on the motherland.
p10
sS'source_url'
p11
Vhttp://twitter.com
p12
sS'possibly_sensitive'
p13
I01
sS'in_reply_to_status_id'
p14
I623812829230034944
sS'user'
p15
g0
(ctweepy.models
User
p16
g2
Ntp17
Rp18
(dp19
S'follow_request_sent'
p20
NsS'profile_use_background_image'
p21
I01
sS'profile_sidebar_fill_color'
p22
VA0C5C7
p23
sS'id'
p24
I10730442
sS'verified'
p25
I00
sS'profile_image_url_https'
p26
Vhttps://pbs.twimg.com/profile_images/378800000230268399/1d9bb2e44b848af0c4aa0e282c468501_normal.jpeg
p27
sS'_json'
p28
(dp29
Vfollow_request_sent
p30
NsVprofile_use_background_image
p31
I01
sVdefault_profile_image
p32
I00
sVid
p33
I10730442
sVverified
p34
I00
sVprofile_image_url_https
p35
g27
sVprofile_sidebar_fill_color
p36
g23
sVprofile_text_color
p37
V333333
p38
sVfollowers_count
p39
I807
sVprofile_sidebar_border_color
p40
V86A4A6
p41
sVid_str
p42
V10730442
p43
sVprofile_background_color
p44
V709397
p45
sVlisted_count
p46
I48
sVprofile_background_image_url_https
p47
Vhttps://pbs.twimg.com/profile_background_images/306197211/anesha2.jpg
p48
sVutc_offset
p49
I7200
sVstatuses_count
p50
I32004
sVdescription
p51
V\u201cCreating awareness, advocacy, case studies, real-time human rights news curation\u201d by Japheth Makana ``Light a village, spark change, ignite social empowerment
p52
sVfriends_count
p53
I814
sVlocation
p54
Vdelsberg schweiz
p55
sVprofile_link_color
p56
VFF3300
p57
sVprofile_image_url
p58
Vhttp://pbs.twimg.com/profile_images/378800000230268399/1d9bb2e44b848af0c4aa0e282c468501_normal.jpeg
p59
sVfollowing
p60
NsVgeo_enabled
p61
I01
sVprofile_banner_url
p62
Vhttps://pbs.twimg.com/profile_banners/10730442/1420341290
p63
sVprofile_background_image_url
p64
Vhttp://pbs.twimg.com/profile_background_images/306197211/anesha2.jpg
p65
sVname
p66
VJapheth Makana\u2122
p67
sVlang
p68
Ven
p69
sVprofile_background_tile
p70
I01
sVfavourites_count
p71
I5572
sVscreen_name
p72
VJeffMakana
p73
sVnotifications
p74
NsVurl
p75
Vhttp://japhethmakana.brandyourself.com/
p76
sVcreated_at
p77
VFri Nov 30 05:46:41 +0000 2007
p78
sVcontributors_enabled
p79
I00
sVtime_zone
p80
VMadrid
p81
sVprotected
p82
I00
sVdefault_profile
p83
I00
sVis_translator
p84
I00
ssS'contributors_enabled'
p85
I00
sS'profile_text_color'
p86
g38
sS'followers_count'
p87
I807
sS'profile_sidebar_border_color'
p88
g41
sS'location'
p89
g55
sS'default_profile_image'
p90
I00
sS'id_str'
p91
g43
sS'utc_offset'
p92
I7200
sS'statuses_count'
p93
I32004
sS'description'
p94
g52
sS'friends_count'
p95
I814
sS'profile_link_color'
p96
g57
sS'profile_image_url'
p97
g59
sS'notifications'
p98
NsS'geo_enabled'
p99
I01
sS'profile_background_color'
p100
g45
sS'profile_banner_url'
p101
g63
sS'profile_background_image_url'
p102
g65
sS'name'
p103
g67
sS'lang'
p104
g69
sS'following'
p105
I00
sS'profile_background_tile'
p106
I01
sS'favourites_count'
p107
I5572
sS'screen_name'
p108
g73
sS'url'
p109
g76
sS'created_at'
p110
cdatetime
datetime
p111
(S'\x07\xd7\x0b\x1e\x05.)\x00\x00\x00'
p112
tp113
Rp114
sS'profile_background_image_url_https'
p115
g48
sS'time_zone'
p116
g81
sS'protected'
p117
I00
sS'default_profile'
p118
I00
sS'is_translator'
p119
I00
sS'listed_count'
p120
I48
sbsS'filter_level'
p121
Vlow
p122
sS'geo'
p123
Nsg24
I623814694722211840
sS'favorite_count'
p124
I0
sS'source'
p125
VTwitter Web Client
p126
sg104
Ven
p127
sS'author'
p128
g18
sS'in_reply_to_user_id_str'
p129
V3028095064
p130
sg28
(dp131
Vcontributors
p132
NsVtruncated
p133
I00
sVtext
p134
g10
sVin_reply_to_status_id
p135
I623812829230034944
sg33
I623814694722211840
sVfavorite_count
p136
I0
sVsource
p137
V<a href="http://twitter.com" rel="nofollow">Twitter Web Client</a>
p138
sVretweeted
p139
I00
sVcoordinates
p140
NsVtimestamp_ms
p141
V1437563987795
p142
sVentities
p143
(dp144
Vuser_mentions
p145
(lp146
(dp147
g33
I3028095064
sVindices
p148
(lp149
I0
aI12
asg42
V3028095064
p150
sg72
VFormallyTom
p151
sg66
VTom 
p152
sasVsymbols
p153
(lp154
sVtrends
p155
(lp156
sVhashtags
p157
(lp158
sVurls
p159
(lp160
ssVin_reply_to_screen_name
p161
VFormallyTom
p162
sg42
V623814694722211840
p163
sVretweet_count
p164
I0
sVin_reply_to_user_id
p165
I3028095064
sVfavorited
p166
I00
sVuser
p167
g29
sVgeo
p168
NsVin_reply_to_user_id_str
p169
g130
sVpossibly_sensitive
p170
I01
sg68
g127
sg77
VWed Jul 22 11:19:47 +0000 2015
p171
sVfilter_level
p172
g122
sVin_reply_to_status_id_str
p173
V623812829230034944
p174
sVplace
p175
(dp176
Vfull_name
p177
VBerne, Switzerland
p178
sg75
Vhttps://api.twitter.com/1.1/geo/id/5868d0e0749c9c47.json
p179
sVcountry
p180
VSchweiz
p181
sVplace_type
p182
Vadmin
p183
sVbounding_box
p184
(dp185
Vtype
p186
VPolygon
p187
sg140
(lp188
(lp189
(lp190
F6.861601
aF46.326441
aa(lp191
F6.861601
aF47.34528
aa(lp192
F8.455051
aF47.34528
aa(lp193
F8.455051
aF46.326441
aaassVcountry_code
p194
VCH
p195
sVattributes
p196
(dp197
sg33
V5868d0e0749c9c47
p198
sg66
VBern
p199
sssS'coordinates'
p200
NsS'timestamp_ms'
p201
g142
sS'entities'
p202
g144
sS'in_reply_to_status_id_str'
p203
g174
sS'in_reply_to_screen_name'
p204
g162
sg91
g163
sS'retweeted'
p205
I00
sS'place'
p206
g0
(ctweepy.models
Place
p207
g2
Ntp208
Rp209
(dp210
S'full_name'
p211
g178
sg109
g179
sS'country'
p212
g181
sS'place_type'
p213
g183
sS'bounding_box'
p214
g0
(ctweepy.models
BoundingBox
p215
g2
Ntp216
Rp217
(dp218
S'type'
p219
g187
sg200
g188
sbsS'country_code'
p220
g195
sS'attributes'
p221
g197
sg24
g198
sg103
g199
sbsS'retweet_count'
p222
I0
sg110
g111
(S'\x07\xdf\x07\x16\x0b\x13/\x00\x00\x00'
p223
tp224
Rp225
sS'in_reply_to_user_id'
p226
I3028095064
sb.