ccopy_reg
_reconstructor
p0
(ctweepy.models
Status
p1
c__builtin__
object
p2
Ntp3
Rp4
(dp5
S'favorited'
p6
I00
sS'contributors'
p7
NsS'truncated'
p8
I00
sS'text'
p9
VMy #mcw   \u000a#TeenChoice ! Vote for @ChristophrWood  #ChoiceTVVillain - #TheVampireDiaries at http://t.co/fbwgrY4ea0 http://t.co/XmvLP79HeP
p10
sS'source_url'
p11
Vhttp://twitter.com
p12
sS'possibly_sensitive'
p13
I00
sS'in_reply_to_status_id'
p14
NsS'user'
p15
g0
(ctweepy.models
User
p16
g2
Ntp17
Rp18
(dp19
S'follow_request_sent'
p20
NsS'profile_use_background_image'
p21
I01
sS'profile_sidebar_fill_color'
p22
V95E8EC
p23
sS'id'
p24
I349959192
sS'verified'
p25
I00
sS'profile_image_url_https'
p26
Vhttps://pbs.twimg.com/profile_images/620994151857934336/9J96hh-A_normal.jpg
p27
sS'_json'
p28
(dp29
Vfollow_request_sent
p30
NsVprofile_use_background_image
p31
I01
sVdefault_profile_image
p32
I00
sVid
p33
I349959192
sVverified
p34
I00
sVprofile_image_url_https
p35
g27
sVprofile_sidebar_fill_color
p36
g23
sVprofile_text_color
p37
V3C3940
p38
sVfollowers_count
p39
I353
sVprofile_sidebar_border_color
p40
V5ED4DC
p41
sVid_str
p42
V349959192
p43
sVprofile_background_color
p44
V0099B9
p45
sVlisted_count
p46
I2
sVprofile_background_image_url_https
p47
Vhttps://abs.twimg.com/images/themes/theme4/bg.gif
p48
sVutc_offset
p49
I-18000
sVstatuses_count
p50
I4094
sVdescription
p51
VThe most important thing is to enjoy your life - to be happy - it's all that matters.
p52
sVfriends_count
p53
I478
sVlocation
p54
VBern, Schweiz
p55
sVprofile_link_color
p56
V0099B9
p57
sVprofile_image_url
p58
Vhttp://pbs.twimg.com/profile_images/620994151857934336/9J96hh-A_normal.jpg
p59
sVfollowing
p60
NsVgeo_enabled
p61
I01
sVprofile_banner_url
p62
Vhttps://pbs.twimg.com/profile_banners/349959192/1433636337
p63
sVprofile_background_image_url
p64
Vhttp://abs.twimg.com/images/themes/theme4/bg.gif
p65
sVname
p66
VSara
p67
sVlang
p68
Vde
p69
sVprofile_background_tile
p70
I00
sVfavourites_count
p71
I571
sVscreen_name
p72
V_SwissSara23
p73
sVnotifications
p74
NsVurl
p75
NsVcreated_at
p76
VSun Aug 07 00:15:06 +0000 2011
p77
sVcontributors_enabled
p78
I00
sVtime_zone
p79
VCentral Time (US & Canada)
p80
sVprotected
p81
I00
sVdefault_profile
p82
I00
sVis_translator
p83
I00
ssS'contributors_enabled'
p84
I00
sS'profile_text_color'
p85
g38
sS'followers_count'
p86
I353
sS'profile_sidebar_border_color'
p87
g41
sS'location'
p88
g55
sS'default_profile_image'
p89
I00
sS'id_str'
p90
g43
sS'utc_offset'
p91
I-18000
sS'statuses_count'
p92
I4094
sS'description'
p93
g52
sS'friends_count'
p94
I478
sS'profile_link_color'
p95
g57
sS'profile_image_url'
p96
g59
sS'notifications'
p97
NsS'geo_enabled'
p98
I01
sS'profile_background_color'
p99
g45
sS'profile_banner_url'
p100
g63
sS'profile_background_image_url'
p101
g65
sS'name'
p102
g67
sS'lang'
p103
g69
sS'following'
p104
I00
sS'profile_background_tile'
p105
I00
sS'favourites_count'
p106
I571
sS'screen_name'
p107
g73
sS'url'
p108
NsS'created_at'
p109
cdatetime
datetime
p110
(S'\x07\xdb\x08\x07\x00\x0f\x06\x00\x00\x00'
p111
tp112
Rp113
sS'profile_background_image_url_https'
p114
g48
sS'time_zone'
p115
g80
sS'protected'
p116
I00
sS'default_profile'
p117
I00
sS'is_translator'
p118
I00
sS'listed_count'
p119
I2
sbsS'filter_level'
p120
Vlow
p121
sS'geo'
p122
Nsg24
I621421204839231488
sS'favorite_count'
p123
I0
sS'source'
p124
VTwitter Web Client
p125
sg103
Ven
p126
sS'author'
p127
g18
sS'in_reply_to_user_id_str'
p128
Nsg28
(dp129
Vcontributors
p130
NsVtruncated
p131
I00
sVtext
p132
VMy #mcw   \u000a#TeenChoice ! Vote for @ChristophrWood  #ChoiceTVVillain - #TheVampireDiaries at http://t.co/fbwgrY4ea0 http://t.co/XmvLP79HeP
p133
sVin_reply_to_status_id
p134
Nsg33
I621421204839231488
sVfavorite_count
p135
I0
sVsource
p136
V<a href="http://twitter.com" rel="nofollow">Twitter Web Client</a>
p137
sVretweeted
p138
I00
sVcoordinates
p139
NsVtimestamp_ms
p140
V1436993335338
p141
sVentities
p142
(dp143
Vsymbols
p144
(lp145
sVmedia
p146
(lp147
(dp148
Vexpanded_url
p149
Vhttp://twitter.com/_SwissSara23/status/621421204839231488/photo/1
p150
sVdisplay_url
p151
Vpic.twitter.com/XmvLP79HeP
p152
sg75
Vhttp://t.co/XmvLP79HeP
p153
sVmedia_url_https
p154
Vhttps://pbs.twimg.com/media/CJ-7SuOUsAEYx-T.jpg
p155
sg42
V621421203920564225
p156
sVsizes
p157
(dp158
Vsmall
p159
(dp160
Vh
p161
I255
sVresize
p162
Vfit
p163
sVw
p164
I340
ssVlarge
p165
(dp166
g161
I360
sg162
Vfit
p167
sg164
I480
ssVmedium
p168
(dp169
g161
I360
sg162
Vfit
p170
sg164
I480
ssVthumb
p171
(dp172
g161
I150
sg162
Vcrop
p173
sg164
I150
sssVindices
p174
(lp175
I115
aI137
asVtype
p176
Vphoto
p177
sg33
I621421203920564225
sVmedia_url
p178
Vhttp://pbs.twimg.com/media/CJ-7SuOUsAEYx-T.jpg
p179
sasVhashtags
p180
(lp181
(dp182
g174
(lp183
I3
aI7
asg132
Vmcw
p184
sa(dp185
g174
(lp186
I11
aI22
asg132
VTeenChoice
p187
sa(dp188
g174
(lp189
I51
aI67
asg132
VChoiceTVVillain
p190
sa(dp191
g174
(lp192
I70
aI88
asg132
VTheVampireDiaries
p193
sasVuser_mentions
p194
(lp195
(dp196
g33
I179829897
sg174
(lp197
I34
aI49
asg42
V179829897
p198
sg72
VChristophrWood
p199
sg66
VChris Wood
p200
sasVtrends
p201
(lp202
sVurls
p203
(lp204
(dp205
g75
Vhttp://t.co/fbwgrY4ea0
p206
sg174
(lp207
I92
aI114
asg149
Vhttp://teenchoice.com
p208
sg151
Vteenchoice.com
p209
sassVin_reply_to_screen_name
p210
Nsg42
V621421204839231488
p211
sVretweet_count
p212
I0
sVin_reply_to_user_id
p213
NsVfavorited
p214
I00
sVuser
p215
g29
sVgeo
p216
NsVin_reply_to_user_id_str
p217
NsVpossibly_sensitive
p218
I00
sg68
g126
sg76
VWed Jul 15 20:48:55 +0000 2015
p219
sVfilter_level
p220
g121
sVin_reply_to_status_id_str
p221
NsVplace
p222
(dp223
Vfull_name
p224
VBern, Schweiz
p225
sg75
Vhttps://api.twitter.com/1.1/geo/id/5868d0e0749c9c47.json
p226
sVcountry
p227
VSchweiz
p228
sVplace_type
p229
Vadmin
p230
sVbounding_box
p231
(dp232
g176
VPolygon
p233
sg139
(lp234
(lp235
(lp236
F6.861601
aF46.326441
aa(lp237
F6.861601
aF47.34528
aa(lp238
F8.455051
aF47.34528
aa(lp239
F8.455051
aF46.326441
aaassVcountry_code
p240
VCH
p241
sVattributes
p242
(dp243
sg33
V5868d0e0749c9c47
p244
sg66
VBern
p245
ssVextended_entities
p246
(dp247
g146
(lp248
(dp249
g149
Vhttp://twitter.com/_SwissSara23/status/621421204839231488/photo/1
p250
sg151
Vpic.twitter.com/XmvLP79HeP
p251
sg75
Vhttp://t.co/XmvLP79HeP
p252
sg154
Vhttps://pbs.twimg.com/media/CJ-7SuOUsAEYx-T.jpg
p253
sg42
V621421203920564225
p254
sg157
(dp255
g159
(dp256
g161
I255
sg162
Vfit
p257
sg164
I340
ssg165
(dp258
g161
I360
sg162
Vfit
p259
sg164
I480
ssg168
(dp260
g161
I360
sg162
Vfit
p261
sg164
I480
ssg171
(dp262
g161
I150
sg162
Vcrop
p263
sg164
I150
sssg174
(lp264
I115
aI137
asg176
Vphoto
p265
sg33
I621421203920564225
sg178
Vhttp://pbs.twimg.com/media/CJ-7SuOUsAEYx-T.jpg
p266
sasssS'coordinates'
p267
NsS'timestamp_ms'
p268
g141
sS'entities'
p269
g143
sS'in_reply_to_status_id_str'
p270
NsS'in_reply_to_screen_name'
p271
Nsg90
g211
sS'extended_entities'
p272
g247
sS'retweeted'
p273
I00
sS'place'
p274
g0
(ctweepy.models
Place
p275
g2
Ntp276
Rp277
(dp278
S'full_name'
p279
g225
sg108
g226
sS'country'
p280
g228
sS'place_type'
p281
g230
sS'bounding_box'
p282
g0
(ctweepy.models
BoundingBox
p283
g2
Ntp284
Rp285
(dp286
S'type'
p287
g233
sg267
g234
sbsS'country_code'
p288
g241
sS'attributes'
p289
g243
sg24
g244
sg102
g245
sbsS'retweet_count'
p290
I0
sg109
g110
(S'\x07\xdf\x07\x0f\x1407\x00\x00\x00'
p291
tp292
Rp293
sS'in_reply_to_user_id'
p294
Nsb.