ccopy_reg
_reconstructor
p0
(ctweepy.models
Status
p1
c__builtin__
object
p2
Ntp3
Rp4
(dp5
S'favorited'
p6
I00
sS'contributors'
p7
NsS'truncated'
p8
I00
sS'text'
p9
V@iSkyCommute no kidding. One could be in for a real suprise!! #kewgardens
p10
sS'source_url'
p11
Vhttp://twitter.com/download/android
p12
sS'possibly_sensitive'
p13
I00
sS'in_reply_to_status_id'
p14
I621382786612637696
sS'user'
p15
g0
(ctweepy.models
User
p16
g2
Ntp17
Rp18
(dp19
S'follow_request_sent'
p20
NsS'profile_use_background_image'
p21
I01
sS'profile_sidebar_fill_color'
p22
VEFEFEF
p23
sS'id'
p24
I244403743
sS'verified'
p25
I00
sS'profile_image_url_https'
p26
Vhttps://pbs.twimg.com/profile_images/2778347557/3a4ea343854616100b2b7b4d4bd2f3d1_normal.jpeg
p27
sS'_json'
p28
(dp29
Vfollow_request_sent
p30
NsVprofile_use_background_image
p31
I01
sVdefault_profile_image
p32
I00
sVid
p33
I244403743
sVverified
p34
I00
sVprofile_image_url_https
p35
g27
sVprofile_sidebar_fill_color
p36
g23
sVprofile_text_color
p37
V333333
p38
sVfollowers_count
p39
I949
sVprofile_sidebar_border_color
p40
VEEEEEE
p41
sVid_str
p42
V244403743
p43
sVprofile_background_color
p44
V131516
p45
sVlisted_count
p46
I23
sVprofile_background_image_url_https
p47
Vhttps://abs.twimg.com/images/themes/theme14/bg.gif
p48
sVutc_offset
p49
I-18000
sVstatuses_count
p50
I14194
sVdescription
p51
VRead everything. Observe worlds outside your comfort zone. Educate yourself. FreeFall
p52
sVfriends_count
p53
I2000
sVlocation
p54
VAlabama, New York & 38,000ft
p55
sVprofile_link_color
p56
V009999
p57
sVprofile_image_url
p58
Vhttp://pbs.twimg.com/profile_images/2778347557/3a4ea343854616100b2b7b4d4bd2f3d1_normal.jpeg
p59
sVfollowing
p60
NsVgeo_enabled
p61
I01
sVprofile_banner_url
p62
Vhttps://pbs.twimg.com/profile_banners/244403743/1362618837
p63
sVprofile_background_image_url
p64
Vhttp://abs.twimg.com/images/themes/theme14/bg.gif
p65
sVname
p66
VThe Commuter
p67
sVlang
p68
Ven
p69
sVprofile_background_tile
p70
I01
sVfavourites_count
p71
I4331
sVscreen_name
p72
VLalaSahbi
p73
sVnotifications
p74
NsVurl
p75
NsVcreated_at
p76
VSat Jan 29 06:45:10 +0000 2011
p77
sVcontributors_enabled
p78
I00
sVtime_zone
p79
VQuito
p80
sVprotected
p81
I00
sVdefault_profile
p82
I00
sVis_translator
p83
I00
ssS'contributors_enabled'
p84
I00
sS'profile_text_color'
p85
g38
sS'followers_count'
p86
I949
sS'profile_sidebar_border_color'
p87
g41
sS'location'
p88
g55
sS'default_profile_image'
p89
I00
sS'id_str'
p90
g43
sS'utc_offset'
p91
I-18000
sS'statuses_count'
p92
I14194
sS'description'
p93
g52
sS'friends_count'
p94
I2000
sS'profile_link_color'
p95
g57
sS'profile_image_url'
p96
g59
sS'notifications'
p97
NsS'geo_enabled'
p98
I01
sS'profile_background_color'
p99
g45
sS'profile_banner_url'
p100
g63
sS'profile_background_image_url'
p101
g65
sS'name'
p102
g67
sS'lang'
p103
g69
sS'following'
p104
I00
sS'profile_background_tile'
p105
I01
sS'favourites_count'
p106
I4331
sS'screen_name'
p107
g73
sS'url'
p108
NsS'created_at'
p109
cdatetime
datetime
p110
(S'\x07\xdb\x01\x1d\x06-\n\x00\x00\x00'
p111
tp112
Rp113
sS'profile_background_image_url_https'
p114
g48
sS'time_zone'
p115
g80
sS'protected'
p116
I00
sS'default_profile'
p117
I00
sS'is_translator'
p118
I00
sS'listed_count'
p119
I23
sbsS'filter_level'
p120
Vlow
p121
sS'geo'
p122
Nsg24
I621677121799344128
sS'favorite_count'
p123
I0
sS'source'
p124
VTwitter for Android
p125
sg103
Ven
p126
sS'author'
p127
g18
sS'in_reply_to_user_id_str'
p128
V2911618281
p129
sg28
(dp130
Vcontributors
p131
NsVtruncated
p132
I00
sVtext
p133
g10
sVin_reply_to_status_id
p134
I621382786612637696
sg33
I621677121799344128
sVfavorite_count
p135
I0
sVsource
p136
V<a href="http://twitter.com/download/android" rel="nofollow">Twitter for Android</a>
p137
sVretweeted
p138
I00
sVcoordinates
p139
NsVtimestamp_ms
p140
V1437054350696
p141
sVentities
p142
(dp143
Vuser_mentions
p144
(lp145
(dp146
g33
I2911618281
sVindices
p147
(lp148
I0
aI12
asg42
V2911618281
p149
sg72
ViSkyCommute
p150
sg66
VSkyCommuter
p151
sasVsymbols
p152
(lp153
sVtrends
p154
(lp155
sVhashtags
p156
(lp157
(dp158
g147
(lp159
I62
aI73
asg133
Vkewgardens
p160
sasVurls
p161
(lp162
ssVin_reply_to_screen_name
p163
ViSkyCommute
p164
sg42
V621677121799344128
p165
sVretweet_count
p166
I0
sVin_reply_to_user_id
p167
I2911618281
sVfavorited
p168
I00
sVuser
p169
g29
sVgeo
p170
NsVin_reply_to_user_id_str
p171
g129
sVpossibly_sensitive
p172
I00
sg68
g126
sg76
VThu Jul 16 13:45:50 +0000 2015
p173
sVfilter_level
p174
g121
sVin_reply_to_status_id_str
p175
V621382786612637696
p176
sVplace
p177
(dp178
Vfull_name
p179
VZurich, Switzerland
p180
sg75
Vhttps://api.twitter.com/1.1/geo/id/3acb748d0f1e9265.json
p181
sVcountry
p182
VSchweiz
p183
sVplace_type
p184
Vcity
p185
sVbounding_box
p186
(dp187
Vtype
p188
VPolygon
p189
sg139
(lp190
(lp191
(lp192
F8.448081
aF47.320183
aa(lp193
F8.448081
aF47.434721
aa(lp194
F8.625442
aF47.434721
aa(lp195
F8.625442
aF47.320183
aaassVcountry_code
p196
VCH
p197
sVattributes
p198
(dp199
sg33
V3acb748d0f1e9265
p200
sg66
VZurich
p201
sssS'coordinates'
p202
NsS'timestamp_ms'
p203
g141
sS'entities'
p204
g143
sS'in_reply_to_status_id_str'
p205
g176
sS'in_reply_to_screen_name'
p206
g164
sg90
g165
sS'retweeted'
p207
I00
sS'place'
p208
g0
(ctweepy.models
Place
p209
g2
Ntp210
Rp211
(dp212
S'full_name'
p213
g180
sg108
g181
sS'country'
p214
g183
sS'place_type'
p215
g185
sS'bounding_box'
p216
g0
(ctweepy.models
BoundingBox
p217
g2
Ntp218
Rp219
(dp220
S'type'
p221
g189
sg202
g190
sbsS'country_code'
p222
g197
sS'attributes'
p223
g199
sg24
g200
sg102
g201
sbsS'retweet_count'
p224
I0
sg109
g110
(S'\x07\xdf\x07\x10\r-2\x00\x00\x00'
p225
tp226
Rp227
sS'in_reply_to_user_id'
p228
I2911618281
sb.