ccopy_reg
_reconstructor
p0
(ctweepy.models
Status
p1
c__builtin__
object
p2
Ntp3
Rp4
(dp5
S'favorited'
p6
I00
sS'contributors'
p7
NsS'truncated'
p8
I00
sS'text'
p9
V\u039f \u03b5\u03bb\u03bb\u03b7\u03bd\u03b9\u03ba\u03cc\u03c2 \u03bb\u03b1\u03cc\u03c2 \u03c0\u03ae\u03c1\u03b5 \u03bc\u03b9\u03b1 \u03b3\u03b5\u03bd\u03bd\u03b1\u03af\u03b1 \u03b1\u03c0\u03cc\u03c6\u03b1\u03c3\u03b7 #\u039f\u03a7\u0399 o #AlexisTsipras \u03bc\u03b9\u03b1 \u03b1\u03ba\u03cc\u03bc\u03b7 \u03b3\u03b5\u03bd\u03bd\u03b1\u03b9\u03cc\u03c4\u03b5\u03c1\u03b7. \u039a\u03b1\u03bd\u03b5\u03af\u03c2 \u03c3\u03af\u03b3\u03bf\u03c5\u03c1\u03b1 \u03bc\u03b9\u03b1 \u03c3\u03c9\u03c3\u03c4\u03ae
p10
sS'source_url'
p11
Vhttp://twitter.com/download/iphone
p12
sS'possibly_sensitive'
p13
I00
sS'in_reply_to_status_id'
p14
NsS'user'
p15
g0
(ctweepy.models
User
p16
g2
Ntp17
Rp18
(dp19
S'follow_request_sent'
p20
NsS'profile_use_background_image'
p21
I01
sS'profile_sidebar_fill_color'
p22
VDDEEF6
p23
sS'id'
p24
I3023046141
sS'verified'
p25
I00
sS'profile_image_url_https'
p26
Vhttps://pbs.twimg.com/profile_images/611285766904381441/5I7fjzhF_normal.jpg
p27
sS'_json'
p28
(dp29
Vfollow_request_sent
p30
NsVprofile_use_background_image
p31
I01
sVdefault_profile_image
p32
I00
sVid
p33
I3023046141
sVverified
p34
I00
sVprofile_image_url_https
p35
g27
sVprofile_sidebar_fill_color
p36
g23
sVprofile_text_color
p37
V333333
p38
sVfollowers_count
p39
I128
sVprofile_sidebar_border_color
p40
VC0DEED
p41
sVid_str
p42
V3023046141
p43
sVprofile_background_color
p44
VC0DEED
p45
sVlisted_count
p46
I3
sVprofile_background_image_url_https
p47
Vhttps://abs.twimg.com/images/themes/theme1/bg.png
p48
sVutc_offset
p49
NsVstatuses_count
p50
I1447
sVdescription
p51
V\u03b1\u03c5\u03c4\u03bf\u03b5\u03be\u03cc\u03c1\u03b9\u03c3\u03c4\u03bf\u03c2, \u03b1\u03c5\u03c4\u03bf\u03b1\u03be\u03cd\u03c1\u03b9\u03c3\u03c4\u03bf\u03c2 \u03c0\u03c1\u03ce\u03b7\u03bd \u03b4\u03b1\u03c0\u03af\u03c4\u03b7\u03c2 \u03bd\u03c5\u03bd \u03b1\u03c1\u03b9\u03c3\u03c4\u03b5\u03c1\u03cc\u03c2 \u03b3\u03b9\u03b1\u03c4\u03c1\u03cc\u03c2 \u03c3\u03c4\u03b7\u03bd \u03b6\u03c5\u03c1\u03af\u03c7\u03b7, coach \u03c4\u03c9\u03bd zurich titans bc \u03bc\u03b1 \u03ba\u03c5\u03c1\u03af\u03c9\u03c2 \u03ba\u03b1\u03b9 \u03c0\u03ac\u03bd\u03c9 \u03b1\u03c0'\u03cc\u03bb\u03b1 \u03a0\u0391\u039f\u039a
p52
sVfriends_count
p53
I224
sVlocation
p54
VZurich
p55
sVprofile_link_color
p56
V0084B4
p57
sVprofile_image_url
p58
Vhttp://pbs.twimg.com/profile_images/611285766904381441/5I7fjzhF_normal.jpg
p59
sVfollowing
p60
NsVgeo_enabled
p61
I01
sVprofile_banner_url
p62
Vhttps://pbs.twimg.com/profile_banners/3023046141/1437043495
p63
sVprofile_background_image_url
p64
Vhttp://abs.twimg.com/images/themes/theme1/bg.png
p65
sVname
p66
Vtitan
p67
sVlang
p68
Ven
p69
sVprofile_background_tile
p70
I00
sVfavourites_count
p71
I971
sVscreen_name
p72
Vcoachs_s
p73
sVnotifications
p74
NsVurl
p75
NsVcreated_at
p76
VSat Feb 07 11:38:53 +0000 2015
p77
sVcontributors_enabled
p78
I00
sVtime_zone
p79
NsVprotected
p80
I00
sVdefault_profile
p81
I01
sVis_translator
p82
I00
ssS'contributors_enabled'
p83
I00
sS'profile_text_color'
p84
g38
sS'followers_count'
p85
I128
sS'profile_sidebar_border_color'
p86
g41
sS'location'
p87
g55
sS'default_profile_image'
p88
I00
sS'id_str'
p89
g43
sS'utc_offset'
p90
NsS'statuses_count'
p91
I1447
sS'description'
p92
g52
sS'friends_count'
p93
I224
sS'profile_link_color'
p94
g57
sS'profile_image_url'
p95
g59
sS'notifications'
p96
NsS'geo_enabled'
p97
I01
sS'profile_background_color'
p98
g45
sS'profile_banner_url'
p99
g63
sS'profile_background_image_url'
p100
g65
sS'name'
p101
g67
sS'lang'
p102
g69
sS'following'
p103
I00
sS'profile_background_tile'
p104
I00
sS'favourites_count'
p105
I971
sS'screen_name'
p106
g73
sS'url'
p107
NsS'created_at'
p108
cdatetime
datetime
p109
(S'\x07\xdf\x02\x07\x0b&5\x00\x00\x00'
p110
tp111
Rp112
sS'profile_background_image_url_https'
p113
g48
sS'time_zone'
p114
NsS'protected'
p115
I00
sS'default_profile'
p116
I01
sS'is_translator'
p117
I00
sS'listed_count'
p118
I3
sbsS'filter_level'
p119
Vlow
p120
sS'geo'
p121
Nsg24
I621646518949388289
sS'favorite_count'
p122
I0
sS'source'
p123
VTwitter for iPhone
p124
sg102
Vel
p125
sS'author'
p126
g18
sS'in_reply_to_user_id_str'
p127
Nsg28
(dp128
Vcontributors
p129
NsVtruncated
p130
I00
sVtext
p131
g10
sVin_reply_to_status_id
p132
Nsg33
I621646518949388289
sVfavorite_count
p133
I0
sVsource
p134
V<a href="http://twitter.com/download/iphone" rel="nofollow">Twitter for iPhone</a>
p135
sVretweeted
p136
I00
sVcoordinates
p137
NsVtimestamp_ms
p138
V1437047054408
p139
sVentities
p140
(dp141
Vuser_mentions
p142
(lp143
sVsymbols
p144
(lp145
sVtrends
p146
(lp147
sVhashtags
p148
(lp149
(dp150
Vindices
p151
(lp152
I42
aI46
asg131
V\u039f\u03a7\u0399
p153
sa(dp154
g151
(lp155
I49
aI63
asg131
VAlexisTsipras
p156
sasVurls
p157
(lp158
ssVin_reply_to_screen_name
p159
Nsg42
V621646518949388289
p160
sVretweet_count
p161
I0
sVin_reply_to_user_id
p162
NsVfavorited
p163
I00
sVuser
p164
g29
sVgeo
p165
NsVin_reply_to_user_id_str
p166
NsVpossibly_sensitive
p167
I00
sg68
g125
sg76
VThu Jul 16 11:44:14 +0000 2015
p168
sVfilter_level
p169
g120
sVin_reply_to_status_id_str
p170
NsVplace
p171
(dp172
Vfull_name
p173
VZurich, Switzerland
p174
sg75
Vhttps://api.twitter.com/1.1/geo/id/3acb748d0f1e9265.json
p175
sVcountry
p176
VSchweiz
p177
sVplace_type
p178
Vcity
p179
sVbounding_box
p180
(dp181
Vtype
p182
VPolygon
p183
sg137
(lp184
(lp185
(lp186
F8.448081
aF47.320183
aa(lp187
F8.448081
aF47.434721
aa(lp188
F8.625442
aF47.434721
aa(lp189
F8.625442
aF47.320183
aaassVcountry_code
p190
VCH
p191
sVattributes
p192
(dp193
sg33
V3acb748d0f1e9265
p194
sg66
VZurich
p195
sssS'coordinates'
p196
NsS'timestamp_ms'
p197
g139
sS'entities'
p198
g141
sS'in_reply_to_status_id_str'
p199
NsS'in_reply_to_screen_name'
p200
Nsg89
g160
sS'retweeted'
p201
I00
sS'place'
p202
g0
(ctweepy.models
Place
p203
g2
Ntp204
Rp205
(dp206
S'full_name'
p207
g174
sg107
g175
sS'country'
p208
g177
sS'place_type'
p209
g179
sS'bounding_box'
p210
g0
(ctweepy.models
BoundingBox
p211
g2
Ntp212
Rp213
(dp214
S'type'
p215
g183
sg196
g184
sbsS'country_code'
p216
g191
sS'attributes'
p217
g193
sg24
g194
sg101
g195
sbsS'retweet_count'
p218
I0
sg108
g109
(S'\x07\xdf\x07\x10\x0b,\x0e\x00\x00\x00'
p219
tp220
Rp221
sS'in_reply_to_user_id'
p222
Nsb.