ccopy_reg
_reconstructor
p0
(ctweepy.models
Status
p1
c__builtin__
object
p2
Ntp3
Rp4
(dp5
S'favorited'
p6
I00
sS'contributors'
p7
NsS'truncated'
p8
I00
sS'text'
p9
VPull ups at Centurion Club Zurich with #Skrillex \u000ahttp://t.co/DqPzNg9o5m\u000a\u000a#CenturionClubZurich\u2026 https://t.co/0YjUNbKG2V
p10
sS'source_url'
p11
Vhttp://instagram.com
p12
sS'possibly_sensitive'
p13
I00
sS'in_reply_to_status_id'
p14
NsS'user'
p15
g0
(ctweepy.models
User
p16
g2
Ntp17
Rp18
(dp19
S'follow_request_sent'
p20
NsS'profile_use_background_image'
p21
I01
sS'profile_sidebar_fill_color'
p22
VFFFFFF
p23
sS'id'
p24
I200055472
sS'verified'
p25
I00
sS'profile_image_url_https'
p26
Vhttps://pbs.twimg.com/profile_images/571952269998817280/LLd_2L5__normal.jpeg
p27
sS'_json'
p28
(dp29
Vfollow_request_sent
p30
NsVprofile_use_background_image
p31
I01
sVdefault_profile_image
p32
I00
sVid
p33
I200055472
sVverified
p34
I00
sVprofile_image_url_https
p35
g27
sVprofile_sidebar_fill_color
p36
g23
sVprofile_text_color
p37
V333333
p38
sVfollowers_count
p39
I36726
sVprofile_sidebar_border_color
p40
VFFFFFF
p41
sVid_str
p42
V200055472
p43
sVprofile_background_color
p44
VB2DFDA
p45
sVlisted_count
p46
I318
sVprofile_background_image_url_https
p47
Vhttps://pbs.twimg.com/profile_background_images/477716103217422336/xROsBjsT.jpeg
p48
sVutc_offset
p49
I7200
sVstatuses_count
p50
I38964
sVdescription
p51
VPersonal Trainer and Nutrition Expert. TV, Radio and Magazine features. http://t.co/1qC3Dnah8m Owner of http://t.co/FtpUPKkrub and http://t.co/mMR2ldAqt1
p52
sVfriends_count
p53
I506
sVlocation
p54
VZurich, Switzerland
p55
sVprofile_link_color
p56
V93A644
p57
sVprofile_image_url
p58
Vhttp://pbs.twimg.com/profile_images/571952269998817280/LLd_2L5__normal.jpeg
p59
sVfollowing
p60
NsVgeo_enabled
p61
I01
sVprofile_banner_url
p62
Vhttps://pbs.twimg.com/profile_banners/200055472/1435216448
p63
sVprofile_background_image_url
p64
Vhttp://pbs.twimg.com/profile_background_images/477716103217422336/xROsBjsT.jpeg
p65
sVname
p66
VCindy Landolt
p67
sVlang
p68
Ven
p69
sVprofile_background_tile
p70
I01
sVfavourites_count
p71
I426
sVscreen_name
p72
VCindyTraining
p73
sVnotifications
p74
NsVurl
p75
Vhttp://www.cindytraining.com/
p76
sVcreated_at
p77
VFri Oct 08 10:20:42 +0000 2010
p78
sVcontributors_enabled
p79
I00
sVtime_zone
p80
VBern
p81
sVprotected
p82
I00
sVdefault_profile
p83
I00
sVis_translator
p84
I00
ssS'contributors_enabled'
p85
I00
sS'profile_text_color'
p86
g38
sS'followers_count'
p87
I36726
sS'profile_sidebar_border_color'
p88
g41
sS'location'
p89
g55
sS'default_profile_image'
p90
I00
sS'id_str'
p91
g43
sS'utc_offset'
p92
I7200
sS'statuses_count'
p93
I38964
sS'description'
p94
g52
sS'friends_count'
p95
I506
sS'profile_link_color'
p96
g57
sS'profile_image_url'
p97
g59
sS'notifications'
p98
NsS'geo_enabled'
p99
I01
sS'profile_background_color'
p100
g45
sS'profile_banner_url'
p101
g63
sS'profile_background_image_url'
p102
g65
sS'name'
p103
g67
sS'lang'
p104
g69
sS'following'
p105
I00
sS'profile_background_tile'
p106
I01
sS'favourites_count'
p107
I426
sS'screen_name'
p108
g73
sS'url'
p109
g76
sS'created_at'
p110
cdatetime
datetime
p111
(S'\x07\xda\n\x08\n\x14*\x00\x00\x00'
p112
tp113
Rp114
sS'profile_background_image_url_https'
p115
g48
sS'time_zone'
p116
g81
sS'protected'
p117
I00
sS'default_profile'
p118
I00
sS'is_translator'
p119
I00
sS'listed_count'
p120
I318
sbsS'filter_level'
p121
Vlow
p122
sS'geo'
p123
(dp124
Vtype
p125
VPoint
p126
sVcoordinates
p127
(lp128
F47.359131
aF8.55293
assg24
I623788962486845442
sS'favorite_count'
p129
I0
sS'source'
p130
VInstagram
p131
sg104
Ven
p132
sS'author'
p133
g18
sS'in_reply_to_user_id_str'
p134
Nsg28
(dp135
Vcontributors
p136
NsVtruncated
p137
I00
sVtext
p138
VPull ups at Centurion Club Zurich with #Skrillex \u000ahttp://t.co/DqPzNg9o5m\u000a\u000a#CenturionClubZurich\u2026 https://t.co/0YjUNbKG2V
p139
sVin_reply_to_status_id
p140
Nsg33
I623788962486845442
sVfavorite_count
p141
I0
sVsource
p142
V<a href="http://instagram.com" rel="nofollow">Instagram</a>
p143
sVretweeted
p144
I00
sg127
(dp145
g125
VPoint
p146
sg127
(lp147
F8.55293
aF47.359131
assVtimestamp_ms
p148
V1437557852752
p149
sVentities
p150
(dp151
Vuser_mentions
p152
(lp153
sVsymbols
p154
(lp155
sVtrends
p156
(lp157
sVhashtags
p158
(lp159
(dp160
Vindices
p161
(lp162
I39
aI48
asg138
VSkrillex
p163
sa(dp164
g161
(lp165
I74
aI94
asg138
VCenturionClubZurich
p166
sasVurls
p167
(lp168
(dp169
g75
Vhttp://t.co/DqPzNg9o5m
p170
sg161
(lp171
I50
aI72
asVexpanded_url
p172
Vhttp://www.cindylandolt.ch
p173
sVdisplay_url
p174
Vcindylandolt.ch
p175
sa(dp176
g75
Vhttps://t.co/0YjUNbKG2V
p177
sg161
(lp178
I96
aI119
asg172
Vhttps://instagram.com/p/4jiwO2Q9DP/
p179
sg174
Vinstagram.com/p/4jiwO2Q9DP/
p180
sassVin_reply_to_screen_name
p181
Nsg42
V623788962486845442
p182
sVretweet_count
p183
I0
sVin_reply_to_user_id
p184
NsVfavorited
p185
I00
sVuser
p186
g29
sVgeo
p187
g124
sVin_reply_to_user_id_str
p188
NsVpossibly_sensitive
p189
I00
sg68
g132
sg77
VWed Jul 22 09:37:32 +0000 2015
p190
sVfilter_level
p191
g122
sVin_reply_to_status_id_str
p192
NsVplace
p193
(dp194
Vfull_name
p195
VZurich, Switzerland
p196
sg75
Vhttps://api.twitter.com/1.1/geo/id/3acb748d0f1e9265.json
p197
sVcountry
p198
VSchweiz
p199
sVplace_type
p200
Vcity
p201
sVbounding_box
p202
(dp203
g125
VPolygon
p204
sg127
(lp205
(lp206
(lp207
F8.448081
aF47.320183
aa(lp208
F8.448081
aF47.434721
aa(lp209
F8.625442
aF47.434721
aa(lp210
F8.625442
aF47.320183
aaassVcountry_code
p211
VCH
p212
sVattributes
p213
(dp214
sg33
V3acb748d0f1e9265
p215
sg66
VZurich
p216
sssS'coordinates'
p217
g145
sS'timestamp_ms'
p218
g149
sS'entities'
p219
g151
sS'in_reply_to_status_id_str'
p220
NsS'in_reply_to_screen_name'
p221
Nsg91
g182
sS'retweeted'
p222
I00
sS'place'
p223
g0
(ctweepy.models
Place
p224
g2
Ntp225
Rp226
(dp227
S'full_name'
p228
g196
sg109
g197
sS'country'
p229
g199
sS'place_type'
p230
g201
sS'bounding_box'
p231
g0
(ctweepy.models
BoundingBox
p232
g2
Ntp233
Rp234
(dp235
S'type'
p236
g204
sg217
g205
sbsS'country_code'
p237
g212
sS'attributes'
p238
g214
sg24
g215
sg103
g216
sbsS'retweet_count'
p239
I0
sg110
g111
(S'\x07\xdf\x07\x16\t% \x00\x00\x00'
p240
tp241
Rp242
sS'in_reply_to_user_id'
p243
Nsb.