ccopy_reg
_reconstructor
p0
(ctweepy.models
Status
p1
c__builtin__
object
p2
Ntp3
Rp4
(dp5
S'favorited'
p6
I00
sS'contributors'
p7
NsS'truncated'
p8
I00
sS'text'
p9
V@alabc11 \u000a\u0622\u0647 \u0645\u0646 \u0623\u062b\u0631 \u0627\u0644\u0645\u0633\u0645\u0627\u0631
p10
sS'source_url'
p11
Vhttp://twitter.com/download/android
p12
sS'possibly_sensitive'
p13
I00
sS'in_reply_to_status_id'
p14
I621432459243053056
sS'user'
p15
g0
(ctweepy.models
User
p16
g2
Ntp17
Rp18
(dp19
S'follow_request_sent'
p20
NsS'profile_use_background_image'
p21
I01
sS'profile_sidebar_fill_color'
p22
VDDEEF6
p23
sS'id'
p24
I2490847042
sS'verified'
p25
I00
sS'profile_image_url_https'
p26
Vhttps://pbs.twimg.com/profile_images/586811940120436736/e9DjGI5p_normal.jpg
p27
sS'_json'
p28
(dp29
Vfollow_request_sent
p30
NsVprofile_use_background_image
p31
I01
sVdefault_profile_image
p32
I00
sVid
p33
I2490847042
sVverified
p34
I00
sVprofile_image_url_https
p35
g27
sVprofile_sidebar_fill_color
p36
g23
sVprofile_text_color
p37
V333333
p38
sVfollowers_count
p39
I7
sVprofile_sidebar_border_color
p40
VC0DEED
p41
sVid_str
p42
V2490847042
p43
sVprofile_background_color
p44
VC0DEED
p45
sVlisted_count
p46
I0
sVprofile_background_image_url_https
p47
Vhttps://abs.twimg.com/images/themes/theme1/bg.png
p48
sVutc_offset
p49
NsVstatuses_count
p50
I43
sVdescription
p51
NsVfriends_count
p52
I24
sVlocation
p53
VSwitzerland
p54
sVprofile_link_color
p55
V0084B4
p56
sVprofile_image_url
p57
Vhttp://pbs.twimg.com/profile_images/586811940120436736/e9DjGI5p_normal.jpg
p58
sVfollowing
p59
NsVgeo_enabled
p60
I01
sVprofile_background_image_url
p61
Vhttp://abs.twimg.com/images/themes/theme1/bg.png
p62
sVname
p63
VChaimae
p64
sVlang
p65
Ven
p66
sVprofile_background_tile
p67
I00
sVfavourites_count
p68
I13
sVscreen_name
p69
Vchaimae1441
p70
sVnotifications
p71
NsVurl
p72
NsVcreated_at
p73
VThu Apr 17 23:27:48 +0000 2014
p74
sVcontributors_enabled
p75
I00
sVtime_zone
p76
NsVprotected
p77
I00
sVdefault_profile
p78
I01
sVis_translator
p79
I00
ssS'contributors_enabled'
p80
I00
sS'profile_text_color'
p81
g38
sS'followers_count'
p82
I7
sS'profile_sidebar_border_color'
p83
g41
sS'location'
p84
g54
sS'default_profile_image'
p85
I00
sS'id_str'
p86
g43
sS'utc_offset'
p87
NsS'statuses_count'
p88
I43
sS'description'
p89
NsS'friends_count'
p90
I24
sS'profile_link_color'
p91
g56
sS'profile_image_url'
p92
g58
sS'notifications'
p93
NsS'geo_enabled'
p94
I01
sS'profile_background_color'
p95
g45
sS'profile_background_image_url'
p96
g62
sS'name'
p97
g64
sS'lang'
p98
g66
sS'following'
p99
I00
sS'profile_background_tile'
p100
I00
sS'favourites_count'
p101
I13
sS'screen_name'
p102
g70
sS'url'
p103
NsS'created_at'
p104
cdatetime
datetime
p105
(S'\x07\xde\x04\x11\x17\x1b0\x00\x00\x00'
p106
tp107
Rp108
sS'profile_background_image_url_https'
p109
g48
sS'time_zone'
p110
NsS'protected'
p111
I00
sS'default_profile'
p112
I01
sS'is_translator'
p113
I00
sS'listed_count'
p114
I0
sbsS'filter_level'
p115
Vlow
p116
sS'geo'
p117
Nsg24
I621442327786168320
sS'favorite_count'
p118
I0
sS'source'
p119
VTwitter for Android
p120
sg98
Var
p121
sS'author'
p122
g18
sS'in_reply_to_user_id_str'
p123
V323212173
p124
sg28
(dp125
Vcontributors
p126
NsVtruncated
p127
I00
sVtext
p128
V@alabc11 \u000a\u0622\u0647 \u0645\u0646 \u0623\u062b\u0631 \u0627\u0644\u0645\u0633\u0645\u0627\u0631
p129
sVin_reply_to_status_id
p130
I621432459243053056
sg33
I621442327786168320
sVfavorite_count
p131
I0
sVsource
p132
V<a href="http://twitter.com/download/android" rel="nofollow">Twitter for Android</a>
p133
sVretweeted
p134
I00
sVcoordinates
p135
NsVtimestamp_ms
p136
V1436998371441
p137
sVentities
p138
(dp139
Vuser_mentions
p140
(lp141
(dp142
g33
I323212173
sVindices
p143
(lp144
I0
aI8
asg42
V323212173
p145
sg69
Valabc11
p146
sg63
Vhan E
p147
sasVsymbols
p148
(lp149
sVtrends
p150
(lp151
sVhashtags
p152
(lp153
sVurls
p154
(lp155
ssVin_reply_to_screen_name
p156
Valabc11
p157
sg42
V621442327786168320
p158
sVretweet_count
p159
I0
sVin_reply_to_user_id
p160
I323212173
sVfavorited
p161
I00
sVuser
p162
g29
sVgeo
p163
NsVin_reply_to_user_id_str
p164
g124
sVpossibly_sensitive
p165
I00
sg65
g121
sg73
VWed Jul 15 22:12:51 +0000 2015
p166
sVfilter_level
p167
g116
sVin_reply_to_status_id_str
p168
V621432459243053056
p169
sVplace
p170
(dp171
Vfull_name
p172
VZurich, Switzerland
p173
sg72
Vhttps://api.twitter.com/1.1/geo/id/3acb748d0f1e9265.json
p174
sVcountry
p175
VSchweiz
p176
sVplace_type
p177
Vcity
p178
sVbounding_box
p179
(dp180
Vtype
p181
VPolygon
p182
sg135
(lp183
(lp184
(lp185
F8.448081
aF47.320183
aa(lp186
F8.448081
aF47.434721
aa(lp187
F8.625442
aF47.434721
aa(lp188
F8.625442
aF47.320183
aaassVcountry_code
p189
VCH
p190
sVattributes
p191
(dp192
sg33
V3acb748d0f1e9265
p193
sg63
VZurich
p194
sssS'coordinates'
p195
NsS'timestamp_ms'
p196
g137
sS'entities'
p197
g139
sS'in_reply_to_status_id_str'
p198
g169
sS'in_reply_to_screen_name'
p199
g157
sg86
g158
sS'retweeted'
p200
I00
sS'place'
p201
g0
(ctweepy.models
Place
p202
g2
Ntp203
Rp204
(dp205
S'full_name'
p206
g173
sg103
g174
sS'country'
p207
g176
sS'place_type'
p208
g178
sS'bounding_box'
p209
g0
(ctweepy.models
BoundingBox
p210
g2
Ntp211
Rp212
(dp213
S'type'
p214
g182
sg195
g183
sbsS'country_code'
p215
g190
sS'attributes'
p216
g192
sg24
g193
sg97
g194
sbsS'retweet_count'
p217
I0
sg104
g105
(S'\x07\xdf\x07\x0f\x16\x0c3\x00\x00\x00'
p218
tp219
Rp220
sS'in_reply_to_user_id'
p221
I323212173
sb.