ccopy_reg
_reconstructor
p0
(ctweepy.models
Status
p1
c__builtin__
object
p2
Ntp3
Rp4
(dp5
S'favorited'
p6
I00
sS'contributors'
p7
NsS'truncated'
p8
I00
sS'text'
p9
VUseful search queries #Journey2015 http://t.co/cr31wPwixm
p10
sS'source_url'
p11
Vhttp://twitter.com/download/android
p12
sS'possibly_sensitive'
p13
I00
sS'in_reply_to_status_id'
p14
NsS'user'
p15
g0
(ctweepy.models
User
p16
g2
Ntp17
Rp18
(dp19
S'follow_request_sent'
p20
NsS'profile_use_background_image'
p21
I01
sS'profile_sidebar_fill_color'
p22
V20201E
p23
sS'id'
p24
I189599736
sS'verified'
p25
I00
sS'profile_image_url_https'
p26
Vhttps://pbs.twimg.com/profile_images/534474596901060608/HZwBwk4U_normal.jpeg
p27
sS'_json'
p28
(dp29
Vfollow_request_sent
p30
NsVprofile_use_background_image
p31
I01
sVdefault_profile_image
p32
I00
sVid
p33
I189599736
sVverified
p34
I00
sVprofile_image_url_https
p35
g27
sVprofile_sidebar_fill_color
p36
g23
sVprofile_text_color
p37
V897856
p38
sVfollowers_count
p39
I497
sVprofile_sidebar_border_color
p40
VC8A867
p41
sVid_str
p42
V189599736
p43
sVprofile_background_color
p44
V20201E
p45
sVlisted_count
p46
I21
sVprofile_background_image_url_https
p47
Vhttps://pbs.twimg.com/profile_background_images/565289244436860928/VsUSLdJw.jpeg
p48
sVutc_offset
p49
I7200
sVstatuses_count
p50
I1512
sVdescription
p51
VSustainable Development | Fair-trade | Trainer | Photography | Before: Co-Founder & chair @youngandfair | My sustainable job-hunt has started
p52
sVfriends_count
p53
I1833
sVlocation
p54
VUtrecht - The Netherlands
p55
sVprofile_link_color
p56
V73C7B9
p57
sVprofile_image_url
p58
Vhttp://pbs.twimg.com/profile_images/534474596901060608/HZwBwk4U_normal.jpeg
p59
sVfollowing
p60
NsVgeo_enabled
p61
I01
sVprofile_banner_url
p62
Vhttps://pbs.twimg.com/profile_banners/189599736/1425683908
p63
sVprofile_background_image_url
p64
Vhttp://pbs.twimg.com/profile_background_images/565289244436860928/VsUSLdJw.jpeg
p65
sVname
p66
VMargo Kosters
p67
sVlang
p68
Ven
p69
sVprofile_background_tile
p70
I00
sVfavourites_count
p71
I94
sVscreen_name
p72
Vmargokosters
p73
sVnotifications
p74
NsVurl
p75
Vhttps://www.linkedin.com/in/margokosters
p76
sVcreated_at
p77
VSat Sep 11 18:18:48 +0000 2010
p78
sVcontributors_enabled
p79
I00
sVtime_zone
p80
VAmsterdam
p81
sVprotected
p82
I00
sVdefault_profile
p83
I00
sVis_translator
p84
I00
ssS'contributors_enabled'
p85
I00
sS'profile_text_color'
p86
g38
sS'followers_count'
p87
I497
sS'profile_sidebar_border_color'
p88
g41
sS'location'
p89
g55
sS'default_profile_image'
p90
I00
sS'id_str'
p91
g43
sS'utc_offset'
p92
I7200
sS'statuses_count'
p93
I1512
sS'description'
p94
g52
sS'friends_count'
p95
I1833
sS'profile_link_color'
p96
g57
sS'profile_image_url'
p97
g59
sS'notifications'
p98
NsS'geo_enabled'
p99
I01
sS'profile_background_color'
p100
g45
sS'profile_banner_url'
p101
g63
sS'profile_background_image_url'
p102
g65
sS'name'
p103
g67
sS'lang'
p104
g69
sS'following'
p105
I00
sS'profile_background_tile'
p106
I00
sS'favourites_count'
p107
I94
sS'screen_name'
p108
g73
sS'url'
p109
g76
sS'created_at'
p110
cdatetime
datetime
p111
(S'\x07\xda\t\x0b\x12\x120\x00\x00\x00'
p112
tp113
Rp114
sS'profile_background_image_url_https'
p115
g48
sS'time_zone'
p116
g81
sS'protected'
p117
I00
sS'default_profile'
p118
I00
sS'is_translator'
p119
I00
sS'listed_count'
p120
I21
sbsS'filter_level'
p121
Vlow
p122
sS'geo'
p123
(dp124
Vtype
p125
VPoint
p126
sVcoordinates
p127
(lp128
F47.383412
aF8.574065
assg24
I623797691315843072
sS'favorite_count'
p129
I0
sS'source'
p130
VTwitter for Android
p131
sg104
Ven
p132
sS'author'
p133
g18
sS'in_reply_to_user_id_str'
p134
Nsg28
(dp135
Vcontributors
p136
NsVtruncated
p137
I00
sVtext
p138
g10
sVin_reply_to_status_id
p139
Nsg33
I623797691315843072
sVfavorite_count
p140
I0
sVsource
p141
V<a href="http://twitter.com/download/android" rel="nofollow">Twitter for Android</a>
p142
sVretweeted
p143
I00
sg127
(dp144
g125
VPoint
p145
sg127
(lp146
F8.574065
aF47.383412
assVtimestamp_ms
p147
V1437559933867
p148
sVentities
p149
(dp150
Vsymbols
p151
(lp152
sVmedia
p153
(lp154
(dp155
Vexpanded_url
p156
Vhttp://twitter.com/margokosters/status/623797691315843072/photo/1
p157
sVdisplay_url
p158
Vpic.twitter.com/cr31wPwixm
p159
sg75
Vhttp://t.co/cr31wPwixm
p160
sVmedia_url_https
p161
Vhttps://pbs.twimg.com/media/CKgssYaXAAAa8pw.jpg
p162
sg42
V623797689369690112
p163
sVsizes
p164
(dp165
Vsmall
p166
(dp167
Vh
p168
I255
sVresize
p169
Vfit
p170
sVw
p171
I340
ssVlarge
p172
(dp173
g168
I768
sg169
Vfit
p174
sg171
I1024
ssVmedium
p175
(dp176
g168
I450
sg169
Vfit
p177
sg171
I600
ssVthumb
p178
(dp179
g168
I150
sg169
Vcrop
p180
sg171
I150
sssVindices
p181
(lp182
I35
aI57
asg125
Vphoto
p183
sg33
I623797689369690112
sVmedia_url
p184
Vhttp://pbs.twimg.com/media/CKgssYaXAAAa8pw.jpg
p185
sasVhashtags
p186
(lp187
(dp188
g181
(lp189
I22
aI34
asg138
VJourney2015
p190
sasVuser_mentions
p191
(lp192
sVtrends
p193
(lp194
sVurls
p195
(lp196
ssVin_reply_to_screen_name
p197
Nsg42
V623797691315843072
p198
sVretweet_count
p199
I0
sVin_reply_to_user_id
p200
NsVfavorited
p201
I00
sVuser
p202
g29
sVgeo
p203
g124
sVin_reply_to_user_id_str
p204
NsVpossibly_sensitive
p205
I00
sg68
g132
sg77
VWed Jul 22 10:12:13 +0000 2015
p206
sVfilter_level
p207
g122
sVin_reply_to_status_id_str
p208
NsVplace
p209
(dp210
Vfull_name
p211
VZurich, Switzerland
p212
sg75
Vhttps://api.twitter.com/1.1/geo/id/3acb748d0f1e9265.json
p213
sVcountry
p214
VSchweiz
p215
sVplace_type
p216
Vcity
p217
sVbounding_box
p218
(dp219
g125
VPolygon
p220
sg127
(lp221
(lp222
(lp223
F8.448081
aF47.320183
aa(lp224
F8.448081
aF47.434721
aa(lp225
F8.625442
aF47.434721
aa(lp226
F8.625442
aF47.320183
aaassVcountry_code
p227
VCH
p228
sVattributes
p229
(dp230
sg33
V3acb748d0f1e9265
p231
sg66
VZurich
p232
ssVextended_entities
p233
(dp234
g153
(lp235
(dp236
g156
Vhttp://twitter.com/margokosters/status/623797691315843072/photo/1
p237
sg158
Vpic.twitter.com/cr31wPwixm
p238
sg75
Vhttp://t.co/cr31wPwixm
p239
sg161
Vhttps://pbs.twimg.com/media/CKgssYaXAAAa8pw.jpg
p240
sg42
V623797689369690112
p241
sg164
(dp242
g166
(dp243
g168
I255
sg169
Vfit
p244
sg171
I340
ssg172
(dp245
g168
I768
sg169
Vfit
p246
sg171
I1024
ssg175
(dp247
g168
I450
sg169
Vfit
p248
sg171
I600
ssg178
(dp249
g168
I150
sg169
Vcrop
p250
sg171
I150
sssg181
(lp251
I35
aI57
asg125
Vphoto
p252
sg33
I623797689369690112
sg184
Vhttp://pbs.twimg.com/media/CKgssYaXAAAa8pw.jpg
p253
sasssS'coordinates'
p254
g144
sS'timestamp_ms'
p255
g148
sS'entities'
p256
g150
sS'in_reply_to_status_id_str'
p257
NsS'in_reply_to_screen_name'
p258
Nsg91
g198
sS'extended_entities'
p259
g234
sS'retweeted'
p260
I00
sS'place'
p261
g0
(ctweepy.models
Place
p262
g2
Ntp263
Rp264
(dp265
S'full_name'
p266
g212
sg109
g213
sS'country'
p267
g215
sS'place_type'
p268
g217
sS'bounding_box'
p269
g0
(ctweepy.models
BoundingBox
p270
g2
Ntp271
Rp272
(dp273
S'type'
p274
g220
sg254
g221
sbsS'country_code'
p275
g228
sS'attributes'
p276
g230
sg24
g231
sg103
g232
sbsS'retweet_count'
p277
I0
sg110
g111
(S'\x07\xdf\x07\x16\n\x0c\r\x00\x00\x00'
p278
tp279
Rp280
sS'in_reply_to_user_id'
p281
Nsb.