ccopy_reg
_reconstructor
p0
(ctweepy.models
Status
p1
c__builtin__
object
p2
Ntp3
Rp4
(dp5
S'favorited'
p6
I00
sS'contributors'
p7
NsS'truncated'
p8
I00
sS'text'
p9
VElevator pitch: keywords and storytelling #Journey2015
p10
sS'source_url'
p11
Vhttp://twitter.com/download/android
p12
sS'possibly_sensitive'
p13
I00
sS'in_reply_to_status_id'
p14
NsS'user'
p15
g0
(ctweepy.models
User
p16
g2
Ntp17
Rp18
(dp19
S'follow_request_sent'
p20
NsS'profile_use_background_image'
p21
I01
sS'profile_sidebar_fill_color'
p22
V20201E
p23
sS'id'
p24
I189599736
sS'verified'
p25
I00
sS'profile_image_url_https'
p26
Vhttps://pbs.twimg.com/profile_images/534474596901060608/HZwBwk4U_normal.jpeg
p27
sS'_json'
p28
(dp29
Vfollow_request_sent
p30
NsVprofile_use_background_image
p31
I01
sVdefault_profile_image
p32
I00
sVid
p33
I189599736
sVverified
p34
I00
sVprofile_image_url_https
p35
g27
sVprofile_sidebar_fill_color
p36
g23
sVprofile_text_color
p37
V897856
p38
sVfollowers_count
p39
I496
sVprofile_sidebar_border_color
p40
VC8A867
p41
sVid_str
p42
V189599736
p43
sVprofile_background_color
p44
V20201E
p45
sVlisted_count
p46
I21
sVprofile_background_image_url_https
p47
Vhttps://pbs.twimg.com/profile_background_images/565289244436860928/VsUSLdJw.jpeg
p48
sVutc_offset
p49
I7200
sVstatuses_count
p50
I1509
sVdescription
p51
VSustainable Development | Fair-trade | Trainer | Photography | Before: Co-Founder & chair @youngandfair | My sustainable job-hunt has started
p52
sVfriends_count
p53
I1833
sVlocation
p54
VUtrecht - The Netherlands
p55
sVprofile_link_color
p56
V73C7B9
p57
sVprofile_image_url
p58
Vhttp://pbs.twimg.com/profile_images/534474596901060608/HZwBwk4U_normal.jpeg
p59
sVfollowing
p60
NsVgeo_enabled
p61
I01
sVprofile_banner_url
p62
Vhttps://pbs.twimg.com/profile_banners/189599736/1425683908
p63
sVprofile_background_image_url
p64
Vhttp://pbs.twimg.com/profile_background_images/565289244436860928/VsUSLdJw.jpeg
p65
sVname
p66
VMargo Kosters
p67
sVlang
p68
Ven
p69
sVprofile_background_tile
p70
I00
sVfavourites_count
p71
I94
sVscreen_name
p72
Vmargokosters
p73
sVnotifications
p74
NsVurl
p75
Vhttps://www.linkedin.com/in/margokosters
p76
sVcreated_at
p77
VSat Sep 11 18:18:48 +0000 2010
p78
sVcontributors_enabled
p79
I00
sVtime_zone
p80
VAmsterdam
p81
sVprotected
p82
I00
sVdefault_profile
p83
I00
sVis_translator
p84
I00
ssS'contributors_enabled'
p85
I00
sS'profile_text_color'
p86
g38
sS'followers_count'
p87
I496
sS'profile_sidebar_border_color'
p88
g41
sS'location'
p89
g55
sS'default_profile_image'
p90
I00
sS'id_str'
p91
g43
sS'utc_offset'
p92
I7200
sS'statuses_count'
p93
I1509
sS'description'
p94
g52
sS'friends_count'
p95
I1833
sS'profile_link_color'
p96
g57
sS'profile_image_url'
p97
g59
sS'notifications'
p98
NsS'geo_enabled'
p99
I01
sS'profile_background_color'
p100
g45
sS'profile_banner_url'
p101
g63
sS'profile_background_image_url'
p102
g65
sS'name'
p103
g67
sS'lang'
p104
g69
sS'following'
p105
I00
sS'profile_background_tile'
p106
I00
sS'favourites_count'
p107
I94
sS'screen_name'
p108
g73
sS'url'
p109
g76
sS'created_at'
p110
cdatetime
datetime
p111
(S'\x07\xda\t\x0b\x12\x120\x00\x00\x00'
p112
tp113
Rp114
sS'profile_background_image_url_https'
p115
g48
sS'time_zone'
p116
g81
sS'protected'
p117
I00
sS'default_profile'
p118
I00
sS'is_translator'
p119
I00
sS'listed_count'
p120
I21
sbsS'filter_level'
p121
Vlow
p122
sS'geo'
p123
(dp124
Vtype
p125
VPoint
p126
sVcoordinates
p127
(lp128
F47.383545
aF8.574653
assg24
I623770987541188608
sS'favorite_count'
p129
I0
sS'source'
p130
VTwitter for Android
p131
sg104
Ven
p132
sS'author'
p133
g18
sS'in_reply_to_user_id_str'
p134
Nsg28
(dp135
Vcontributors
p136
NsVtruncated
p137
I00
sVtext
p138
g10
sVin_reply_to_status_id
p139
Nsg33
I623770987541188608
sVfavorite_count
p140
I0
sVsource
p141
V<a href="http://twitter.com/download/android" rel="nofollow">Twitter for Android</a>
p142
sVretweeted
p143
I00
sg127
(dp144
g125
VPoint
p145
sg127
(lp146
F8.574653
aF47.383545
assVtimestamp_ms
p147
V1437553567191
p148
sVentities
p149
(dp150
Vuser_mentions
p151
(lp152
sVsymbols
p153
(lp154
sVtrends
p155
(lp156
sVhashtags
p157
(lp158
(dp159
Vindices
p160
(lp161
I42
aI54
asg138
VJourney2015
p162
sasVurls
p163
(lp164
ssVin_reply_to_screen_name
p165
Nsg42
V623770987541188608
p166
sVretweet_count
p167
I0
sVin_reply_to_user_id
p168
NsVfavorited
p169
I00
sVuser
p170
g29
sVgeo
p171
g124
sVin_reply_to_user_id_str
p172
NsVpossibly_sensitive
p173
I00
sg68
g132
sg77
VWed Jul 22 08:26:07 +0000 2015
p174
sVfilter_level
p175
g122
sVin_reply_to_status_id_str
p176
NsVplace
p177
(dp178
Vfull_name
p179
VZurich, Switzerland
p180
sg75
Vhttps://api.twitter.com/1.1/geo/id/3acb748d0f1e9265.json
p181
sVcountry
p182
VSchweiz
p183
sVplace_type
p184
Vcity
p185
sVbounding_box
p186
(dp187
g125
VPolygon
p188
sg127
(lp189
(lp190
(lp191
F8.448081
aF47.320183
aa(lp192
F8.448081
aF47.434721
aa(lp193
F8.625442
aF47.434721
aa(lp194
F8.625442
aF47.320183
aaassVcountry_code
p195
VCH
p196
sVattributes
p197
(dp198
sg33
V3acb748d0f1e9265
p199
sg66
VZurich
p200
sssS'coordinates'
p201
g144
sS'timestamp_ms'
p202
g148
sS'entities'
p203
g150
sS'in_reply_to_status_id_str'
p204
NsS'in_reply_to_screen_name'
p205
Nsg91
g166
sS'retweeted'
p206
I00
sS'place'
p207
g0
(ctweepy.models
Place
p208
g2
Ntp209
Rp210
(dp211
S'full_name'
p212
g180
sg109
g181
sS'country'
p213
g183
sS'place_type'
p214
g185
sS'bounding_box'
p215
g0
(ctweepy.models
BoundingBox
p216
g2
Ntp217
Rp218
(dp219
S'type'
p220
g188
sg201
g189
sbsS'country_code'
p221
g196
sS'attributes'
p222
g198
sg24
g199
sg103
g200
sbsS'retweet_count'
p223
I0
sg110
g111
(S'\x07\xdf\x07\x16\x08\x1a\x07\x00\x00\x00'
p224
tp225
Rp226
sS'in_reply_to_user_id'
p227
Nsb.