ccopy_reg
_reconstructor
p0
(ctweepy.models
Status
p1
c__builtin__
object
p2
Ntp3
Rp4
(dp5
S'favorited'
p6
I00
sS'contributors'
p7
NsS'truncated'
p8
I00
sS'text'
p9
VMy #WCWednesdays #wcw goes out to the gorgeous @jess_impiazzi http://t.co/2oqY2BsrMH
p10
sS'source_url'
p11
Vhttp://twitter.com
p12
sS'possibly_sensitive'
p13
I00
sS'in_reply_to_status_id'
p14
NsS'user'
p15
g0
(ctweepy.models
User
p16
g2
Ntp17
Rp18
(dp19
S'follow_request_sent'
p20
NsS'profile_use_background_image'
p21
I01
sS'profile_sidebar_fill_color'
p22
V95E8EC
p23
sS'id'
p24
I349959192
sS'verified'
p25
I00
sS'profile_image_url_https'
p26
Vhttps://pbs.twimg.com/profile_images/620994151857934336/9J96hh-A_normal.jpg
p27
sS'_json'
p28
(dp29
Vfollow_request_sent
p30
NsVprofile_use_background_image
p31
I01
sVdefault_profile_image
p32
I00
sVid
p33
I349959192
sVverified
p34
I00
sVprofile_image_url_https
p35
g27
sVprofile_sidebar_fill_color
p36
g23
sVprofile_text_color
p37
V3C3940
p38
sVfollowers_count
p39
I353
sVprofile_sidebar_border_color
p40
V5ED4DC
p41
sVid_str
p42
V349959192
p43
sVprofile_background_color
p44
V0099B9
p45
sVlisted_count
p46
I2
sVprofile_background_image_url_https
p47
Vhttps://abs.twimg.com/images/themes/theme4/bg.gif
p48
sVutc_offset
p49
I-18000
sVstatuses_count
p50
I4095
sVdescription
p51
VThe most important thing is to enjoy your life - to be happy - it's all that matters.
p52
sVfriends_count
p53
I478
sVlocation
p54
VBern, Schweiz
p55
sVprofile_link_color
p56
V0099B9
p57
sVprofile_image_url
p58
Vhttp://pbs.twimg.com/profile_images/620994151857934336/9J96hh-A_normal.jpg
p59
sVfollowing
p60
NsVgeo_enabled
p61
I01
sVprofile_banner_url
p62
Vhttps://pbs.twimg.com/profile_banners/349959192/1433636337
p63
sVprofile_background_image_url
p64
Vhttp://abs.twimg.com/images/themes/theme4/bg.gif
p65
sVname
p66
VSara
p67
sVlang
p68
Vde
p69
sVprofile_background_tile
p70
I00
sVfavourites_count
p71
I571
sVscreen_name
p72
V_SwissSara23
p73
sVnotifications
p74
NsVurl
p75
NsVcreated_at
p76
VSun Aug 07 00:15:06 +0000 2011
p77
sVcontributors_enabled
p78
I00
sVtime_zone
p79
VCentral Time (US & Canada)
p80
sVprotected
p81
I00
sVdefault_profile
p82
I00
sVis_translator
p83
I00
ssS'contributors_enabled'
p84
I00
sS'profile_text_color'
p85
g38
sS'followers_count'
p86
I353
sS'profile_sidebar_border_color'
p87
g41
sS'location'
p88
g55
sS'default_profile_image'
p89
I00
sS'id_str'
p90
g43
sS'utc_offset'
p91
I-18000
sS'statuses_count'
p92
I4095
sS'description'
p93
g52
sS'friends_count'
p94
I478
sS'profile_link_color'
p95
g57
sS'profile_image_url'
p96
g59
sS'notifications'
p97
NsS'geo_enabled'
p98
I01
sS'profile_background_color'
p99
g45
sS'profile_banner_url'
p100
g63
sS'profile_background_image_url'
p101
g65
sS'name'
p102
g67
sS'lang'
p103
g69
sS'following'
p104
I00
sS'profile_background_tile'
p105
I00
sS'favourites_count'
p106
I571
sS'screen_name'
p107
g73
sS'url'
p108
NsS'created_at'
p109
cdatetime
datetime
p110
(S'\x07\xdb\x08\x07\x00\x0f\x06\x00\x00\x00'
p111
tp112
Rp113
sS'profile_background_image_url_https'
p114
g48
sS'time_zone'
p115
g80
sS'protected'
p116
I00
sS'default_profile'
p117
I00
sS'is_translator'
p118
I00
sS'listed_count'
p119
I2
sbsS'filter_level'
p120
Vlow
p121
sS'geo'
p122
Nsg24
I621422443094278144
sS'favorite_count'
p123
I0
sS'source'
p124
VTwitter Web Client
p125
sg103
Ven
p126
sS'author'
p127
g18
sS'in_reply_to_user_id_str'
p128
Nsg28
(dp129
Vcontributors
p130
NsVtruncated
p131
I00
sVtext
p132
g10
sVin_reply_to_status_id
p133
Nsg33
I621422443094278144
sVfavorite_count
p134
I0
sVsource
p135
V<a href="http://twitter.com" rel="nofollow">Twitter Web Client</a>
p136
sVretweeted
p137
I00
sVcoordinates
p138
NsVtimestamp_ms
p139
V1436993630561
p140
sVentities
p141
(dp142
Vsymbols
p143
(lp144
sVmedia
p145
(lp146
(dp147
Vexpanded_url
p148
Vhttp://twitter.com/_SwissSara23/status/621422443094278144/photo/1
p149
sVdisplay_url
p150
Vpic.twitter.com/2oqY2BsrMH
p151
sg75
Vhttp://t.co/2oqY2BsrMH
p152
sVmedia_url_https
p153
Vhttps://pbs.twimg.com/media/CJ-8azEVAAA6uep.jpg
p154
sg42
V621422442171400192
p155
sVsizes
p156
(dp157
Vsmall
p158
(dp159
Vh
p160
I510
sVresize
p161
Vfit
p162
sVw
p163
I340
ssVlarge
p164
(dp165
g160
I901
sg161
Vfit
p166
sg163
I600
ssVmedium
p167
(dp168
g160
I901
sg161
Vfit
p169
sg163
I600
ssVthumb
p170
(dp171
g160
I150
sg161
Vcrop
p172
sg163
I150
sssVindices
p173
(lp174
I62
aI84
asVtype
p175
Vphoto
p176
sg33
I621422442171400192
sVmedia_url
p177
Vhttp://pbs.twimg.com/media/CJ-8azEVAAA6uep.jpg
p178
sasVhashtags
p179
(lp180
(dp181
g173
(lp182
I3
aI16
asg132
VWCWednesdays
p183
sa(dp184
g173
(lp185
I17
aI21
asg132
Vwcw
p186
sasVuser_mentions
p187
(lp188
(dp189
g33
I36414849
sg173
(lp190
I47
aI61
asg42
V36414849
p191
sg72
Vjess_impiazzi
p192
sg66
VJess Impiazzi
p193
sasVtrends
p194
(lp195
sVurls
p196
(lp197
ssVin_reply_to_screen_name
p198
Nsg42
V621422443094278144
p199
sVretweet_count
p200
I0
sVin_reply_to_user_id
p201
NsVfavorited
p202
I00
sVuser
p203
g29
sVgeo
p204
NsVin_reply_to_user_id_str
p205
NsVpossibly_sensitive
p206
I00
sg68
g126
sg76
VWed Jul 15 20:53:50 +0000 2015
p207
sVfilter_level
p208
g121
sVin_reply_to_status_id_str
p209
NsVplace
p210
(dp211
Vfull_name
p212
VBern, Schweiz
p213
sg75
Vhttps://api.twitter.com/1.1/geo/id/5868d0e0749c9c47.json
p214
sVcountry
p215
VSchweiz
p216
sVplace_type
p217
Vadmin
p218
sVbounding_box
p219
(dp220
g175
VPolygon
p221
sg138
(lp222
(lp223
(lp224
F6.861601
aF46.326441
aa(lp225
F6.861601
aF47.34528
aa(lp226
F8.455051
aF47.34528
aa(lp227
F8.455051
aF46.326441
aaassVcountry_code
p228
VCH
p229
sVattributes
p230
(dp231
sg33
V5868d0e0749c9c47
p232
sg66
VBern
p233
ssVextended_entities
p234
(dp235
g145
(lp236
(dp237
g148
Vhttp://twitter.com/_SwissSara23/status/621422443094278144/photo/1
p238
sg150
Vpic.twitter.com/2oqY2BsrMH
p239
sg75
Vhttp://t.co/2oqY2BsrMH
p240
sg153
Vhttps://pbs.twimg.com/media/CJ-8azEVAAA6uep.jpg
p241
sg42
V621422442171400192
p242
sg156
(dp243
g158
(dp244
g160
I510
sg161
Vfit
p245
sg163
I340
ssg164
(dp246
g160
I901
sg161
Vfit
p247
sg163
I600
ssg167
(dp248
g160
I901
sg161
Vfit
p249
sg163
I600
ssg170
(dp250
g160
I150
sg161
Vcrop
p251
sg163
I150
sssg173
(lp252
I62
aI84
asg175
Vphoto
p253
sg33
I621422442171400192
sg177
Vhttp://pbs.twimg.com/media/CJ-8azEVAAA6uep.jpg
p254
sasssS'coordinates'
p255
NsS'timestamp_ms'
p256
g140
sS'entities'
p257
g142
sS'in_reply_to_status_id_str'
p258
NsS'in_reply_to_screen_name'
p259
Nsg90
g199
sS'extended_entities'
p260
g235
sS'retweeted'
p261
I00
sS'place'
p262
g0
(ctweepy.models
Place
p263
g2
Ntp264
Rp265
(dp266
S'full_name'
p267
g213
sg108
g214
sS'country'
p268
g216
sS'place_type'
p269
g218
sS'bounding_box'
p270
g0
(ctweepy.models
BoundingBox
p271
g2
Ntp272
Rp273
(dp274
S'type'
p275
g221
sg255
g222
sbsS'country_code'
p276
g229
sS'attributes'
p277
g231
sg24
g232
sg102
g233
sbsS'retweet_count'
p278
I0
sg109
g110
(S'\x07\xdf\x07\x0f\x1452\x00\x00\x00'
p279
tp280
Rp281
sS'in_reply_to_user_id'
p282
Nsb.