ccopy_reg
_reconstructor
p0
(ctweepy.models
Status
p1
c__builtin__
object
p2
Ntp3
Rp4
(dp5
S'favorited'
p6
I00
sS'contributors'
p7
NsS'truncated'
p8
I00
sS'text'
p9
VTechnical negotiation began for the investments of energy in the caspian sea.\u000aled Standard Energy corp. http://t.co/rEGiDWvht8
p10
sS'source_url'
p11
Vhttp://twitter.com/download/iphone
p12
sS'possibly_sensitive'
p13
I00
sS'in_reply_to_status_id'
p14
NsS'user'
p15
g0
(ctweepy.models
User
p16
g2
Ntp17
Rp18
(dp19
S'follow_request_sent'
p20
NsS'profile_use_background_image'
p21
I01
sS'profile_sidebar_fill_color'
p22
VDDEEF6
p23
sS'id'
p24
I3324555701
sS'verified'
p25
I00
sS'profile_image_url_https'
p26
Vhttps://pbs.twimg.com/profile_images/610022756508389377/4tDeGyYM_normal.jpg
p27
sS'_json'
p28
(dp29
Vfollow_request_sent
p30
NsVprofile_use_background_image
p31
I01
sVdefault_profile_image
p32
I00
sVid
p33
I3324555701
sVverified
p34
I00
sVprofile_image_url_https
p35
g27
sVprofile_sidebar_fill_color
p36
g23
sVprofile_text_color
p37
V333333
p38
sVfollowers_count
p39
I3
sVprofile_sidebar_border_color
p40
VC0DEED
p41
sVid_str
p42
V3324555701
p43
sVprofile_background_color
p44
VC0DEED
p45
sVlisted_count
p46
I0
sVprofile_background_image_url_https
p47
Vhttps://abs.twimg.com/images/themes/theme1/bg.png
p48
sVutc_offset
p49
NsVstatuses_count
p50
I1
sVdescription
p51
VThe official Twitter page of Standard Energy Corporation. \u000a\u000aEnergy for peace
p52
sVfriends_count
p53
I19
sVlocation
p54
VZurich, Switzerland
p55
sVprofile_link_color
p56
V0084B4
p57
sVprofile_image_url
p58
Vhttp://pbs.twimg.com/profile_images/610022756508389377/4tDeGyYM_normal.jpg
p59
sVfollowing
p60
NsVgeo_enabled
p61
I01
sVprofile_banner_url
p62
Vhttps://pbs.twimg.com/profile_banners/3324555701/1434276431
p63
sVprofile_background_image_url
p64
Vhttp://abs.twimg.com/images/themes/theme1/bg.png
p65
sVname
p66
VStandard Energy Corp
p67
sVlang
p68
Ven
p69
sVprofile_background_tile
p70
I00
sVfavourites_count
p71
I0
sVscreen_name
p72
Vstandard_energy
p73
sVnotifications
p74
NsVurl
p75
NsVcreated_at
p76
VSun Jun 14 09:50:55 +0000 2015
p77
sVcontributors_enabled
p78
I00
sVtime_zone
p79
NsVprotected
p80
I00
sVdefault_profile
p81
I01
sVis_translator
p82
I00
ssS'contributors_enabled'
p83
I00
sS'profile_text_color'
p84
g38
sS'followers_count'
p85
I3
sS'profile_sidebar_border_color'
p86
g41
sS'location'
p87
g55
sS'default_profile_image'
p88
I00
sS'id_str'
p89
g43
sS'utc_offset'
p90
NsS'statuses_count'
p91
I1
sS'description'
p92
VThe official Twitter page of Standard Energy Corporation. \u000a\u000aEnergy for peace
p93
sS'friends_count'
p94
I19
sS'profile_link_color'
p95
g57
sS'profile_image_url'
p96
g59
sS'notifications'
p97
NsS'geo_enabled'
p98
I01
sS'profile_background_color'
p99
g45
sS'profile_banner_url'
p100
g63
sS'profile_background_image_url'
p101
g65
sS'name'
p102
g67
sS'lang'
p103
g69
sS'following'
p104
I00
sS'profile_background_tile'
p105
I00
sS'favourites_count'
p106
I0
sS'screen_name'
p107
g73
sS'url'
p108
NsS'created_at'
p109
cdatetime
datetime
p110
(S'\x07\xdf\x06\x0e\t27\x00\x00\x00'
p111
tp112
Rp113
sS'profile_background_image_url_https'
p114
g48
sS'time_zone'
p115
NsS'protected'
p116
I00
sS'default_profile'
p117
I01
sS'is_translator'
p118
I00
sS'listed_count'
p119
I0
sbsS'filter_level'
p120
Vlow
p121
sS'geo'
p122
(dp123
Vtype
p124
VPoint
p125
sVcoordinates
p126
(lp127
F35.791368
aF51.368053
assg24
I621611138921463808
sS'favorite_count'
p128
I0
sS'source'
p129
VTwitter for iPhone
p130
sg103
Ven
p131
sS'author'
p132
g18
sS'in_reply_to_user_id_str'
p133
Nsg28
(dp134
Vcontributors
p135
NsVtruncated
p136
I00
sVtext
p137
VTechnical negotiation began for the investments of energy in the caspian sea.\u000aled Standard Energy corp. http://t.co/rEGiDWvht8
p138
sVin_reply_to_status_id
p139
Nsg33
I621611138921463808
sVfavorite_count
p140
I0
sVsource
p141
V<a href="http://twitter.com/download/iphone" rel="nofollow">Twitter for iPhone</a>
p142
sVretweeted
p143
I00
sg126
(dp144
g124
VPoint
p145
sg126
(lp146
F51.368053
aF35.791368
assVtimestamp_ms
p147
V1437038619152
p148
sVentities
p149
(dp150
Vsymbols
p151
(lp152
sVmedia
p153
(lp154
(dp155
Vexpanded_url
p156
Vhttp://twitter.com/standard_energy/status/621611138921463808/photo/1
p157
sVdisplay_url
p158
Vpic.twitter.com/rEGiDWvht8
p159
sg75
Vhttp://t.co/rEGiDWvht8
p160
sVmedia_url_https
p161
Vhttps://pbs.twimg.com/media/CKBoBkmUYAAaAIn.jpg
p162
sg42
V621611124790681600
p163
sVsizes
p164
(dp165
Vsmall
p166
(dp167
Vh
p168
I340
sVresize
p169
Vfit
p170
sVw
p171
I340
ssVlarge
p172
(dp173
g168
I640
sg169
Vfit
p174
sg171
I640
ssVmedium
p175
(dp176
g168
I600
sg169
Vfit
p177
sg171
I600
ssVthumb
p178
(dp179
g168
I150
sg169
Vcrop
p180
sg171
I150
sssVindices
p181
(lp182
I104
aI126
asg124
Vphoto
p183
sg33
I621611124790681600
sVmedia_url
p184
Vhttp://pbs.twimg.com/media/CKBoBkmUYAAaAIn.jpg
p185
sasVhashtags
p186
(lp187
sVuser_mentions
p188
(lp189
sVtrends
p190
(lp191
sVurls
p192
(lp193
ssVin_reply_to_screen_name
p194
Nsg42
V621611138921463808
p195
sVretweet_count
p196
I0
sVin_reply_to_user_id
p197
NsVfavorited
p198
I00
sVuser
p199
g29
sVgeo
p200
g123
sVin_reply_to_user_id_str
p201
NsVpossibly_sensitive
p202
I00
sg68
g131
sg76
VThu Jul 16 09:23:39 +0000 2015
p203
sVfilter_level
p204
g121
sVin_reply_to_status_id_str
p205
NsVplace
p206
(dp207
Vfull_name
p208
VZurich, Switzerland
p209
sg75
Vhttps://api.twitter.com/1.1/geo/id/3acb748d0f1e9265.json
p210
sVcountry
p211
VSchweiz
p212
sVplace_type
p213
Vcity
p214
sVbounding_box
p215
(dp216
g124
VPolygon
p217
sg126
(lp218
(lp219
(lp220
F8.448081
aF47.320183
aa(lp221
F8.448081
aF47.434721
aa(lp222
F8.625442
aF47.434721
aa(lp223
F8.625442
aF47.320183
aaassVcountry_code
p224
VCH
p225
sVattributes
p226
(dp227
sg33
V3acb748d0f1e9265
p228
sg66
VZurich
p229
ssVextended_entities
p230
(dp231
g153
(lp232
(dp233
g156
Vhttp://twitter.com/standard_energy/status/621611138921463808/photo/1
p234
sg158
Vpic.twitter.com/rEGiDWvht8
p235
sg75
Vhttp://t.co/rEGiDWvht8
p236
sg161
Vhttps://pbs.twimg.com/media/CKBoBkmUYAAaAIn.jpg
p237
sg42
V621611124790681600
p238
sg164
(dp239
g166
(dp240
g168
I340
sg169
Vfit
p241
sg171
I340
ssg172
(dp242
g168
I640
sg169
Vfit
p243
sg171
I640
ssg175
(dp244
g168
I600
sg169
Vfit
p245
sg171
I600
ssg178
(dp246
g168
I150
sg169
Vcrop
p247
sg171
I150
sssg181
(lp248
I104
aI126
asg124
Vphoto
p249
sg33
I621611124790681600
sg184
Vhttp://pbs.twimg.com/media/CKBoBkmUYAAaAIn.jpg
p250
sasssS'coordinates'
p251
g144
sS'timestamp_ms'
p252
g148
sS'entities'
p253
g150
sS'in_reply_to_status_id_str'
p254
NsS'in_reply_to_screen_name'
p255
Nsg89
g195
sS'extended_entities'
p256
g231
sS'retweeted'
p257
I00
sS'place'
p258
g0
(ctweepy.models
Place
p259
g2
Ntp260
Rp261
(dp262
S'full_name'
p263
g209
sg108
g210
sS'country'
p264
g212
sS'place_type'
p265
g214
sS'bounding_box'
p266
g0
(ctweepy.models
BoundingBox
p267
g2
Ntp268
Rp269
(dp270
S'type'
p271
g217
sg251
g218
sbsS'country_code'
p272
g225
sS'attributes'
p273
g227
sg24
g228
sg102
g229
sbsS'retweet_count'
p274
I0
sg109
g110
(S"\x07\xdf\x07\x10\t\x17'\x00\x00\x00"
p275
tp276
Rp277
sS'in_reply_to_user_id'
p278
Nsb.