ccopy_reg
_reconstructor
p0
(ctweepy.models
Status
p1
c__builtin__
object
p2
Ntp3
Rp4
(dp5
S'favorited'
p6
I00
sS'contributors'
p7
NsS'truncated'
p8
I00
sS'text'
p9
V#SouthCarolina #ConfederateTakeDown #Confederate #thesouthshallriseagain http://t.co/03XlVg4V5I
p10
sS'source_url'
p11
Vhttp://twitter.com/download/android
p12
sS'possibly_sensitive'
p13
I00
sS'in_reply_to_status_id'
p14
NsS'user'
p15
g0
(ctweepy.models
User
p16
g2
Ntp17
Rp18
(dp19
S'follow_request_sent'
p20
NsS'profile_use_background_image'
p21
I01
sS'profile_sidebar_fill_color'
p22
VC0DFEC
p23
sS'id'
p24
I1155289062
sS'verified'
p25
I00
sS'profile_image_url_https'
p26
Vhttps://pbs.twimg.com/profile_images/612393019178782720/N4vn9ok1_normal.jpg
p27
sS'_json'
p28
(dp29
Vfollow_request_sent
p30
NsVprofile_use_background_image
p31
I01
sVdefault_profile_image
p32
I00
sVid
p33
I1155289062
sVverified
p34
I00
sVprofile_image_url_https
p35
g27
sVprofile_sidebar_fill_color
p36
g23
sVprofile_text_color
p37
V333333
p38
sVfollowers_count
p39
I987
sVprofile_sidebar_border_color
p40
VA8C7F7
p41
sVid_str
p42
V1155289062
p43
sVprofile_background_color
p44
V022330
p45
sVlisted_count
p46
I25
sVprofile_background_image_url_https
p47
Vhttps://abs.twimg.com/images/themes/theme15/bg.png
p48
sVutc_offset
p49
I7200
sVstatuses_count
p50
I15281
sVdescription
p51
VI watched a snail crawl along the edge of a straight razor. That's my dream; that's my nightmare. Crawling, slithering, along the edge of a straight razor... a
p52
sVfriends_count
p53
I1493
sVlocation
p54
VUltima Thule
p55
sVprofile_link_color
p56
V0084B4
p57
sVprofile_image_url
p58
Vhttp://pbs.twimg.com/profile_images/612393019178782720/N4vn9ok1_normal.jpg
p59
sVfollowing
p60
NsVgeo_enabled
p61
I01
sVprofile_banner_url
p62
Vhttps://pbs.twimg.com/profile_banners/1155289062/1436871210
p63
sVprofile_background_image_url
p64
Vhttp://abs.twimg.com/images/themes/theme15/bg.png
p65
sVname
p66
Votto skorzeny
p67
sVlang
p68
Ven
p69
sVprofile_background_tile
p70
I00
sVfavourites_count
p71
I8701
sVscreen_name
p72
Vskorzeny_lives
p73
sVnotifications
p74
NsVurl
p75
NsVcreated_at
p76
VWed Feb 06 22:36:26 +0000 2013
p77
sVcontributors_enabled
p78
I00
sVtime_zone
p79
VAmsterdam
p80
sVprotected
p81
I00
sVdefault_profile
p82
I00
sVis_translator
p83
I00
ssS'contributors_enabled'
p84
I00
sS'profile_text_color'
p85
g38
sS'followers_count'
p86
I987
sS'profile_sidebar_border_color'
p87
g41
sS'location'
p88
g55
sS'default_profile_image'
p89
I00
sS'id_str'
p90
g43
sS'utc_offset'
p91
I7200
sS'statuses_count'
p92
I15281
sS'description'
p93
g52
sS'friends_count'
p94
I1493
sS'profile_link_color'
p95
g57
sS'profile_image_url'
p96
g59
sS'notifications'
p97
NsS'geo_enabled'
p98
I01
sS'profile_background_color'
p99
g45
sS'profile_banner_url'
p100
g63
sS'profile_background_image_url'
p101
g65
sS'name'
p102
g67
sS'lang'
p103
g69
sS'following'
p104
I00
sS'profile_background_tile'
p105
I00
sS'favourites_count'
p106
I8701
sS'screen_name'
p107
g73
sS'url'
p108
NsS'created_at'
p109
cdatetime
datetime
p110
(S'\x07\xdd\x02\x06\x16$\x1a\x00\x00\x00'
p111
tp112
Rp113
sS'profile_background_image_url_https'
p114
g48
sS'time_zone'
p115
g80
sS'protected'
p116
I00
sS'default_profile'
p117
I00
sS'is_translator'
p118
I00
sS'listed_count'
p119
I25
sbsS'filter_level'
p120
Vlow
p121
sS'geo'
p122
Nsg24
I621421466568032256
sS'favorite_count'
p123
I0
sS'source'
p124
VTwitter for Android
p125
sg103
Vund
p126
sS'author'
p127
g18
sS'in_reply_to_user_id_str'
p128
Nsg28
(dp129
Vcontributors
p130
NsVtruncated
p131
I00
sVtext
p132
g10
sVin_reply_to_status_id
p133
Nsg33
I621421466568032256
sVfavorite_count
p134
I0
sVsource
p135
V<a href="http://twitter.com/download/android" rel="nofollow">Twitter for Android</a>
p136
sVretweeted
p137
I00
sVcoordinates
p138
NsVtimestamp_ms
p139
V1436993397739
p140
sVentities
p141
(dp142
Vsymbols
p143
(lp144
sVmedia
p145
(lp146
(dp147
Vexpanded_url
p148
Vhttp://twitter.com/skorzeny_lives/status/621421466568032256/photo/1
p149
sVdisplay_url
p150
Vpic.twitter.com/03XlVg4V5I
p151
sg75
Vhttp://t.co/03XlVg4V5I
p152
sVmedia_url_https
p153
Vhttps://pbs.twimg.com/media/CJ-7hjwWgAA_zH3.jpg
p154
sg42
V621421458808537088
p155
sVsizes
p156
(dp157
Vsmall
p158
(dp159
Vh
p160
I244
sVresize
p161
Vfit
p162
sVw
p163
I340
ssVlarge
p164
(dp165
g160
I690
sg161
Vfit
p166
sg163
I960
ssVmedium
p167
(dp168
g160
I431
sg161
Vfit
p169
sg163
I600
ssVthumb
p170
(dp171
g160
I150
sg161
Vcrop
p172
sg163
I150
sssVindices
p173
(lp174
I73
aI95
asVtype
p175
Vphoto
p176
sg33
I621421458808537088
sVmedia_url
p177
Vhttp://pbs.twimg.com/media/CJ-7hjwWgAA_zH3.jpg
p178
sasVhashtags
p179
(lp180
(dp181
g173
(lp182
I0
aI14
asg132
VSouthCarolina
p183
sa(dp184
g173
(lp185
I15
aI35
asg132
VConfederateTakeDown
p186
sa(dp187
g173
(lp188
I36
aI48
asg132
VConfederate
p189
sa(dp190
g173
(lp191
I49
aI72
asg132
Vthesouthshallriseagain
p192
sasVuser_mentions
p193
(lp194
sVtrends
p195
(lp196
sVurls
p197
(lp198
ssVin_reply_to_screen_name
p199
Nsg42
V621421466568032256
p200
sVretweet_count
p201
I0
sVin_reply_to_user_id
p202
NsVfavorited
p203
I00
sVuser
p204
g29
sVgeo
p205
NsVin_reply_to_user_id_str
p206
NsVpossibly_sensitive
p207
I00
sg68
g126
sg76
VWed Jul 15 20:49:57 +0000 2015
p208
sVfilter_level
p209
g121
sVin_reply_to_status_id_str
p210
NsVplace
p211
(dp212
Vfull_name
p213
VZurich, Switzerland
p214
sg75
Vhttps://api.twitter.com/1.1/geo/id/3acb748d0f1e9265.json
p215
sVcountry
p216
VSchweiz
p217
sVplace_type
p218
Vcity
p219
sVbounding_box
p220
(dp221
g175
VPolygon
p222
sg138
(lp223
(lp224
(lp225
F8.448081
aF47.320183
aa(lp226
F8.448081
aF47.434721
aa(lp227
F8.625442
aF47.434721
aa(lp228
F8.625442
aF47.320183
aaassVcountry_code
p229
VCH
p230
sVattributes
p231
(dp232
sg33
V3acb748d0f1e9265
p233
sg66
VZurich
p234
ssVextended_entities
p235
(dp236
g145
(lp237
(dp238
g148
Vhttp://twitter.com/skorzeny_lives/status/621421466568032256/photo/1
p239
sg150
Vpic.twitter.com/03XlVg4V5I
p240
sg75
Vhttp://t.co/03XlVg4V5I
p241
sg153
Vhttps://pbs.twimg.com/media/CJ-7hjwWgAA_zH3.jpg
p242
sg42
V621421458808537088
p243
sg156
(dp244
g158
(dp245
g160
I244
sg161
Vfit
p246
sg163
I340
ssg164
(dp247
g160
I690
sg161
Vfit
p248
sg163
I960
ssg167
(dp249
g160
I431
sg161
Vfit
p250
sg163
I600
ssg170
(dp251
g160
I150
sg161
Vcrop
p252
sg163
I150
sssg173
(lp253
I73
aI95
asg175
Vphoto
p254
sg33
I621421458808537088
sg177
Vhttp://pbs.twimg.com/media/CJ-7hjwWgAA_zH3.jpg
p255
sasssS'coordinates'
p256
NsS'timestamp_ms'
p257
g140
sS'entities'
p258
g142
sS'in_reply_to_status_id_str'
p259
NsS'in_reply_to_screen_name'
p260
Nsg90
g200
sS'extended_entities'
p261
g236
sS'retweeted'
p262
I00
sS'place'
p263
g0
(ctweepy.models
Place
p264
g2
Ntp265
Rp266
(dp267
S'full_name'
p268
g214
sg108
g215
sS'country'
p269
g217
sS'place_type'
p270
g219
sS'bounding_box'
p271
g0
(ctweepy.models
BoundingBox
p272
g2
Ntp273
Rp274
(dp275
S'type'
p276
g222
sg256
g223
sbsS'country_code'
p277
g230
sS'attributes'
p278
g232
sg24
g233
sg102
g234
sbsS'retweet_count'
p279
I0
sg109
g110
(S'\x07\xdf\x07\x0f\x1419\x00\x00\x00'
p280
tp281
Rp282
sS'in_reply_to_user_id'
p283
Nsb.