ccopy_reg
_reconstructor
p0
(ctweepy.models
Status
p1
c__builtin__
object
p2
Ntp3
Rp4
(dp5
S'favorited'
p6
I00
sS'contributors'
p7
NsS'truncated'
p8
I00
sS'text'
p9
Vm7d chaf
p10
sS'source_url'
p11
Vhttp://twitter.com/download/iphone
p12
sS'possibly_sensitive'
p13
I00
sS'in_reply_to_status_id'
p14
NsS'user'
p15
g0
(ctweepy.models
User
p16
g2
Ntp17
Rp18
(dp19
S'follow_request_sent'
p20
NsS'profile_use_background_image'
p21
I01
sS'profile_sidebar_fill_color'
p22
VDDEEF6
p23
sS'id'
p24
I3272147318
sS'verified'
p25
I00
sS'profile_image_url_https'
p26
Vhttps://pbs.twimg.com/profile_images/622854470800572416/cc5vm-TP_normal.jpg
p27
sS'_json'
p28
(dp29
Vfollow_request_sent
p30
NsVprofile_use_background_image
p31
I01
sVdefault_profile_image
p32
I00
sVid
p33
I3272147318
sVverified
p34
I00
sVprofile_image_url_https
p35
g27
sVprofile_sidebar_fill_color
p36
g23
sVprofile_text_color
p37
V333333
p38
sVfollowers_count
p39
I186
sVprofile_sidebar_border_color
p40
VC0DEED
p41
sVid_str
p42
V3272147318
p43
sVprofile_background_color
p44
VC0DEED
p45
sVlisted_count
p46
I0
sVprofile_background_image_url_https
p47
Vhttps://abs.twimg.com/images/themes/theme1/bg.png
p48
sVutc_offset
p49
NsVstatuses_count
p50
I586
sVdescription
p51
NsVfriends_count
p52
I176
sVlocation
p53
Vabudhabi&m7arag
p54
sVprofile_link_color
p55
V0084B4
p56
sVprofile_image_url
p57
Vhttp://pbs.twimg.com/profile_images/622854470800572416/cc5vm-TP_normal.jpg
p58
sVfollowing
p59
NsVgeo_enabled
p60
I01
sVprofile_banner_url
p61
Vhttps://pbs.twimg.com/profile_banners/3272147318/1437427571
p62
sVprofile_background_image_url
p63
Vhttp://abs.twimg.com/images/themes/theme1/bg.png
p64
sVname
p65
Vsm
p66
sVlang
p67
Ven
p68
sVprofile_background_tile
p69
I00
sVfavourites_count
p70
I80
sVscreen_name
p71
Vsvlamh
p72
sVnotifications
p73
NsVurl
p74
NsVcreated_at
p75
VWed Jul 08 18:18:53 +0000 2015
p76
sVcontributors_enabled
p77
I00
sVtime_zone
p78
NsVprotected
p79
I00
sVdefault_profile
p80
I01
sVis_translator
p81
I00
ssS'contributors_enabled'
p82
I00
sS'profile_text_color'
p83
g38
sS'followers_count'
p84
I186
sS'profile_sidebar_border_color'
p85
g41
sS'location'
p86
g54
sS'default_profile_image'
p87
I00
sS'id_str'
p88
g43
sS'utc_offset'
p89
NsS'statuses_count'
p90
I586
sS'description'
p91
NsS'friends_count'
p92
I176
sS'profile_link_color'
p93
g56
sS'profile_image_url'
p94
g58
sS'notifications'
p95
NsS'geo_enabled'
p96
I01
sS'profile_background_color'
p97
g45
sS'profile_banner_url'
p98
g62
sS'profile_background_image_url'
p99
g64
sS'name'
p100
g66
sS'lang'
p101
g68
sS'following'
p102
I00
sS'profile_background_tile'
p103
I00
sS'favourites_count'
p104
I80
sS'screen_name'
p105
g72
sS'url'
p106
NsS'created_at'
p107
cdatetime
datetime
p108
(S'\x07\xdf\x07\x08\x12\x125\x00\x00\x00'
p109
tp110
Rp111
sS'profile_background_image_url_https'
p112
g48
sS'time_zone'
p113
NsS'protected'
p114
I00
sS'default_profile'
p115
I01
sS'is_translator'
p116
I00
sS'listed_count'
p117
I0
sbsS'filter_level'
p118
Vlow
p119
sS'geo'
p120
Nsg24
I623833706604720128
sS'favorite_count'
p121
I0
sS'source'
p122
VTwitter for iPhone
p123
sg101
Vfr
p124
sS'author'
p125
g18
sS'in_reply_to_user_id_str'
p126
Nsg28
(dp127
Vcontributors
p128
NsVtruncated
p129
I00
sVtext
p130
g10
sVin_reply_to_status_id
p131
Nsg33
I623833706604720128
sVfavorite_count
p132
I0
sVsource
p133
V<a href="http://twitter.com/download/iphone" rel="nofollow">Twitter for iPhone</a>
p134
sVretweeted
p135
I00
sVcoordinates
p136
NsVtimestamp_ms
p137
V1437568520581
p138
sVentities
p139
(dp140
Vuser_mentions
p141
(lp142
sVsymbols
p143
(lp144
sVtrends
p145
(lp146
sVhashtags
p147
(lp148
sVurls
p149
(lp150
ssVin_reply_to_screen_name
p151
Nsg42
V623833706604720128
p152
sVretweet_count
p153
I0
sVin_reply_to_user_id
p154
NsVfavorited
p155
I00
sVuser
p156
g29
sVgeo
p157
NsVin_reply_to_user_id_str
p158
NsVpossibly_sensitive
p159
I00
sg67
g124
sg75
VWed Jul 22 12:35:20 +0000 2015
p160
sVfilter_level
p161
g119
sVin_reply_to_status_id_str
p162
NsVplace
p163
(dp164
Vfull_name
p165
VZurich, Switzerland
p166
sg74
Vhttps://api.twitter.com/1.1/geo/id/3acb748d0f1e9265.json
p167
sVcountry
p168
VSchweiz
p169
sVplace_type
p170
Vcity
p171
sVbounding_box
p172
(dp173
Vtype
p174
VPolygon
p175
sg136
(lp176
(lp177
(lp178
F8.448081
aF47.320183
aa(lp179
F8.448081
aF47.434721
aa(lp180
F8.625442
aF47.434721
aa(lp181
F8.625442
aF47.320183
aaassVcountry_code
p182
VCH
p183
sVattributes
p184
(dp185
sg33
V3acb748d0f1e9265
p186
sg65
VZurich
p187
sssS'coordinates'
p188
NsS'timestamp_ms'
p189
g138
sS'entities'
p190
g140
sS'in_reply_to_status_id_str'
p191
NsS'in_reply_to_screen_name'
p192
Nsg88
g152
sS'retweeted'
p193
I00
sS'place'
p194
g0
(ctweepy.models
Place
p195
g2
Ntp196
Rp197
(dp198
S'full_name'
p199
g166
sg106
g167
sS'country'
p200
g169
sS'place_type'
p201
g171
sS'bounding_box'
p202
g0
(ctweepy.models
BoundingBox
p203
g2
Ntp204
Rp205
(dp206
S'type'
p207
g175
sg188
g176
sbsS'country_code'
p208
g183
sS'attributes'
p209
g185
sg24
g186
sg100
g187
sbsS'retweet_count'
p210
I0
sg107
g108
(S'\x07\xdf\x07\x16\x0c#\x14\x00\x00\x00'
p211
tp212
Rp213
sS'in_reply_to_user_id'
p214
Nsb.