ccopy_reg
_reconstructor
p0
(ctweepy.models
Status
p1
c__builtin__
object
p2
Ntp3
Rp4
(dp5
S'favorited'
p6
I00
sS'contributors'
p7
NsS'truncated'
p8
I00
sS'text'
p9
VIs it time for reform of the international #InvestmentProtection regime? http://t.co/giZdiGdooW]
p10
sS'source_url'
p11
Vhttp://twitter.com
p12
sS'possibly_sensitive'
p13
I00
sS'in_reply_to_status_id'
p14
NsS'user'
p15
g0
(ctweepy.models
User
p16
g2
Ntp17
Rp18
(dp19
S'follow_request_sent'
p20
NsS'profile_use_background_image'
p21
I01
sS'profile_sidebar_fill_color'
p22
VDDEEF6
p23
sS'id'
p24
I17892599
sS'verified'
p25
I00
sS'profile_image_url_https'
p26
Vhttps://pbs.twimg.com/profile_images/216954843/Taji_headshot_normal.jpg
p27
sS'_json'
p28
(dp29
Vfollow_request_sent
p30
NsVprofile_use_background_image
p31
I01
sVdefault_profile_image
p32
I00
sVid
p33
I17892599
sVverified
p34
I00
sVprofile_image_url_https
p35
g27
sVprofile_sidebar_fill_color
p36
g23
sVprofile_text_color
p37
V333333
p38
sVfollowers_count
p39
I830
sVprofile_sidebar_border_color
p40
VC0DEED
p41
sVid_str
p42
V17892599
p43
sVprofile_background_color
p44
VC0DEED
p45
sVlisted_count
p46
I37
sVprofile_background_image_url_https
p47
Vhttps://abs.twimg.com/images/themes/theme1/bg.png
p48
sVutc_offset
p49
I16200
sVstatuses_count
p50
I8074
sVdescription
p51
VMy tweets don't necessarily represent my own point of view; they usually represent others' perspectives which I think worth debating.
p52
sVfriends_count
p53
I809
sVlocation
p54
VAll over, actually
p55
sVprofile_link_color
p56
V0084B4
p57
sVprofile_image_url
p58
Vhttp://pbs.twimg.com/profile_images/216954843/Taji_headshot_normal.jpg
p59
sVfollowing
p60
NsVgeo_enabled
p61
I01
sVprofile_background_image_url
p62
Vhttp://abs.twimg.com/images/themes/theme1/bg.png
p63
sVname
p64
VPrabhuGuptara
p65
sVlang
p66
Ven
p67
sVprofile_background_tile
p68
I00
sVfavourites_count
p69
I3
sVscreen_name
p70
VPrabhuGuptara
p71
sVnotifications
p72
NsVurl
p73
Vhttp://www.prabhuguptara.blogspot.com
p74
sVcreated_at
p75
VFri Dec 05 07:13:50 +0000 2008
p76
sVcontributors_enabled
p77
I00
sVtime_zone
p78
VTehran
p79
sVprotected
p80
I00
sVdefault_profile
p81
I01
sVis_translator
p82
I00
ssS'contributors_enabled'
p83
I00
sS'profile_text_color'
p84
g38
sS'followers_count'
p85
I830
sS'profile_sidebar_border_color'
p86
g41
sS'location'
p87
g55
sS'default_profile_image'
p88
I00
sS'id_str'
p89
g43
sS'utc_offset'
p90
I16200
sS'statuses_count'
p91
I8074
sS'description'
p92
g52
sS'friends_count'
p93
I809
sS'profile_link_color'
p94
g57
sS'profile_image_url'
p95
g59
sS'notifications'
p96
NsS'geo_enabled'
p97
I01
sS'profile_background_color'
p98
g45
sS'profile_background_image_url'
p99
g63
sS'name'
p100
g65
sS'lang'
p101
g67
sS'following'
p102
I00
sS'profile_background_tile'
p103
I00
sS'favourites_count'
p104
I3
sS'screen_name'
p105
g71
sS'url'
p106
g74
sS'created_at'
p107
cdatetime
datetime
p108
(S'\x07\xd8\x0c\x05\x07\r2\x00\x00\x00'
p109
tp110
Rp111
sS'profile_background_image_url_https'
p112
g48
sS'time_zone'
p113
g79
sS'protected'
p114
I00
sS'default_profile'
p115
I01
sS'is_translator'
p116
I00
sS'listed_count'
p117
I37
sbsS'filter_level'
p118
Vlow
p119
sS'geo'
p120
Nsg24
I621634706333937665
sS'favorite_count'
p121
I0
sS'source'
p122
VTwitter Web Client
p123
sg101
Ven
p124
sS'author'
p125
g18
sS'in_reply_to_user_id_str'
p126
Nsg28
(dp127
Vcontributors
p128
NsVtruncated
p129
I00
sVtext
p130
g10
sVin_reply_to_status_id
p131
Nsg33
I621634706333937665
sVfavorite_count
p132
I0
sVsource
p133
V<a href="http://twitter.com" rel="nofollow">Twitter Web Client</a>
p134
sVretweeted
p135
I00
sVcoordinates
p136
NsVtimestamp_ms
p137
V1437044238061
p138
sVentities
p139
(dp140
Vuser_mentions
p141
(lp142
sVsymbols
p143
(lp144
sVtrends
p145
(lp146
sVhashtags
p147
(lp148
(dp149
Vindices
p150
(lp151
I43
aI64
asg130
VInvestmentProtection
p152
sasVurls
p153
(lp154
(dp155
g73
Vhttp://t.co/giZdiGdooW
p156
sg150
(lp157
I73
aI95
asVexpanded_url
p158
Vhttp://us5.campaign-archive2.com/?u=fa9cf38799136b5660f367ba6&id=422e5faef7&e=[UNIQID
p159
sVdisplay_url
p160
Vus5.campaign-archive2.com/?u=fa9cf387991\u2026
p161
sassVin_reply_to_screen_name
p162
Nsg42
V621634706333937665
p163
sVretweet_count
p164
I0
sVin_reply_to_user_id
p165
NsVfavorited
p166
I00
sVuser
p167
g29
sVgeo
p168
NsVin_reply_to_user_id_str
p169
NsVpossibly_sensitive
p170
I00
sg66
g124
sg75
VThu Jul 16 10:57:18 +0000 2015
p171
sVfilter_level
p172
g119
sVin_reply_to_status_id_str
p173
NsVplace
p174
(dp175
Vfull_name
p176
VZurich, Switzerland
p177
sg73
Vhttps://api.twitter.com/1.1/geo/id/3acb748d0f1e9265.json
p178
sVcountry
p179
VSchweiz
p180
sVplace_type
p181
Vcity
p182
sVbounding_box
p183
(dp184
Vtype
p185
VPolygon
p186
sg136
(lp187
(lp188
(lp189
F8.448081
aF47.320183
aa(lp190
F8.448081
aF47.434721
aa(lp191
F8.625442
aF47.434721
aa(lp192
F8.625442
aF47.320183
aaassVcountry_code
p193
VCH
p194
sVattributes
p195
(dp196
sg33
V3acb748d0f1e9265
p197
sg64
VZurich
p198
sssS'coordinates'
p199
NsS'timestamp_ms'
p200
g138
sS'entities'
p201
g140
sS'in_reply_to_status_id_str'
p202
NsS'in_reply_to_screen_name'
p203
Nsg89
g163
sS'retweeted'
p204
I00
sS'place'
p205
g0
(ctweepy.models
Place
p206
g2
Ntp207
Rp208
(dp209
S'full_name'
p210
g177
sg106
g178
sS'country'
p211
g180
sS'place_type'
p212
g182
sS'bounding_box'
p213
g0
(ctweepy.models
BoundingBox
p214
g2
Ntp215
Rp216
(dp217
S'type'
p218
g186
sg199
g187
sbsS'country_code'
p219
g194
sS'attributes'
p220
g196
sg24
g197
sg100
g198
sbsS'retweet_count'
p221
I0
sg107
g108
(S'\x07\xdf\x07\x10\n9\x12\x00\x00\x00'
p222
tp223
Rp224
sS'in_reply_to_user_id'
p225
Nsb.