ccopy_reg
_reconstructor
p0
(ctweepy.models
Status
p1
c__builtin__
object
p2
Ntp3
Rp4
(dp5
S'favorited'
p6
I00
sS'contributors'
p7
NsS'truncated'
p8
I00
sS'text'
p9
VHow do we protect our assets against creditors? Here are some great examples.. \u000ahttp://t.co/egNDq0K3S0  #SwissBanking http://t.co/RhatKV4klX
p10
sS'source_url'
p11
Vhttp://twitter.com
p12
sS'possibly_sensitive'
p13
I00
sS'in_reply_to_status_id'
p14
NsS'user'
p15
g0
(ctweepy.models
User
p16
g2
Ntp17
Rp18
(dp19
S'follow_request_sent'
p20
NsS'profile_use_background_image'
p21
I01
sS'profile_sidebar_fill_color'
p22
V000000
p23
sS'id'
p24
I728507726
sS'verified'
p25
I00
sS'profile_image_url_https'
p26
Vhttps://pbs.twimg.com/profile_images/603195974865932289/ZdaLTD0e_normal.jpg
p27
sS'_json'
p28
(dp29
Vfollow_request_sent
p30
NsVprofile_use_background_image
p31
I01
sVdefault_profile_image
p32
I00
sVid
p33
I728507726
sVverified
p34
I00
sVprofile_image_url_https
p35
g27
sVprofile_sidebar_fill_color
p36
g23
sVprofile_text_color
p37
V000000
p38
sVfollowers_count
p39
I113
sVprofile_sidebar_border_color
p40
V000000
p41
sVid_str
p42
V728507726
p43
sVprofile_background_color
p44
V131516
p45
sVlisted_count
p46
I5
sVprofile_background_image_url_https
p47
Vhttps://abs.twimg.com/images/themes/theme14/bg.gif
p48
sVutc_offset
p49
I7200
sVstatuses_count
p50
I377
sVdescription
p51
VCaputo & Partners, your banking #lawyer for #business and #banking in #Switzerland. info@swiss-banking-lawyers.com   +41442124404
p52
sVfriends_count
p53
I208
sVlocation
p54
VZurich
p55
sVprofile_link_color
p56
V000099
p57
sVprofile_image_url
p58
Vhttp://pbs.twimg.com/profile_images/603195974865932289/ZdaLTD0e_normal.jpg
p59
sVfollowing
p60
NsVgeo_enabled
p61
I01
sVprofile_banner_url
p62
Vhttps://pbs.twimg.com/profile_banners/728507726/1432679884
p63
sVprofile_background_image_url
p64
Vhttp://abs.twimg.com/images/themes/theme14/bg.gif
p65
sVname
p66
VCaputo & Partners AG
p67
sVlang
p68
Ven
p69
sVprofile_background_tile
p70
I01
sVfavourites_count
p71
I21
sVscreen_name
p72
Vswissbankinglaw
p73
sVnotifications
p74
NsVurl
p75
Vhttp://swiss-banking-lawyers.com
p76
sVcreated_at
p77
VTue Jul 31 14:28:27 +0000 2012
p78
sVcontributors_enabled
p79
I00
sVtime_zone
p80
VBern
p81
sVprotected
p82
I00
sVdefault_profile
p83
I00
sVis_translator
p84
I00
ssS'contributors_enabled'
p85
I00
sS'profile_text_color'
p86
g38
sS'followers_count'
p87
I113
sS'profile_sidebar_border_color'
p88
g41
sS'location'
p89
g55
sS'default_profile_image'
p90
I00
sS'id_str'
p91
g43
sS'utc_offset'
p92
I7200
sS'statuses_count'
p93
I377
sS'description'
p94
g52
sS'friends_count'
p95
I208
sS'profile_link_color'
p96
g57
sS'profile_image_url'
p97
g59
sS'notifications'
p98
NsS'geo_enabled'
p99
I01
sS'profile_background_color'
p100
g45
sS'profile_banner_url'
p101
g63
sS'profile_background_image_url'
p102
g65
sS'name'
p103
g67
sS'lang'
p104
g69
sS'following'
p105
I00
sS'profile_background_tile'
p106
I01
sS'favourites_count'
p107
I21
sS'screen_name'
p108
g73
sS'url'
p109
g76
sS'created_at'
p110
cdatetime
datetime
p111
(S'\x07\xdc\x07\x1f\x0e\x1c\x1b\x00\x00\x00'
p112
tp113
Rp114
sS'profile_background_image_url_https'
p115
g48
sS'time_zone'
p116
g81
sS'protected'
p117
I00
sS'default_profile'
p118
I00
sS'is_translator'
p119
I00
sS'listed_count'
p120
I5
sbsS'filter_level'
p121
Vlow
p122
sS'geo'
p123
Nsg24
I623817264840753152
sS'favorite_count'
p124
I0
sS'source'
p125
VTwitter Web Client
p126
sg104
Ven
p127
sS'author'
p128
g18
sS'in_reply_to_user_id_str'
p129
Nsg28
(dp130
Vcontributors
p131
NsVtruncated
p132
I00
sVtext
p133
VHow do we protect our assets against creditors? Here are some great examples.. \u000ahttp://t.co/egNDq0K3S0  #SwissBanking http://t.co/RhatKV4klX
p134
sVin_reply_to_status_id
p135
Nsg33
I623817264840753152
sVfavorite_count
p136
I0
sVsource
p137
V<a href="http://twitter.com" rel="nofollow">Twitter Web Client</a>
p138
sVretweeted
p139
I00
sVcoordinates
p140
NsVtimestamp_ms
p141
V1437564600559
p142
sVentities
p143
(dp144
Vsymbols
p145
(lp146
sVmedia
p147
(lp148
(dp149
Vexpanded_url
p150
Vhttp://twitter.com/swissbankinglaw/status/623817264840753152/photo/1
p151
sVdisplay_url
p152
Vpic.twitter.com/RhatKV4klX
p153
sg75
Vhttp://t.co/RhatKV4klX
p154
sVmedia_url_https
p155
Vhttps://pbs.twimg.com/media/CKg-fnzWIAEqgGV.jpg
p156
sg42
V623817261372022785
p157
sVsizes
p158
(dp159
Vlarge
p160
(dp161
Vh
p162
I62
sVresize
p163
Vfit
p164
sVw
p165
I266
ssVsmall
p166
(dp167
g162
I62
sg163
Vfit
p168
sg165
I266
ssVmedium
p169
(dp170
g162
I62
sg163
Vfit
p171
sg165
I266
ssVthumb
p172
(dp173
g162
I62
sg163
Vcrop
p174
sg165
I150
sssVindices
p175
(lp176
I118
aI140
asVtype
p177
Vphoto
p178
sg33
I623817261372022785
sVmedia_url
p179
Vhttp://pbs.twimg.com/media/CKg-fnzWIAEqgGV.jpg
p180
sasVhashtags
p181
(lp182
(dp183
g175
(lp184
I104
aI117
asg133
VSwissBanking
p185
sasVuser_mentions
p186
(lp187
sVtrends
p188
(lp189
sVurls
p190
(lp191
(dp192
g75
Vhttp://t.co/egNDq0K3S0
p193
sg175
(lp194
I80
aI102
asg150
Vhttp://www.swiss-banking-lawyers.com/how-to-protect-your-assets-against-your-creditors
p195
sg152
Vswiss-banking-lawyers.com/how-to-protect\u2026
p196
sassVin_reply_to_screen_name
p197
Nsg42
V623817264840753152
p198
sVretweet_count
p199
I0
sVin_reply_to_user_id
p200
NsVfavorited
p201
I00
sVuser
p202
g29
sVgeo
p203
NsVin_reply_to_user_id_str
p204
NsVpossibly_sensitive
p205
I00
sg68
g127
sg77
VWed Jul 22 11:30:00 +0000 2015
p206
sVfilter_level
p207
g122
sVin_reply_to_status_id_str
p208
NsVplace
p209
(dp210
Vfull_name
p211
VZurich, Switzerland
p212
sg75
Vhttps://api.twitter.com/1.1/geo/id/3acb748d0f1e9265.json
p213
sVcountry
p214
VSchweiz
p215
sVplace_type
p216
Vcity
p217
sVbounding_box
p218
(dp219
g177
VPolygon
p220
sg140
(lp221
(lp222
(lp223
F8.448081
aF47.320183
aa(lp224
F8.448081
aF47.434721
aa(lp225
F8.625442
aF47.434721
aa(lp226
F8.625442
aF47.320183
aaassVcountry_code
p227
VCH
p228
sVattributes
p229
(dp230
sg33
V3acb748d0f1e9265
p231
sg66
VZurich
p232
ssVextended_entities
p233
(dp234
g147
(lp235
(dp236
g150
Vhttp://twitter.com/swissbankinglaw/status/623817264840753152/photo/1
p237
sg152
Vpic.twitter.com/RhatKV4klX
p238
sg75
Vhttp://t.co/RhatKV4klX
p239
sg155
Vhttps://pbs.twimg.com/media/CKg-fnzWIAEqgGV.jpg
p240
sg42
V623817261372022785
p241
sg158
(dp242
g160
(dp243
g162
I62
sg163
Vfit
p244
sg165
I266
ssg166
(dp245
g162
I62
sg163
Vfit
p246
sg165
I266
ssg169
(dp247
g162
I62
sg163
Vfit
p248
sg165
I266
ssg172
(dp249
g162
I62
sg163
Vcrop
p250
sg165
I150
sssg175
(lp251
I118
aI140
asg177
Vphoto
p252
sg33
I623817261372022785
sg179
Vhttp://pbs.twimg.com/media/CKg-fnzWIAEqgGV.jpg
p253
sasssS'coordinates'
p254
NsS'timestamp_ms'
p255
g142
sS'entities'
p256
g144
sS'in_reply_to_status_id_str'
p257
NsS'in_reply_to_screen_name'
p258
Nsg91
g198
sS'extended_entities'
p259
g234
sS'retweeted'
p260
I00
sS'place'
p261
g0
(ctweepy.models
Place
p262
g2
Ntp263
Rp264
(dp265
S'full_name'
p266
g212
sg109
g213
sS'country'
p267
g215
sS'place_type'
p268
g217
sS'bounding_box'
p269
g0
(ctweepy.models
BoundingBox
p270
g2
Ntp271
Rp272
(dp273
S'type'
p274
g220
sg254
g221
sbsS'country_code'
p275
g228
sS'attributes'
p276
g230
sg24
g231
sg103
g232
sbsS'retweet_count'
p277
I0
sg110
g111
(S'\x07\xdf\x07\x16\x0b\x1e\x00\x00\x00\x00'
p278
tp279
Rp280
sS'in_reply_to_user_id'
p281
Nsb.