ccopy_reg
_reconstructor
p0
(ctweepy.models
Status
p1
c__builtin__
object
p2
Ntp3
Rp4
(dp5
S'favorited'
p6
I00
sS'contributors'
p7
NsS'truncated'
p8
I00
sS'text'
p9
VShoes off by the lake #wedding #destinationwedding #weddingphotography http://t.co/W8egHTSw4g
p10
sS'source_url'
p11
Vhttp://twitter.com/download/iphone
p12
sS'possibly_sensitive'
p13
I00
sS'in_reply_to_status_id'
p14
NsS'user'
p15
g0
(ctweepy.models
User
p16
g2
Ntp17
Rp18
(dp19
S'follow_request_sent'
p20
NsS'profile_use_background_image'
p21
I01
sS'profile_sidebar_fill_color'
p22
VDDEEF6
p23
sS'id'
p24
I390950883
sS'verified'
p25
I00
sS'profile_image_url_https'
p26
Vhttps://pbs.twimg.com/profile_images/614383021647613954/hJhxpqNK_normal.jpg
p27
sS'_json'
p28
(dp29
Vfollow_request_sent
p30
NsVprofile_use_background_image
p31
I01
sVdefault_profile_image
p32
I00
sVid
p33
I390950883
sVverified
p34
I00
sVprofile_image_url_https
p35
g27
sVprofile_sidebar_fill_color
p36
g23
sVprofile_text_color
p37
V333333
p38
sVfollowers_count
p39
I33
sVprofile_sidebar_border_color
p40
VC0DEED
p41
sVid_str
p42
V390950883
p43
sVprofile_background_color
p44
VC0DEED
p45
sVlisted_count
p46
I2
sVprofile_background_image_url_https
p47
Vhttps://abs.twimg.com/images/themes/theme1/bg.png
p48
sVutc_offset
p49
NsVstatuses_count
p50
I173
sVdescription
p51
NsVfriends_count
p52
I61
sVlocation
p53
VHarrogate, England
p54
sVprofile_link_color
p55
V0084B4
p56
sVprofile_image_url
p57
Vhttp://pbs.twimg.com/profile_images/614383021647613954/hJhxpqNK_normal.jpg
p58
sVfollowing
p59
NsVgeo_enabled
p60
I01
sVprofile_banner_url
p61
Vhttps://pbs.twimg.com/profile_banners/390950883/1436735726
p62
sVprofile_background_image_url
p63
Vhttp://abs.twimg.com/images/themes/theme1/bg.png
p64
sVname
p65
VBrigiPenzesUnderhill
p66
sVlang
p67
Ven
p68
sVprofile_background_tile
p69
I00
sVfavourites_count
p70
I45
sVscreen_name
p71
VBP_Underhill
p72
sVnotifications
p73
NsVurl
p74
Vhttp://www.avenuewhitephotography.com
p75
sVcreated_at
p76
VFri Oct 14 20:16:05 +0000 2011
p77
sVcontributors_enabled
p78
I00
sVtime_zone
p79
NsVprotected
p80
I00
sVdefault_profile
p81
I01
sVis_translator
p82
I00
ssS'contributors_enabled'
p83
I00
sS'profile_text_color'
p84
g38
sS'followers_count'
p85
I33
sS'profile_sidebar_border_color'
p86
g41
sS'location'
p87
g54
sS'default_profile_image'
p88
I00
sS'id_str'
p89
g43
sS'utc_offset'
p90
NsS'statuses_count'
p91
I173
sS'description'
p92
NsS'friends_count'
p93
I61
sS'profile_link_color'
p94
g56
sS'profile_image_url'
p95
g58
sS'notifications'
p96
NsS'geo_enabled'
p97
I01
sS'profile_background_color'
p98
g45
sS'profile_banner_url'
p99
g62
sS'profile_background_image_url'
p100
g64
sS'name'
p101
g66
sS'lang'
p102
g68
sS'following'
p103
I00
sS'profile_background_tile'
p104
I00
sS'favourites_count'
p105
I45
sS'screen_name'
p106
g72
sS'url'
p107
g75
sS'created_at'
p108
cdatetime
datetime
p109
(S'\x07\xdb\n\x0e\x14\x10\x05\x00\x00\x00'
p110
tp111
Rp112
sS'profile_background_image_url_https'
p113
g48
sS'time_zone'
p114
NsS'protected'
p115
I00
sS'default_profile'
p116
I01
sS'is_translator'
p117
I00
sS'listed_count'
p118
I2
sbsS'filter_level'
p119
Vlow
p120
sS'geo'
p121
Nsg24
I621613757693861888
sS'favorite_count'
p122
I0
sS'source'
p123
VTwitter for iPhone
p124
sg102
Ven
p125
sS'author'
p126
g18
sS'in_reply_to_user_id_str'
p127
Nsg28
(dp128
Vcontributors
p129
NsVtruncated
p130
I00
sVtext
p131
g10
sVin_reply_to_status_id
p132
Nsg33
I621613757693861888
sVfavorite_count
p133
I0
sVsource
p134
V<a href="http://twitter.com/download/iphone" rel="nofollow">Twitter for iPhone</a>
p135
sVretweeted
p136
I00
sVcoordinates
p137
NsVtimestamp_ms
p138
V1437039243516
p139
sVentities
p140
(dp141
Vsymbols
p142
(lp143
sVmedia
p144
(lp145
(dp146
Vexpanded_url
p147
Vhttp://twitter.com/BP_Underhill/status/621613757693861888/photo/1
p148
sVdisplay_url
p149
Vpic.twitter.com/W8egHTSw4g
p150
sg74
Vhttp://t.co/W8egHTSw4g
p151
sVmedia_url_https
p152
Vhttps://pbs.twimg.com/media/CKBqXW8WUAAX1YA.jpg
p153
sg42
V621613698105364480
p154
sVsizes
p155
(dp156
Vsmall
p157
(dp158
Vh
p159
I340
sVresize
p160
Vfit
p161
sVw
p162
I340
ssVlarge
p163
(dp164
g159
I1024
sg160
Vfit
p165
sg162
I1024
ssVmedium
p166
(dp167
g159
I600
sg160
Vfit
p168
sg162
I600
ssVthumb
p169
(dp170
g159
I150
sg160
Vcrop
p171
sg162
I150
sssVindices
p172
(lp173
I71
aI93
asVtype
p174
Vphoto
p175
sg33
I621613698105364480
sVmedia_url
p176
Vhttp://pbs.twimg.com/media/CKBqXW8WUAAX1YA.jpg
p177
sasVhashtags
p178
(lp179
(dp180
g172
(lp181
I22
aI30
asg131
Vwedding
p182
sa(dp183
g172
(lp184
I31
aI50
asg131
Vdestinationwedding
p185
sa(dp186
g172
(lp187
I51
aI70
asg131
Vweddingphotography
p188
sasVuser_mentions
p189
(lp190
sVtrends
p191
(lp192
sVurls
p193
(lp194
ssVin_reply_to_screen_name
p195
Nsg42
V621613757693861888
p196
sVretweet_count
p197
I0
sVin_reply_to_user_id
p198
NsVfavorited
p199
I00
sVuser
p200
g29
sVgeo
p201
NsVin_reply_to_user_id_str
p202
NsVpossibly_sensitive
p203
I00
sg67
g125
sg76
VThu Jul 16 09:34:03 +0000 2015
p204
sVfilter_level
p205
g120
sVin_reply_to_status_id_str
p206
NsVplace
p207
(dp208
Vfull_name
p209
VZurich, Switzerland
p210
sg74
Vhttps://api.twitter.com/1.1/geo/id/3acb748d0f1e9265.json
p211
sVcountry
p212
VSchweiz
p213
sVplace_type
p214
Vcity
p215
sVbounding_box
p216
(dp217
g174
VPolygon
p218
sg137
(lp219
(lp220
(lp221
F8.448081
aF47.320183
aa(lp222
F8.448081
aF47.434721
aa(lp223
F8.625442
aF47.434721
aa(lp224
F8.625442
aF47.320183
aaassVcountry_code
p225
VCH
p226
sVattributes
p227
(dp228
sg33
V3acb748d0f1e9265
p229
sg65
VZurich
p230
ssVextended_entities
p231
(dp232
g144
(lp233
(dp234
g147
Vhttp://twitter.com/BP_Underhill/status/621613757693861888/photo/1
p235
sg149
Vpic.twitter.com/W8egHTSw4g
p236
sg74
Vhttp://t.co/W8egHTSw4g
p237
sg152
Vhttps://pbs.twimg.com/media/CKBqXW8WUAAX1YA.jpg
p238
sg42
V621613698105364480
p239
sg155
(dp240
g157
(dp241
g159
I340
sg160
Vfit
p242
sg162
I340
ssg163
(dp243
g159
I1024
sg160
Vfit
p244
sg162
I1024
ssg166
(dp245
g159
I600
sg160
Vfit
p246
sg162
I600
ssg169
(dp247
g159
I150
sg160
Vcrop
p248
sg162
I150
sssg172
(lp249
I71
aI93
asg174
Vphoto
p250
sg33
I621613698105364480
sg176
Vhttp://pbs.twimg.com/media/CKBqXW8WUAAX1YA.jpg
p251
sasssS'coordinates'
p252
NsS'timestamp_ms'
p253
g139
sS'entities'
p254
g141
sS'in_reply_to_status_id_str'
p255
NsS'in_reply_to_screen_name'
p256
Nsg89
g196
sS'extended_entities'
p257
g232
sS'retweeted'
p258
I00
sS'place'
p259
g0
(ctweepy.models
Place
p260
g2
Ntp261
Rp262
(dp263
S'full_name'
p264
g210
sg107
g211
sS'country'
p265
g213
sS'place_type'
p266
g215
sS'bounding_box'
p267
g0
(ctweepy.models
BoundingBox
p268
g2
Ntp269
Rp270
(dp271
S'type'
p272
g218
sg252
g219
sbsS'country_code'
p273
g226
sS'attributes'
p274
g228
sg24
g229
sg101
g230
sbsS'retweet_count'
p275
I0
sg108
g109
(S'\x07\xdf\x07\x10\t"\x03\x00\x00\x00'
p276
tp277
Rp278
sS'in_reply_to_user_id'
p279
Nsb.