ccopy_reg
_reconstructor
p0
(ctweepy.models
Status
p1
c__builtin__
object
p2
Ntp3
Rp4
(dp5
S'contributors'
p6
NsS'truncated'
p7
I00
sS'text'
p8
VWord! Be more dog!! Freu mich schon drauf mit @comboeuf den Kopf in den Fahrtwind zu strecken! Hechel!!! https://t.co/asjgT5jmN4
p9
sS'in_reply_to_status_id'
p10
NsS'id'
p11
I621551741209837569
sS'favorite_count'
p12
I0
sS'entities'
p13
(dp14
Vuser_mentions
p15
(lp16
(dp17
Vid
p18
I40927508
sVindices
p19
(lp20
I46
aI55
asVid_str
p21
V40927508
p22
sVscreen_name
p23
Vcomboeuf
p24
sVname
p25
VPatrick Comboeuf
p26
sasVsymbols
p27
(lp28
sVtrends
p29
(lp30
sVhashtags
p31
(lp32
sVurls
p33
(lp34
(dp35
Vurl
p36
Vhttps://t.co/asjgT5jmN4
p37
sg19
(lp38
I105
aI128
asVexpanded_url
p39
Vhttps://twitter.com/schickerGuy/status/621495696714276864
p40
sVdisplay_url
p41
Vtwitter.com/schickerGuy/st\u2026
p42
sassS'quoted_status_id'
p43
I621495696714276864
sS'_json'
p44
(dp45
Vcontributors
p46
NsVtruncated
p47
I00
sVtext
p48
g9
sVin_reply_to_status_id
p49
Nsg18
I621551741209837569
sVfavorite_count
p50
I0
sVsource
p51
V<a href="http://twitter.com/download/android" rel="nofollow">Twitter for Android</a>
p52
sVquoted_status_id
p53
I621495696714276864
sVretweeted
p54
I00
sVcoordinates
p55
NsVtimestamp_ms
p56
V1437024457634
p57
sVquoted_status
p58
(dp59
g46
Nsg47
I00
sg48
VFreue mich und hoffe auf viel Begeisterung &amp; Passion! "For us all to be more like dog and rock the world!" @swisslife_ch @comboeuf
p60
sg49
I621385144637751296
sg18
I621495696714276864
sg50
I0
sg51
V<a href="http://twitter.com/download/android" rel="nofollow">Twitter for Android</a>
p61
sg54
I00
sg55
NsVentities
p62
(dp63
g15
(lp64
(dp65
g18
I475875824
sg19
(lp66
I111
aI124
asg21
V475875824
p67
sg23
Vswisslife_ch
p68
sg25
VSwiss Life
p69
sa(dp70
g18
I40927508
sg19
(lp71
I125
aI134
asg21
V40927508
p72
sg23
Vcomboeuf
p73
sg25
VPatrick Comboeuf
p74
sasg27
(lp75
sg29
(lp76
sg31
(lp77
sg33
(lp78
ssVin_reply_to_screen_name
p79
Vswisslife_ch
p80
sg21
V621495696714276864
p81
sVretweet_count
p82
I0
sVin_reply_to_user_id
p83
I475875824
sVfavorited
p84
I00
sVuser
p85
(dp86
Vfollow_request_sent
p87
NsVprofile_use_background_image
p88
I01
sVdefault_profile_image
p89
I00
sg18
I515478433
sVverified
p90
I00
sVprofile_image_url_https
p91
Vhttps://pbs.twimg.com/profile_images/3488549043/8a4f24d0ac3608d69d8e88c1ef69b063_normal.jpeg
p92
sVprofile_sidebar_fill_color
p93
VDDEEF6
p94
sVprofile_text_color
p95
V333333
p96
sVfollowers_count
p97
I172
sVprofile_sidebar_border_color
p98
VC0DEED
p99
sg21
V515478433
p100
sVprofile_background_color
p101
V064161
p102
sVlisted_count
p103
I10
sVprofile_background_image_url_https
p104
Vhttps://pbs.twimg.com/profile_background_images/445822990/Img_4608_-_Copy_5.jpg
p105
sVutc_offset
p106
I7200
sVstatuses_count
p107
I1867
sVdescription
p108
V----Innovation, Art, Film, Surfing, Snowboarding, Skateboarding---- The World is full of beautiful surprises. Keep your eyes open and stay curious.
p109
sVfriends_count
p110
I268
sVlocation
p111
VZurich
p112
sVprofile_link_color
p113
V0099CC
p114
sVprofile_image_url
p115
Vhttp://pbs.twimg.com/profile_images/3488549043/8a4f24d0ac3608d69d8e88c1ef69b063_normal.jpeg
p116
sVfollowing
p117
NsVgeo_enabled
p118
I01
sVprofile_banner_url
p119
Vhttps://pbs.twimg.com/profile_banners/515478433/1364388708
p120
sVprofile_background_image_url
p121
Vhttp://pbs.twimg.com/profile_background_images/445822990/Img_4608_-_Copy_5.jpg
p122
sg25
VGuy
p123
sVlang
p124
Vde
p125
sVprofile_background_tile
p126
I01
sVfavourites_count
p127
I576
sg23
VschickerGuy
p128
sVnotifications
p129
Nsg36
Vhttp://about.me/guy.schicker
p130
sVcreated_at
p131
VMon Mar 05 13:40:21 +0000 2012
p132
sVcontributors_enabled
p133
I00
sVtime_zone
p134
VBern
p135
sVprotected
p136
I00
sVdefault_profile
p137
I00
sVis_translator
p138
I00
ssVgeo
p139
NsVin_reply_to_user_id_str
p140
V475875824
p141
sVpossibly_sensitive
p142
I00
sg124
Vde
p143
sg131
VThu Jul 16 01:44:55 +0000 2015
p144
sVfilter_level
p145
Vlow
p146
sVin_reply_to_status_id_str
p147
V621385144637751296
p148
sVplace
p149
Nssg62
g14
sg79
Nsg21
V621551741209837569
p150
sg82
I0
sg83
Nsg84
I00
sg85
(dp151
g87
Nsg88
I01
sg89
I00
sg18
I21245141
sg90
I00
sg91
Vhttps://pbs.twimg.com/profile_images/1307757215/chrisw_normal.jpg
p152
sg93
VF6FFD1
p153
sg95
V333333
p154
sg97
I431
sg98
VFFF8AD
p155
sg21
V21245141
p156
sg101
VFFF04D
p157
sg103
I32
sg104
Vhttps://pbs.twimg.com/profile_background_images/231335284/twitterbg.jpg
p158
sg106
I7200
sg107
I1215
sg108
Vlives in greater zurich, loves communication, digital & social @swisslife_ch, tweets are my own...
p159
sg110
I657
sg111
VZurich, Switzerland
p160
sg113
V0099CC
p161
sg115
Vhttp://pbs.twimg.com/profile_images/1307757215/chrisw_normal.jpg
p162
sg117
Nsg118
I01
sg119
Vhttps://pbs.twimg.com/profile_banners/21245141/1358428468
p163
sg121
Vhttp://pbs.twimg.com/profile_background_images/231335284/twitterbg.jpg
p164
sg25
VChris Webster
p165
sg124
Ven
p166
sg126
I01
sg127
I858
sg23
Vglobalwebster
p167
sg129
Nsg36
Vhttp://www.swisslife.ch
p168
sg131
VWed Feb 18 21:50:01 +0000 2009
p169
sg133
I00
sg134
VBern
p170
sg136
I00
sg137
I00
sg138
I00
ssg139
Nsg140
Nsg142
I00
sg124
Vde
p171
sg131
VThu Jul 16 05:27:37 +0000 2015
p172
sVquoted_status_id_str
p173
V621495696714276864
p174
sg145
Vlow
p175
sg147
Nsg149
(dp176
Vfull_name
p177
VZurich, Switzerland
p178
sg36
Vhttps://api.twitter.com/1.1/geo/id/3acb748d0f1e9265.json
p179
sVcountry
p180
VSchweiz
p181
sVplace_type
p182
Vcity
p183
sVbounding_box
p184
(dp185
Vtype
p186
VPolygon
p187
sg55
(lp188
(lp189
(lp190
F8.448081
aF47.320183
aa(lp191
F8.448081
aF47.434721
aa(lp192
F8.625442
aF47.434721
aa(lp193
F8.625442
aF47.320183
aaassVcountry_code
p194
VCH
p195
sVattributes
p196
(dp197
sg18
V3acb748d0f1e9265
p198
sg25
VZurich
p199
sssS'coordinates'
p200
NsS'timestamp_ms'
p201
g57
sS'quoted_status'
p202
g59
sS'source'
p203
VTwitter for Android
p204
sS'in_reply_to_screen_name'
p205
NsS'id_str'
p206
g150
sS'retweet_count'
p207
I0
sS'in_reply_to_user_id'
p208
NsS'favorited'
p209
I00
sS'source_url'
p210
Vhttp://twitter.com/download/android
p211
sS'user'
p212
g0
(ctweepy.models
User
p213
g2
Ntp214
Rp215
(dp216
S'follow_request_sent'
p217
NsS'profile_use_background_image'
p218
I01
sS'profile_sidebar_fill_color'
p219
g153
sg11
I21245141
sS'verified'
p220
I00
sS'profile_image_url_https'
p221
g152
sg44
g151
sS'contributors_enabled'
p222
I00
sS'profile_text_color'
p223
g154
sS'followers_count'
p224
I431
sS'profile_sidebar_border_color'
p225
g155
sS'location'
p226
g160
sS'default_profile_image'
p227
I00
sg206
g156
sS'utc_offset'
p228
I7200
sS'statuses_count'
p229
I1215
sS'description'
p230
g159
sS'friends_count'
p231
I657
sS'profile_link_color'
p232
g161
sS'profile_image_url'
p233
g162
sS'notifications'
p234
NsS'geo_enabled'
p235
I01
sS'profile_background_color'
p236
g157
sS'profile_banner_url'
p237
g163
sS'profile_background_image_url'
p238
g164
sS'name'
p239
g165
sS'lang'
p240
g166
sS'following'
p241
I00
sS'profile_background_tile'
p242
I01
sS'favourites_count'
p243
I858
sS'screen_name'
p244
g167
sS'url'
p245
g168
sS'created_at'
p246
cdatetime
datetime
p247
(S'\x07\xd9\x02\x12\x152\x01\x00\x00\x00'
p248
tp249
Rp250
sS'profile_background_image_url_https'
p251
g158
sS'time_zone'
p252
g170
sS'protected'
p253
I00
sS'default_profile'
p254
I00
sS'is_translator'
p255
I00
sS'listed_count'
p256
I32
sbsS'geo'
p257
NsS'in_reply_to_user_id_str'
p258
NsS'possibly_sensitive'
p259
I00
sg240
g171
sg246
g247
(S'\x07\xdf\x07\x10\x05\x1b%\x00\x00\x00'
p260
tp261
Rp262
sS'author'
p263
g215
sS'quoted_status_id_str'
p264
g174
sS'filter_level'
p265
g175
sS'in_reply_to_status_id_str'
p266
NsS'place'
p267
g0
(ctweepy.models
Place
p268
g2
Ntp269
Rp270
(dp271
S'full_name'
p272
g178
sg245
g179
sS'country'
p273
g181
sS'place_type'
p274
g183
sS'bounding_box'
p275
g0
(ctweepy.models
BoundingBox
p276
g2
Ntp277
Rp278
(dp279
S'type'
p280
g187
sg200
g188
sbsS'country_code'
p281
g195
sS'attributes'
p282
g197
sg11
g198
sg239
g199
sbsS'retweeted'
p283
I00
sb.