ccopy_reg
_reconstructor
p0
(ctweepy.models
Status
p1
c__builtin__
object
p2
Ntp3
Rp4
(dp5
S'favorited'
p6
I00
sS'contributors'
p7
NsS'truncated'
p8
I00
sS'text'
p9
V@AndreaFaustini1 I did :) I like track 9 a lot because I'm learning Italian but I love the whole album. I miss seeing that smile on TV tho
p10
sS'source_url'
p11
Vhttp://twitter.com/download/iphone
p12
sS'possibly_sensitive'
p13
I00
sS'in_reply_to_status_id'
p14
I623588377422655490
sS'user'
p15
g0
(ctweepy.models
User
p16
g2
Ntp17
Rp18
(dp19
S'follow_request_sent'
p20
NsS'profile_use_background_image'
p21
I01
sS'profile_sidebar_fill_color'
p22
VDDEEF6
p23
sS'id'
p24
I242935273
sS'verified'
p25
I00
sS'profile_image_url_https'
p26
Vhttps://pbs.twimg.com/profile_images/516339671698509824/uO8bFSs6_normal.jpeg
p27
sS'_json'
p28
(dp29
Vfollow_request_sent
p30
NsVprofile_use_background_image
p31
I01
sVdefault_profile_image
p32
I00
sVid
p33
I242935273
sVverified
p34
I00
sVprofile_image_url_https
p35
g27
sVprofile_sidebar_fill_color
p36
g23
sVprofile_text_color
p37
V333333
p38
sVfollowers_count
p39
I18
sVprofile_sidebar_border_color
p40
VC0DEED
p41
sVid_str
p42
V242935273
p43
sVprofile_background_color
p44
VC0DEED
p45
sVlisted_count
p46
I0
sVprofile_background_image_url_https
p47
Vhttps://abs.twimg.com/images/themes/theme1/bg.png
p48
sVutc_offset
p49
NsVstatuses_count
p50
I20
sVdescription
p51
NsVfriends_count
p52
I34
sVlocation
p53
VDoha
p54
sVprofile_link_color
p55
V0084B4
p56
sVprofile_image_url
p57
Vhttp://pbs.twimg.com/profile_images/516339671698509824/uO8bFSs6_normal.jpeg
p58
sVfollowing
p59
NsVgeo_enabled
p60
I01
sVprofile_background_image_url
p61
Vhttp://abs.twimg.com/images/themes/theme1/bg.png
p62
sVname
p63
VDavid McDonnell
p64
sVlang
p65
Ven
p66
sVprofile_background_tile
p67
I00
sVfavourites_count
p68
I12
sVscreen_name
p69
Vdaithi77ie
p70
sVnotifications
p71
NsVurl
p72
NsVcreated_at
p73
VTue Jan 25 23:03:37 +0000 2011
p74
sVcontributors_enabled
p75
I00
sVtime_zone
p76
NsVprotected
p77
I00
sVdefault_profile
p78
I01
sVis_translator
p79
I00
ssS'contributors_enabled'
p80
I00
sS'profile_text_color'
p81
g38
sS'followers_count'
p82
I18
sS'profile_sidebar_border_color'
p83
g41
sS'location'
p84
g54
sS'default_profile_image'
p85
I00
sS'id_str'
p86
g43
sS'utc_offset'
p87
NsS'statuses_count'
p88
I20
sS'description'
p89
NsS'friends_count'
p90
I34
sS'profile_link_color'
p91
g56
sS'profile_image_url'
p92
g58
sS'notifications'
p93
NsS'geo_enabled'
p94
I01
sS'profile_background_color'
p95
g45
sS'profile_background_image_url'
p96
g62
sS'name'
p97
g64
sS'lang'
p98
g66
sS'following'
p99
I00
sS'profile_background_tile'
p100
I00
sS'favourites_count'
p101
I12
sS'screen_name'
p102
g70
sS'url'
p103
NsS'created_at'
p104
cdatetime
datetime
p105
(S'\x07\xdb\x01\x19\x17\x03%\x00\x00\x00'
p106
tp107
Rp108
sS'profile_background_image_url_https'
p109
g48
sS'time_zone'
p110
NsS'protected'
p111
I00
sS'default_profile'
p112
I01
sS'is_translator'
p113
I00
sS'listed_count'
p114
I0
sbsS'filter_level'
p115
Vlow
p116
sS'geo'
p117
Nsg24
I623800505131757568
sS'favorite_count'
p118
I0
sS'source'
p119
VTwitter for iPhone
p120
sg98
Ven
p121
sS'author'
p122
g18
sS'in_reply_to_user_id_str'
p123
V489758148
p124
sg28
(dp125
Vcontributors
p126
NsVtruncated
p127
I00
sVtext
p128
g10
sVin_reply_to_status_id
p129
I623588377422655490
sg33
I623800505131757568
sVfavorite_count
p130
I0
sVsource
p131
V<a href="http://twitter.com/download/iphone" rel="nofollow">Twitter for iPhone</a>
p132
sVretweeted
p133
I00
sVcoordinates
p134
NsVtimestamp_ms
p135
V1437560604733
p136
sVentities
p137
(dp138
Vuser_mentions
p139
(lp140
(dp141
g33
I489758148
sVindices
p142
(lp143
I0
aI16
asg42
V489758148
p144
sg69
VAndreaFaustini1
p145
sg63
VAndrea Faustini
p146
sasVsymbols
p147
(lp148
sVtrends
p149
(lp150
sVhashtags
p151
(lp152
sVurls
p153
(lp154
ssVin_reply_to_screen_name
p155
VAndreaFaustini1
p156
sg42
V623800505131757568
p157
sVretweet_count
p158
I0
sVin_reply_to_user_id
p159
I489758148
sVfavorited
p160
I00
sVuser
p161
g29
sVgeo
p162
NsVin_reply_to_user_id_str
p163
g124
sVpossibly_sensitive
p164
I00
sg65
g121
sg73
VWed Jul 22 10:23:24 +0000 2015
p165
sVfilter_level
p166
g116
sVin_reply_to_status_id_str
p167
V623588377422655490
p168
sVplace
p169
(dp170
Vfull_name
p171
VZurich, Switzerland
p172
sg72
Vhttps://api.twitter.com/1.1/geo/id/3acb748d0f1e9265.json
p173
sVcountry
p174
VSchweiz
p175
sVplace_type
p176
Vcity
p177
sVbounding_box
p178
(dp179
Vtype
p180
VPolygon
p181
sg134
(lp182
(lp183
(lp184
F8.448081
aF47.320183
aa(lp185
F8.448081
aF47.434721
aa(lp186
F8.625442
aF47.434721
aa(lp187
F8.625442
aF47.320183
aaassVcountry_code
p188
VCH
p189
sVattributes
p190
(dp191
sg33
V3acb748d0f1e9265
p192
sg63
VZurich
p193
sssS'coordinates'
p194
NsS'timestamp_ms'
p195
g136
sS'entities'
p196
g138
sS'in_reply_to_status_id_str'
p197
g168
sS'in_reply_to_screen_name'
p198
g156
sg86
g157
sS'retweeted'
p199
I00
sS'place'
p200
g0
(ctweepy.models
Place
p201
g2
Ntp202
Rp203
(dp204
S'full_name'
p205
g172
sg103
g173
sS'country'
p206
g175
sS'place_type'
p207
g177
sS'bounding_box'
p208
g0
(ctweepy.models
BoundingBox
p209
g2
Ntp210
Rp211
(dp212
S'type'
p213
g181
sg194
g182
sbsS'country_code'
p214
g189
sS'attributes'
p215
g191
sg24
g192
sg97
g193
sbsS'retweet_count'
p216
I0
sg104
g105
(S'\x07\xdf\x07\x16\n\x17\x18\x00\x00\x00'
p217
tp218
Rp219
sS'in_reply_to_user_id'
p220
I489758148
sb.