ccopy_reg
_reconstructor
p0
(ctweepy.models
Status
p1
c__builtin__
object
p2
Ntp3
Rp4
(dp5
S'contributors'
p6
NsS'truncated'
p7
I00
sS'text'
p8
V@shiftkey @JakeGinnivan @khellang @davkean woah! Nice. Looks like our various Twitter threads were worth it, e.g. https://t.co/VVs2KEDrno
p9
sS'in_reply_to_status_id'
p10
I623649239797776384
sS'id'
p11
I623783006864601088
sS'favorite_count'
p12
I0
sS'entities'
p13
(dp14
Vuser_mentions
p15
(lp16
(dp17
Vid
p18
I14671135
sVindices
p19
(lp20
I0
aI9
asVid_str
p21
V14671135
p22
sVscreen_name
p23
Vshiftkey
p24
sVname
p25
VBrendan Forster
p26
sa(dp27
g18
I14877480
sg19
(lp28
I10
aI23
asg21
V14877480
p29
sg23
VJakeGinnivan
p30
sg25
VJake Ginnivan
p31
sa(dp32
g18
I187872569
sg19
(lp33
I24
aI33
asg21
V187872569
p34
sg23
Vkhellang
p35
sg25
VKristian Hellang
p36
sa(dp37
g18
I509791860
sg19
(lp38
I34
aI42
asg21
V509791860
p39
sg23
Vdavkean
p40
sg25
VDavid Kean
p41
sasVsymbols
p42
(lp43
sVtrends
p44
(lp45
sVhashtags
p46
(lp47
sVurls
p48
(lp49
(dp50
Vurl
p51
Vhttps://t.co/VVs2KEDrno
p52
sg19
(lp53
I114
aI137
asVexpanded_url
p54
Vhttps://twitter.com/adamralph/status/621411464713269248
p55
sVdisplay_url
p56
Vtwitter.com/adamralph/stat\u2026
p57
sassS'quoted_status_id'
p58
I621411464713269248
sS'_json'
p59
(dp60
Vcontributors
p61
NsVtruncated
p62
I00
sVtext
p63
g9
sVin_reply_to_status_id
p64
I623649239797776384
sg18
I623783006864601088
sVfavorite_count
p65
I0
sVsource
p66
V<a href="http://twitter.com" rel="nofollow">Twitter Web Client</a>
p67
sVquoted_status_id
p68
I621411464713269248
sVretweeted
p69
I00
sVcoordinates
p70
NsVtimestamp_ms
p71
V1437556432821
p72
sVquoted_status
p73
(dp74
g61
Nsg62
I00
sg63
V@yigalatz @csharpfritz @maartenballiauw @gep13 @xavierdecoster then why not call it something different?
p75
sg64
I621409838950584322
sg18
I621411464713269248
sg65
I0
sg66
V<a href="http://twitter.com/download/android" rel="nofollow">Twitter for Android</a>
p76
sg69
I00
sg70
NsVentities
p77
(dp78
g15
(lp79
(dp80
g18
I538247037
sg19
(lp81
I0
aI9
asg21
V538247037
p82
sg23
Vyigalatz
p83
sg25
VYishai Galatzer
p84
sa(dp85
g18
I14183975
sg19
(lp86
I10
aI22
asg21
V14183975
p87
sg23
Vcsharpfritz
p88
sg25
VJeff Fritz
p89
sa(dp90
g18
I17618425
sg19
(lp91
I23
aI39
asg21
V17618425
p92
sg23
Vmaartenballiauw
p93
sg25
VMaarten Balliauw
p94
sa(dp95
g18
I129866083
sg19
(lp96
I40
aI46
asg21
V129866083
p97
sg23
Vgep13
p98
sg25
VGary Ewan Park
p99
sa(dp100
g18
I93572085
sg19
(lp101
I47
aI62
asg21
V93572085
p102
sg23
Vxavierdecoster
p103
sg25
VXavier Decoster
p104
sasg42
(lp105
sg44
(lp106
sg46
(lp107
sg48
(lp108
ssVin_reply_to_screen_name
p109
Vyigalatz
p110
sg21
V621411464713269248
p111
sVretweet_count
p112
I0
sVin_reply_to_user_id
p113
I538247037
sVfavorited
p114
I00
sVuser
p115
(dp116
Vfollow_request_sent
p117
NsVprofile_use_background_image
p118
I01
sVdefault_profile_image
p119
I00
sg18
I5966642
sVverified
p120
I00
sVprofile_image_url_https
p121
Vhttps://pbs.twimg.com/profile_images/1829752770/portrait_normal.png
p122
sVprofile_sidebar_fill_color
p123
VEFEFEF
p124
sVprofile_text_color
p125
V333333
p126
sVfollowers_count
p127
I1073
sVprofile_sidebar_border_color
p128
VFFFFFF
p129
sg21
V5966642
p130
sVprofile_background_color
p131
V131516
p132
sVlisted_count
p133
I45
sVprofile_background_image_url_https
p134
Vhttps://pbs.twimg.com/profile_background_images/449201336731439105/nfRXUnN5.jpeg
p135
sVutc_offset
p136
I7200
sVstatuses_count
p137
I7258
sVdescription
p138
V.NET MVP  Committer/owner of @scriptcsnet, @baubuild, @fakeiteasyfx, @xbehavenet, ConfigR  Blogs a bit  Snowboards a lot  Fails to surf
p139
sVfriends_count
p140
I503
sVlocation
p141
VFlims/Zurich, Switzerland
p142
sVprofile_link_color
p143
V3478ED
p144
sVprofile_image_url
p145
Vhttp://pbs.twimg.com/profile_images/1829752770/portrait_normal.png
p146
sVfollowing
p147
NsVgeo_enabled
p148
I01
sVprofile_banner_url
p149
Vhttps://pbs.twimg.com/profile_banners/5966642/1421650587
p150
sVprofile_background_image_url
p151
Vhttp://pbs.twimg.com/profile_background_images/449201336731439105/nfRXUnN5.jpeg
p152
sg25
VAdam Ralph
p153
sVlang
p154
Ven
p155
sVprofile_background_tile
p156
I01
sVfavourites_count
p157
I196
sg23
Vadamralph
p158
sVnotifications
p159
Nsg51
Vhttp://www.adamralph.com
p160
sVcreated_at
p161
VFri May 11 16:22:53 +0000 2007
p162
sVcontributors_enabled
p163
I00
sVtime_zone
p164
VBern
p165
sVprotected
p166
I00
sVdefault_profile
p167
I00
sVis_translator
p168
I00
ssVgeo
p169
NsVin_reply_to_user_id_str
p170
V538247037
p171
sVpossibly_sensitive
p172
I00
sg154
Ven
p173
sg161
VWed Jul 15 20:10:13 +0000 2015
p174
sVfilter_level
p175
Vlow
p176
sVin_reply_to_status_id_str
p177
V621409838950584322
p178
sVplace
p179
Nssg77
g14
sg109
Vshiftkey
p180
sg21
V623783006864601088
p181
sg112
I0
sg113
I14671135
sg114
I00
sg115
(dp182
g117
Nsg118
I01
sg119
I00
sg18
I5966642
sg120
I00
sg121
Vhttps://pbs.twimg.com/profile_images/1829752770/portrait_normal.png
p183
sg123
VEFEFEF
p184
sg125
V333333
p185
sg127
I1073
sg128
VFFFFFF
p186
sg21
V5966642
p187
sg131
V131516
p188
sg133
I45
sg134
Vhttps://pbs.twimg.com/profile_background_images/449201336731439105/nfRXUnN5.jpeg
p189
sg136
I7200
sg137
I7259
sg138
V.NET MVP  Committer/owner of @scriptcsnet, @baubuild, @fakeiteasyfx, @xbehavenet, ConfigR  Blogs a bit  Snowboards a lot  Fails to surf
p190
sg140
I503
sg141
VFlims/Zurich, Switzerland
p191
sg143
V3478ED
p192
sg145
Vhttp://pbs.twimg.com/profile_images/1829752770/portrait_normal.png
p193
sg147
Nsg148
I01
sg149
Vhttps://pbs.twimg.com/profile_banners/5966642/1421650587
p194
sg151
Vhttp://pbs.twimg.com/profile_background_images/449201336731439105/nfRXUnN5.jpeg
p195
sg25
VAdam Ralph
p196
sg154
Ven
p197
sg156
I01
sg157
I196
sg23
Vadamralph
p198
sg159
Nsg51
Vhttp://www.adamralph.com
p199
sg161
VFri May 11 16:22:53 +0000 2007
p200
sg163
I00
sg164
VBern
p201
sg166
I00
sg167
I00
sg168
I00
ssg169
Nsg170
V14671135
p202
sg172
I00
sg154
Ven
p203
sg161
VWed Jul 22 09:13:52 +0000 2015
p204
sVquoted_status_id_str
p205
V621411464713269248
p206
sg175
Vlow
p207
sg177
V623649239797776384
p208
sg179
(dp209
Vfull_name
p210
VZurich, Switzerland
p211
sg51
Vhttps://api.twitter.com/1.1/geo/id/3acb748d0f1e9265.json
p212
sVcountry
p213
VSchweiz
p214
sVplace_type
p215
Vcity
p216
sVbounding_box
p217
(dp218
Vtype
p219
VPolygon
p220
sg70
(lp221
(lp222
(lp223
F8.448081
aF47.320183
aa(lp224
F8.448081
aF47.434721
aa(lp225
F8.625442
aF47.434721
aa(lp226
F8.625442
aF47.320183
aaassVcountry_code
p227
VCH
p228
sVattributes
p229
(dp230
sg18
V3acb748d0f1e9265
p231
sg25
VZurich
p232
sssS'coordinates'
p233
NsS'timestamp_ms'
p234
g72
sS'quoted_status'
p235
g74
sS'source'
p236
VTwitter Web Client
p237
sS'in_reply_to_screen_name'
p238
g180
sS'id_str'
p239
g181
sS'retweet_count'
p240
I0
sS'in_reply_to_user_id'
p241
I14671135
sS'favorited'
p242
I00
sS'source_url'
p243
Vhttp://twitter.com
p244
sS'user'
p245
g0
(ctweepy.models
User
p246
g2
Ntp247
Rp248
(dp249
S'follow_request_sent'
p250
NsS'profile_use_background_image'
p251
I01
sS'profile_sidebar_fill_color'
p252
g184
sg11
I5966642
sS'verified'
p253
I00
sS'profile_image_url_https'
p254
g183
sg59
g182
sS'contributors_enabled'
p255
I00
sS'profile_text_color'
p256
g185
sS'followers_count'
p257
I1073
sS'profile_sidebar_border_color'
p258
g186
sS'location'
p259
g191
sS'default_profile_image'
p260
I00
sg239
g187
sS'utc_offset'
p261
I7200
sS'statuses_count'
p262
I7259
sS'description'
p263
g190
sS'friends_count'
p264
I503
sS'profile_link_color'
p265
g192
sS'profile_image_url'
p266
g193
sS'notifications'
p267
NsS'geo_enabled'
p268
I01
sS'profile_background_color'
p269
g188
sS'profile_banner_url'
p270
g194
sS'profile_background_image_url'
p271
g195
sS'name'
p272
g196
sS'lang'
p273
g197
sS'following'
p274
I00
sS'profile_background_tile'
p275
I01
sS'favourites_count'
p276
I196
sS'screen_name'
p277
g198
sS'url'
p278
g199
sS'created_at'
p279
cdatetime
datetime
p280
(S'\x07\xd7\x05\x0b\x10\x165\x00\x00\x00'
p281
tp282
Rp283
sS'profile_background_image_url_https'
p284
g189
sS'time_zone'
p285
g201
sS'protected'
p286
I00
sS'default_profile'
p287
I00
sS'is_translator'
p288
I00
sS'listed_count'
p289
I45
sbsS'geo'
p290
NsS'in_reply_to_user_id_str'
p291
g202
sS'possibly_sensitive'
p292
I00
sg273
g203
sg279
g280
(S'\x07\xdf\x07\x16\t\r4\x00\x00\x00'
p293
tp294
Rp295
sS'author'
p296
g248
sS'quoted_status_id_str'
p297
g206
sS'filter_level'
p298
g207
sS'in_reply_to_status_id_str'
p299
g208
sS'place'
p300
g0
(ctweepy.models
Place
p301
g2
Ntp302
Rp303
(dp304
S'full_name'
p305
g211
sg278
g212
sS'country'
p306
g214
sS'place_type'
p307
g216
sS'bounding_box'
p308
g0
(ctweepy.models
BoundingBox
p309
g2
Ntp310
Rp311
(dp312
S'type'
p313
g220
sg233
g221
sbsS'country_code'
p314
g228
sS'attributes'
p315
g230
sg11
g231
sg272
g232
sbsS'retweeted'
p316
I00
sb.