ccopy_reg
_reconstructor
p0
(ctweepy.models
Status
p1
c__builtin__
object
p2
Ntp3
Rp4
(dp5
S'favorited'
p6
I00
sS'contributors'
p7
NsS'truncated'
p8
I00
sS'text'
p9
V@3zouxz_ banonchi
p10
sS'source_url'
p11
Vhttp://twitter.com/download/iphone
p12
sS'possibly_sensitive'
p13
I00
sS'in_reply_to_status_id'
p14
I623741061559521281
sS'user'
p15
g0
(ctweepy.models
User
p16
g2
Ntp17
Rp18
(dp19
S'follow_request_sent'
p20
NsS'profile_use_background_image'
p21
I01
sS'profile_sidebar_fill_color'
p22
VDDEEF6
p23
sS'id'
p24
I3272147318
sS'verified'
p25
I00
sS'profile_image_url_https'
p26
Vhttps://pbs.twimg.com/profile_images/622854470800572416/cc5vm-TP_normal.jpg
p27
sS'_json'
p28
(dp29
Vfollow_request_sent
p30
NsVprofile_use_background_image
p31
I01
sVdefault_profile_image
p32
I00
sVid
p33
I3272147318
sVverified
p34
I00
sVprofile_image_url_https
p35
g27
sVprofile_sidebar_fill_color
p36
g23
sVprofile_text_color
p37
V333333
p38
sVfollowers_count
p39
I184
sVprofile_sidebar_border_color
p40
VC0DEED
p41
sVid_str
p42
V3272147318
p43
sVprofile_background_color
p44
VC0DEED
p45
sVlisted_count
p46
I0
sVprofile_background_image_url_https
p47
Vhttps://abs.twimg.com/images/themes/theme1/bg.png
p48
sVutc_offset
p49
NsVstatuses_count
p50
I581
sVdescription
p51
NsVfriends_count
p52
I176
sVlocation
p53
Vabudhabi&m7arag
p54
sVprofile_link_color
p55
V0084B4
p56
sVprofile_image_url
p57
Vhttp://pbs.twimg.com/profile_images/622854470800572416/cc5vm-TP_normal.jpg
p58
sVfollowing
p59
NsVgeo_enabled
p60
I01
sVprofile_banner_url
p61
Vhttps://pbs.twimg.com/profile_banners/3272147318/1437427571
p62
sVprofile_background_image_url
p63
Vhttp://abs.twimg.com/images/themes/theme1/bg.png
p64
sVname
p65
Vsm
p66
sVlang
p67
Ven
p68
sVprofile_background_tile
p69
I00
sVfavourites_count
p70
I79
sVscreen_name
p71
Vsvlamh
p72
sVnotifications
p73
NsVurl
p74
NsVcreated_at
p75
VWed Jul 08 18:18:53 +0000 2015
p76
sVcontributors_enabled
p77
I00
sVtime_zone
p78
NsVprotected
p79
I00
sVdefault_profile
p80
I01
sVis_translator
p81
I00
ssS'contributors_enabled'
p82
I00
sS'profile_text_color'
p83
g38
sS'followers_count'
p84
I184
sS'profile_sidebar_border_color'
p85
g41
sS'location'
p86
g54
sS'default_profile_image'
p87
I00
sS'id_str'
p88
g43
sS'utc_offset'
p89
NsS'statuses_count'
p90
I581
sS'description'
p91
NsS'friends_count'
p92
I176
sS'profile_link_color'
p93
g56
sS'profile_image_url'
p94
g58
sS'notifications'
p95
NsS'geo_enabled'
p96
I01
sS'profile_background_color'
p97
g45
sS'profile_banner_url'
p98
g62
sS'profile_background_image_url'
p99
g64
sS'name'
p100
g66
sS'lang'
p101
g68
sS'following'
p102
I00
sS'profile_background_tile'
p103
I00
sS'favourites_count'
p104
I79
sS'screen_name'
p105
g72
sS'url'
p106
NsS'created_at'
p107
cdatetime
datetime
p108
(S'\x07\xdf\x07\x08\x12\x125\x00\x00\x00'
p109
tp110
Rp111
sS'profile_background_image_url_https'
p112
g48
sS'time_zone'
p113
NsS'protected'
p114
I00
sS'default_profile'
p115
I01
sS'is_translator'
p116
I00
sS'listed_count'
p117
I0
sbsS'filter_level'
p118
Vlow
p119
sS'geo'
p120
Nsg24
I623802310465032192
sS'favorite_count'
p121
I0
sS'source'
p122
VTwitter for iPhone
p123
sg101
Vit
p124
sS'author'
p125
g18
sS'in_reply_to_user_id_str'
p126
V2748188684
p127
sg28
(dp128
Vcontributors
p129
NsVtruncated
p130
I00
sVtext
p131
g10
sVin_reply_to_status_id
p132
I623741061559521281
sg33
I623802310465032192
sVfavorite_count
p133
I0
sVsource
p134
V<a href="http://twitter.com/download/iphone" rel="nofollow">Twitter for iPhone</a>
p135
sVretweeted
p136
I00
sVcoordinates
p137
NsVtimestamp_ms
p138
V1437561035158
p139
sVentities
p140
(dp141
Vuser_mentions
p142
(lp143
(dp144
g33
I2748188684
sVindices
p145
(lp146
I0
aI8
asg42
V2748188684
p147
sg71
V3zouxz_
p148
sg65
Vaz
p149
sasVsymbols
p150
(lp151
sVtrends
p152
(lp153
sVhashtags
p154
(lp155
sVurls
p156
(lp157
ssVin_reply_to_screen_name
p158
V3zouxz_
p159
sg42
V623802310465032192
p160
sVretweet_count
p161
I0
sVin_reply_to_user_id
p162
I2748188684
sVfavorited
p163
I00
sVuser
p164
g29
sVgeo
p165
NsVin_reply_to_user_id_str
p166
g127
sVpossibly_sensitive
p167
I00
sg67
g124
sg75
VWed Jul 22 10:30:35 +0000 2015
p168
sVfilter_level
p169
g119
sVin_reply_to_status_id_str
p170
V623741061559521281
p171
sVplace
p172
(dp173
Vfull_name
p174
VZurich, Switzerland
p175
sg74
Vhttps://api.twitter.com/1.1/geo/id/3acb748d0f1e9265.json
p176
sVcountry
p177
VSchweiz
p178
sVplace_type
p179
Vcity
p180
sVbounding_box
p181
(dp182
Vtype
p183
VPolygon
p184
sg137
(lp185
(lp186
(lp187
F8.448081
aF47.320183
aa(lp188
F8.448081
aF47.434721
aa(lp189
F8.625442
aF47.434721
aa(lp190
F8.625442
aF47.320183
aaassVcountry_code
p191
VCH
p192
sVattributes
p193
(dp194
sg33
V3acb748d0f1e9265
p195
sg65
VZurich
p196
sssS'coordinates'
p197
NsS'timestamp_ms'
p198
g139
sS'entities'
p199
g141
sS'in_reply_to_status_id_str'
p200
g171
sS'in_reply_to_screen_name'
p201
g159
sg88
g160
sS'retweeted'
p202
I00
sS'place'
p203
g0
(ctweepy.models
Place
p204
g2
Ntp205
Rp206
(dp207
S'full_name'
p208
g175
sg106
g176
sS'country'
p209
g178
sS'place_type'
p210
g180
sS'bounding_box'
p211
g0
(ctweepy.models
BoundingBox
p212
g2
Ntp213
Rp214
(dp215
S'type'
p216
g184
sg197
g185
sbsS'country_code'
p217
g192
sS'attributes'
p218
g194
sg24
g195
sg100
g196
sbsS'retweet_count'
p219
I0
sg107
g108
(S'\x07\xdf\x07\x16\n\x1e#\x00\x00\x00'
p220
tp221
Rp222
sS'in_reply_to_user_id'
p223
I2748188684
sb.