ccopy_reg
_reconstructor
p0
(ctweepy.models
Status
p1
c__builtin__
object
p2
Ntp3
Rp4
(dp5
S'favorited'
p6
I00
sS'contributors'
p7
NsS'truncated'
p8
I00
sS'text'
p9
VThank you #Zimbabwe for anchoring my soul. #Zimbabwe http://t.co/jWp3XCzuLs \u2026 @263Chat @TheZimbabwean @MurewaKwaWiri @FariraiG
p10
sS'source_url'
p11
Vhttp://twitter.com
p12
sS'possibly_sensitive'
p13
I00
sS'in_reply_to_status_id'
p14
NsS'user'
p15
g0
(ctweepy.models
User
p16
g2
Ntp17
Rp18
(dp19
S'follow_request_sent'
p20
NsS'profile_use_background_image'
p21
I01
sS'profile_sidebar_fill_color'
p22
VDAECF4
p23
sS'id'
p24
I124889369
sS'verified'
p25
I00
sS'profile_image_url_https'
p26
Vhttps://pbs.twimg.com/profile_images/591615636482215936/RYPr-G8C_normal.jpg
p27
sS'_json'
p28
(dp29
Vfollow_request_sent
p30
NsVprofile_use_background_image
p31
I01
sVdefault_profile_image
p32
I00
sVid
p33
I124889369
sVverified
p34
I00
sVprofile_image_url_https
p35
g27
sVprofile_sidebar_fill_color
p36
g23
sVprofile_text_color
p37
V663B12
p38
sVfollowers_count
p39
I3545
sVprofile_sidebar_border_color
p40
VC6E2EE
p41
sVid_str
p42
V124889369
p43
sVprofile_background_color
p44
VC6E2EE
p45
sVlisted_count
p46
I87
sVprofile_background_image_url_https
p47
Vhttps://abs.twimg.com/images/themes/theme2/bg.gif
p48
sVutc_offset
p49
I7200
sVstatuses_count
p50
I5135
sVdescription
p51
Vrights | justice | leadership |development        General Secretary - World YWCA | African Union Goodwill Ambassador  for Campaign to End Child Marriage
p52
sVfriends_count
p53
I2255
sVlocation
p54
VSwitzerland
p55
sVprofile_link_color
p56
V1F98C7
p57
sVprofile_image_url
p58
Vhttp://pbs.twimg.com/profile_images/591615636482215936/RYPr-G8C_normal.jpg
p59
sVfollowing
p60
NsVgeo_enabled
p61
I01
sVprofile_banner_url
p62
Vhttps://pbs.twimg.com/profile_banners/124889369/1436118884
p63
sVprofile_background_image_url
p64
Vhttp://abs.twimg.com/images/themes/theme2/bg.gif
p65
sVname
p66
VNyaradzayi 
p67
sVlang
p68
Ven
p69
sVprofile_background_tile
p70
I00
sVfavourites_count
p71
I2856
sVscreen_name
p72
Vvanyaradzayi
p73
sVnotifications
p74
NsVurl
p75
Vhttps://www.facebook.com/Nyaradzai.Gumbonzvanda
p76
sVcreated_at
p77
VSat Mar 20 23:15:49 +0000 2010
p78
sVcontributors_enabled
p79
I00
sVtime_zone
p80
VVienna
p81
sVprotected
p82
I00
sVdefault_profile
p83
I00
sVis_translator
p84
I00
ssS'contributors_enabled'
p85
I00
sS'profile_text_color'
p86
g38
sS'followers_count'
p87
I3545
sS'profile_sidebar_border_color'
p88
g41
sS'location'
p89
g55
sS'default_profile_image'
p90
I00
sS'id_str'
p91
g43
sS'utc_offset'
p92
I7200
sS'statuses_count'
p93
I5135
sS'description'
p94
g52
sS'friends_count'
p95
I2255
sS'profile_link_color'
p96
g57
sS'profile_image_url'
p97
g59
sS'notifications'
p98
NsS'geo_enabled'
p99
I01
sS'profile_background_color'
p100
g45
sS'profile_banner_url'
p101
g63
sS'profile_background_image_url'
p102
g65
sS'name'
p103
g67
sS'lang'
p104
g69
sS'following'
p105
I00
sS'profile_background_tile'
p106
I00
sS'favourites_count'
p107
I2856
sS'screen_name'
p108
g73
sS'url'
p109
g76
sS'created_at'
p110
cdatetime
datetime
p111
(S'\x07\xda\x03\x14\x17\x0f1\x00\x00\x00'
p112
tp113
Rp114
sS'profile_background_image_url_https'
p115
g48
sS'time_zone'
p116
g81
sS'protected'
p117
I00
sS'default_profile'
p118
I00
sS'is_translator'
p119
I00
sS'listed_count'
p120
I87
sbsS'filter_level'
p121
Vlow
p122
sS'geo'
p123
Nsg24
I621658681898323968
sS'favorite_count'
p124
I0
sS'source'
p125
VTwitter Web Client
p126
sg104
Ven
p127
sS'author'
p128
g18
sS'in_reply_to_user_id_str'
p129
Nsg28
(dp130
Vcontributors
p131
NsVtruncated
p132
I00
sVtext
p133
g10
sVin_reply_to_status_id
p134
Nsg33
I621658681898323968
sVfavorite_count
p135
I0
sVsource
p136
V<a href="http://twitter.com" rel="nofollow">Twitter Web Client</a>
p137
sVretweeted
p138
I00
sVcoordinates
p139
NsVtimestamp_ms
p140
V1437049954281
p141
sVentities
p142
(dp143
Vuser_mentions
p144
(lp145
(dp146
g33
I892792496
sVindices
p147
(lp148
I78
aI86
asg42
V892792496
p149
sg72
V263Chat
p150
sg66
V263Chat
p151
sa(dp152
g33
I128238501
sg147
(lp153
I87
aI101
asg42
V128238501
p154
sg72
VTheZimbabwean
p155
sg66
Vthezimbabwean
p156
sa(dp157
g33
I3207061247
sg147
(lp158
I102
aI116
asg42
V3207061247
p159
sg72
VMurewaKwaWiri
p160
sg66
VMurewa-kwaWiri
p161
sa(dp162
g33
I525784074
sg147
(lp163
I117
aI126
asg42
V525784074
p164
sg72
VFariraiG
p165
sg66
VFarirai Gumbonzvanda
p166
sasVsymbols
p167
(lp168
sVtrends
p169
(lp170
sVhashtags
p171
(lp172
(dp173
g147
(lp174
I10
aI19
asg133
VZimbabwe
p175
sa(dp176
g147
(lp177
I43
aI52
asg133
VZimbabwe
p178
sasVurls
p179
(lp180
(dp181
g75
Vhttp://t.co/jWp3XCzuLs
p182
sg147
(lp183
I53
aI75
asVexpanded_url
p184
Vhttp://www.thezimbabwean.co/news/zimbabwe-news/76397/top-aid-post-for-gumbonzvanda.html
p185
sVdisplay_url
p186
Vthezimbabwean.co/news/zimbabwe-\u2026
p187
sassVin_reply_to_screen_name
p188
Nsg42
V621658681898323968
p189
sVretweet_count
p190
I0
sVin_reply_to_user_id
p191
NsVfavorited
p192
I00
sVuser
p193
g29
sVgeo
p194
NsVin_reply_to_user_id_str
p195
NsVpossibly_sensitive
p196
I00
sg68
g127
sg77
VThu Jul 16 12:32:34 +0000 2015
p197
sVfilter_level
p198
g122
sVin_reply_to_status_id_str
p199
NsVplace
p200
(dp201
Vfull_name
p202
VZurich, Switzerland
p203
sg75
Vhttps://api.twitter.com/1.1/geo/id/3acb748d0f1e9265.json
p204
sVcountry
p205
VSchweiz
p206
sVplace_type
p207
Vcity
p208
sVbounding_box
p209
(dp210
Vtype
p211
VPolygon
p212
sg139
(lp213
(lp214
(lp215
F8.448081
aF47.320183
aa(lp216
F8.448081
aF47.434721
aa(lp217
F8.625442
aF47.434721
aa(lp218
F8.625442
aF47.320183
aaassVcountry_code
p219
VCH
p220
sVattributes
p221
(dp222
sg33
V3acb748d0f1e9265
p223
sg66
VZurich
p224
sssS'coordinates'
p225
NsS'timestamp_ms'
p226
g141
sS'entities'
p227
g143
sS'in_reply_to_status_id_str'
p228
NsS'in_reply_to_screen_name'
p229
Nsg91
g189
sS'retweeted'
p230
I00
sS'place'
p231
g0
(ctweepy.models
Place
p232
g2
Ntp233
Rp234
(dp235
S'full_name'
p236
g203
sg109
g204
sS'country'
p237
g206
sS'place_type'
p238
g208
sS'bounding_box'
p239
g0
(ctweepy.models
BoundingBox
p240
g2
Ntp241
Rp242
(dp243
S'type'
p244
g212
sg225
g213
sbsS'country_code'
p245
g220
sS'attributes'
p246
g222
sg24
g223
sg103
g224
sbsS'retweet_count'
p247
I0
sg110
g111
(S'\x07\xdf\x07\x10\x0c "\x00\x00\x00'
p248
tp249
Rp250
sS'in_reply_to_user_id'
p251
Nsb.