ccopy_reg
_reconstructor
p0
(ctweepy.models
Status
p1
c__builtin__
object
p2
Ntp3
Rp4
(dp5
S'favorited'
p6
I00
sS'contributors'
p7
NsS'truncated'
p8
I00
sS'text'
p9
VPause between meetings in #Zurich ! #hotsohot #swisslife #dontdothisintheseine @ Zurich, Swiss https://t.co/yva6xm4iBN
p10
sS'source_url'
p11
Vhttp://instagram.com
p12
sS'possibly_sensitive'
p13
I00
sS'in_reply_to_status_id'
p14
NsS'user'
p15
g0
(ctweepy.models
User
p16
g2
Ntp17
Rp18
(dp19
S'follow_request_sent'
p20
NsS'profile_use_background_image'
p21
I00
sS'profile_sidebar_fill_color'
p22
V000000
p23
sS'id'
p24
I347262368
sS'verified'
p25
I00
sS'profile_image_url_https'
p26
Vhttps://pbs.twimg.com/profile_images/578869867962568704/8wrl6nm2_normal.jpeg
p27
sS'_json'
p28
(dp29
Vfollow_request_sent
p30
NsVprofile_use_background_image
p31
I00
sVdefault_profile_image
p32
I00
sVid
p33
I347262368
sVverified
p34
I00
sVprofile_image_url_https
p35
g27
sVprofile_sidebar_fill_color
p36
g23
sVprofile_text_color
p37
V000000
p38
sVfollowers_count
p39
I172
sVprofile_sidebar_border_color
p40
V000000
p41
sVid_str
p42
V347262368
p43
sVprofile_background_color
p44
V000000
p45
sVlisted_count
p46
I7
sVprofile_background_image_url_https
p47
Vhttps://abs.twimg.com/images/themes/theme1/bg.png
p48
sVutc_offset
p49
I7200
sVstatuses_count
p50
I1830
sVdescription
p51
VReading, drinking wine, eating cheese, mincing around Paris. WSJ worker drone, views my own.
p52
sVfriends_count
p53
I460
sVlocation
p54
VParis, obv
p55
sVprofile_link_color
p56
V94D487
p57
sVprofile_image_url
p58
Vhttp://pbs.twimg.com/profile_images/578869867962568704/8wrl6nm2_normal.jpeg
p59
sVfollowing
p60
NsVgeo_enabled
p61
I01
sVprofile_banner_url
p62
Vhttps://pbs.twimg.com/profile_banners/347262368/1426848158
p63
sVprofile_background_image_url
p64
Vhttp://abs.twimg.com/images/themes/theme1/bg.png
p65
sVname
p66
VKatie Allen
p67
sVlang
p68
Ven
p69
sVprofile_background_tile
p70
I00
sVfavourites_count
p71
I4
sVscreen_name
p72
Vparis_katie
p73
sVnotifications
p74
NsVurl
p75
NsVcreated_at
p76
VTue Aug 02 14:38:04 +0000 2011
p77
sVcontributors_enabled
p78
I00
sVtime_zone
p79
VParis
p80
sVprotected
p81
I00
sVdefault_profile
p82
I00
sVis_translator
p83
I00
ssS'contributors_enabled'
p84
I00
sS'profile_text_color'
p85
g38
sS'followers_count'
p86
I172
sS'profile_sidebar_border_color'
p87
g41
sS'location'
p88
g55
sS'default_profile_image'
p89
I00
sS'id_str'
p90
g43
sS'utc_offset'
p91
I7200
sS'statuses_count'
p92
I1830
sS'description'
p93
g52
sS'friends_count'
p94
I460
sS'profile_link_color'
p95
g57
sS'profile_image_url'
p96
g59
sS'notifications'
p97
NsS'geo_enabled'
p98
I01
sS'profile_background_color'
p99
g45
sS'profile_banner_url'
p100
g63
sS'profile_background_image_url'
p101
g65
sS'name'
p102
g67
sS'lang'
p103
g69
sS'following'
p104
I00
sS'profile_background_tile'
p105
I00
sS'favourites_count'
p106
I4
sS'screen_name'
p107
g73
sS'url'
p108
NsS'created_at'
p109
cdatetime
datetime
p110
(S'\x07\xdb\x08\x02\x0e&\x04\x00\x00\x00'
p111
tp112
Rp113
sS'profile_background_image_url_https'
p114
g48
sS'time_zone'
p115
g80
sS'protected'
p116
I00
sS'default_profile'
p117
I00
sS'is_translator'
p118
I00
sS'listed_count'
p119
I7
sbsS'filter_level'
p120
Vlow
p121
sS'geo'
p122
(dp123
Vtype
p124
VPoint
p125
sVcoordinates
p126
(lp127
F47.380984
aF8.503636
assg24
I621665601308749825
sS'favorite_count'
p128
I0
sS'source'
p129
VInstagram
p130
sg103
Ven
p131
sS'author'
p132
g18
sS'in_reply_to_user_id_str'
p133
Nsg28
(dp134
Vcontributors
p135
NsVtruncated
p136
I00
sVtext
p137
g10
sVin_reply_to_status_id
p138
Nsg33
I621665601308749825
sVfavorite_count
p139
I0
sVsource
p140
V<a href="http://instagram.com" rel="nofollow">Instagram</a>
p141
sVretweeted
p142
I00
sg126
(dp143
g124
VPoint
p144
sg126
(lp145
F8.503636
aF47.380984
assVtimestamp_ms
p146
V1437051603997
p147
sVentities
p148
(dp149
Vuser_mentions
p150
(lp151
sVsymbols
p152
(lp153
sVtrends
p154
(lp155
sVhashtags
p156
(lp157
(dp158
Vindices
p159
(lp160
I26
aI33
asg137
VZurich
p161
sa(dp162
g159
(lp163
I36
aI45
asg137
Vhotsohot
p164
sa(dp165
g159
(lp166
I46
aI56
asg137
Vswisslife
p167
sa(dp168
g159
(lp169
I57
aI78
asg137
Vdontdothisintheseine
p170
sasVurls
p171
(lp172
(dp173
g75
Vhttps://t.co/yva6xm4iBN
p174
sg159
(lp175
I95
aI118
asVexpanded_url
p176
Vhttps://instagram.com/p/5MqpjYiT1u/
p177
sVdisplay_url
p178
Vinstagram.com/p/5MqpjYiT1u/
p179
sassVin_reply_to_screen_name
p180
Nsg42
V621665601308749825
p181
sVretweet_count
p182
I0
sVin_reply_to_user_id
p183
NsVfavorited
p184
I00
sVuser
p185
g29
sVgeo
p186
g123
sVin_reply_to_user_id_str
p187
NsVpossibly_sensitive
p188
I00
sg68
g131
sg76
VThu Jul 16 13:00:03 +0000 2015
p189
sVfilter_level
p190
g121
sVin_reply_to_status_id_str
p191
NsVplace
p192
(dp193
Vfull_name
p194
VZurich, Switzerland
p195
sg75
Vhttps://api.twitter.com/1.1/geo/id/3acb748d0f1e9265.json
p196
sVcountry
p197
VSchweiz
p198
sVplace_type
p199
Vcity
p200
sVbounding_box
p201
(dp202
g124
VPolygon
p203
sg126
(lp204
(lp205
(lp206
F8.448081
aF47.320183
aa(lp207
F8.448081
aF47.434721
aa(lp208
F8.625442
aF47.434721
aa(lp209
F8.625442
aF47.320183
aaassVcountry_code
p210
VCH
p211
sVattributes
p212
(dp213
sg33
V3acb748d0f1e9265
p214
sg66
VZurich
p215
sssS'coordinates'
p216
g143
sS'timestamp_ms'
p217
g147
sS'entities'
p218
g149
sS'in_reply_to_status_id_str'
p219
NsS'in_reply_to_screen_name'
p220
Nsg90
g181
sS'retweeted'
p221
I00
sS'place'
p222
g0
(ctweepy.models
Place
p223
g2
Ntp224
Rp225
(dp226
S'full_name'
p227
g195
sg108
g196
sS'country'
p228
g198
sS'place_type'
p229
g200
sS'bounding_box'
p230
g0
(ctweepy.models
BoundingBox
p231
g2
Ntp232
Rp233
(dp234
S'type'
p235
g203
sg216
g204
sbsS'country_code'
p236
g211
sS'attributes'
p237
g213
sg24
g214
sg102
g215
sbsS'retweet_count'
p238
I0
sg109
g110
(S'\x07\xdf\x07\x10\r\x00\x03\x00\x00\x00'
p239
tp240
Rp241
sS'in_reply_to_user_id'
p242
Nsb.