ccopy_reg
_reconstructor
p0
(ctweepy.models
Status
p1
c__builtin__
object
p2
Ntp3
Rp4
(dp5
S'favorited'
p6
I00
sS'contributors'
p7
NsS'truncated'
p8
I00
sS'text'
p9
V\u0653
p10
sS'source_url'
p11
Vhttp://twitter.com/download/android
p12
sS'possibly_sensitive'
p13
I00
sS'in_reply_to_status_id'
p14
NsS'user'
p15
g0
(ctweepy.models
User
p16
g2
Ntp17
Rp18
(dp19
S'follow_request_sent'
p20
NsS'profile_use_background_image'
p21
I01
sS'profile_sidebar_fill_color'
p22
VE3E2DE
p23
sS'id'
p24
I396006717
sS'verified'
p25
I00
sS'profile_image_url_https'
p26
Vhttps://pbs.twimg.com/profile_images/528630049906229248/NrO-hVU1_normal.jpeg
p27
sS'_json'
p28
(dp29
Vfollow_request_sent
p30
NsVprofile_use_background_image
p31
I01
sVdefault_profile_image
p32
I00
sVid
p33
I396006717
sVverified
p34
I00
sVprofile_image_url_https
p35
g27
sVprofile_sidebar_fill_color
p36
g23
sVprofile_text_color
p37
V634047
p38
sVfollowers_count
p39
I81
sVprofile_sidebar_border_color
p40
VD3D2CF
p41
sVid_str
p42
V396006717
p43
sVprofile_background_color
p44
VEDECE9
p45
sVlisted_count
p46
I0
sVprofile_background_image_url_https
p47
Vhttps://abs.twimg.com/images/themes/theme1/bg.png
p48
sVutc_offset
p49
I10800
sVstatuses_count
p50
I1556
sVdescription
p51
NsVfriends_count
p52
I180
sVlocation
p53
V
p54
sVprofile_link_color
p55
V458069
p56
sVprofile_image_url
p57
Vhttp://pbs.twimg.com/profile_images/528630049906229248/NrO-hVU1_normal.jpeg
p58
sVfollowing
p59
NsVgeo_enabled
p60
I01
sVprofile_banner_url
p61
Vhttps://pbs.twimg.com/profile_banners/396006717/1402338840
p62
sVprofile_background_image_url
p63
Vhttp://abs.twimg.com/images/themes/theme1/bg.png
p64
sVname
p65
V\u0639\u0628\u062f\u0627\u0644\u0631\u062d\u0645\u0646
p66
sVlang
p67
Var
p68
sVprofile_background_tile
p69
I00
sVfavourites_count
p70
I0
sVscreen_name
p71
ViD7EMAN
p72
sVnotifications
p73
NsVurl
p74
Vhttp://ask.fm/D7EMAN
p75
sVcreated_at
p76
VSat Oct 22 16:08:44 +0000 2011
p77
sVcontributors_enabled
p78
I00
sVtime_zone
p79
VRiyadh
p80
sVprotected
p81
I00
sVdefault_profile
p82
I00
sVis_translator
p83
I00
ssS'contributors_enabled'
p84
I00
sS'profile_text_color'
p85
g38
sS'followers_count'
p86
I81
sS'profile_sidebar_border_color'
p87
g41
sS'location'
p88
g54
sS'default_profile_image'
p89
I00
sS'id_str'
p90
g43
sS'utc_offset'
p91
I10800
sS'statuses_count'
p92
I1556
sS'description'
p93
NsS'friends_count'
p94
I180
sS'profile_link_color'
p95
g56
sS'profile_image_url'
p96
g58
sS'notifications'
p97
NsS'geo_enabled'
p98
I01
sS'profile_background_color'
p99
g45
sS'profile_banner_url'
p100
g62
sS'profile_background_image_url'
p101
g64
sS'name'
p102
g66
sS'lang'
p103
g68
sS'following'
p104
I00
sS'profile_background_tile'
p105
I00
sS'favourites_count'
p106
I0
sS'screen_name'
p107
g72
sS'url'
p108
g75
sS'created_at'
p109
cdatetime
datetime
p110
(S'\x07\xdb\n\x16\x10\x08,\x00\x00\x00'
p111
tp112
Rp113
sS'profile_background_image_url_https'
p114
g48
sS'time_zone'
p115
g80
sS'protected'
p116
I00
sS'default_profile'
p117
I00
sS'is_translator'
p118
I00
sS'listed_count'
p119
I0
sbsS'filter_level'
p120
Vlow
p121
sS'geo'
p122
Nsg24
I621599372636073984
sS'favorite_count'
p123
I0
sS'source'
p124
VTwitter for Android
p125
sg103
Var
p126
sS'author'
p127
g18
sS'in_reply_to_user_id_str'
p128
Nsg28
(dp129
Vcontributors
p130
NsVtruncated
p131
I00
sVtext
p132
g10
sVin_reply_to_status_id
p133
Nsg33
I621599372636073984
sVfavorite_count
p134
I0
sVsource
p135
V<a href="http://twitter.com/download/android" rel="nofollow">Twitter for Android</a>
p136
sVretweeted
p137
I00
sVcoordinates
p138
NsVtimestamp_ms
p139
V1437035813851
p140
sVentities
p141
(dp142
Vuser_mentions
p143
(lp144
sVsymbols
p145
(lp146
sVtrends
p147
(lp148
sVhashtags
p149
(lp150
sVurls
p151
(lp152
ssVin_reply_to_screen_name
p153
Nsg42
V621599372636073984
p154
sVretweet_count
p155
I0
sVin_reply_to_user_id
p156
NsVfavorited
p157
I00
sVuser
p158
g29
sVgeo
p159
NsVin_reply_to_user_id_str
p160
NsVpossibly_sensitive
p161
I00
sg67
g126
sg76
VThu Jul 16 08:36:53 +0000 2015
p162
sVfilter_level
p163
g121
sVin_reply_to_status_id_str
p164
NsVplace
p165
(dp166
Vfull_name
p167
VBern, Schweiz
p168
sg74
Vhttps://api.twitter.com/1.1/geo/id/5868d0e0749c9c47.json
p169
sVcountry
p170
VSchweiz
p171
sVplace_type
p172
Vadmin
p173
sVbounding_box
p174
(dp175
Vtype
p176
VPolygon
p177
sg138
(lp178
(lp179
(lp180
F6.861601
aF46.326441
aa(lp181
F6.861601
aF47.34528
aa(lp182
F8.455051
aF47.34528
aa(lp183
F8.455051
aF46.326441
aaassVcountry_code
p184
VCH
p185
sVattributes
p186
(dp187
sg33
V5868d0e0749c9c47
p188
sg65
VBern
p189
sssS'coordinates'
p190
NsS'timestamp_ms'
p191
g140
sS'entities'
p192
g142
sS'in_reply_to_status_id_str'
p193
NsS'in_reply_to_screen_name'
p194
Nsg90
g154
sS'retweeted'
p195
I00
sS'place'
p196
g0
(ctweepy.models
Place
p197
g2
Ntp198
Rp199
(dp200
S'full_name'
p201
g168
sg108
g169
sS'country'
p202
g171
sS'place_type'
p203
g173
sS'bounding_box'
p204
g0
(ctweepy.models
BoundingBox
p205
g2
Ntp206
Rp207
(dp208
S'type'
p209
g177
sg190
g178
sbsS'country_code'
p210
g185
sS'attributes'
p211
g187
sg24
g188
sg102
g189
sbsS'retweet_count'
p212
I0
sg109
g110
(S'\x07\xdf\x07\x10\x08$5\x00\x00\x00'
p213
tp214
Rp215
sS'in_reply_to_user_id'
p216
Nsb.