ccopy_reg
_reconstructor
p0
(ctweepy.models
Status
p1
c__builtin__
object
p2
Ntp3
Rp4
(dp5
S'favorited'
p6
I00
sS'contributors'
p7
NsS'truncated'
p8
I00
sS'text'
p9
V@csschweiz not even all Swiss employees (18'000) have downloaded own banking app @UrsBolt have you? #finance20 http://t.co/9i19JYBjlR
p10
sS'source_url'
p11
Vhttp://twitter.com
p12
sS'possibly_sensitive'
p13
I00
sS'in_reply_to_status_id'
p14
NsS'user'
p15
g0
(ctweepy.models
User
p16
g2
Ntp17
Rp18
(dp19
S'follow_request_sent'
p20
NsS'profile_use_background_image'
p21
I01
sS'profile_sidebar_fill_color'
p22
VDDEEF6
p23
sS'id'
p24
I79455681
sS'verified'
p25
I00
sS'profile_image_url_https'
p26
Vhttps://pbs.twimg.com/profile_images/2217539556/sme4_normal.jpg
p27
sS'_json'
p28
(dp29
Vfollow_request_sent
p30
NsVprofile_use_background_image
p31
I01
sVdefault_profile_image
p32
I00
sVid
p33
I79455681
sVverified
p34
I00
sVprofile_image_url_https
p35
g27
sVprofile_sidebar_fill_color
p36
g23
sVprofile_text_color
p37
V333333
p38
sVfollowers_count
p39
I5716
sVprofile_sidebar_border_color
p40
VFFFFFF
p41
sVid_str
p42
V79455681
p43
sVprofile_background_color
p44
VACDED6
p45
sVlisted_count
p46
I224
sVprofile_background_image_url_https
p47
Vhttps://pbs.twimg.com/profile_background_images/756432110/154b0ce48c95a6968198fc2b9a1d8d6f.jpeg
p48
sVutc_offset
p49
I7200
sVstatuses_count
p50
I17108
sVdescription
p51
VManaging Director Swiss Representation Dinar Finance Group / Consultant Banking & Social Media / GLP Member
p52
sVfriends_count
p53
I2194
sVlocation
p54
VZurich
p55
sVprofile_link_color
p56
V038543
p57
sVprofile_image_url
p58
Vhttp://pbs.twimg.com/profile_images/2217539556/sme4_normal.jpg
p59
sVfollowing
p60
NsVgeo_enabled
p61
I01
sVprofile_banner_url
p62
Vhttps://pbs.twimg.com/profile_banners/79455681/1355591292
p63
sVprofile_background_image_url
p64
Vhttp://pbs.twimg.com/profile_background_images/756432110/154b0ce48c95a6968198fc2b9a1d8d6f.jpeg
p65
sVname
p66
VMarc Lussy
p67
sVlang
p68
Ven
p69
sVprofile_background_tile
p70
I00
sVfavourites_count
p71
I2754
sVscreen_name
p72
VMarcLussy
p73
sVnotifications
p74
NsVurl
p75
Vhttp://www.dinargroup.com.br/
p76
sVcreated_at
p77
VSat Oct 03 13:02:36 +0000 2009
p78
sVcontributors_enabled
p79
I00
sVtime_zone
p80
VVienna
p81
sVprotected
p82
I00
sVdefault_profile
p83
I00
sVis_translator
p84
I00
ssS'contributors_enabled'
p85
I00
sS'profile_text_color'
p86
g38
sS'followers_count'
p87
I5716
sS'profile_sidebar_border_color'
p88
g41
sS'location'
p89
g55
sS'default_profile_image'
p90
I00
sS'id_str'
p91
g43
sS'utc_offset'
p92
I7200
sS'statuses_count'
p93
I17108
sS'description'
p94
g52
sS'friends_count'
p95
I2194
sS'profile_link_color'
p96
g57
sS'profile_image_url'
p97
g59
sS'notifications'
p98
NsS'geo_enabled'
p99
I01
sS'profile_background_color'
p100
g45
sS'profile_banner_url'
p101
g63
sS'profile_background_image_url'
p102
g65
sS'name'
p103
g67
sS'lang'
p104
g69
sS'following'
p105
I00
sS'profile_background_tile'
p106
I00
sS'favourites_count'
p107
I2754
sS'screen_name'
p108
g73
sS'url'
p109
g76
sS'created_at'
p110
cdatetime
datetime
p111
(S'\x07\xd9\n\x03\r\x02$\x00\x00\x00'
p112
tp113
Rp114
sS'profile_background_image_url_https'
p115
g48
sS'time_zone'
p116
g81
sS'protected'
p117
I00
sS'default_profile'
p118
I00
sS'is_translator'
p119
I00
sS'listed_count'
p120
I224
sbsS'filter_level'
p121
Vlow
p122
sS'geo'
p123
Nsg24
I621612842492538881
sS'favorite_count'
p124
I0
sS'source'
p125
VTwitter Web Client
p126
sg104
Ven
p127
sS'author'
p128
g18
sS'in_reply_to_user_id_str'
p129
V1100573479
p130
sg28
(dp131
Vcontributors
p132
NsVtruncated
p133
I00
sVtext
p134
g10
sVin_reply_to_status_id
p135
Nsg33
I621612842492538881
sVfavorite_count
p136
I0
sVsource
p137
V<a href="http://twitter.com" rel="nofollow">Twitter Web Client</a>
p138
sVretweeted
p139
I00
sVcoordinates
p140
NsVtimestamp_ms
p141
V1437039025315
p142
sVentities
p143
(dp144
Vsymbols
p145
(lp146
sVmedia
p147
(lp148
(dp149
Vexpanded_url
p150
Vhttp://twitter.com/MarcLussy/status/621612842492538881/photo/1
p151
sVdisplay_url
p152
Vpic.twitter.com/9i19JYBjlR
p153
sg75
Vhttp://t.co/9i19JYBjlR
p154
sVmedia_url_https
p155
Vhttps://pbs.twimg.com/media/CKBplc9WsAAHn89.png
p156
sg42
V621612840726736896
p157
sVsizes
p158
(dp159
Vlarge
p160
(dp161
Vh
p162
I623
sVresize
p163
Vfit
p164
sVw
p165
I1024
ssVsmall
p166
(dp167
g162
I206
sg163
Vfit
p168
sg165
I340
ssVmedium
p169
(dp170
g162
I365
sg163
Vfit
p171
sg165
I600
ssVthumb
p172
(dp173
g162
I150
sg163
Vcrop
p174
sg165
I150
sssVindices
p175
(lp176
I111
aI133
asVtype
p177
Vphoto
p178
sg33
I621612840726736896
sVmedia_url
p179
Vhttp://pbs.twimg.com/media/CKBplc9WsAAHn89.png
p180
sasVhashtags
p181
(lp182
(dp183
g175
(lp184
I100
aI110
asg134
Vfinance20
p185
sasVuser_mentions
p186
(lp187
(dp188
g33
I1100573479
sg175
(lp189
I0
aI10
asg42
V1100573479
p190
sg72
Vcsschweiz
p191
sg66
VCredit Suisse CH
p192
sa(dp193
g33
I875122621
sg175
(lp194
I81
aI89
asg42
V875122621
p195
sg72
VUrsBolt
p196
sg66
VUrs Bolt
p197
sasVtrends
p198
(lp199
sVurls
p200
(lp201
ssVin_reply_to_screen_name
p202
Vcsschweiz
p203
sg42
V621612842492538881
p204
sVretweet_count
p205
I0
sVin_reply_to_user_id
p206
I1100573479
sVfavorited
p207
I00
sVuser
p208
g29
sVgeo
p209
NsVin_reply_to_user_id_str
p210
g130
sVpossibly_sensitive
p211
I00
sg68
g127
sg77
VThu Jul 16 09:30:25 +0000 2015
p212
sVfilter_level
p213
g122
sVin_reply_to_status_id_str
p214
NsVplace
p215
(dp216
Vfull_name
p217
VZurich, Switzerland
p218
sg75
Vhttps://api.twitter.com/1.1/geo/id/3acb748d0f1e9265.json
p219
sVcountry
p220
VSchweiz
p221
sVplace_type
p222
Vcity
p223
sVbounding_box
p224
(dp225
g177
VPolygon
p226
sg140
(lp227
(lp228
(lp229
F8.448081
aF47.320183
aa(lp230
F8.448081
aF47.434721
aa(lp231
F8.625442
aF47.434721
aa(lp232
F8.625442
aF47.320183
aaassVcountry_code
p233
VCH
p234
sVattributes
p235
(dp236
sg33
V3acb748d0f1e9265
p237
sg66
VZurich
p238
ssVextended_entities
p239
(dp240
g147
(lp241
(dp242
g150
Vhttp://twitter.com/MarcLussy/status/621612842492538881/photo/1
p243
sg152
Vpic.twitter.com/9i19JYBjlR
p244
sg75
Vhttp://t.co/9i19JYBjlR
p245
sg155
Vhttps://pbs.twimg.com/media/CKBplc9WsAAHn89.png
p246
sg42
V621612840726736896
p247
sg158
(dp248
g160
(dp249
g162
I623
sg163
Vfit
p250
sg165
I1024
ssg166
(dp251
g162
I206
sg163
Vfit
p252
sg165
I340
ssg169
(dp253
g162
I365
sg163
Vfit
p254
sg165
I600
ssg172
(dp255
g162
I150
sg163
Vcrop
p256
sg165
I150
sssg175
(lp257
I111
aI133
asg177
Vphoto
p258
sg33
I621612840726736896
sg179
Vhttp://pbs.twimg.com/media/CKBplc9WsAAHn89.png
p259
sasssS'coordinates'
p260
NsS'timestamp_ms'
p261
g142
sS'entities'
p262
g144
sS'in_reply_to_status_id_str'
p263
NsS'in_reply_to_screen_name'
p264
g203
sg91
g204
sS'extended_entities'
p265
g240
sS'retweeted'
p266
I00
sS'place'
p267
g0
(ctweepy.models
Place
p268
g2
Ntp269
Rp270
(dp271
S'full_name'
p272
g218
sg109
g219
sS'country'
p273
g221
sS'place_type'
p274
g223
sS'bounding_box'
p275
g0
(ctweepy.models
BoundingBox
p276
g2
Ntp277
Rp278
(dp279
S'type'
p280
g226
sg260
g227
sbsS'country_code'
p281
g234
sS'attributes'
p282
g236
sg24
g237
sg103
g238
sbsS'retweet_count'
p283
I0
sg110
g111
(S'\x07\xdf\x07\x10\t\x1e\x19\x00\x00\x00'
p284
tp285
Rp286
sS'in_reply_to_user_id'
p287
I1100573479
sb.