ccopy_reg
_reconstructor
p0
(ctweepy.models
Status
p1
c__builtin__
object
p2
Ntp3
Rp4
(dp5
S'favorited'
p6
I00
sS'contributors'
p7
NsS'truncated'
p8
I00
sS'text'
p9
V3 \u03c7\u03c1\u03cc\u03bd\u03b9\u03b1 \u03c4\u03b1\u03be\u03b9\u03b4\u03b5\u03cd\u03c9 \u03c0\u03b5\u03c1\u03af\u03c6\u03b7\u03bc\u03b1, \u03c3\u03ae\u03bc\u03b5\u03c1\u03b1 \u03ba\u03ac\u03bd\u03b5\u03b9 \u03c4\u03bf \u03c0\u03b1\u03bd \u03bd\u03b1 \u03bc\u03bf\u03c5 \u03c3\u03c0\u03ac\u03c3\u03b5\u03b9 \u03c4\u03b1 \u03bd\u03b5\u03cd\u03c1\u03b1 \u03bf \u03b5\u03bb\u03b2\u03b5\u03c4\u03b9\u03ba\u03cc\u03c2 \u03c3\u03b9\u03b4\u03b7\u03c1\u03cc\u03b4\u03c1\u03bf\u03bc\u03bf\u03c2 \U0001f62c
p10
sS'source_url'
p11
Vhttp://twitter.com/download/android
p12
sS'possibly_sensitive'
p13
I00
sS'in_reply_to_status_id'
p14
NsS'user'
p15
g0
(ctweepy.models
User
p16
g2
Ntp17
Rp18
(dp19
S'follow_request_sent'
p20
NsS'profile_use_background_image'
p21
I01
sS'profile_sidebar_fill_color'
p22
V95E8EC
p23
sS'id'
p24
I17812004
sS'verified'
p25
I00
sS'profile_image_url_https'
p26
Vhttps://pbs.twimg.com/profile_images/378800000493505457/db3573d0fcaa5783e045f64d153d5c93_normal.jpeg
p27
sS'_json'
p28
(dp29
Vfollow_request_sent
p30
NsVprofile_use_background_image
p31
I01
sVdefault_profile_image
p32
I00
sVid
p33
I17812004
sVverified
p34
I00
sVprofile_image_url_https
p35
g27
sVprofile_sidebar_fill_color
p36
g23
sVprofile_text_color
p37
V3C3940
p38
sVfollowers_count
p39
I1025
sVprofile_sidebar_border_color
p40
V5ED4DC
p41
sVid_str
p42
V17812004
p43
sVprofile_background_color
p44
V0099B9
p45
sVlisted_count
p46
I21
sVprofile_background_image_url_https
p47
Vhttps://pbs.twimg.com/profile_background_images/640501861/rif5jw0z2b9s62w88i66.jpeg
p48
sVutc_offset
p49
I10800
sVstatuses_count
p50
I20289
sVdescription
p51
NsVfriends_count
p52
I534
sVlocation
p53
VBern, Switzerland
p54
sVprofile_link_color
p55
V0099B9
p56
sVprofile_image_url
p57
Vhttp://pbs.twimg.com/profile_images/378800000493505457/db3573d0fcaa5783e045f64d153d5c93_normal.jpeg
p58
sVfollowing
p59
NsVgeo_enabled
p60
I01
sVprofile_banner_url
p61
Vhttps://pbs.twimg.com/profile_banners/17812004/1354888266
p62
sVprofile_background_image_url
p63
Vhttp://pbs.twimg.com/profile_background_images/640501861/rif5jw0z2b9s62w88i66.jpeg
p64
sVname
p65
Vsmugnificent
p66
sVlang
p67
Ven
p68
sVprofile_background_tile
p69
I01
sVfavourites_count
p70
I1198
sVscreen_name
p71
Vsmugnificent
p72
sVnotifications
p73
NsVurl
p74
Vhttp://ourwalkingclosetssecrets.blogspot.com/
p75
sVcreated_at
p76
VTue Dec 02 17:04:53 +0000 2008
p77
sVcontributors_enabled
p78
I00
sVtime_zone
p79
VAthens
p80
sVprotected
p81
I00
sVdefault_profile
p82
I00
sVis_translator
p83
I00
ssS'contributors_enabled'
p84
I00
sS'profile_text_color'
p85
g38
sS'followers_count'
p86
I1025
sS'profile_sidebar_border_color'
p87
g41
sS'location'
p88
g54
sS'default_profile_image'
p89
I00
sS'id_str'
p90
g43
sS'utc_offset'
p91
I10800
sS'statuses_count'
p92
I20289
sS'description'
p93
NsS'friends_count'
p94
I534
sS'profile_link_color'
p95
g56
sS'profile_image_url'
p96
g58
sS'notifications'
p97
NsS'geo_enabled'
p98
I01
sS'profile_background_color'
p99
g45
sS'profile_banner_url'
p100
g62
sS'profile_background_image_url'
p101
g64
sS'name'
p102
g66
sS'lang'
p103
g68
sS'following'
p104
I00
sS'profile_background_tile'
p105
I01
sS'favourites_count'
p106
I1198
sS'screen_name'
p107
g72
sS'url'
p108
g75
sS'created_at'
p109
cdatetime
datetime
p110
(S'\x07\xd8\x0c\x02\x11\x045\x00\x00\x00'
p111
tp112
Rp113
sS'profile_background_image_url_https'
p114
g48
sS'time_zone'
p115
g80
sS'protected'
p116
I00
sS'default_profile'
p117
I00
sS'is_translator'
p118
I00
sS'listed_count'
p119
I21
sbsS'filter_level'
p120
Vlow
p121
sS'geo'
p122
Nsg24
I621576325212545024
sS'favorite_count'
p123
I0
sS'source'
p124
VTwitter for Android
p125
sg103
Vel
p126
sS'author'
p127
g18
sS'in_reply_to_user_id_str'
p128
Nsg28
(dp129
Vcontributors
p130
NsVtruncated
p131
I00
sVtext
p132
g10
sVin_reply_to_status_id
p133
Nsg33
I621576325212545024
sVfavorite_count
p134
I0
sVsource
p135
V<a href="http://twitter.com/download/android" rel="nofollow">Twitter for Android</a>
p136
sVretweeted
p137
I00
sVcoordinates
p138
NsVtimestamp_ms
p139
V1437030318917
p140
sVentities
p141
(dp142
Vuser_mentions
p143
(lp144
sVsymbols
p145
(lp146
sVtrends
p147
(lp148
sVhashtags
p149
(lp150
sVurls
p151
(lp152
ssVin_reply_to_screen_name
p153
Nsg42
V621576325212545024
p154
sVretweet_count
p155
I0
sVin_reply_to_user_id
p156
NsVfavorited
p157
I00
sVuser
p158
g29
sVgeo
p159
NsVin_reply_to_user_id_str
p160
NsVpossibly_sensitive
p161
I00
sg67
g126
sg76
VThu Jul 16 07:05:18 +0000 2015
p162
sVfilter_level
p163
g121
sVin_reply_to_status_id_str
p164
NsVplace
p165
(dp166
Vfull_name
p167
VZurich, Switzerland
p168
sg74
Vhttps://api.twitter.com/1.1/geo/id/3acb748d0f1e9265.json
p169
sVcountry
p170
VSchweiz
p171
sVplace_type
p172
Vcity
p173
sVbounding_box
p174
(dp175
Vtype
p176
VPolygon
p177
sg138
(lp178
(lp179
(lp180
F8.448081
aF47.320183
aa(lp181
F8.448081
aF47.434721
aa(lp182
F8.625442
aF47.434721
aa(lp183
F8.625442
aF47.320183
aaassVcountry_code
p184
VCH
p185
sVattributes
p186
(dp187
sg33
V3acb748d0f1e9265
p188
sg65
VZurich
p189
sssS'coordinates'
p190
NsS'timestamp_ms'
p191
g140
sS'entities'
p192
g142
sS'in_reply_to_status_id_str'
p193
NsS'in_reply_to_screen_name'
p194
Nsg90
g154
sS'retweeted'
p195
I00
sS'place'
p196
g0
(ctweepy.models
Place
p197
g2
Ntp198
Rp199
(dp200
S'full_name'
p201
g168
sg108
g169
sS'country'
p202
g171
sS'place_type'
p203
g173
sS'bounding_box'
p204
g0
(ctweepy.models
BoundingBox
p205
g2
Ntp206
Rp207
(dp208
S'type'
p209
g177
sg190
g178
sbsS'country_code'
p210
g185
sS'attributes'
p211
g187
sg24
g188
sg102
g189
sbsS'retweet_count'
p212
I0
sg109
g110
(S'\x07\xdf\x07\x10\x07\x05\x12\x00\x00\x00'
p213
tp214
Rp215
sS'in_reply_to_user_id'
p216
Nsb.