ccopy_reg
_reconstructor
p0
(ctweepy.models
Status
p1
c__builtin__
object
p2
Ntp3
Rp4
(dp5
S'favorited'
p6
I00
sS'contributors'
p7
NsS'truncated'
p8
I00
sS'text'
p9
V@HollyBleasdale @Scott_Simpson_ no chocolate until you jump 470 #shouldersback
p10
sS'source_url'
p11
Vhttp://twitter.com/#!/download/ipad
p12
sS'possibly_sensitive'
p13
I00
sS'in_reply_to_status_id'
p14
I621313562108129280
sS'user'
p15
g0
(ctweepy.models
User
p16
g2
Ntp17
Rp18
(dp19
S'follow_request_sent'
p20
NsS'profile_use_background_image'
p21
I01
sS'profile_sidebar_fill_color'
p22
VDAECF4
p23
sS'id'
p24
I293854663
sS'verified'
p25
I00
sS'profile_image_url_https'
p26
Vhttps://pbs.twimg.com/profile_images/605246559924527104/1U5dE2Xj_normal.jpg
p27
sS'_json'
p28
(dp29
Vfollow_request_sent
p30
NsVprofile_use_background_image
p31
I01
sVdefault_profile_image
p32
I00
sVid
p33
I293854663
sVverified
p34
I00
sVprofile_image_url_https
p35
g27
sVprofile_sidebar_fill_color
p36
g23
sVprofile_text_color
p37
V663B12
p38
sVfollowers_count
p39
I5216
sVprofile_sidebar_border_color
p40
VC6E2EE
p41
sVid_str
p42
V293854663
p43
sVprofile_background_color
p44
VC6E2EE
p45
sVlisted_count
p46
I81
sVprofile_background_image_url_https
p47
Vhttps://abs.twimg.com/images/themes/theme2/bg.gif
p48
sVutc_offset
p49
NsVstatuses_count
p50
I11865
sVdescription
p51
Vcoach of sprinters & other powerful folk ... VERY occasional blogger
p52
sVfriends_count
p53
I491
sVlocation
p54
VScottsdale, USA
p55
sVprofile_link_color
p56
V1F98C7
p57
sVprofile_image_url
p58
Vhttp://pbs.twimg.com/profile_images/605246559924527104/1U5dE2Xj_normal.jpg
p59
sVfollowing
p60
NsVgeo_enabled
p61
I01
sVprofile_banner_url
p62
Vhttps://pbs.twimg.com/profile_banners/293854663/1353192200
p63
sVprofile_background_image_url
p64
Vhttp://abs.twimg.com/images/themes/theme2/bg.gif
p65
sVname
p66
VStuart McMillan
p67
sVlang
p68
Ven
p69
sVprofile_background_tile
p70
I00
sVfavourites_count
p71
I8518
sVscreen_name
p72
VStuartMcMillan1
p73
sVnotifications
p74
NsVurl
p75
Vhttp://www.mcmillanspeed.com/
p76
sVcreated_at
p77
VFri May 06 03:01:47 +0000 2011
p78
sVcontributors_enabled
p79
I00
sVtime_zone
p80
NsVprotected
p81
I00
sVdefault_profile
p82
I00
sVis_translator
p83
I00
ssS'contributors_enabled'
p84
I00
sS'profile_text_color'
p85
g38
sS'followers_count'
p86
I5216
sS'profile_sidebar_border_color'
p87
g41
sS'location'
p88
g55
sS'default_profile_image'
p89
I00
sS'id_str'
p90
g43
sS'utc_offset'
p91
NsS'statuses_count'
p92
I11865
sS'description'
p93
g52
sS'friends_count'
p94
I491
sS'profile_link_color'
p95
g57
sS'profile_image_url'
p96
g59
sS'notifications'
p97
NsS'geo_enabled'
p98
I01
sS'profile_background_color'
p99
g45
sS'profile_banner_url'
p100
g63
sS'profile_background_image_url'
p101
g65
sS'name'
p102
g67
sS'lang'
p103
g69
sS'following'
p104
I00
sS'profile_background_tile'
p105
I00
sS'favourites_count'
p106
I8518
sS'screen_name'
p107
g73
sS'url'
p108
g76
sS'created_at'
p109
cdatetime
datetime
p110
(S'\x07\xdb\x05\x06\x03\x01/\x00\x00\x00'
p111
tp112
Rp113
sS'profile_background_image_url_https'
p114
g48
sS'time_zone'
p115
NsS'protected'
p116
I00
sS'default_profile'
p117
I00
sS'is_translator'
p118
I00
sS'listed_count'
p119
I81
sbsS'filter_level'
p120
Vlow
p121
sS'geo'
p122
Nsg24
I621423574432239617
sS'favorite_count'
p123
I0
sS'source'
p124
VTwitter for iPad
p125
sg103
Ven
p126
sS'author'
p127
g18
sS'in_reply_to_user_id_str'
p128
V253631550
p129
sg28
(dp130
Vcontributors
p131
NsVtruncated
p132
I00
sVtext
p133
g10
sVin_reply_to_status_id
p134
I621313562108129280
sg33
I621423574432239617
sVfavorite_count
p135
I0
sVsource
p136
V<a href="http://twitter.com/#!/download/ipad" rel="nofollow">Twitter for iPad</a>
p137
sVretweeted
p138
I00
sVcoordinates
p139
NsVtimestamp_ms
p140
V1436993900293
p141
sVentities
p142
(dp143
Vuser_mentions
p144
(lp145
(dp146
g33
I253631550
sVindices
p147
(lp148
I0
aI15
asg42
V253631550
p149
sg72
VHollyBleasdale
p150
sg66
VHolly Bradshaw
p151
sa(dp152
g33
I237424415
sg147
(lp153
I16
aI31
asg42
V237424415
p154
sg72
VScott_Simpson_
p155
sg66
VScott Simpson
p156
sasVsymbols
p157
(lp158
sVtrends
p159
(lp160
sVhashtags
p161
(lp162
(dp163
g147
(lp164
I64
aI78
asg133
Vshouldersback
p165
sasVurls
p166
(lp167
ssVin_reply_to_screen_name
p168
VHollyBleasdale
p169
sg42
V621423574432239617
p170
sVretweet_count
p171
I0
sVin_reply_to_user_id
p172
I253631550
sVfavorited
p173
I00
sVuser
p174
g29
sVgeo
p175
NsVin_reply_to_user_id_str
p176
g129
sVpossibly_sensitive
p177
I00
sg68
g126
sg77
VWed Jul 15 20:58:20 +0000 2015
p178
sVfilter_level
p179
g121
sVin_reply_to_status_id_str
p180
V621313562108129280
p181
sVplace
p182
(dp183
Vfull_name
p184
VZurich, Switzerland
p185
sg75
Vhttps://api.twitter.com/1.1/geo/id/3acb748d0f1e9265.json
p186
sVcountry
p187
VSchweiz
p188
sVplace_type
p189
Vcity
p190
sVbounding_box
p191
(dp192
Vtype
p193
VPolygon
p194
sg139
(lp195
(lp196
(lp197
F8.448081
aF47.320183
aa(lp198
F8.448081
aF47.434721
aa(lp199
F8.625442
aF47.434721
aa(lp200
F8.625442
aF47.320183
aaassVcountry_code
p201
VCH
p202
sVattributes
p203
(dp204
sg33
V3acb748d0f1e9265
p205
sg66
VZurich
p206
sssS'coordinates'
p207
NsS'timestamp_ms'
p208
g141
sS'entities'
p209
g143
sS'in_reply_to_status_id_str'
p210
g181
sS'in_reply_to_screen_name'
p211
g169
sg90
g170
sS'retweeted'
p212
I00
sS'place'
p213
g0
(ctweepy.models
Place
p214
g2
Ntp215
Rp216
(dp217
S'full_name'
p218
g185
sg108
g186
sS'country'
p219
g188
sS'place_type'
p220
g190
sS'bounding_box'
p221
g0
(ctweepy.models
BoundingBox
p222
g2
Ntp223
Rp224
(dp225
S'type'
p226
g194
sg207
g195
sbsS'country_code'
p227
g202
sS'attributes'
p228
g204
sg24
g205
sg102
g206
sbsS'retweet_count'
p229
I0
sg109
g110
(S'\x07\xdf\x07\x0f\x14:\x14\x00\x00\x00'
p230
tp231
Rp232
sS'in_reply_to_user_id'
p233
I253631550
sb.