ccopy_reg
_reconstructor
p0
(ctweepy.models
Status
p1
c__builtin__
object
p2
Ntp3
Rp4
(dp5
S'favorited'
p6
I00
sS'contributors'
p7
NsS'truncated'
p8
I00
sS'text'
p9
VThis was from #Lindau, #Germany! \U0001f1e9\U0001f1ea\u000a\u000aAcross #LakeConstance, you can see #Austria \U0001f1e6\U0001f1f9,\u2026 https://t.co/MGq5n7Bqz5
p10
sS'source_url'
p11
Vhttp://instagram.com
p12
sS'possibly_sensitive'
p13
I00
sS'in_reply_to_status_id'
p14
NsS'user'
p15
g0
(ctweepy.models
User
p16
g2
Ntp17
Rp18
(dp19
S'follow_request_sent'
p20
NsS'profile_use_background_image'
p21
I01
sS'profile_sidebar_fill_color'
p22
V99CC33
p23
sS'id'
p24
I1887554594
sS'verified'
p25
I00
sS'profile_image_url_https'
p26
Vhttps://pbs.twimg.com/profile_images/616469855869337600/EB87g_bs_normal.jpg
p27
sS'_json'
p28
(dp29
Vfollow_request_sent
p30
NsVprofile_use_background_image
p31
I01
sVdefault_profile_image
p32
I00
sVid
p33
I1887554594
sVverified
p34
I00
sVprofile_image_url_https
p35
g27
sVprofile_sidebar_fill_color
p36
g23
sVprofile_text_color
p37
V3E4415
p38
sVfollowers_count
p39
I14046
sVprofile_sidebar_border_color
p40
V829D5E
p41
sVid_str
p42
V1887554594
p43
sVprofile_background_color
p44
V352726
p45
sVlisted_count
p46
I45
sVprofile_background_image_url_https
p47
Vhttps://pbs.twimg.com/profile_background_images/614641971232026625/C_xeJufe.png
p48
sVutc_offset
p49
I-25200
sVstatuses_count
p50
I11659
sVdescription
p51
VTHE Ohio State University '19. Christian. Student pilot. Aviation. Photographer. Traveler. \u2708\ufe0f http://SeeDisclaimer.com
p52
sVfriends_count
p53
I4388
sVlocation
p54
VLos Angeles, CA
p55
sVprofile_link_color
p56
V0099FF
p57
sVprofile_image_url
p58
Vhttp://pbs.twimg.com/profile_images/616469855869337600/EB87g_bs_normal.jpg
p59
sVfollowing
p60
NsVgeo_enabled
p61
I01
sVprofile_banner_url
p62
Vhttps://pbs.twimg.com/profile_banners/1887554594/1436785211
p63
sVprofile_background_image_url
p64
Vhttp://pbs.twimg.com/profile_background_images/614641971232026625/C_xeJufe.png
p65
sVname
p66
VJoey
p67
sVlang
p68
Ven
p69
sVprofile_background_tile
p70
I01
sVfavourites_count
p71
I14644
sVscreen_name
p72
Vtowbinator
p73
sVnotifications
p74
NsVurl
p75
Vhttp://goo.gl/Urv3lX
p76
sVcreated_at
p77
VFri Sep 20 19:21:27 +0000 2013
p78
sVcontributors_enabled
p79
I00
sVtime_zone
p80
VPacific Time (US & Canada)
p81
sVprotected
p82
I00
sVdefault_profile
p83
I00
sVis_translator
p84
I00
ssS'contributors_enabled'
p85
I00
sS'profile_text_color'
p86
g38
sS'followers_count'
p87
I14046
sS'profile_sidebar_border_color'
p88
g41
sS'location'
p89
g55
sS'default_profile_image'
p90
I00
sS'id_str'
p91
g43
sS'utc_offset'
p92
I-25200
sS'statuses_count'
p93
I11659
sS'description'
p94
g52
sS'friends_count'
p95
I4388
sS'profile_link_color'
p96
g57
sS'profile_image_url'
p97
g59
sS'notifications'
p98
NsS'geo_enabled'
p99
I01
sS'profile_background_color'
p100
g45
sS'profile_banner_url'
p101
g63
sS'profile_background_image_url'
p102
g65
sS'name'
p103
g67
sS'lang'
p104
g69
sS'following'
p105
I00
sS'profile_background_tile'
p106
I01
sS'favourites_count'
p107
I14644
sS'screen_name'
p108
g73
sS'url'
p109
g76
sS'created_at'
p110
cdatetime
datetime
p111
(S'\x07\xdd\t\x14\x13\x15\x1b\x00\x00\x00'
p112
tp113
Rp114
sS'profile_background_image_url_https'
p115
g48
sS'time_zone'
p116
g81
sS'protected'
p117
I00
sS'default_profile'
p118
I00
sS'is_translator'
p119
I00
sS'listed_count'
p120
I45
sbsS'filter_level'
p121
Vlow
p122
sS'geo'
p123
(dp124
Vtype
p125
VPoint
p126
sVcoordinates
p127
(lp128
F47.376719
aF8.538841
assg24
I621670294965612544
sS'favorite_count'
p129
I0
sS'source'
p130
VInstagram
p131
sg104
Ven
p132
sS'author'
p133
g18
sS'in_reply_to_user_id_str'
p134
Nsg28
(dp135
Vcontributors
p136
NsVtruncated
p137
I00
sVtext
p138
VThis was from #Lindau, #Germany! \U0001f1e9\U0001f1ea\u000a\u000aAcross #LakeConstance, you can see #Austria \U0001f1e6\U0001f1f9,\u2026 https://t.co/MGq5n7Bqz5
p139
sVin_reply_to_status_id
p140
Nsg33
I621670294965612544
sVfavorite_count
p141
I0
sVsource
p142
V<a href="http://instagram.com" rel="nofollow">Instagram</a>
p143
sVretweeted
p144
I00
sg127
(dp145
g125
VPoint
p146
sg127
(lp147
F8.538841
aF47.376719
assVtimestamp_ms
p148
V1437052723052
p149
sVentities
p150
(dp151
Vuser_mentions
p152
(lp153
sVsymbols
p154
(lp155
sVtrends
p156
(lp157
sVhashtags
p158
(lp159
(dp160
Vindices
p161
(lp162
I14
aI21
asg138
VLindau
p163
sa(dp164
g161
(lp165
I23
aI31
asg138
VGermany
p166
sa(dp167
g161
(lp168
I44
aI58
asg138
VLakeConstance
p169
sa(dp170
g161
(lp171
I72
aI80
asg138
VAustria
p172
sasVurls
p173
(lp174
(dp175
g75
Vhttps://t.co/MGq5n7Bqz5
p176
sg161
(lp177
I86
aI109
asVexpanded_url
p178
Vhttps://instagram.com/p/5Msx-TAFau/
p179
sVdisplay_url
p180
Vinstagram.com/p/5Msx-TAFau/
p181
sassVin_reply_to_screen_name
p182
Nsg42
V621670294965612544
p183
sVretweet_count
p184
I0
sVin_reply_to_user_id
p185
NsVfavorited
p186
I00
sVuser
p187
g29
sVgeo
p188
g124
sVin_reply_to_user_id_str
p189
NsVpossibly_sensitive
p190
I00
sg68
g132
sg77
VThu Jul 16 13:18:43 +0000 2015
p191
sVfilter_level
p192
g122
sVin_reply_to_status_id_str
p193
NsVplace
p194
(dp195
Vfull_name
p196
VZurich, Switzerland
p197
sg75
Vhttps://api.twitter.com/1.1/geo/id/3acb748d0f1e9265.json
p198
sVcountry
p199
VSchweiz
p200
sVplace_type
p201
Vcity
p202
sVbounding_box
p203
(dp204
g125
VPolygon
p205
sg127
(lp206
(lp207
(lp208
F8.448081
aF47.320183
aa(lp209
F8.448081
aF47.434721
aa(lp210
F8.625442
aF47.434721
aa(lp211
F8.625442
aF47.320183
aaassVcountry_code
p212
VCH
p213
sVattributes
p214
(dp215
sg33
V3acb748d0f1e9265
p216
sg66
VZurich
p217
sssS'coordinates'
p218
g145
sS'timestamp_ms'
p219
g149
sS'entities'
p220
g151
sS'in_reply_to_status_id_str'
p221
NsS'in_reply_to_screen_name'
p222
Nsg91
g183
sS'retweeted'
p223
I00
sS'place'
p224
g0
(ctweepy.models
Place
p225
g2
Ntp226
Rp227
(dp228
S'full_name'
p229
g197
sg109
g198
sS'country'
p230
g200
sS'place_type'
p231
g202
sS'bounding_box'
p232
g0
(ctweepy.models
BoundingBox
p233
g2
Ntp234
Rp235
(dp236
S'type'
p237
g205
sg218
g206
sbsS'country_code'
p238
g213
sS'attributes'
p239
g215
sg24
g216
sg103
g217
sbsS'retweet_count'
p240
I0
sg110
g111
(S'\x07\xdf\x07\x10\r\x12+\x00\x00\x00'
p241
tp242
Rp243
sS'in_reply_to_user_id'
p244
Nsb.