ccopy_reg
_reconstructor
p0
(ctweepy.models
Status
p1
c__builtin__
object
p2
Ntp3
Rp4
(dp5
S'favorited'
p6
I00
sS'contributors'
p7
NsS'truncated'
p8
I00
sS'text'
p9
VOsiriX 7.0 #OsiriXMD : new multithreaded parsing &amp; indexing algorithm : up to 150% faster to import DICOM files. http://t.co/rfJtu6IFMO
p10
sS'source_url'
p11
Vhttp://twitter.com
p12
sS'possibly_sensitive'
p13
I00
sS'in_reply_to_status_id'
p14
NsS'user'
p15
g0
(ctweepy.models
User
p16
g2
Ntp17
Rp18
(dp19
S'follow_request_sent'
p20
NsS'profile_use_background_image'
p21
I01
sS'profile_sidebar_fill_color'
p22
VEFEFEF
p23
sS'id'
p24
I33252130
sS'verified'
p25
I00
sS'profile_image_url_https'
p26
Vhttps://pbs.twimg.com/profile_images/448562162160517120/muTlJWhJ_normal.png
p27
sS'_json'
p28
(dp29
Vfollow_request_sent
p30
NsVprofile_use_background_image
p31
I01
sVdefault_profile_image
p32
I00
sVid
p33
I33252130
sVverified
p34
I00
sVprofile_image_url_https
p35
g27
sVprofile_sidebar_fill_color
p36
g23
sVprofile_text_color
p37
V333333
p38
sVfollowers_count
p39
I3462
sVprofile_sidebar_border_color
p40
VEEEEEE
p41
sVid_str
p42
V33252130
p43
sVprofile_background_color
p44
V131516
p45
sVlisted_count
p46
I56
sVprofile_background_image_url_https
p47
Vhttps://abs.twimg.com/images/themes/theme14/bg.gif
p48
sVutc_offset
p49
I7200
sVstatuses_count
p50
I2006
sVdescription
p51
VOsiriX Designer - Pixmeo CEO - Radiologist MD - NSObject Guru - MacOS surfer - Cocoa Drinker
p52
sVfriends_count
p53
I139
sVlocation
p54
VGeneva, Switzerland
p55
sVprofile_link_color
p56
V009999
p57
sVprofile_image_url
p58
Vhttp://pbs.twimg.com/profile_images/448562162160517120/muTlJWhJ_normal.png
p59
sVfollowing
p60
NsVgeo_enabled
p61
I01
sVprofile_banner_url
p62
Vhttps://pbs.twimg.com/profile_banners/33252130/1353432762
p63
sVprofile_background_image_url
p64
Vhttp://abs.twimg.com/images/themes/theme14/bg.gif
p65
sVname
p66
VAntoine Rosset
p67
sVlang
p68
Ven
p69
sVprofile_background_tile
p70
I01
sVfavourites_count
p71
I150
sVscreen_name
p72
Vrossetantoine
p73
sVnotifications
p74
NsVurl
p75
Vhttp://www.osirix-viewer.com
p76
sVcreated_at
p77
VSun Apr 19 17:15:15 +0000 2009
p78
sVcontributors_enabled
p79
I00
sVtime_zone
p80
VParis
p81
sVprotected
p82
I00
sVdefault_profile
p83
I00
sVis_translator
p84
I00
ssS'contributors_enabled'
p85
I00
sS'profile_text_color'
p86
g38
sS'followers_count'
p87
I3462
sS'profile_sidebar_border_color'
p88
g41
sS'location'
p89
g55
sS'default_profile_image'
p90
I00
sS'id_str'
p91
g43
sS'utc_offset'
p92
I7200
sS'statuses_count'
p93
I2006
sS'description'
p94
g52
sS'friends_count'
p95
I139
sS'profile_link_color'
p96
g57
sS'profile_image_url'
p97
g59
sS'notifications'
p98
NsS'geo_enabled'
p99
I01
sS'profile_background_color'
p100
g45
sS'profile_banner_url'
p101
g63
sS'profile_background_image_url'
p102
g65
sS'name'
p103
g67
sS'lang'
p104
g69
sS'following'
p105
I00
sS'profile_background_tile'
p106
I01
sS'favourites_count'
p107
I150
sS'screen_name'
p108
g73
sS'url'
p109
g76
sS'created_at'
p110
cdatetime
datetime
p111
(S'\x07\xd9\x04\x13\x11\x0f\x0f\x00\x00\x00'
p112
tp113
Rp114
sS'profile_background_image_url_https'
p115
g48
sS'time_zone'
p116
g81
sS'protected'
p117
I00
sS'default_profile'
p118
I00
sS'is_translator'
p119
I00
sS'listed_count'
p120
I56
sbsS'filter_level'
p121
Vlow
p122
sS'geo'
p123
Nsg24
I621630954575163392
sS'favorite_count'
p124
I0
sS'source'
p125
VTwitter Web Client
p126
sg104
Ven
p127
sS'author'
p128
g18
sS'in_reply_to_user_id_str'
p129
Nsg28
(dp130
Vcontributors
p131
NsVtruncated
p132
I00
sVtext
p133
g10
sVin_reply_to_status_id
p134
Nsg33
I621630954575163392
sVfavorite_count
p135
I0
sVsource
p136
V<a href="http://twitter.com" rel="nofollow">Twitter Web Client</a>
p137
sVretweeted
p138
I00
sVcoordinates
p139
NsVtimestamp_ms
p140
V1437043343572
p141
sVentities
p142
(dp143
Vsymbols
p144
(lp145
sVmedia
p146
(lp147
(dp148
Vexpanded_url
p149
Vhttp://twitter.com/rossetantoine/status/621630954575163392/photo/1
p150
sVdisplay_url
p151
Vpic.twitter.com/rfJtu6IFMO
p152
sg75
Vhttp://t.co/rfJtu6IFMO
p153
sVmedia_url_https
p154
Vhttps://pbs.twimg.com/media/CKB6DwmVEAAVszl.jpg
p155
sg42
V621630953580990464
p156
sVsizes
p157
(dp158
Vsmall
p159
(dp160
Vh
p161
I322
sVresize
p162
Vfit
p163
sVw
p164
I340
ssVlarge
p165
(dp166
g161
I379
sg162
Vfit
p167
sg164
I400
ssVmedium
p168
(dp169
g161
I379
sg162
Vfit
p170
sg164
I400
ssVthumb
p171
(dp172
g161
I150
sg162
Vcrop
p173
sg164
I150
sssVindices
p174
(lp175
I117
aI139
asVtype
p176
Vphoto
p177
sg33
I621630953580990464
sVmedia_url
p178
Vhttp://pbs.twimg.com/media/CKB6DwmVEAAVszl.jpg
p179
sasVhashtags
p180
(lp181
(dp182
g174
(lp183
I11
aI20
asg133
VOsiriXMD
p184
sasVuser_mentions
p185
(lp186
sVtrends
p187
(lp188
sVurls
p189
(lp190
ssVin_reply_to_screen_name
p191
Nsg42
V621630954575163392
p192
sVretweet_count
p193
I0
sVin_reply_to_user_id
p194
NsVfavorited
p195
I00
sVuser
p196
g29
sVgeo
p197
NsVin_reply_to_user_id_str
p198
NsVpossibly_sensitive
p199
I00
sg68
g127
sg77
VThu Jul 16 10:42:23 +0000 2015
p200
sVfilter_level
p201
g122
sVin_reply_to_status_id_str
p202
NsVplace
p203
(dp204
Vfull_name
p205
VZurich, Switzerland
p206
sg75
Vhttps://api.twitter.com/1.1/geo/id/3acb748d0f1e9265.json
p207
sVcountry
p208
VSchweiz
p209
sVplace_type
p210
Vcity
p211
sVbounding_box
p212
(dp213
g176
VPolygon
p214
sg139
(lp215
(lp216
(lp217
F8.448081
aF47.320183
aa(lp218
F8.448081
aF47.434721
aa(lp219
F8.625442
aF47.434721
aa(lp220
F8.625442
aF47.320183
aaassVcountry_code
p221
VCH
p222
sVattributes
p223
(dp224
sg33
V3acb748d0f1e9265
p225
sg66
VZurich
p226
ssVextended_entities
p227
(dp228
g146
(lp229
(dp230
g149
Vhttp://twitter.com/rossetantoine/status/621630954575163392/photo/1
p231
sg151
Vpic.twitter.com/rfJtu6IFMO
p232
sg75
Vhttp://t.co/rfJtu6IFMO
p233
sg154
Vhttps://pbs.twimg.com/media/CKB6DwmVEAAVszl.jpg
p234
sg42
V621630953580990464
p235
sg157
(dp236
g159
(dp237
g161
I322
sg162
Vfit
p238
sg164
I340
ssg165
(dp239
g161
I379
sg162
Vfit
p240
sg164
I400
ssg168
(dp241
g161
I379
sg162
Vfit
p242
sg164
I400
ssg171
(dp243
g161
I150
sg162
Vcrop
p244
sg164
I150
sssg174
(lp245
I117
aI139
asg176
Vphoto
p246
sg33
I621630953580990464
sg178
Vhttp://pbs.twimg.com/media/CKB6DwmVEAAVszl.jpg
p247
sasssS'coordinates'
p248
NsS'timestamp_ms'
p249
g141
sS'entities'
p250
g143
sS'in_reply_to_status_id_str'
p251
NsS'in_reply_to_screen_name'
p252
Nsg91
g192
sS'extended_entities'
p253
g228
sS'retweeted'
p254
I00
sS'place'
p255
g0
(ctweepy.models
Place
p256
g2
Ntp257
Rp258
(dp259
S'full_name'
p260
g206
sg109
g207
sS'country'
p261
g209
sS'place_type'
p262
g211
sS'bounding_box'
p263
g0
(ctweepy.models
BoundingBox
p264
g2
Ntp265
Rp266
(dp267
S'type'
p268
g214
sg248
g215
sbsS'country_code'
p269
g222
sS'attributes'
p270
g224
sg24
g225
sg103
g226
sbsS'retweet_count'
p271
I0
sg110
g111
(S'\x07\xdf\x07\x10\n*\x17\x00\x00\x00'
p272
tp273
Rp274
sS'in_reply_to_user_id'
p275
Nsb.