ccopy_reg
_reconstructor
p0
(ctweepy.models
Status
p1
c__builtin__
object
p2
Ntp3
Rp4
(dp5
S'favorited'
p6
I00
sS'contributors'
p7
NsS'truncated'
p8
I00
sS'text'
p9
VGetting ready for my chest session, warm up those shoulders kids! wink emoticon\u000ahttp://t.co/DqPzNg9o5m http://t.co/FOS8YNvXcl
p10
sS'source_url'
p11
Vhttp://twitter.com
p12
sS'possibly_sensitive'
p13
I00
sS'in_reply_to_status_id'
p14
NsS'user'
p15
g0
(ctweepy.models
User
p16
g2
Ntp17
Rp18
(dp19
S'follow_request_sent'
p20
NsS'profile_use_background_image'
p21
I01
sS'profile_sidebar_fill_color'
p22
VFFFFFF
p23
sS'id'
p24
I200055472
sS'verified'
p25
I00
sS'profile_image_url_https'
p26
Vhttps://pbs.twimg.com/profile_images/571952269998817280/LLd_2L5__normal.jpeg
p27
sS'_json'
p28
(dp29
Vfollow_request_sent
p30
NsVprofile_use_background_image
p31
I01
sVdefault_profile_image
p32
I00
sVid
p33
I200055472
sVverified
p34
I00
sVprofile_image_url_https
p35
g27
sVprofile_sidebar_fill_color
p36
g23
sVprofile_text_color
p37
V333333
p38
sVfollowers_count
p39
I36496
sVprofile_sidebar_border_color
p40
VFFFFFF
p41
sVid_str
p42
V200055472
p43
sVprofile_background_color
p44
VB2DFDA
p45
sVlisted_count
p46
I317
sVprofile_background_image_url_https
p47
Vhttps://pbs.twimg.com/profile_background_images/477716103217422336/xROsBjsT.jpeg
p48
sVutc_offset
p49
I7200
sVstatuses_count
p50
I38927
sVdescription
p51
VPersonal Trainer and Nutrition Expert. TV, Radio and Magazine features. http://t.co/1qC3Dnah8m Owner of http://t.co/FtpUPKkrub and http://t.co/mMR2ldAqt1
p52
sVfriends_count
p53
I506
sVlocation
p54
VZurich, Switzerland
p55
sVprofile_link_color
p56
V93A644
p57
sVprofile_image_url
p58
Vhttp://pbs.twimg.com/profile_images/571952269998817280/LLd_2L5__normal.jpeg
p59
sVfollowing
p60
NsVgeo_enabled
p61
I01
sVprofile_banner_url
p62
Vhttps://pbs.twimg.com/profile_banners/200055472/1435216448
p63
sVprofile_background_image_url
p64
Vhttp://pbs.twimg.com/profile_background_images/477716103217422336/xROsBjsT.jpeg
p65
sVname
p66
VCindy Landolt
p67
sVlang
p68
Ven
p69
sVprofile_background_tile
p70
I01
sVfavourites_count
p71
I426
sVscreen_name
p72
VCindyTraining
p73
sVnotifications
p74
NsVurl
p75
Vhttp://www.cindytraining.com/
p76
sVcreated_at
p77
VFri Oct 08 10:20:42 +0000 2010
p78
sVcontributors_enabled
p79
I00
sVtime_zone
p80
VBern
p81
sVprotected
p82
I00
sVdefault_profile
p83
I00
sVis_translator
p84
I00
ssS'contributors_enabled'
p85
I00
sS'profile_text_color'
p86
g38
sS'followers_count'
p87
I36496
sS'profile_sidebar_border_color'
p88
g41
sS'location'
p89
g55
sS'default_profile_image'
p90
I00
sS'id_str'
p91
g43
sS'utc_offset'
p92
I7200
sS'statuses_count'
p93
I38927
sS'description'
p94
g52
sS'friends_count'
p95
I506
sS'profile_link_color'
p96
g57
sS'profile_image_url'
p97
g59
sS'notifications'
p98
NsS'geo_enabled'
p99
I01
sS'profile_background_color'
p100
g45
sS'profile_banner_url'
p101
g63
sS'profile_background_image_url'
p102
g65
sS'name'
p103
g67
sS'lang'
p104
g69
sS'following'
p105
I00
sS'profile_background_tile'
p106
I01
sS'favourites_count'
p107
I426
sS'screen_name'
p108
g73
sS'url'
p109
g76
sS'created_at'
p110
cdatetime
datetime
p111
(S'\x07\xda\n\x08\n\x14*\x00\x00\x00'
p112
tp113
Rp114
sS'profile_background_image_url_https'
p115
g48
sS'time_zone'
p116
g81
sS'protected'
p117
I00
sS'default_profile'
p118
I00
sS'is_translator'
p119
I00
sS'listed_count'
p120
I317
sbsS'filter_level'
p121
Vlow
p122
sS'geo'
p123
Nsg24
I621671760296079361
sS'favorite_count'
p124
I0
sS'source'
p125
VTwitter Web Client
p126
sg104
Ven
p127
sS'author'
p128
g18
sS'in_reply_to_user_id_str'
p129
Nsg28
(dp130
Vcontributors
p131
NsVtruncated
p132
I00
sVtext
p133
VGetting ready for my chest session, warm up those shoulders kids! wink emoticon\u000ahttp://t.co/DqPzNg9o5m http://t.co/FOS8YNvXcl
p134
sVin_reply_to_status_id
p135
Nsg33
I621671760296079361
sVfavorite_count
p136
I0
sVsource
p137
V<a href="http://twitter.com" rel="nofollow">Twitter Web Client</a>
p138
sVretweeted
p139
I00
sVcoordinates
p140
NsVtimestamp_ms
p141
V1437053072414
p142
sVentities
p143
(dp144
Vsymbols
p145
(lp146
sVmedia
p147
(lp148
(dp149
Vexpanded_url
p150
Vhttp://twitter.com/CindyTraining/status/621671760296079361/photo/1
p151
sVdisplay_url
p152
Vpic.twitter.com/FOS8YNvXcl
p153
sg75
Vhttp://t.co/FOS8YNvXcl
p154
sVmedia_url_https
p155
Vhttps://pbs.twimg.com/media/CKCfK9xWUAAw_k4.jpg
p156
sg42
V621671759306182656
p157
sVsizes
p158
(dp159
Vlarge
p160
(dp161
Vh
p162
I1536
sVresize
p163
Vfit
p164
sVw
p165
I1024
ssVsmall
p166
(dp167
g162
I510
sg163
Vfit
p168
sg165
I340
ssVmedium
p169
(dp170
g162
I900
sg163
Vfit
p171
sg165
I600
ssVthumb
p172
(dp173
g162
I150
sg163
Vcrop
p174
sg165
I150
sssVindices
p175
(lp176
I103
aI125
asVtype
p177
Vphoto
p178
sg33
I621671759306182656
sVmedia_url
p179
Vhttp://pbs.twimg.com/media/CKCfK9xWUAAw_k4.jpg
p180
sasVhashtags
p181
(lp182
sVuser_mentions
p183
(lp184
sVtrends
p185
(lp186
sVurls
p187
(lp188
(dp189
g75
Vhttp://t.co/DqPzNg9o5m
p190
sg175
(lp191
I80
aI102
asg150
Vhttp://www.cindylandolt.ch
p192
sg152
Vcindylandolt.ch
p193
sassVin_reply_to_screen_name
p194
Nsg42
V621671760296079361
p195
sVretweet_count
p196
I0
sVin_reply_to_user_id
p197
NsVfavorited
p198
I00
sVuser
p199
g29
sVgeo
p200
NsVin_reply_to_user_id_str
p201
NsVpossibly_sensitive
p202
I00
sg68
g127
sg77
VThu Jul 16 13:24:32 +0000 2015
p203
sVfilter_level
p204
g122
sVin_reply_to_status_id_str
p205
NsVplace
p206
(dp207
Vfull_name
p208
VZurich, Switzerland
p209
sg75
Vhttps://api.twitter.com/1.1/geo/id/3acb748d0f1e9265.json
p210
sVcountry
p211
VSchweiz
p212
sVplace_type
p213
Vcity
p214
sVbounding_box
p215
(dp216
g177
VPolygon
p217
sg140
(lp218
(lp219
(lp220
F8.448081
aF47.320183
aa(lp221
F8.448081
aF47.434721
aa(lp222
F8.625442
aF47.434721
aa(lp223
F8.625442
aF47.320183
aaassVcountry_code
p224
VCH
p225
sVattributes
p226
(dp227
sg33
V3acb748d0f1e9265
p228
sg66
VZurich
p229
ssVextended_entities
p230
(dp231
g147
(lp232
(dp233
g150
Vhttp://twitter.com/CindyTraining/status/621671760296079361/photo/1
p234
sg152
Vpic.twitter.com/FOS8YNvXcl
p235
sg75
Vhttp://t.co/FOS8YNvXcl
p236
sg155
Vhttps://pbs.twimg.com/media/CKCfK9xWUAAw_k4.jpg
p237
sg42
V621671759306182656
p238
sg158
(dp239
g160
(dp240
g162
I1536
sg163
Vfit
p241
sg165
I1024
ssg166
(dp242
g162
I510
sg163
Vfit
p243
sg165
I340
ssg169
(dp244
g162
I900
sg163
Vfit
p245
sg165
I600
ssg172
(dp246
g162
I150
sg163
Vcrop
p247
sg165
I150
sssg175
(lp248
I103
aI125
asg177
Vphoto
p249
sg33
I621671759306182656
sg179
Vhttp://pbs.twimg.com/media/CKCfK9xWUAAw_k4.jpg
p250
sasssS'coordinates'
p251
NsS'timestamp_ms'
p252
g142
sS'entities'
p253
g144
sS'in_reply_to_status_id_str'
p254
NsS'in_reply_to_screen_name'
p255
Nsg91
g195
sS'extended_entities'
p256
g231
sS'retweeted'
p257
I00
sS'place'
p258
g0
(ctweepy.models
Place
p259
g2
Ntp260
Rp261
(dp262
S'full_name'
p263
g209
sg109
g210
sS'country'
p264
g212
sS'place_type'
p265
g214
sS'bounding_box'
p266
g0
(ctweepy.models
BoundingBox
p267
g2
Ntp268
Rp269
(dp270
S'type'
p271
g217
sg251
g218
sbsS'country_code'
p272
g225
sS'attributes'
p273
g227
sg24
g228
sg103
g229
sbsS'retweet_count'
p274
I0
sg110
g111
(S'\x07\xdf\x07\x10\r\x18 \x00\x00\x00'
p275
tp276
Rp277
sS'in_reply_to_user_id'
p278
Nsb.