ccopy_reg
_reconstructor
p0
(ctweepy.models
Status
p1
c__builtin__
object
p2
Ntp3
Rp4
(dp5
S'favorited'
p6
I00
sS'contributors'
p7
NsS'truncated'
p8
I00
sS'text'
p9
V\U0001f499 http://t.co/82MGM0KCcu
p10
sS'source_url'
p11
Vhttp://twitter.com/download/iphone
p12
sS'possibly_sensitive'
p13
I00
sS'in_reply_to_status_id'
p14
NsS'user'
p15
g0
(ctweepy.models
User
p16
g2
Ntp17
Rp18
(dp19
S'follow_request_sent'
p20
NsS'profile_use_background_image'
p21
I01
sS'profile_sidebar_fill_color'
p22
VDDEEF6
p23
sS'id'
p24
I3272147318
sS'verified'
p25
I00
sS'profile_image_url_https'
p26
Vhttps://pbs.twimg.com/profile_images/622854470800572416/cc5vm-TP_normal.jpg
p27
sS'_json'
p28
(dp29
Vfollow_request_sent
p30
NsVprofile_use_background_image
p31
I01
sVdefault_profile_image
p32
I00
sVid
p33
I3272147318
sVverified
p34
I00
sVprofile_image_url_https
p35
g27
sVprofile_sidebar_fill_color
p36
g23
sVprofile_text_color
p37
V333333
p38
sVfollowers_count
p39
I183
sVprofile_sidebar_border_color
p40
VC0DEED
p41
sVid_str
p42
V3272147318
p43
sVprofile_background_color
p44
VC0DEED
p45
sVlisted_count
p46
I0
sVprofile_background_image_url_https
p47
Vhttps://abs.twimg.com/images/themes/theme1/bg.png
p48
sVutc_offset
p49
NsVstatuses_count
p50
I576
sVdescription
p51
NsVfriends_count
p52
I175
sVlocation
p53
Vabudhabi&m7arag
p54
sVprofile_link_color
p55
V0084B4
p56
sVprofile_image_url
p57
Vhttp://pbs.twimg.com/profile_images/622854470800572416/cc5vm-TP_normal.jpg
p58
sVfollowing
p59
NsVgeo_enabled
p60
I01
sVprofile_banner_url
p61
Vhttps://pbs.twimg.com/profile_banners/3272147318/1437427571
p62
sVprofile_background_image_url
p63
Vhttp://abs.twimg.com/images/themes/theme1/bg.png
p64
sVname
p65
Vsm
p66
sVlang
p67
Ven
p68
sVprofile_background_tile
p69
I00
sVfavourites_count
p70
I76
sVscreen_name
p71
Vsvlamh
p72
sVnotifications
p73
NsVurl
p74
NsVcreated_at
p75
VWed Jul 08 18:18:53 +0000 2015
p76
sVcontributors_enabled
p77
I00
sVtime_zone
p78
NsVprotected
p79
I00
sVdefault_profile
p80
I01
sVis_translator
p81
I00
ssS'contributors_enabled'
p82
I00
sS'profile_text_color'
p83
g38
sS'followers_count'
p84
I183
sS'profile_sidebar_border_color'
p85
g41
sS'location'
p86
g54
sS'default_profile_image'
p87
I00
sS'id_str'
p88
g43
sS'utc_offset'
p89
NsS'statuses_count'
p90
I576
sS'description'
p91
NsS'friends_count'
p92
I175
sS'profile_link_color'
p93
g56
sS'profile_image_url'
p94
g58
sS'notifications'
p95
NsS'geo_enabled'
p96
I01
sS'profile_background_color'
p97
g45
sS'profile_banner_url'
p98
g62
sS'profile_background_image_url'
p99
g64
sS'name'
p100
g66
sS'lang'
p101
g68
sS'following'
p102
I00
sS'profile_background_tile'
p103
I00
sS'favourites_count'
p104
I76
sS'screen_name'
p105
g72
sS'url'
p106
NsS'created_at'
p107
cdatetime
datetime
p108
(S'\x07\xdf\x07\x08\x12\x125\x00\x00\x00'
p109
tp110
Rp111
sS'profile_background_image_url_https'
p112
g48
sS'time_zone'
p113
NsS'protected'
p114
I00
sS'default_profile'
p115
I01
sS'is_translator'
p116
I00
sS'listed_count'
p117
I0
sbsS'filter_level'
p118
Vlow
p119
sS'geo'
p120
Nsg24
I623790762715652096
sS'favorite_count'
p121
I0
sS'source'
p122
VTwitter for iPhone
p123
sg101
Vund
p124
sS'author'
p125
g18
sS'in_reply_to_user_id_str'
p126
Nsg28
(dp127
Vcontributors
p128
NsVtruncated
p129
I00
sVtext
p130
g10
sVin_reply_to_status_id
p131
Nsg33
I623790762715652096
sVfavorite_count
p132
I0
sVsource
p133
V<a href="http://twitter.com/download/iphone" rel="nofollow">Twitter for iPhone</a>
p134
sVretweeted
p135
I00
sVcoordinates
p136
NsVtimestamp_ms
p137
V1437558281960
p138
sVentities
p139
(dp140
Vsymbols
p141
(lp142
sVmedia
p143
(lp144
(dp145
Vexpanded_url
p146
Vhttp://twitter.com/svlamh/status/623790762715652096/photo/1
p147
sVdisplay_url
p148
Vpic.twitter.com/82MGM0KCcu
p149
sg74
Vhttp://t.co/82MGM0KCcu
p150
sVmedia_url_https
p151
Vhttps://pbs.twimg.com/media/CKgmXnrUAAAsESH.jpg
p152
sg42
V623790735620308992
p153
sVsizes
p154
(dp155
Vsmall
p156
(dp157
Vh
p158
I485
sVresize
p159
Vfit
p160
sVw
p161
I340
ssVlarge
p162
(dp163
g158
I913
sg159
Vfit
p164
sg161
I639
ssVmedium
p165
(dp166
g158
I857
sg159
Vfit
p167
sg161
I600
ssVthumb
p168
(dp169
g158
I150
sg159
Vcrop
p170
sg161
I150
sssVindices
p171
(lp172
I2
aI24
asVtype
p173
Vphoto
p174
sg33
I623790735620308992
sVmedia_url
p175
Vhttp://pbs.twimg.com/media/CKgmXnrUAAAsESH.jpg
p176
sasVhashtags
p177
(lp178
sVuser_mentions
p179
(lp180
sVtrends
p181
(lp182
sVurls
p183
(lp184
ssVin_reply_to_screen_name
p185
Nsg42
V623790762715652096
p186
sVretweet_count
p187
I0
sVin_reply_to_user_id
p188
NsVfavorited
p189
I00
sVuser
p190
g29
sVgeo
p191
NsVin_reply_to_user_id_str
p192
NsVpossibly_sensitive
p193
I00
sg67
g124
sg75
VWed Jul 22 09:44:41 +0000 2015
p194
sVfilter_level
p195
g119
sVin_reply_to_status_id_str
p196
NsVplace
p197
(dp198
Vfull_name
p199
VZurich, Switzerland
p200
sg74
Vhttps://api.twitter.com/1.1/geo/id/3acb748d0f1e9265.json
p201
sVcountry
p202
VSchweiz
p203
sVplace_type
p204
Vcity
p205
sVbounding_box
p206
(dp207
g173
VPolygon
p208
sg136
(lp209
(lp210
(lp211
F8.448081
aF47.320183
aa(lp212
F8.448081
aF47.434721
aa(lp213
F8.625442
aF47.434721
aa(lp214
F8.625442
aF47.320183
aaassVcountry_code
p215
VCH
p216
sVattributes
p217
(dp218
sg33
V3acb748d0f1e9265
p219
sg65
VZurich
p220
ssVextended_entities
p221
(dp222
g143
(lp223
(dp224
g146
Vhttp://twitter.com/svlamh/status/623790762715652096/photo/1
p225
sg148
Vpic.twitter.com/82MGM0KCcu
p226
sg74
Vhttp://t.co/82MGM0KCcu
p227
sg151
Vhttps://pbs.twimg.com/media/CKgmXnrUAAAsESH.jpg
p228
sg42
V623790735620308992
p229
sg154
(dp230
g156
(dp231
g158
I485
sg159
Vfit
p232
sg161
I340
ssg162
(dp233
g158
I913
sg159
Vfit
p234
sg161
I639
ssg165
(dp235
g158
I857
sg159
Vfit
p236
sg161
I600
ssg168
(dp237
g158
I150
sg159
Vcrop
p238
sg161
I150
sssg171
(lp239
I2
aI24
asg173
Vphoto
p240
sg33
I623790735620308992
sg175
Vhttp://pbs.twimg.com/media/CKgmXnrUAAAsESH.jpg
p241
sasssS'coordinates'
p242
NsS'timestamp_ms'
p243
g138
sS'entities'
p244
g140
sS'in_reply_to_status_id_str'
p245
NsS'in_reply_to_screen_name'
p246
Nsg88
g186
sS'extended_entities'
p247
g222
sS'retweeted'
p248
I00
sS'place'
p249
g0
(ctweepy.models
Place
p250
g2
Ntp251
Rp252
(dp253
S'full_name'
p254
g200
sg106
g201
sS'country'
p255
g203
sS'place_type'
p256
g205
sS'bounding_box'
p257
g0
(ctweepy.models
BoundingBox
p258
g2
Ntp259
Rp260
(dp261
S'type'
p262
g208
sg242
g209
sbsS'country_code'
p263
g216
sS'attributes'
p264
g218
sg24
g219
sg100
g220
sbsS'retweet_count'
p265
I0
sg107
g108
(S'\x07\xdf\x07\x16\t,)\x00\x00\x00'
p266
tp267
Rp268
sS'in_reply_to_user_id'
p269
Nsb.