ccopy_reg
_reconstructor
p0
(ctweepy.models
Status
p1
c__builtin__
object
p2
Ntp3
Rp4
(dp5
S'favorited'
p6
I00
sS'contributors'
p7
NsS'truncated'
p8
I00
sS'text'
p9
V@okfnlabs monthly starts in 96 minutes on Google+ http://t.co/F8hXRpG9Vp
p10
sS'source_url'
p11
Vhttp://twitter.com
p12
sS'possibly_sensitive'
p13
I00
sS'in_reply_to_status_id'
p14
NsS'user'
p15
g0
(ctweepy.models
User
p16
g2
Ntp17
Rp18
(dp19
S'follow_request_sent'
p20
NsS'profile_use_background_image'
p21
I00
sS'profile_sidebar_fill_color'
p22
VDBDBDB
p23
sS'id'
p24
I5429882
sS'verified'
p25
I00
sS'profile_image_url_https'
p26
Vhttps://pbs.twimg.com/profile_images/620508710474002432/T6gBUsZf_normal.jpg
p27
sS'_json'
p28
(dp29
Vfollow_request_sent
p30
NsVprofile_use_background_image
p31
I00
sVdefault_profile_image
p32
I00
sVid
p33
I5429882
sVverified
p34
I00
sVprofile_image_url_https
p35
g27
sVprofile_sidebar_fill_color
p36
g23
sVprofile_text_color
p37
V124F4C
p38
sVfollowers_count
p39
I1713
sVprofile_sidebar_border_color
p40
VAD34AD
p41
sVid_str
p42
V5429882
p43
sVprofile_background_color
p44
V38A348
p45
sVlisted_count
p46
I155
sVprofile_background_image_url_https
p47
Vhttps://pbs.twimg.com/profile_background_images/120429833/pacman2010-06-12_13-21-55_567.jpg
p48
sVutc_offset
p49
I7200
sVstatuses_count
p50
I8891
sVdescription
p51
Vcoder @datalets / coach @sodacamper / activist @opendatach @okfn @okfnlabs / follows #opendata #datascience #dataviz #demoscene #canadians #toddlers
p52
sVfriends_count
p53
I1998
sVlocation
p54
VBerne, Switzerland
p55
sVprofile_link_color
p56
V661F11
p57
sVprofile_image_url
p58
Vhttp://pbs.twimg.com/profile_images/620508710474002432/T6gBUsZf_normal.jpg
p59
sVfollowing
p60
NsVgeo_enabled
p61
I01
sVprofile_banner_url
p62
Vhttps://pbs.twimg.com/profile_banners/5429882/1421096688
p63
sVprofile_background_image_url
p64
Vhttp://pbs.twimg.com/profile_background_images/120429833/pacman2010-06-12_13-21-55_567.jpg
p65
sVname
p66
VOleg Lavrovsky
p67
sVlang
p68
Ven
p69
sVprofile_background_tile
p70
I00
sVfavourites_count
p71
I9900
sVscreen_name
p72
Vloleg
p73
sVnotifications
p74
NsVurl
p75
Vhttp://make.opendata.ch
p76
sVcreated_at
p77
VMon Apr 23 11:50:51 +0000 2007
p78
sVcontributors_enabled
p79
I00
sVtime_zone
p80
VBern
p81
sVprotected
p82
I00
sVdefault_profile
p83
I00
sVis_translator
p84
I00
ssS'contributors_enabled'
p85
I00
sS'profile_text_color'
p86
g38
sS'followers_count'
p87
I1713
sS'profile_sidebar_border_color'
p88
g41
sS'location'
p89
g55
sS'default_profile_image'
p90
I00
sS'id_str'
p91
g43
sS'utc_offset'
p92
I7200
sS'statuses_count'
p93
I8891
sS'description'
p94
g52
sS'friends_count'
p95
I1998
sS'profile_link_color'
p96
g57
sS'profile_image_url'
p97
g59
sS'notifications'
p98
NsS'geo_enabled'
p99
I01
sS'profile_background_color'
p100
g45
sS'profile_banner_url'
p101
g63
sS'profile_background_image_url'
p102
g65
sS'name'
p103
g67
sS'lang'
p104
g69
sS'following'
p105
I00
sS'profile_background_tile'
p106
I00
sS'favourites_count'
p107
I9900
sS'screen_name'
p108
g73
sS'url'
p109
g76
sS'created_at'
p110
cdatetime
datetime
p111
(S'\x07\xd7\x04\x17\x0b23\x00\x00\x00'
p112
tp113
Rp114
sS'profile_background_image_url_https'
p115
g48
sS'time_zone'
p116
g81
sS'protected'
p117
I00
sS'default_profile'
p118
I00
sS'is_translator'
p119
I00
sS'listed_count'
p120
I155
sbsS'filter_level'
p121
Vlow
p122
sS'geo'
p123
Nsg24
I621686881022025728
sS'favorite_count'
p124
I0
sS'source'
p125
VTwitter Web Client
p126
sg104
Ven
p127
sS'author'
p128
g18
sS'in_reply_to_user_id_str'
p129
V451448044
p130
sg28
(dp131
Vcontributors
p132
NsVtruncated
p133
I00
sVtext
p134
g10
sVin_reply_to_status_id
p135
Nsg33
I621686881022025728
sVfavorite_count
p136
I0
sVsource
p137
V<a href="http://twitter.com" rel="nofollow">Twitter Web Client</a>
p138
sVretweeted
p139
I00
sVcoordinates
p140
NsVtimestamp_ms
p141
V1437056677476
p142
sVentities
p143
(dp144
Vuser_mentions
p145
(lp146
(dp147
g33
I451448044
sVindices
p148
(lp149
I0
aI9
asg42
V451448044
p150
sg72
VOKFNLabs
p151
sg66
VOKFN Labs
p152
sasVsymbols
p153
(lp154
sVtrends
p155
(lp156
sVhashtags
p157
(lp158
sVurls
p159
(lp160
(dp161
g75
Vhttp://t.co/F8hXRpG9Vp
p162
sg148
(lp163
I50
aI72
asVexpanded_url
p164
Vhttp://j.mp/okfnlabs201507
p165
sVdisplay_url
p166
Vj.mp/okfnlabs201507
p167
sassVin_reply_to_screen_name
p168
VOKFNLabs
p169
sg42
V621686881022025728
p170
sVretweet_count
p171
I0
sVin_reply_to_user_id
p172
I451448044
sVfavorited
p173
I00
sVuser
p174
g29
sVgeo
p175
NsVin_reply_to_user_id_str
p176
g130
sVpossibly_sensitive
p177
I00
sg68
g127
sg77
VThu Jul 16 14:24:37 +0000 2015
p178
sVfilter_level
p179
g122
sVin_reply_to_status_id_str
p180
NsVplace
p181
(dp182
Vfull_name
p183
VZurich, Switzerland
p184
sg75
Vhttps://api.twitter.com/1.1/geo/id/3acb748d0f1e9265.json
p185
sVcountry
p186
VSchweiz
p187
sVplace_type
p188
Vcity
p189
sVbounding_box
p190
(dp191
Vtype
p192
VPolygon
p193
sg140
(lp194
(lp195
(lp196
F8.448081
aF47.320183
aa(lp197
F8.448081
aF47.434721
aa(lp198
F8.625442
aF47.434721
aa(lp199
F8.625442
aF47.320183
aaassVcountry_code
p200
VCH
p201
sVattributes
p202
(dp203
sg33
V3acb748d0f1e9265
p204
sg66
VZurich
p205
sssS'coordinates'
p206
NsS'timestamp_ms'
p207
g142
sS'entities'
p208
g144
sS'in_reply_to_status_id_str'
p209
NsS'in_reply_to_screen_name'
p210
g169
sg91
g170
sS'retweeted'
p211
I00
sS'place'
p212
g0
(ctweepy.models
Place
p213
g2
Ntp214
Rp215
(dp216
S'full_name'
p217
g184
sg109
g185
sS'country'
p218
g187
sS'place_type'
p219
g189
sS'bounding_box'
p220
g0
(ctweepy.models
BoundingBox
p221
g2
Ntp222
Rp223
(dp224
S'type'
p225
g193
sg206
g194
sbsS'country_code'
p226
g201
sS'attributes'
p227
g203
sg24
g204
sg103
g205
sbsS'retweet_count'
p228
I0
sg110
g111
(S'\x07\xdf\x07\x10\x0e\x18%\x00\x00\x00'
p229
tp230
Rp231
sS'in_reply_to_user_id'
p232
I451448044
sb.