ccopy_reg
_reconstructor
p0
(ctweepy.models
Status
p1
c__builtin__
object
p2
Ntp3
Rp4
(dp5
S'contributors'
p6
NsS'truncated'
p7
I00
sS'text'
p8
VOur Beautiful #Zurich  https://t.co/7s4T4vkuYY
p9
sS'in_reply_to_status_id'
p10
NsS'id'
p11
I623821531928526848
sS'favorite_count'
p12
I0
sS'entities'
p13
(dp14
Vuser_mentions
p15
(lp16
sVsymbols
p17
(lp18
sVtrends
p19
(lp20
sVhashtags
p21
(lp22
(dp23
Vindices
p24
(lp25
I14
aI21
asVtext
p26
VZurich
p27
sasVurls
p28
(lp29
(dp30
Vurl
p31
Vhttps://t.co/7s4T4vkuYY
p32
sg24
(lp33
I23
aI46
asVexpanded_url
p34
Vhttps://twitter.com/newinzurich/status/623821356061343744
p35
sVdisplay_url
p36
Vtwitter.com/newinzurich/st\u2026
p37
sassS'quoted_status_id'
p38
I623821356061343744
sS'_json'
p39
(dp40
Vcontributors
p41
NsVtruncated
p42
I00
sg26
g9
sVin_reply_to_status_id
p43
NsVid
p44
I623821531928526848
sVfavorite_count
p45
I0
sVsource
p46
V<a href="http://twitter.com/download/iphone" rel="nofollow">Twitter for iPhone</a>
p47
sVquoted_status_id
p48
I623821356061343744
sVretweeted
p49
I00
sVcoordinates
p50
NsVtimestamp_ms
p51
V1437565617912
p52
sVquoted_status
p53
(dp54
g41
Nsg42
I00
sg26
VBeautiful Summer day again in #Zurich #visitzurich http://t.co/6jJXYDT8xl http://t.co/6nfuJNRmHU
p55
sg43
Nsg44
I623821356061343744
sg45
I0
sg46
V<a href="http://twitter.com/download/iphone" rel="nofollow">Twitter for iPhone</a>
p56
sg49
I00
sg50
NsVentities
p57
(dp58
g17
(lp59
sVmedia
p60
(lp61
(dp62
g34
Vhttp://twitter.com/NewInZurich/status/623821356061343744/photo/1
p63
sg36
Vpic.twitter.com/6nfuJNRmHU
p64
sg31
Vhttp://t.co/6nfuJNRmHU
p65
sVmedia_url_https
p66
Vhttps://pbs.twimg.com/media/CKhCNN1VAAAj_RM.jpg
p67
sVid_str
p68
V623821343209881600
p69
sVsizes
p70
(dp71
Vlarge
p72
(dp73
Vh
p74
I628
sVresize
p75
Vfit
p76
sVw
p77
I1024
ssVsmall
p78
(dp79
g74
I208
sg75
Vfit
p80
sg77
I340
ssVmedium
p81
(dp82
g74
I367
sg75
Vfit
p83
sg77
I600
ssVthumb
p84
(dp85
g74
I150
sg75
Vcrop
p86
sg77
I150
sssg24
(lp87
I74
aI96
asVtype
p88
Vphoto
p89
sg44
I623821343209881600
sVmedia_url
p90
Vhttp://pbs.twimg.com/media/CKhCNN1VAAAj_RM.jpg
p91
sasg21
(lp92
(dp93
g24
(lp94
I30
aI37
asg26
VZurich
p95
sa(dp96
g24
(lp97
I38
aI50
asg26
Vvisitzurich
p98
sasg15
(lp99
sg19
(lp100
sg28
(lp101
(dp102
g31
Vhttp://t.co/6jJXYDT8xl
p103
sg24
(lp104
I51
aI73
asg34
Vhttp://newinzurich.com/2015/07/whats-on-in-zurich-mid-to-late-july-2015/
p105
sg36
Vnewinzurich.com/2015/07/whats-\u2026
p106
sassVin_reply_to_screen_name
p107
Nsg68
V623821356061343744
p108
sVretweet_count
p109
I0
sVin_reply_to_user_id
p110
NsVfavorited
p111
I00
sVuser
p112
(dp113
Vfollow_request_sent
p114
NsVprofile_use_background_image
p115
I01
sVdefault_profile_image
p116
I00
sg44
I381671578
sVverified
p117
I00
sVprofile_image_url_https
p118
Vhttps://pbs.twimg.com/profile_images/1564200089/IMG_0130_2_-_Version_2_normal.jpg
p119
sVprofile_sidebar_fill_color
p120
VF3F3F3
p121
sVprofile_text_color
p122
V333333
p123
sVfollowers_count
p124
I2881
sVprofile_sidebar_border_color
p125
VDFDFDF
p126
sg68
V381671578
p127
sVprofile_background_color
p128
VEBEBEB
p129
sVlisted_count
p130
I67
sVprofile_background_image_url_https
p131
Vhttps://pbs.twimg.com/profile_background_images/539773938/IMG_6522.jpg
p132
sVutc_offset
p133
I7200
sVstatuses_count
p134
I5335
sVdescription
p135
VExploring what's new in and around Zurich. Workshops, talks and tours in Zurich and Switzerland. Swiss life via photos & news
p136
sVfriends_count
p137
I914
sVlocation
p138
VZurich, Switzerland
p139
sVprofile_link_color
p140
V0A0099
p141
sVprofile_image_url
p142
Vhttp://pbs.twimg.com/profile_images/1564200089/IMG_0130_2_-_Version_2_normal.jpg
p143
sVfollowing
p144
NsVgeo_enabled
p145
I01
sVprofile_banner_url
p146
Vhttps://pbs.twimg.com/profile_banners/381671578/1360699256
p147
sVprofile_background_image_url
p148
Vhttp://pbs.twimg.com/profile_background_images/539773938/IMG_6522.jpg
p149
sVname
p150
VNewInZurich
p151
sVlang
p152
Ven
p153
sVprofile_background_tile
p154
I01
sVfavourites_count
p155
I1171
sVscreen_name
p156
VNewInZurich
p157
sVnotifications
p158
Nsg31
Vhttp://www.NewInZurich.com
p159
sVcreated_at
p160
VWed Sep 28 18:45:52 +0000 2011
p161
sVcontributors_enabled
p162
I00
sVtime_zone
p163
VVienna
p164
sVprotected
p165
I00
sVdefault_profile
p166
I00
sVis_translator
p167
I00
ssVgeo
p168
NsVin_reply_to_user_id_str
p169
NsVpossibly_sensitive
p170
I00
sg152
Ven
p171
sg160
VWed Jul 22 11:46:15 +0000 2015
p172
sVfilter_level
p173
Vlow
p174
sVin_reply_to_status_id_str
p175
NsVplace
p176
NsVextended_entities
p177
(dp178
g60
(lp179
(dp180
g34
Vhttp://twitter.com/NewInZurich/status/623821356061343744/photo/1
p181
sg36
Vpic.twitter.com/6nfuJNRmHU
p182
sg31
Vhttp://t.co/6nfuJNRmHU
p183
sg66
Vhttps://pbs.twimg.com/media/CKhCNN1VAAAj_RM.jpg
p184
sg68
V623821343209881600
p185
sg70
(dp186
g72
(dp187
g74
I628
sg75
Vfit
p188
sg77
I1024
ssg78
(dp189
g74
I208
sg75
Vfit
p190
sg77
I340
ssg81
(dp191
g74
I367
sg75
Vfit
p192
sg77
I600
ssg84
(dp193
g74
I150
sg75
Vcrop
p194
sg77
I150
sssg24
(lp195
I74
aI96
asg88
Vphoto
p196
sg44
I623821343209881600
sg90
Vhttp://pbs.twimg.com/media/CKhCNN1VAAAj_RM.jpg
p197
sasssg57
g14
sg107
Nsg68
V623821531928526848
p198
sg109
I0
sg110
Nsg111
I00
sg112
(dp199
g114
Nsg115
I00
sg116
I00
sg44
I93762339
sg117
I00
sg118
Vhttps://pbs.twimg.com/profile_images/615072536619974656/LNETfB1Y_normal.jpg
p200
sg120
V252429
p201
sg122
V666666
p202
sg124
I1237
sg125
VFFFFFF
p203
sg68
V93762339
p204
sg128
VF5F7FA
p205
sg130
I69
sg131
Vhttps://pbs.twimg.com/profile_background_images/595570234192306176/zdw1IE1s.jpg
p206
sg133
I7200
sg134
I21104
sg135
VA daily review of travel ideas, trends and lifestyle goodies. A lifestyle blog that wants to me you smile ..
p207
sg137
I1729
sg138
VZurich -Switzerland 
p208
sg140
V69E7F0
p209
sg142
Vhttp://pbs.twimg.com/profile_images/615072536619974656/LNETfB1Y_normal.jpg
p210
sg144
Nsg145
I01
sg146
Vhttps://pbs.twimg.com/profile_banners/93762339/1436957156
p211
sg148
Vhttp://pbs.twimg.com/profile_background_images/595570234192306176/zdw1IE1s.jpg
p212
sg150
VHDL Lifestyle Blog
p213
sg152
Ven
p214
sg154
I00
sg155
I875
sg156
Vhuellasdluzblog
p215
sg158
Nsg31
Vhttp://www.huellasdeluzblog.com
p216
sg160
VTue Dec 01 01:46:57 +0000 2009
p217
sg162
I00
sg163
VBern
p218
sg165
I00
sg166
I00
sg167
I00
ssg168
Nsg169
Nsg170
I00
sg152
Ven
p219
sg160
VWed Jul 22 11:46:57 +0000 2015
p220
sVquoted_status_id_str
p221
V623821356061343744
p222
sg173
Vlow
p223
sg175
Nsg176
(dp224
Vfull_name
p225
VZurich, Switzerland
p226
sg31
Vhttps://api.twitter.com/1.1/geo/id/db94c1cccc67c4f4.json
p227
sVcountry
p228
VSchweiz
p229
sVplace_type
p230
Vadmin
p231
sVbounding_box
p232
(dp233
g88
VPolygon
p234
sg50
(lp235
(lp236
(lp237
F8.357749
aF47.159384
aa(lp238
F8.357749
aF47.694503
aa(lp239
F8.984445
aF47.694503
aa(lp240
F8.984445
aF47.159384
aaassVcountry_code
p241
VCH
p242
sVattributes
p243
(dp244
sg44
Vdb94c1cccc67c4f4
p245
sg150
VZurich
p246
sssS'coordinates'
p247
NsS'timestamp_ms'
p248
g52
sS'quoted_status'
p249
g54
sS'source'
p250
VTwitter for iPhone
p251
sS'in_reply_to_screen_name'
p252
NsS'id_str'
p253
g198
sS'retweet_count'
p254
I0
sS'in_reply_to_user_id'
p255
NsS'favorited'
p256
I00
sS'source_url'
p257
Vhttp://twitter.com/download/iphone
p258
sS'user'
p259
g0
(ctweepy.models
User
p260
g2
Ntp261
Rp262
(dp263
S'follow_request_sent'
p264
NsS'profile_use_background_image'
p265
I00
sS'profile_sidebar_fill_color'
p266
g201
sg11
I93762339
sS'verified'
p267
I00
sS'profile_image_url_https'
p268
g200
sg39
g199
sS'contributors_enabled'
p269
I00
sS'profile_text_color'
p270
g202
sS'followers_count'
p271
I1237
sS'profile_sidebar_border_color'
p272
g203
sS'location'
p273
g208
sS'default_profile_image'
p274
I00
sg253
g204
sS'utc_offset'
p275
I7200
sS'statuses_count'
p276
I21104
sS'description'
p277
g207
sS'friends_count'
p278
I1729
sS'profile_link_color'
p279
g209
sS'profile_image_url'
p280
g210
sS'notifications'
p281
NsS'geo_enabled'
p282
I01
sS'profile_background_color'
p283
g205
sS'profile_banner_url'
p284
g211
sS'profile_background_image_url'
p285
g212
sS'name'
p286
g213
sS'lang'
p287
g214
sS'following'
p288
I00
sS'profile_background_tile'
p289
I00
sS'favourites_count'
p290
I875
sS'screen_name'
p291
g215
sS'url'
p292
g216
sS'created_at'
p293
cdatetime
datetime
p294
(S'\x07\xd9\x0c\x01\x01.9\x00\x00\x00'
p295
tp296
Rp297
sS'profile_background_image_url_https'
p298
g206
sS'time_zone'
p299
g218
sS'protected'
p300
I00
sS'default_profile'
p301
I00
sS'is_translator'
p302
I00
sS'listed_count'
p303
I69
sbsS'geo'
p304
NsS'in_reply_to_user_id_str'
p305
NsS'possibly_sensitive'
p306
I00
sg287
g219
sg293
g294
(S'\x07\xdf\x07\x16\x0b.9\x00\x00\x00'
p307
tp308
Rp309
sS'author'
p310
g262
sS'quoted_status_id_str'
p311
g222
sS'filter_level'
p312
g223
sS'in_reply_to_status_id_str'
p313
NsS'place'
p314
g0
(ctweepy.models
Place
p315
g2
Ntp316
Rp317
(dp318
S'full_name'
p319
g226
sg292
g227
sS'country'
p320
g229
sS'place_type'
p321
g231
sS'bounding_box'
p322
g0
(ctweepy.models
BoundingBox
p323
g2
Ntp324
Rp325
(dp326
S'type'
p327
g234
sg247
g235
sbsS'country_code'
p328
g242
sS'attributes'
p329
g244
sg11
g245
sg286
g246
sbsS'retweeted'
p330
I00
sb.