ccopy_reg
_reconstructor
p0
(ctweepy.models
Status
p1
c__builtin__
object
p2
Ntp3
Rp4
(dp5
S'favorited'
p6
I00
sS'contributors'
p7
NsS'truncated'
p8
I00
sS'text'
p9
V@chapeaucycling also, that cap matches one of my Chapeau jerseys so clearly I have to win http://t.co/fTsVKjdcVf
p10
sS'source_url'
p11
Vhttp://twitter.com
p12
sS'possibly_sensitive'
p13
I00
sS'in_reply_to_status_id'
p14
I623803303097409536
sS'user'
p15
g0
(ctweepy.models
User
p16
g2
Ntp17
Rp18
(dp19
S'follow_request_sent'
p20
NsS'profile_use_background_image'
p21
I01
sS'profile_sidebar_fill_color'
p22
VDDEEF6
p23
sS'id'
p24
I56808658
sS'verified'
p25
I00
sS'profile_image_url_https'
p26
Vhttps://pbs.twimg.com/profile_images/313781879/Jamie_normal.jpg
p27
sS'_json'
p28
(dp29
Vfollow_request_sent
p30
NsVprofile_use_background_image
p31
I01
sVdefault_profile_image
p32
I00
sVid
p33
I56808658
sVverified
p34
I00
sVprofile_image_url_https
p35
g27
sVprofile_sidebar_fill_color
p36
g23
sVprofile_text_color
p37
V333333
p38
sVfollowers_count
p39
I139
sVprofile_sidebar_border_color
p40
VC0DEED
p41
sVid_str
p42
V56808658
p43
sVprofile_background_color
p44
VC0DEED
p45
sVlisted_count
p46
I6
sVprofile_background_image_url_https
p47
Vhttps://abs.twimg.com/images/themes/theme1/bg.png
p48
sVutc_offset
p49
I3600
sVstatuses_count
p50
I1302
sVdescription
p51
VAuto industry marketeer and writer for a living. Ex-pat, petrolhead, cyclist, foodie and wine lover for fun
p52
sVfriends_count
p53
I376
sVlocation
p54
VZurich CH and Brighton UK
p55
sVprofile_link_color
p56
V0084B4
p57
sVprofile_image_url
p58
Vhttp://pbs.twimg.com/profile_images/313781879/Jamie_normal.jpg
p59
sVfollowing
p60
NsVgeo_enabled
p61
I01
sVprofile_banner_url
p62
Vhttps://pbs.twimg.com/profile_banners/56808658/1424166168
p63
sVprofile_background_image_url
p64
Vhttp://abs.twimg.com/images/themes/theme1/bg.png
p65
sVname
p66
VJamie Edmonds
p67
sVlang
p68
Ven
p69
sVprofile_background_tile
p70
I00
sVfavourites_count
p71
I31
sVscreen_name
p72
VJBAEdmonds
p73
sVnotifications
p74
NsVurl
p75
NsVcreated_at
p76
VTue Jul 14 20:37:36 +0000 2009
p77
sVcontributors_enabled
p78
I00
sVtime_zone
p79
VLondon
p80
sVprotected
p81
I00
sVdefault_profile
p82
I01
sVis_translator
p83
I00
ssS'contributors_enabled'
p84
I00
sS'profile_text_color'
p85
g38
sS'followers_count'
p86
I139
sS'profile_sidebar_border_color'
p87
g41
sS'location'
p88
g55
sS'default_profile_image'
p89
I00
sS'id_str'
p90
g43
sS'utc_offset'
p91
I3600
sS'statuses_count'
p92
I1302
sS'description'
p93
g52
sS'friends_count'
p94
I376
sS'profile_link_color'
p95
g57
sS'profile_image_url'
p96
g59
sS'notifications'
p97
NsS'geo_enabled'
p98
I01
sS'profile_background_color'
p99
g45
sS'profile_banner_url'
p100
g63
sS'profile_background_image_url'
p101
g65
sS'name'
p102
g67
sS'lang'
p103
g69
sS'following'
p104
I00
sS'profile_background_tile'
p105
I00
sS'favourites_count'
p106
I31
sS'screen_name'
p107
g73
sS'url'
p108
NsS'created_at'
p109
cdatetime
datetime
p110
(S'\x07\xd9\x07\x0e\x14%$\x00\x00\x00'
p111
tp112
Rp113
sS'profile_background_image_url_https'
p114
g48
sS'time_zone'
p115
g80
sS'protected'
p116
I00
sS'default_profile'
p117
I01
sS'is_translator'
p118
I00
sS'listed_count'
p119
I6
sbsS'filter_level'
p120
Vlow
p121
sS'geo'
p122
Nsg24
I623807076389814272
sS'favorite_count'
p123
I0
sS'source'
p124
VTwitter Web Client
p125
sg103
Ven
p126
sS'author'
p127
g18
sS'in_reply_to_user_id_str'
p128
V56808658
p129
sg28
(dp130
Vcontributors
p131
NsVtruncated
p132
I00
sVtext
p133
g10
sVin_reply_to_status_id
p134
I623803303097409536
sg33
I623807076389814272
sVfavorite_count
p135
I0
sVsource
p136
V<a href="http://twitter.com" rel="nofollow">Twitter Web Client</a>
p137
sVretweeted
p138
I00
sVcoordinates
p139
NsVtimestamp_ms
p140
V1437562171443
p141
sVentities
p142
(dp143
Vsymbols
p144
(lp145
sVmedia
p146
(lp147
(dp148
Vexpanded_url
p149
Vhttp://twitter.com/JBAEdmonds/status/623807076389814272/photo/1
p150
sVdisplay_url
p151
Vpic.twitter.com/fTsVKjdcVf
p152
sg75
Vhttp://t.co/fTsVKjdcVf
p153
sVmedia_url_https
p154
Vhttps://pbs.twimg.com/media/CKg1OvFWwAEkiZ8.png
p155
sg42
V623807075664183297
p156
sVsizes
p157
(dp158
Vlarge
p159
(dp160
Vh
p161
I120
sVresize
p162
Vfit
p163
sVw
p164
I120
ssVsmall
p165
(dp166
g161
I120
sg162
Vfit
p167
sg164
I120
ssVmedium
p168
(dp169
g161
I120
sg162
Vfit
p170
sg164
I120
ssVthumb
p171
(dp172
g161
I120
sg162
Vcrop
p173
sg164
I120
sssVindices
p174
(lp175
I90
aI112
asVtype
p176
Vphoto
p177
sg33
I623807075664183297
sVmedia_url
p178
Vhttp://pbs.twimg.com/media/CKg1OvFWwAEkiZ8.png
p179
sasVhashtags
p180
(lp181
sVuser_mentions
p182
(lp183
(dp184
g33
I1076310757
sg174
(lp185
I0
aI15
asg42
V1076310757
p186
sg72
Vchapeaucycling
p187
sg66
VChapeau!
p188
sasVtrends
p189
(lp190
sVurls
p191
(lp192
ssVin_reply_to_screen_name
p193
VJBAEdmonds
p194
sg42
V623807076389814272
p195
sVretweet_count
p196
I0
sVin_reply_to_user_id
p197
I56808658
sVfavorited
p198
I00
sVuser
p199
g29
sVgeo
p200
NsVin_reply_to_user_id_str
p201
g129
sVpossibly_sensitive
p202
I00
sg68
g126
sg76
VWed Jul 22 10:49:31 +0000 2015
p203
sVfilter_level
p204
g121
sVin_reply_to_status_id_str
p205
V623803303097409536
p206
sVplace
p207
(dp208
Vfull_name
p209
VZurich, Switzerland
p210
sg75
Vhttps://api.twitter.com/1.1/geo/id/db94c1cccc67c4f4.json
p211
sVcountry
p212
VSchweiz
p213
sVplace_type
p214
Vadmin
p215
sVbounding_box
p216
(dp217
g176
VPolygon
p218
sg139
(lp219
(lp220
(lp221
F8.357749
aF47.159384
aa(lp222
F8.357749
aF47.694503
aa(lp223
F8.984445
aF47.694503
aa(lp224
F8.984445
aF47.159384
aaassVcountry_code
p225
VCH
p226
sVattributes
p227
(dp228
sg33
Vdb94c1cccc67c4f4
p229
sg66
VZurich
p230
ssVextended_entities
p231
(dp232
g146
(lp233
(dp234
g149
Vhttp://twitter.com/JBAEdmonds/status/623807076389814272/photo/1
p235
sg151
Vpic.twitter.com/fTsVKjdcVf
p236
sg75
Vhttp://t.co/fTsVKjdcVf
p237
sg154
Vhttps://pbs.twimg.com/media/CKg1OvFWwAEkiZ8.png
p238
sg42
V623807075664183297
p239
sg157
(dp240
g159
(dp241
g161
I120
sg162
Vfit
p242
sg164
I120
ssg165
(dp243
g161
I120
sg162
Vfit
p244
sg164
I120
ssg168
(dp245
g161
I120
sg162
Vfit
p246
sg164
I120
ssg171
(dp247
g161
I120
sg162
Vcrop
p248
sg164
I120
sssg174
(lp249
I90
aI112
asg176
Vphoto
p250
sg33
I623807075664183297
sg178
Vhttp://pbs.twimg.com/media/CKg1OvFWwAEkiZ8.png
p251
sasssS'coordinates'
p252
NsS'timestamp_ms'
p253
g141
sS'entities'
p254
g143
sS'in_reply_to_status_id_str'
p255
g206
sS'in_reply_to_screen_name'
p256
g194
sg90
g195
sS'extended_entities'
p257
g232
sS'retweeted'
p258
I00
sS'place'
p259
g0
(ctweepy.models
Place
p260
g2
Ntp261
Rp262
(dp263
S'full_name'
p264
g210
sg108
g211
sS'country'
p265
g213
sS'place_type'
p266
g215
sS'bounding_box'
p267
g0
(ctweepy.models
BoundingBox
p268
g2
Ntp269
Rp270
(dp271
S'type'
p272
g218
sg252
g219
sbsS'country_code'
p273
g226
sS'attributes'
p274
g228
sg24
g229
sg102
g230
sbsS'retweet_count'
p275
I0
sg109
g110
(S'\x07\xdf\x07\x16\n1\x1f\x00\x00\x00'
p276
tp277
Rp278
sS'in_reply_to_user_id'
p279
I56808658
sb.