ccopy_reg
_reconstructor
p0
(ctweepy.models
Status
p1
c__builtin__
object
p2
Ntp3
Rp4
(dp5
S'favorited'
p6
I00
sS'contributors'
p7
NsS'truncated'
p8
I00
sS'text'
p9
VSono da poco terminati i #test d'ammissione!\u000aLa grande famiglia #Ludes si allarga! #fisioterapia #WEAREFAMILY #estate http://t.co/TD1sSJ9rEQ
p10
sS'source_url'
p11
Vhttp://twitter.com
p12
sS'possibly_sensitive'
p13
I00
sS'in_reply_to_status_id'
p14
NsS'user'
p15
g0
(ctweepy.models
User
p16
g2
Ntp17
Rp18
(dp19
S'follow_request_sent'
p20
NsS'profile_use_background_image'
p21
I01
sS'profile_sidebar_fill_color'
p22
VDDEEF6
p23
sS'id'
p24
I252307995
sS'verified'
p25
I00
sS'profile_image_url_https'
p26
Vhttps://pbs.twimg.com/profile_images/443328698607878144/O7scyvL0_normal.jpeg
p27
sS'_json'
p28
(dp29
Vfollow_request_sent
p30
NsVprofile_use_background_image
p31
I01
sVdefault_profile_image
p32
I00
sVid
p33
I252307995
sVverified
p34
I00
sVprofile_image_url_https
p35
g27
sVprofile_sidebar_fill_color
p36
g23
sVprofile_text_color
p37
V333333
p38
sVfollowers_count
p39
I299
sVprofile_sidebar_border_color
p40
VC0DEED
p41
sVid_str
p42
V252307995
p43
sVprofile_background_color
p44
VC0DEED
p45
sVlisted_count
p46
I14
sVprofile_background_image_url_https
p47
Vhttps://abs.twimg.com/images/themes/theme1/bg.png
p48
sVutc_offset
p49
I7200
sVstatuses_count
p50
I1061
sVdescription
p51
VSwiss Education
p52
sVfriends_count
p53
I129
sVlocation
p54
VSwitzerland
p55
sVprofile_link_color
p56
V000FB3
p57
sVprofile_image_url
p58
Vhttp://pbs.twimg.com/profile_images/443328698607878144/O7scyvL0_normal.jpeg
p59
sVfollowing
p60
NsVgeo_enabled
p61
I01
sVprofile_banner_url
p62
Vhttps://pbs.twimg.com/profile_banners/252307995/1432724219
p63
sVprofile_background_image_url
p64
Vhttp://abs.twimg.com/images/themes/theme1/bg.png
p65
sVname
p66
VLudes 
p67
sVlang
p68
Vit
p69
sVprofile_background_tile
p70
I00
sVfavourites_count
p71
I214
sVscreen_name
p72
Vuniludes
p73
sVnotifications
p74
NsVurl
p75
Vhttp://www.uniludes.ch
p76
sVcreated_at
p77
VMon Feb 14 22:56:29 +0000 2011
p78
sVcontributors_enabled
p79
I00
sVtime_zone
p80
VBern
p81
sVprotected
p82
I00
sVdefault_profile
p83
I00
sVis_translator
p84
I00
ssS'contributors_enabled'
p85
I00
sS'profile_text_color'
p86
g38
sS'followers_count'
p87
I299
sS'profile_sidebar_border_color'
p88
g41
sS'location'
p89
g55
sS'default_profile_image'
p90
I00
sS'id_str'
p91
g43
sS'utc_offset'
p92
I7200
sS'statuses_count'
p93
I1061
sS'description'
p94
g52
sS'friends_count'
p95
I129
sS'profile_link_color'
p96
g57
sS'profile_image_url'
p97
g59
sS'notifications'
p98
NsS'geo_enabled'
p99
I01
sS'profile_background_color'
p100
g45
sS'profile_banner_url'
p101
g63
sS'profile_background_image_url'
p102
g65
sS'name'
p103
g67
sS'lang'
p104
g69
sS'following'
p105
I00
sS'profile_background_tile'
p106
I00
sS'favourites_count'
p107
I214
sS'screen_name'
p108
g73
sS'url'
p109
g76
sS'created_at'
p110
cdatetime
datetime
p111
(S'\x07\xdb\x02\x0e\x168\x1d\x00\x00\x00'
p112
tp113
Rp114
sS'profile_background_image_url_https'
p115
g48
sS'time_zone'
p116
g81
sS'protected'
p117
I00
sS'default_profile'
p118
I00
sS'is_translator'
p119
I00
sS'listed_count'
p120
I14
sbsS'filter_level'
p121
Vlow
p122
sS'geo'
p123
Nsg24
I623804182768820224
sS'favorite_count'
p124
I0
sS'source'
p125
VTwitter Web Client
p126
sg104
Vit
p127
sS'author'
p128
g18
sS'in_reply_to_user_id_str'
p129
Nsg28
(dp130
Vcontributors
p131
NsVtruncated
p132
I00
sVtext
p133
VSono da poco terminati i #test d'ammissione!\u000aLa grande famiglia #Ludes si allarga! #fisioterapia #WEAREFAMILY #estate http://t.co/TD1sSJ9rEQ
p134
sVin_reply_to_status_id
p135
Nsg33
I623804182768820224
sVfavorite_count
p136
I0
sVsource
p137
V<a href="http://twitter.com" rel="nofollow">Twitter Web Client</a>
p138
sVretweeted
p139
I00
sVcoordinates
p140
NsVtimestamp_ms
p141
V1437561481550
p142
sVentities
p143
(dp144
Vsymbols
p145
(lp146
sVmedia
p147
(lp148
(dp149
Vexpanded_url
p150
Vhttp://twitter.com/uniludes/status/623804182768820224/photo/1
p151
sVdisplay_url
p152
Vpic.twitter.com/TD1sSJ9rEQ
p153
sg75
Vhttp://t.co/TD1sSJ9rEQ
p154
sVmedia_url_https
p155
Vhttps://pbs.twimg.com/media/CKgymSzWgAUXONX.jpg
p156
sg42
V623804181854453765
p157
sVsizes
p158
(dp159
Vsmall
p160
(dp161
Vh
p162
I226
sVresize
p163
Vfit
p164
sVw
p165
I340
ssVlarge
p166
(dp167
g162
I682
sg163
Vfit
p168
sg165
I1024
ssVmedium
p169
(dp170
g162
I399
sg163
Vfit
p171
sg165
I600
ssVthumb
p172
(dp173
g162
I150
sg163
Vcrop
p174
sg165
I150
sssVindices
p175
(lp176
I118
aI140
asVtype
p177
Vphoto
p178
sg33
I623804181854453765
sVmedia_url
p179
Vhttp://pbs.twimg.com/media/CKgymSzWgAUXONX.jpg
p180
sasVhashtags
p181
(lp182
(dp183
g175
(lp184
I25
aI30
asg133
Vtest
p185
sa(dp186
g175
(lp187
I64
aI70
asg133
VLudes
p188
sa(dp189
g175
(lp190
I83
aI96
asg133
Vfisioterapia
p191
sa(dp192
g175
(lp193
I97
aI109
asg133
VWEAREFAMILY
p194
sa(dp195
g175
(lp196
I110
aI117
asg133
Vestate
p197
sasVuser_mentions
p198
(lp199
sVtrends
p200
(lp201
sVurls
p202
(lp203
ssVin_reply_to_screen_name
p204
Nsg42
V623804182768820224
p205
sVretweet_count
p206
I0
sVin_reply_to_user_id
p207
NsVfavorited
p208
I00
sVuser
p209
g29
sVgeo
p210
NsVin_reply_to_user_id_str
p211
NsVpossibly_sensitive
p212
I00
sg68
g127
sg77
VWed Jul 22 10:38:01 +0000 2015
p213
sVfilter_level
p214
g122
sVin_reply_to_status_id_str
p215
NsVplace
p216
(dp217
Vfull_name
p218
VZurigo, Svizzera
p219
sg75
Vhttps://api.twitter.com/1.1/geo/id/db94c1cccc67c4f4.json
p220
sVcountry
p221
VSchweiz
p222
sVplace_type
p223
Vadmin
p224
sVbounding_box
p225
(dp226
g177
VPolygon
p227
sg140
(lp228
(lp229
(lp230
F8.357749
aF47.159384
aa(lp231
F8.357749
aF47.694503
aa(lp232
F8.984445
aF47.694503
aa(lp233
F8.984445
aF47.159384
aaassVcountry_code
p234
VCH
p235
sVattributes
p236
(dp237
sg33
Vdb94c1cccc67c4f4
p238
sg66
VZurigo
p239
ssVextended_entities
p240
(dp241
g147
(lp242
(dp243
g150
Vhttp://twitter.com/uniludes/status/623804182768820224/photo/1
p244
sg152
Vpic.twitter.com/TD1sSJ9rEQ
p245
sg75
Vhttp://t.co/TD1sSJ9rEQ
p246
sg155
Vhttps://pbs.twimg.com/media/CKgymSzWgAUXONX.jpg
p247
sg42
V623804181854453765
p248
sg158
(dp249
g160
(dp250
g162
I226
sg163
Vfit
p251
sg165
I340
ssg166
(dp252
g162
I682
sg163
Vfit
p253
sg165
I1024
ssg169
(dp254
g162
I399
sg163
Vfit
p255
sg165
I600
ssg172
(dp256
g162
I150
sg163
Vcrop
p257
sg165
I150
sssg175
(lp258
I118
aI140
asg177
Vphoto
p259
sg33
I623804181854453765
sg179
Vhttp://pbs.twimg.com/media/CKgymSzWgAUXONX.jpg
p260
sasssS'coordinates'
p261
NsS'timestamp_ms'
p262
g142
sS'entities'
p263
g144
sS'in_reply_to_status_id_str'
p264
NsS'in_reply_to_screen_name'
p265
Nsg91
g205
sS'extended_entities'
p266
g241
sS'retweeted'
p267
I00
sS'place'
p268
g0
(ctweepy.models
Place
p269
g2
Ntp270
Rp271
(dp272
S'full_name'
p273
g219
sg109
g220
sS'country'
p274
g222
sS'place_type'
p275
g224
sS'bounding_box'
p276
g0
(ctweepy.models
BoundingBox
p277
g2
Ntp278
Rp279
(dp280
S'type'
p281
g227
sg261
g228
sbsS'country_code'
p282
g235
sS'attributes'
p283
g237
sg24
g238
sg103
g239
sbsS'retweet_count'
p284
I0
sg110
g111
(S'\x07\xdf\x07\x16\n&\x01\x00\x00\x00'
p285
tp286
Rp287
sS'in_reply_to_user_id'
p288
Nsb.