ccopy_reg
_reconstructor
p0
(ctweepy.models
Status
p1
c__builtin__
object
p2
Ntp3
Rp4
(dp5
S'favorited'
p6
I00
sS'contributors'
p7
NsS'truncated'
p8
I00
sS'text'
p9
VJust about to back the @creativecommons Open #BusinessModel book on @kickstarter https://t.co/XUxJ6b54xT http://t.co/ZQ56p096r7
p10
sS'source_url'
p11
Vhttp://twitter.com/download/iphone
p12
sS'possibly_sensitive'
p13
I01
sS'in_reply_to_status_id'
p14
NsS'user'
p15
g0
(ctweepy.models
User
p16
g2
Ntp17
Rp18
(dp19
S'follow_request_sent'
p20
NsS'profile_use_background_image'
p21
I00
sS'profile_sidebar_fill_color'
p22
VDDEEF6
p23
sS'id'
p24
I64404895
sS'verified'
p25
I00
sS'profile_image_url_https'
p26
Vhttps://pbs.twimg.com/profile_images/532304119596601345/NCceuQWC_normal.jpeg
p27
sS'_json'
p28
(dp29
Vfollow_request_sent
p30
NsVprofile_use_background_image
p31
I00
sVdefault_profile_image
p32
I00
sVid
p33
I64404895
sVverified
p34
I00
sVprofile_image_url_https
p35
g27
sVprofile_sidebar_fill_color
p36
g23
sVprofile_text_color
p37
V333333
p38
sVfollowers_count
p39
I1173
sVprofile_sidebar_border_color
p40
VFFFFFF
p41
sVid_str
p42
V64404895
p43
sVprofile_background_color
p44
VF7F7F7
p45
sVlisted_count
p46
I59
sVprofile_background_image_url_https
p47
Vhttps://pbs.twimg.com/profile_background_images/455393916062162944/jmENSek7.jpeg
p48
sVutc_offset
p49
I3600
sVstatuses_count
p50
I2703
sVdescription
p51
VConnecting dots to advance Swiss Higher Education @switch_ch ; #Internet Service #Innovation Researcher; Innovator; Passionate about Tech ; dogfather; O|||||||O
p52
sVfriends_count
p53
I2000
sVlocation
p54
VZurich, Switzerland
p55
sVprofile_link_color
p56
V3B94D9
p57
sVprofile_image_url
p58
Vhttp://pbs.twimg.com/profile_images/532304119596601345/NCceuQWC_normal.jpeg
p59
sVfollowing
p60
NsVgeo_enabled
p61
I01
sVprofile_banner_url
p62
Vhttps://pbs.twimg.com/profile_banners/64404895/1431541449
p63
sVprofile_background_image_url
p64
Vhttp://pbs.twimg.com/profile_background_images/455393916062162944/jmENSek7.jpeg
p65
sVname
p66
VSebastian Sigloch
p67
sVlang
p68
Ven
p69
sVprofile_background_tile
p70
I00
sVfavourites_count
p71
I1632
sVscreen_name
p72
VSebSigloch
p73
sVnotifications
p74
NsVurl
p75
NsVcreated_at
p76
VMon Aug 10 13:38:45 +0000 2009
p77
sVcontributors_enabled
p78
I00
sVtime_zone
p79
VLondon
p80
sVprotected
p81
I00
sVdefault_profile
p82
I00
sVis_translator
p83
I00
ssS'contributors_enabled'
p84
I00
sS'profile_text_color'
p85
g38
sS'followers_count'
p86
I1173
sS'profile_sidebar_border_color'
p87
g41
sS'location'
p88
g55
sS'default_profile_image'
p89
I00
sS'id_str'
p90
g43
sS'utc_offset'
p91
I3600
sS'statuses_count'
p92
I2703
sS'description'
p93
g52
sS'friends_count'
p94
I2000
sS'profile_link_color'
p95
g57
sS'profile_image_url'
p96
g59
sS'notifications'
p97
NsS'geo_enabled'
p98
I01
sS'profile_background_color'
p99
g45
sS'profile_banner_url'
p100
g63
sS'profile_background_image_url'
p101
g65
sS'name'
p102
g67
sS'lang'
p103
g69
sS'following'
p104
I00
sS'profile_background_tile'
p105
I00
sS'favourites_count'
p106
I1632
sS'screen_name'
p107
g73
sS'url'
p108
NsS'created_at'
p109
cdatetime
datetime
p110
(S'\x07\xd9\x08\n\r&-\x00\x00\x00'
p111
tp112
Rp113
sS'profile_background_image_url_https'
p114
g48
sS'time_zone'
p115
g80
sS'protected'
p116
I00
sS'default_profile'
p117
I00
sS'is_translator'
p118
I00
sS'listed_count'
p119
I59
sbsS'filter_level'
p120
Vlow
p121
sS'geo'
p122
Nsg24
I621421045808001024
sS'favorite_count'
p123
I0
sS'source'
p124
VTwitter for iPhone
p125
sg103
Ven
p126
sS'author'
p127
g18
sS'in_reply_to_user_id_str'
p128
Nsg28
(dp129
Vcontributors
p130
NsVtruncated
p131
I00
sVtext
p132
g10
sVin_reply_to_status_id
p133
Nsg33
I621421045808001024
sVfavorite_count
p134
I0
sVsource
p135
V<a href="http://twitter.com/download/iphone" rel="nofollow">Twitter for iPhone</a>
p136
sVretweeted
p137
I00
sVcoordinates
p138
NsVtimestamp_ms
p139
V1436993297422
p140
sVentities
p141
(dp142
Vsymbols
p143
(lp144
sVmedia
p145
(lp146
(dp147
Vexpanded_url
p148
Vhttp://twitter.com/SebSigloch/status/621421045808001024/photo/1
p149
sVdisplay_url
p150
Vpic.twitter.com/ZQ56p096r7
p151
sg75
Vhttp://t.co/ZQ56p096r7
p152
sVmedia_url_https
p153
Vhttps://pbs.twimg.com/media/CJ-7JIIUsAEVwKz.jpg
p154
sg42
V621421039076028417
p155
sVsizes
p156
(dp157
Vsmall
p158
(dp159
Vh
p160
I194
sVresize
p161
Vfit
p162
sVw
p163
I340
ssVlarge
p164
(dp165
g160
I419
sg161
Vfit
p166
sg163
I732
ssVmedium
p167
(dp168
g160
I343
sg161
Vfit
p169
sg163
I600
ssVthumb
p170
(dp171
g160
I150
sg161
Vcrop
p172
sg163
I150
sssVindices
p173
(lp174
I105
aI127
asVtype
p175
Vphoto
p176
sg33
I621421039076028417
sVmedia_url
p177
Vhttp://pbs.twimg.com/media/CJ-7JIIUsAEVwKz.jpg
p178
sasVhashtags
p179
(lp180
(dp181
g173
(lp182
I45
aI59
asg132
VBusinessModel
p183
sasVuser_mentions
p184
(lp185
(dp186
g33
I17462723
sg173
(lp187
I23
aI39
asg42
V17462723
p188
sg72
Vcreativecommons
p189
sg66
VCreative Commons
p190
sa(dp191
g33
I16186995
sg173
(lp192
I68
aI80
asg42
V16186995
p193
sg72
Vkickstarter
p194
sg66
VKickstarter
p195
sasVtrends
p196
(lp197
sVurls
p198
(lp199
(dp200
g75
Vhttps://t.co/XUxJ6b54xT
p201
sg173
(lp202
I81
aI104
asg148
Vhttps://www.kickstarter.com/projects/creativecommons/made-with-creative-commons-a-book-on-open-business/description
p203
sg150
Vkickstarter.com/projects/creat\u2026
p204
sassVin_reply_to_screen_name
p205
Nsg42
V621421045808001024
p206
sVretweet_count
p207
I0
sVin_reply_to_user_id
p208
NsVfavorited
p209
I00
sVuser
p210
g29
sVgeo
p211
NsVin_reply_to_user_id_str
p212
NsVpossibly_sensitive
p213
I01
sg68
g126
sg76
VWed Jul 15 20:48:17 +0000 2015
p214
sVfilter_level
p215
g121
sVin_reply_to_status_id_str
p216
NsVplace
p217
(dp218
Vfull_name
p219
VZurich, Switzerland
p220
sg75
Vhttps://api.twitter.com/1.1/geo/id/db94c1cccc67c4f4.json
p221
sVcountry
p222
VSchweiz
p223
sVplace_type
p224
Vadmin
p225
sVbounding_box
p226
(dp227
g175
VPolygon
p228
sg138
(lp229
(lp230
(lp231
F8.357749
aF47.159384
aa(lp232
F8.357749
aF47.694503
aa(lp233
F8.984445
aF47.694503
aa(lp234
F8.984445
aF47.159384
aaassVcountry_code
p235
VCH
p236
sVattributes
p237
(dp238
sg33
Vdb94c1cccc67c4f4
p239
sg66
VZurich
p240
ssVextended_entities
p241
(dp242
g145
(lp243
(dp244
g148
Vhttp://twitter.com/SebSigloch/status/621421045808001024/photo/1
p245
sg150
Vpic.twitter.com/ZQ56p096r7
p246
sg75
Vhttp://t.co/ZQ56p096r7
p247
sg153
Vhttps://pbs.twimg.com/media/CJ-7JIIUsAEVwKz.jpg
p248
sg42
V621421039076028417
p249
sg156
(dp250
g158
(dp251
g160
I194
sg161
Vfit
p252
sg163
I340
ssg164
(dp253
g160
I419
sg161
Vfit
p254
sg163
I732
ssg167
(dp255
g160
I343
sg161
Vfit
p256
sg163
I600
ssg170
(dp257
g160
I150
sg161
Vcrop
p258
sg163
I150
sssg173
(lp259
I105
aI127
asg175
Vphoto
p260
sg33
I621421039076028417
sg177
Vhttp://pbs.twimg.com/media/CJ-7JIIUsAEVwKz.jpg
p261
sasssS'coordinates'
p262
NsS'timestamp_ms'
p263
g140
sS'entities'
p264
g142
sS'in_reply_to_status_id_str'
p265
NsS'in_reply_to_screen_name'
p266
Nsg90
g206
sS'extended_entities'
p267
g242
sS'retweeted'
p268
I00
sS'place'
p269
g0
(ctweepy.models
Place
p270
g2
Ntp271
Rp272
(dp273
S'full_name'
p274
g220
sg108
g221
sS'country'
p275
g223
sS'place_type'
p276
g225
sS'bounding_box'
p277
g0
(ctweepy.models
BoundingBox
p278
g2
Ntp279
Rp280
(dp281
S'type'
p282
g228
sg262
g229
sbsS'country_code'
p283
g236
sS'attributes'
p284
g238
sg24
g239
sg102
g240
sbsS'retweet_count'
p285
I0
sg109
g110
(S'\x07\xdf\x07\x0f\x140\x11\x00\x00\x00'
p286
tp287
Rp288
sS'in_reply_to_user_id'
p289
Nsb.