ccopy_reg
_reconstructor
p0
(ctweepy.models
Status
p1
c__builtin__
object
p2
Ntp3
Rp4
(dp5
S'favorited'
p6
I00
sS'contributors'
p7
NsS'truncated'
p8
I00
sS'text'
p9
VListen to ELLEN ALLIEN - Butterfly (X ZONE Rmx) by Sergio Arzillo (Official) #np on #SoundCloud\u000ahttps://t.co/32ZL98bW00
p10
sS'source_url'
p11
Vhttp://twitter.com/download/android
p12
sS'possibly_sensitive'
p13
I00
sS'in_reply_to_status_id'
p14
NsS'user'
p15
g0
(ctweepy.models
User
p16
g2
Ntp17
Rp18
(dp19
S'follow_request_sent'
p20
NsS'profile_use_background_image'
p21
I01
sS'profile_sidebar_fill_color'
p22
VDDEEF6
p23
sS'id'
p24
I627928457
sS'verified'
p25
I00
sS'profile_image_url_https'
p26
Vhttps://pbs.twimg.com/profile_images/419149286593818624/4K3WEZeE_normal.jpeg
p27
sS'_json'
p28
(dp29
Vfollow_request_sent
p30
NsVprofile_use_background_image
p31
I01
sVdefault_profile_image
p32
I00
sVid
p33
I627928457
sVverified
p34
I00
sVprofile_image_url_https
p35
g27
sVprofile_sidebar_fill_color
p36
g23
sVprofile_text_color
p37
V333333
p38
sVfollowers_count
p39
I63
sVprofile_sidebar_border_color
p40
VC0DEED
p41
sVid_str
p42
V627928457
p43
sVprofile_background_color
p44
VC0DEED
p45
sVlisted_count
p46
I1
sVprofile_background_image_url_https
p47
Vhttps://abs.twimg.com/images/themes/theme1/bg.png
p48
sVutc_offset
p49
NsVstatuses_count
p50
I199
sVdescription
p51
NsVfriends_count
p52
I363
sVlocation
p53
V
p54
sVprofile_link_color
p55
V0084B4
p56
sVprofile_image_url
p57
Vhttp://pbs.twimg.com/profile_images/419149286593818624/4K3WEZeE_normal.jpeg
p58
sVfollowing
p59
NsVgeo_enabled
p60
I01
sVprofile_banner_url
p61
Vhttps://pbs.twimg.com/profile_banners/627928457/1388767940
p62
sVprofile_background_image_url
p63
Vhttp://abs.twimg.com/images/themes/theme1/bg.png
p64
sVname
p65
Vdj x zone
p66
sVlang
p67
Vit
p68
sVprofile_background_tile
p69
I00
sVfavourites_count
p70
I17
sVscreen_name
p71
Varzillosergio
p72
sVnotifications
p73
NsVurl
p74
NsVcreated_at
p75
VFri Jul 06 01:45:56 +0000 2012
p76
sVcontributors_enabled
p77
I00
sVtime_zone
p78
NsVprotected
p79
I00
sVdefault_profile
p80
I01
sVis_translator
p81
I00
ssS'contributors_enabled'
p82
I00
sS'profile_text_color'
p83
g38
sS'followers_count'
p84
I63
sS'profile_sidebar_border_color'
p85
g41
sS'location'
p86
g54
sS'default_profile_image'
p87
I00
sS'id_str'
p88
g43
sS'utc_offset'
p89
NsS'statuses_count'
p90
I199
sS'description'
p91
NsS'friends_count'
p92
I363
sS'profile_link_color'
p93
g56
sS'profile_image_url'
p94
g58
sS'notifications'
p95
NsS'geo_enabled'
p96
I01
sS'profile_background_color'
p97
g45
sS'profile_banner_url'
p98
g62
sS'profile_background_image_url'
p99
g64
sS'name'
p100
g66
sS'lang'
p101
g68
sS'following'
p102
I00
sS'profile_background_tile'
p103
I00
sS'favourites_count'
p104
I17
sS'screen_name'
p105
g72
sS'url'
p106
NsS'created_at'
p107
cdatetime
datetime
p108
(S'\x07\xdc\x07\x06\x01-8\x00\x00\x00'
p109
tp110
Rp111
sS'profile_background_image_url_https'
p112
g48
sS'time_zone'
p113
NsS'protected'
p114
I00
sS'default_profile'
p115
I01
sS'is_translator'
p116
I00
sS'listed_count'
p117
I1
sbsS'filter_level'
p118
Vlow
p119
sS'geo'
p120
Nsg24
I621625371675488256
sS'favorite_count'
p121
I0
sS'source'
p122
VTwitter for Android
p123
sg101
Ven
p124
sS'author'
p125
g18
sS'in_reply_to_user_id_str'
p126
Nsg28
(dp127
Vcontributors
p128
NsVtruncated
p129
I00
sVtext
p130
VListen to ELLEN ALLIEN - Butterfly (X ZONE Rmx) by Sergio Arzillo (Official) #np on #SoundCloud\u000ahttps://t.co/32ZL98bW00
p131
sVin_reply_to_status_id
p132
Nsg33
I621625371675488256
sVfavorite_count
p133
I0
sVsource
p134
V<a href="http://twitter.com/download/android" rel="nofollow">Twitter for Android</a>
p135
sVretweeted
p136
I00
sVcoordinates
p137
NsVtimestamp_ms
p138
V1437042012505
p139
sVentities
p140
(dp141
Vuser_mentions
p142
(lp143
sVsymbols
p144
(lp145
sVtrends
p146
(lp147
sVhashtags
p148
(lp149
(dp150
Vindices
p151
(lp152
I77
aI80
asg130
Vnp
p153
sa(dp154
g151
(lp155
I84
aI95
asg130
VSoundCloud
p156
sasVurls
p157
(lp158
(dp159
g74
Vhttps://t.co/32ZL98bW00
p160
sg151
(lp161
I96
aI119
asVexpanded_url
p162
Vhttps://soundcloud.com/sergio-arzillo-dj/ellen-allien-butterfly-x-zone-rmx
p163
sVdisplay_url
p164
Vsoundcloud.com/sergio-arzillo\u2026
p165
sassVin_reply_to_screen_name
p166
Nsg42
V621625371675488256
p167
sVretweet_count
p168
I0
sVin_reply_to_user_id
p169
NsVfavorited
p170
I00
sVuser
p171
g29
sVgeo
p172
NsVin_reply_to_user_id_str
p173
NsVpossibly_sensitive
p174
I00
sg67
g124
sg75
VThu Jul 16 10:20:12 +0000 2015
p175
sVfilter_level
p176
g119
sVin_reply_to_status_id_str
p177
NsVplace
p178
(dp179
Vfull_name
p180
VZurigo, Svizzera
p181
sg74
Vhttps://api.twitter.com/1.1/geo/id/db94c1cccc67c4f4.json
p182
sVcountry
p183
VSchweiz
p184
sVplace_type
p185
Vadmin
p186
sVbounding_box
p187
(dp188
Vtype
p189
VPolygon
p190
sg137
(lp191
(lp192
(lp193
F8.357749
aF47.159384
aa(lp194
F8.357749
aF47.694503
aa(lp195
F8.984445
aF47.694503
aa(lp196
F8.984445
aF47.159384
aaassVcountry_code
p197
VCH
p198
sVattributes
p199
(dp200
sg33
Vdb94c1cccc67c4f4
p201
sg65
VZurigo
p202
sssS'coordinates'
p203
NsS'timestamp_ms'
p204
g139
sS'entities'
p205
g141
sS'in_reply_to_status_id_str'
p206
NsS'in_reply_to_screen_name'
p207
Nsg88
g167
sS'retweeted'
p208
I00
sS'place'
p209
g0
(ctweepy.models
Place
p210
g2
Ntp211
Rp212
(dp213
S'full_name'
p214
g181
sg106
g182
sS'country'
p215
g184
sS'place_type'
p216
g186
sS'bounding_box'
p217
g0
(ctweepy.models
BoundingBox
p218
g2
Ntp219
Rp220
(dp221
S'type'
p222
g190
sg203
g191
sbsS'country_code'
p223
g198
sS'attributes'
p224
g200
sg24
g201
sg100
g202
sbsS'retweet_count'
p225
I0
sg107
g108
(S'\x07\xdf\x07\x10\n\x14\x0c\x00\x00\x00'
p226
tp227
Rp228
sS'in_reply_to_user_id'
p229
Nsb.