ccopy_reg
_reconstructor
p0
(ctweepy.models
Status
p1
c__builtin__
object
p2
Ntp3
Rp4
(dp5
S'favorited'
p6
I00
sS'contributors'
p7
NsS'truncated'
p8
I00
sS'text'
p9
V@kubrick9_ \u062a\u0634\u0648\u0641 \u0627\u0646\u062a .. \u0627\u0644\u0645\u0634\u0643\u0644\u0629 \u0627\u063a\u0644\u0628 \u0627\u0644\u0645\u0639\u062a\u0631\u0636\u064a\u0646 \u062d\u0642\u064a\u0646 \u0628\u0627\u0644\u0631\u064a\u0627\u0636 \u0648\u062c\u0645\u0647\u0648\u0631 \u0627\u0644\u0631\u064a\u0627\u0636 \u064a\u0627\u0644\u0644\u0647 \u064a\u062d\u0636\u0631 \u0645\u0628\u0627\u0631\u064a\u0627\u062a \u0627\u0644\u062f\u0648\u0631\u064a \u0627\u0644\u062c\u0645\u0627\u0647\u064a\u0631\u064a\u0629
p10
sS'source_url'
p11
Vhttp://twitter.com/download/iphone
p12
sS'possibly_sensitive'
p13
I00
sS'in_reply_to_status_id'
p14
I623819610777763840
sS'user'
p15
g0
(ctweepy.models
User
p16
g2
Ntp17
Rp18
(dp19
S'follow_request_sent'
p20
NsS'profile_use_background_image'
p21
I01
sS'profile_sidebar_fill_color'
p22
VF6F6F6
p23
sS'id'
p24
I397470644
sS'verified'
p25
I00
sS'profile_image_url_https'
p26
Vhttps://pbs.twimg.com/profile_images/606638847615598592/A4pyCujO_normal.jpg
p27
sS'_json'
p28
(dp29
Vfollow_request_sent
p30
NsVprofile_use_background_image
p31
I01
sVdefault_profile_image
p32
I00
sVid
p33
I397470644
sVverified
p34
I00
sVprofile_image_url_https
p35
g27
sVprofile_sidebar_fill_color
p36
g23
sVprofile_text_color
p37
V333333
p38
sVfollowers_count
p39
I713
sVprofile_sidebar_border_color
p40
VEEEEEE
p41
sVid_str
p42
V397470644
p43
sVprofile_background_color
p44
VACDED6
p45
sVlisted_count
p46
I2
sVprofile_background_image_url_https
p47
Vhttps://abs.twimg.com/images/themes/theme18/bg.gif
p48
sVutc_offset
p49
I10800
sVstatuses_count
p50
I23449
sVdescription
p51
V\u0642\u0641 \u062f\u0648\u0646 \u0631\u0623\u064a\u0643 \u0641\u064a \u0627\u0644\u062d\u064a\u0627\u0629 \u0645\u062c\u0627\u0647\u062f\u0627\u064b , \u0625\u0646 \u0627\u0644\u062d\u064a\u0627\u0629 \u0639\u0642\u064a\u062f\u0629 \u0648\u062c\u0647\u0627\u062f\u064f .\u000a\u000a#Ittihad #Mufc #Federer
p52
sVfriends_count
p53
I758
sVlocation
p54
V\u0627\u0644\u0645\u062f\u064a\u0646\u0629 ,
p55
sVprofile_link_color
p56
V038543
p57
sVprofile_image_url
p58
Vhttp://pbs.twimg.com/profile_images/606638847615598592/A4pyCujO_normal.jpg
p59
sVfollowing
p60
NsVgeo_enabled
p61
I01
sVprofile_banner_url
p62
Vhttps://pbs.twimg.com/profile_banners/397470644/1407575803
p63
sVprofile_background_image_url
p64
Vhttp://abs.twimg.com/images/themes/theme18/bg.gif
p65
sVname
p66
VRaed ,,
p67
sVlang
p68
Ven
p69
sVprofile_background_tile
p70
I00
sVfavourites_count
p71
I635
sVscreen_name
p72
VAsto0orh18
p73
sVnotifications
p74
NsVurl
p75
NsVcreated_at
p76
VMon Oct 24 18:48:23 +0000 2011
p77
sVcontributors_enabled
p78
I00
sVtime_zone
p79
VRiyadh
p80
sVprotected
p81
I00
sVdefault_profile
p82
I00
sVis_translator
p83
I00
ssS'contributors_enabled'
p84
I00
sS'profile_text_color'
p85
g38
sS'followers_count'
p86
I713
sS'profile_sidebar_border_color'
p87
g41
sS'location'
p88
g55
sS'default_profile_image'
p89
I00
sS'id_str'
p90
g43
sS'utc_offset'
p91
I10800
sS'statuses_count'
p92
I23449
sS'description'
p93
V\u0642\u0641 \u062f\u0648\u0646 \u0631\u0623\u064a\u0643 \u0641\u064a \u0627\u0644\u062d\u064a\u0627\u0629 \u0645\u062c\u0627\u0647\u062f\u0627\u064b , \u0625\u0646 \u0627\u0644\u062d\u064a\u0627\u0629 \u0639\u0642\u064a\u062f\u0629 \u0648\u062c\u0647\u0627\u062f\u064f .\u000a\u000a#Ittihad #Mufc #Federer
p94
sS'friends_count'
p95
I758
sS'profile_link_color'
p96
g57
sS'profile_image_url'
p97
g59
sS'notifications'
p98
NsS'geo_enabled'
p99
I01
sS'profile_background_color'
p100
g45
sS'profile_banner_url'
p101
g63
sS'profile_background_image_url'
p102
g65
sS'name'
p103
g67
sS'lang'
p104
g69
sS'following'
p105
I00
sS'profile_background_tile'
p106
I00
sS'favourites_count'
p107
I635
sS'screen_name'
p108
g73
sS'url'
p109
NsS'created_at'
p110
cdatetime
datetime
p111
(S'\x07\xdb\n\x18\x120\x17\x00\x00\x00'
p112
tp113
Rp114
sS'profile_background_image_url_https'
p115
g48
sS'time_zone'
p116
g80
sS'protected'
p117
I00
sS'default_profile'
p118
I00
sS'is_translator'
p119
I00
sS'listed_count'
p120
I2
sbsS'filter_level'
p121
Vlow
p122
sS'geo'
p123
Nsg24
I623820323440472064
sS'favorite_count'
p124
I0
sS'source'
p125
VTwitter for iPhone
p126
sg104
Var
p127
sS'author'
p128
g18
sS'in_reply_to_user_id_str'
p129
V161540211
p130
sg28
(dp131
Vcontributors
p132
NsVtruncated
p133
I00
sVtext
p134
g10
sVin_reply_to_status_id
p135
I623819610777763840
sg33
I623820323440472064
sVfavorite_count
p136
I0
sVsource
p137
V<a href="http://twitter.com/download/iphone" rel="nofollow">Twitter for iPhone</a>
p138
sVretweeted
p139
I00
sVcoordinates
p140
NsVtimestamp_ms
p141
V1437565329786
p142
sVentities
p143
(dp144
Vuser_mentions
p145
(lp146
(dp147
g33
I161540211
sVindices
p148
(lp149
I0
aI10
asg42
V161540211
p150
sg72
Vkubrick9_
p151
sg66
VKhalid Altamimi
p152
sasVsymbols
p153
(lp154
sVtrends
p155
(lp156
sVhashtags
p157
(lp158
sVurls
p159
(lp160
ssVin_reply_to_screen_name
p161
Vkubrick9_
p162
sg42
V623820323440472064
p163
sVretweet_count
p164
I0
sVin_reply_to_user_id
p165
I161540211
sVfavorited
p166
I00
sVuser
p167
g29
sVgeo
p168
NsVin_reply_to_user_id_str
p169
g130
sVpossibly_sensitive
p170
I00
sg68
g127
sg76
VWed Jul 22 11:42:09 +0000 2015
p171
sVfilter_level
p172
g122
sVin_reply_to_status_id_str
p173
V623819610777763840
p174
sVplace
p175
(dp176
Vfull_name
p177
VBerne, Switzerland
p178
sg75
Vhttps://api.twitter.com/1.1/geo/id/5868d0e0749c9c47.json
p179
sVcountry
p180
VSchweiz
p181
sVplace_type
p182
Vadmin
p183
sVbounding_box
p184
(dp185
Vtype
p186
VPolygon
p187
sg140
(lp188
(lp189
(lp190
F6.861601
aF46.326441
aa(lp191
F6.861601
aF47.34528
aa(lp192
F8.455051
aF47.34528
aa(lp193
F8.455051
aF46.326441
aaassVcountry_code
p194
VCH
p195
sVattributes
p196
(dp197
sg33
V5868d0e0749c9c47
p198
sg66
VBern
p199
sssS'coordinates'
p200
NsS'timestamp_ms'
p201
g142
sS'entities'
p202
g144
sS'in_reply_to_status_id_str'
p203
g174
sS'in_reply_to_screen_name'
p204
g162
sg90
g163
sS'retweeted'
p205
I00
sS'place'
p206
g0
(ctweepy.models
Place
p207
g2
Ntp208
Rp209
(dp210
S'full_name'
p211
g178
sg109
g179
sS'country'
p212
g181
sS'place_type'
p213
g183
sS'bounding_box'
p214
g0
(ctweepy.models
BoundingBox
p215
g2
Ntp216
Rp217
(dp218
S'type'
p219
g187
sg200
g188
sbsS'country_code'
p220
g195
sS'attributes'
p221
g197
sg24
g198
sg103
g199
sbsS'retweet_count'
p222
I0
sg110
g111
(S'\x07\xdf\x07\x16\x0b*\t\x00\x00\x00'
p223
tp224
Rp225
sS'in_reply_to_user_id'
p226
I161540211
sb.