ccopy_reg
_reconstructor
p0
(ctweepy.models
Status
p1
c__builtin__
object
p2
Ntp3
Rp4
(dp5
S'favorited'
p6
I00
sS'contributors'
p7
NsS'truncated'
p8
I00
sS'text'
p9
V@TheManaSource I made this. You need one. http://t.co/7uGyThZiB2
p10
sS'source_url'
p11
Vhttp://twitter.com
p12
sS'possibly_sensitive'
p13
I00
sS'in_reply_to_status_id'
p14
I623666639767257088
sS'user'
p15
g0
(ctweepy.models
User
p16
g2
Ntp17
Rp18
(dp19
S'follow_request_sent'
p20
NsS'profile_use_background_image'
p21
I01
sS'profile_sidebar_fill_color'
p22
VDDEEF6
p23
sS'id'
p24
I2977834655
sS'verified'
p25
I00
sS'profile_image_url_https'
p26
Vhttps://pbs.twimg.com/profile_images/577213516169408512/Z6422MOv_normal.png
p27
sS'_json'
p28
(dp29
Vfollow_request_sent
p30
NsVprofile_use_background_image
p31
I01
sVdefault_profile_image
p32
I00
sVid
p33
I2977834655
sVverified
p34
I00
sVprofile_image_url_https
p35
g27
sVprofile_sidebar_fill_color
p36
g23
sVprofile_text_color
p37
V333333
p38
sVfollowers_count
p39
I2
sVprofile_sidebar_border_color
p40
VC0DEED
p41
sVid_str
p42
V2977834655
p43
sVprofile_background_color
p44
VACDED6
p45
sVlisted_count
p46
I0
sVprofile_background_image_url_https
p47
Vhttps://abs.twimg.com/images/themes/theme18/bg.gif
p48
sVutc_offset
p49
NsVstatuses_count
p50
I231
sVdescription
p51
VFreelance Graphic Designer & Student | Living the tough life, playing games, going out, eating food
p52
sVfriends_count
p53
I64
sVlocation
p54
VWinterthur, Switzerland
p55
sVprofile_link_color
p56
VFA743E
p57
sVprofile_image_url
p58
Vhttp://pbs.twimg.com/profile_images/577213516169408512/Z6422MOv_normal.png
p59
sVfollowing
p60
NsVgeo_enabled
p61
I01
sVprofile_background_image_url
p62
Vhttp://abs.twimg.com/images/themes/theme18/bg.gif
p63
sVname
p64
VSimon Fischer
p65
sVlang
p66
Ven
p67
sVprofile_background_tile
p68
I00
sVfavourites_count
p69
I212
sVscreen_name
p70
Valmostsimon1
p71
sVnotifications
p72
NsVurl
p73
Vhttp://www.cubee.ch
p74
sVcreated_at
p75
VWed Jan 14 10:17:22 +0000 2015
p76
sVcontributors_enabled
p77
I00
sVtime_zone
p78
NsVprotected
p79
I00
sVdefault_profile
p80
I00
sVis_translator
p81
I00
ssS'contributors_enabled'
p82
I00
sS'profile_text_color'
p83
g38
sS'followers_count'
p84
I2
sS'profile_sidebar_border_color'
p85
g41
sS'location'
p86
g55
sS'default_profile_image'
p87
I00
sS'id_str'
p88
g43
sS'utc_offset'
p89
NsS'statuses_count'
p90
I231
sS'description'
p91
g52
sS'friends_count'
p92
I64
sS'profile_link_color'
p93
g57
sS'profile_image_url'
p94
g59
sS'notifications'
p95
NsS'geo_enabled'
p96
I01
sS'profile_background_color'
p97
g45
sS'profile_background_image_url'
p98
g63
sS'name'
p99
g65
sS'lang'
p100
g67
sS'following'
p101
I00
sS'profile_background_tile'
p102
I00
sS'favourites_count'
p103
I212
sS'screen_name'
p104
g71
sS'url'
p105
g74
sS'created_at'
p106
cdatetime
datetime
p107
(S'\x07\xdf\x01\x0e\n\x11\x16\x00\x00\x00'
p108
tp109
Rp110
sS'profile_background_image_url_https'
p111
g48
sS'time_zone'
p112
NsS'protected'
p113
I00
sS'default_profile'
p114
I00
sS'is_translator'
p115
I00
sS'listed_count'
p116
I0
sbsS'filter_level'
p117
Vlow
p118
sS'geo'
p119
Nsg24
I623787996823879680
sS'favorite_count'
p120
I0
sS'source'
p121
VTwitter Web Client
p122
sg100
Ven
p123
sS'author'
p124
g18
sS'in_reply_to_user_id_str'
p125
V1611951170
p126
sg28
(dp127
Vcontributors
p128
NsVtruncated
p129
I00
sVtext
p130
g10
sVin_reply_to_status_id
p131
I623666639767257088
sg33
I623787996823879680
sVfavorite_count
p132
I0
sVsource
p133
V<a href="http://twitter.com" rel="nofollow">Twitter Web Client</a>
p134
sVretweeted
p135
I00
sVcoordinates
p136
NsVtimestamp_ms
p137
V1437557622520
p138
sVentities
p139
(dp140
Vsymbols
p141
(lp142
sVmedia
p143
(lp144
(dp145
Vexpanded_url
p146
Vhttp://twitter.com/almostsimon1/status/623787996823879680/photo/1
p147
sVdisplay_url
p148
Vpic.twitter.com/7uGyThZiB2
p149
sg73
Vhttp://t.co/7uGyThZiB2
p150
sVmedia_url_https
p151
Vhttps://pbs.twimg.com/media/CKgj4JCUkAAbzxB.png
p152
sg42
V623787995796115456
p153
sVsizes
p154
(dp155
Vsmall
p156
(dp157
Vh
p158
I127
sVresize
p159
Vfit
p160
sVw
p161
I325
ssVlarge
p162
(dp163
g158
I127
sg159
Vfit
p164
sg161
I325
ssVmedium
p165
(dp166
g158
I127
sg159
Vfit
p167
sg161
I325
ssVthumb
p168
(dp169
g158
I127
sg159
Vcrop
p170
sg161
I150
sssVindices
p171
(lp172
I42
aI64
asVtype
p173
Vphoto
p174
sg33
I623787995796115456
sVmedia_url
p175
Vhttp://pbs.twimg.com/media/CKgj4JCUkAAbzxB.png
p176
sasVhashtags
p177
(lp178
sVuser_mentions
p179
(lp180
(dp181
g33
I1611951170
sg171
(lp182
I0
aI14
asg42
V1611951170
p183
sg70
VTheManaSource
p184
sg64
VTMS Wedge
p185
sasVtrends
p186
(lp187
sVurls
p188
(lp189
ssVin_reply_to_screen_name
p190
VTheManaSource
p191
sg42
V623787996823879680
p192
sVretweet_count
p193
I0
sVin_reply_to_user_id
p194
I1611951170
sVfavorited
p195
I00
sVuser
p196
g29
sVgeo
p197
NsVin_reply_to_user_id_str
p198
g126
sVpossibly_sensitive
p199
I00
sg66
g123
sg75
VWed Jul 22 09:33:42 +0000 2015
p200
sVfilter_level
p201
g118
sVin_reply_to_status_id_str
p202
V623666639767257088
p203
sVplace
p204
(dp205
Vfull_name
p206
VZurich, Switzerland
p207
sg73
Vhttps://api.twitter.com/1.1/geo/id/db94c1cccc67c4f4.json
p208
sVcountry
p209
VSchweiz
p210
sVplace_type
p211
Vadmin
p212
sVbounding_box
p213
(dp214
g173
VPolygon
p215
sg136
(lp216
(lp217
(lp218
F8.357749
aF47.159384
aa(lp219
F8.357749
aF47.694503
aa(lp220
F8.984445
aF47.694503
aa(lp221
F8.984445
aF47.159384
aaassVcountry_code
p222
VCH
p223
sVattributes
p224
(dp225
sg33
Vdb94c1cccc67c4f4
p226
sg64
VZurich
p227
ssVextended_entities
p228
(dp229
g143
(lp230
(dp231
g146
Vhttp://twitter.com/almostsimon1/status/623787996823879680/photo/1
p232
sg148
Vpic.twitter.com/7uGyThZiB2
p233
sg73
Vhttp://t.co/7uGyThZiB2
p234
sg151
Vhttps://pbs.twimg.com/media/CKgj4JCUkAAbzxB.png
p235
sg42
V623787995796115456
p236
sg154
(dp237
g156
(dp238
g158
I127
sg159
Vfit
p239
sg161
I325
ssg162
(dp240
g158
I127
sg159
Vfit
p241
sg161
I325
ssg165
(dp242
g158
I127
sg159
Vfit
p243
sg161
I325
ssg168
(dp244
g158
I127
sg159
Vcrop
p245
sg161
I150
sssg171
(lp246
I42
aI64
asg173
Vphoto
p247
sg33
I623787995796115456
sg175
Vhttp://pbs.twimg.com/media/CKgj4JCUkAAbzxB.png
p248
sasssS'coordinates'
p249
NsS'timestamp_ms'
p250
g138
sS'entities'
p251
g140
sS'in_reply_to_status_id_str'
p252
g203
sS'in_reply_to_screen_name'
p253
g191
sg88
g192
sS'extended_entities'
p254
g229
sS'retweeted'
p255
I00
sS'place'
p256
g0
(ctweepy.models
Place
p257
g2
Ntp258
Rp259
(dp260
S'full_name'
p261
g207
sg105
g208
sS'country'
p262
g210
sS'place_type'
p263
g212
sS'bounding_box'
p264
g0
(ctweepy.models
BoundingBox
p265
g2
Ntp266
Rp267
(dp268
S'type'
p269
g215
sg249
g216
sbsS'country_code'
p270
g223
sS'attributes'
p271
g225
sg24
g226
sg99
g227
sbsS'retweet_count'
p272
I0
sg106
g107
(S'\x07\xdf\x07\x16\t!*\x00\x00\x00'
p273
tp274
Rp275
sS'in_reply_to_user_id'
p276
I1611951170
sb.