ccopy_reg
_reconstructor
p0
(ctweepy.models
Status
p1
c__builtin__
object
p2
Ntp3
Rp4
(dp5
S'favorited'
p6
I00
sS'contributors'
p7
NsS'truncated'
p8
I00
sS'text'
p9
V@RobinGundersen Robin, sorry, we aim to send to publish tomorrow, if you could reply to email.
p10
sS'source_url'
p11
Vhttp://twitter.com
p12
sS'possibly_sensitive'
p13
I00
sS'in_reply_to_status_id'
p14
NsS'user'
p15
g0
(ctweepy.models
User
p16
g2
Ntp17
Rp18
(dp19
S'follow_request_sent'
p20
NsS'profile_use_background_image'
p21
I01
sS'profile_sidebar_fill_color'
p22
VDDEEF6
p23
sS'id'
p24
I85837328
sS'verified'
p25
I00
sS'profile_image_url_https'
p26
Vhttps://pbs.twimg.com/profile_images/514027300740816897/4xs4-SEY_normal.jpeg
p27
sS'_json'
p28
(dp29
Vfollow_request_sent
p30
NsVprofile_use_background_image
p31
I01
sVdefault_profile_image
p32
I00
sVid
p33
I85837328
sVverified
p34
I00
sVprofile_image_url_https
p35
g27
sVprofile_sidebar_fill_color
p36
g23
sVprofile_text_color
p37
V333333
p38
sVfollowers_count
p39
I1310
sVprofile_sidebar_border_color
p40
VFFFFFF
p41
sVid_str
p42
V85837328
p43
sVprofile_background_color
p44
VFF6699
p45
sVlisted_count
p46
I19
sVprofile_background_image_url_https
p47
Vhttps://pbs.twimg.com/profile_background_images/378800000066827805/a5196921ab8c441e27110e5a3d6eaa96.jpeg
p48
sVutc_offset
p49
NsVstatuses_count
p50
I19266
sVdescription
p51
VI never write about sports or politics. Tweets represent views of all the employers.
p52
sVfriends_count
p53
I690
sVlocation
p54
VLondon/Durham
p55
sVprofile_link_color
p56
VB40B43
p57
sVprofile_image_url
p58
Vhttp://pbs.twimg.com/profile_images/514027300740816897/4xs4-SEY_normal.jpeg
p59
sVfollowing
p60
NsVgeo_enabled
p61
I01
sVprofile_banner_url
p62
Vhttps://pbs.twimg.com/profile_banners/85837328/1421013899
p63
sVprofile_background_image_url
p64
Vhttp://pbs.twimg.com/profile_background_images/378800000066827805/a5196921ab8c441e27110e5a3d6eaa96.jpeg
p65
sVname
p66
VBobby
p67
sVlang
p68
Ven
p69
sVprofile_background_tile
p70
I01
sVfavourites_count
p71
I4281
sVscreen_name
p72
VBobbyGardiner
p73
sVnotifications
p74
NsVurl
p75
Vhttp://bobbygardiner.me/
p76
sVcreated_at
p77
VWed Oct 28 15:09:39 +0000 2009
p78
sVcontributors_enabled
p79
I00
sVtime_zone
p80
NsVprotected
p81
I00
sVdefault_profile
p82
I00
sVis_translator
p83
I00
ssS'contributors_enabled'
p84
I00
sS'profile_text_color'
p85
g38
sS'followers_count'
p86
I1310
sS'profile_sidebar_border_color'
p87
g41
sS'location'
p88
g55
sS'default_profile_image'
p89
I00
sS'id_str'
p90
g43
sS'utc_offset'
p91
NsS'statuses_count'
p92
I19266
sS'description'
p93
g52
sS'friends_count'
p94
I690
sS'profile_link_color'
p95
g57
sS'profile_image_url'
p96
g59
sS'notifications'
p97
NsS'geo_enabled'
p98
I01
sS'profile_background_color'
p99
g45
sS'profile_banner_url'
p100
g63
sS'profile_background_image_url'
p101
g65
sS'name'
p102
g67
sS'lang'
p103
g69
sS'following'
p104
I00
sS'profile_background_tile'
p105
I01
sS'favourites_count'
p106
I4281
sS'screen_name'
p107
g73
sS'url'
p108
g76
sS'created_at'
p109
cdatetime
datetime
p110
(S"\x07\xd9\n\x1c\x0f\t'\x00\x00\x00"
p111
tp112
Rp113
sS'profile_background_image_url_https'
p114
g48
sS'time_zone'
p115
NsS'protected'
p116
I00
sS'default_profile'
p117
I00
sS'is_translator'
p118
I00
sS'listed_count'
p119
I19
sbsS'filter_level'
p120
Vlow
p121
sS'geo'
p122
Nsg24
I623790210678149121
sS'favorite_count'
p123
I0
sS'source'
p124
VTwitter Web Client
p125
sg103
Ven
p126
sS'author'
p127
g18
sS'in_reply_to_user_id_str'
p128
V406579581
p129
sg28
(dp130
Vcontributors
p131
NsVtruncated
p132
I00
sVtext
p133
g10
sVin_reply_to_status_id
p134
Nsg33
I623790210678149121
sVfavorite_count
p135
I0
sVsource
p136
V<a href="http://twitter.com" rel="nofollow">Twitter Web Client</a>
p137
sVretweeted
p138
I00
sVcoordinates
p139
NsVtimestamp_ms
p140
V1437558150344
p141
sVentities
p142
(dp143
Vuser_mentions
p144
(lp145
(dp146
g33
I406579581
sVindices
p147
(lp148
I0
aI15
asg42
V406579581
p149
sg72
VRobinGundersen
p150
sg66
VRobin Gundersen
p151
sasVsymbols
p152
(lp153
sVtrends
p154
(lp155
sVhashtags
p156
(lp157
sVurls
p158
(lp159
ssVin_reply_to_screen_name
p160
VRobinGundersen
p161
sg42
V623790210678149121
p162
sVretweet_count
p163
I0
sVin_reply_to_user_id
p164
I406579581
sVfavorited
p165
I00
sVuser
p166
g29
sVgeo
p167
NsVin_reply_to_user_id_str
p168
g129
sVpossibly_sensitive
p169
I00
sg68
g126
sg77
VWed Jul 22 09:42:30 +0000 2015
p170
sVfilter_level
p171
g121
sVin_reply_to_status_id_str
p172
NsVplace
p173
(dp174
Vfull_name
p175
VZurich, Switzerland
p176
sg75
Vhttps://api.twitter.com/1.1/geo/id/3acb748d0f1e9265.json
p177
sVcountry
p178
VSchweiz
p179
sVplace_type
p180
Vcity
p181
sVbounding_box
p182
(dp183
Vtype
p184
VPolygon
p185
sg139
(lp186
(lp187
(lp188
F8.448081
aF47.320183
aa(lp189
F8.448081
aF47.434721
aa(lp190
F8.625442
aF47.434721
aa(lp191
F8.625442
aF47.320183
aaassVcountry_code
p192
VCH
p193
sVattributes
p194
(dp195
sg33
V3acb748d0f1e9265
p196
sg66
VZurich
p197
sssS'coordinates'
p198
NsS'timestamp_ms'
p199
g141
sS'entities'
p200
g143
sS'in_reply_to_status_id_str'
p201
NsS'in_reply_to_screen_name'
p202
g161
sg90
g162
sS'retweeted'
p203
I00
sS'place'
p204
g0
(ctweepy.models
Place
p205
g2
Ntp206
Rp207
(dp208
S'full_name'
p209
g176
sg108
g177
sS'country'
p210
g179
sS'place_type'
p211
g181
sS'bounding_box'
p212
g0
(ctweepy.models
BoundingBox
p213
g2
Ntp214
Rp215
(dp216
S'type'
p217
g185
sg198
g186
sbsS'country_code'
p218
g193
sS'attributes'
p219
g195
sg24
g196
sg102
g197
sbsS'retweet_count'
p220
I0
sg109
g110
(S'\x07\xdf\x07\x16\t*\x1e\x00\x00\x00'
p221
tp222
Rp223
sS'in_reply_to_user_id'
p224
I406579581
sb.