ccopy_reg
_reconstructor
p0
(ctweepy.models
Status
p1
c__builtin__
object
p2
Ntp3
Rp4
(dp5
S'favorited'
p6
I00
sS'contributors'
p7
NsS'truncated'
p8
I00
sS'text'
p9
V@beeahtah ugh!! #americanprobs haha
p10
sS'source_url'
p11
Vhttp://twitter.com/download/iphone
p12
sS'possibly_sensitive'
p13
I00
sS'in_reply_to_status_id'
p14
I621426147243487232
sS'user'
p15
g0
(ctweepy.models
User
p16
g2
Ntp17
Rp18
(dp19
S'follow_request_sent'
p20
NsS'profile_use_background_image'
p21
I01
sS'profile_sidebar_fill_color'
p22
VDDEEF6
p23
sS'id'
p24
I459047495
sS'verified'
p25
I00
sS'profile_image_url_https'
p26
Vhttps://pbs.twimg.com/profile_images/565092154440048640/-f8irt9C_normal.jpeg
p27
sS'_json'
p28
(dp29
Vfollow_request_sent
p30
NsVprofile_use_background_image
p31
I01
sVdefault_profile_image
p32
I00
sVid
p33
I459047495
sVverified
p34
I00
sVprofile_image_url_https
p35
g27
sVprofile_sidebar_fill_color
p36
g23
sVprofile_text_color
p37
V333333
p38
sVfollowers_count
p39
I185
sVprofile_sidebar_border_color
p40
VC0DEED
p41
sVid_str
p42
V459047495
p43
sVprofile_background_color
p44
VC0DEED
p45
sVlisted_count
p46
I5
sVprofile_background_image_url_https
p47
Vhttps://abs.twimg.com/images/themes/theme1/bg.png
p48
sVutc_offset
p49
NsVstatuses_count
p50
I6279
sVdescription
p51
VJust a peep inside my head
p52
sVfriends_count
p53
I206
sVlocation
p54
V
p55
sVprofile_link_color
p56
V0084B4
p57
sVprofile_image_url
p58
Vhttp://pbs.twimg.com/profile_images/565092154440048640/-f8irt9C_normal.jpeg
p59
sVfollowing
p60
NsVgeo_enabled
p61
I01
sVprofile_banner_url
p62
Vhttps://pbs.twimg.com/profile_banners/459047495/1436740919
p63
sVprofile_background_image_url
p64
Vhttp://abs.twimg.com/images/themes/theme1/bg.png
p65
sVname
p66
VDanielle Moffitt
p67
sVlang
p68
Ven
p69
sVprofile_background_tile
p70
I00
sVfavourites_count
p71
I1214
sVscreen_name
p72
Vooo_dee
p73
sVnotifications
p74
NsVurl
p75
NsVcreated_at
p76
VMon Jan 09 07:01:44 +0000 2012
p77
sVcontributors_enabled
p78
I00
sVtime_zone
p79
NsVprotected
p80
I00
sVdefault_profile
p81
I01
sVis_translator
p82
I00
ssS'contributors_enabled'
p83
I00
sS'profile_text_color'
p84
g38
sS'followers_count'
p85
I185
sS'profile_sidebar_border_color'
p86
g41
sS'location'
p87
g55
sS'default_profile_image'
p88
I00
sS'id_str'
p89
g43
sS'utc_offset'
p90
NsS'statuses_count'
p91
I6279
sS'description'
p92
g52
sS'friends_count'
p93
I206
sS'profile_link_color'
p94
g57
sS'profile_image_url'
p95
g59
sS'notifications'
p96
NsS'geo_enabled'
p97
I01
sS'profile_background_color'
p98
g45
sS'profile_banner_url'
p99
g63
sS'profile_background_image_url'
p100
g65
sS'name'
p101
g67
sS'lang'
p102
g69
sS'following'
p103
I00
sS'profile_background_tile'
p104
I00
sS'favourites_count'
p105
I1214
sS'screen_name'
p106
g73
sS'url'
p107
NsS'created_at'
p108
cdatetime
datetime
p109
(S'\x07\xdc\x01\t\x07\x01,\x00\x00\x00'
p110
tp111
Rp112
sS'profile_background_image_url_https'
p113
g48
sS'time_zone'
p114
NsS'protected'
p115
I00
sS'default_profile'
p116
I01
sS'is_translator'
p117
I00
sS'listed_count'
p118
I5
sbsS'filter_level'
p119
Vlow
p120
sS'geo'
p121
Nsg24
I621426525674569728
sS'favorite_count'
p122
I0
sS'source'
p123
VTwitter for iPhone
p124
sg102
Ven
p125
sS'author'
p126
g18
sS'in_reply_to_user_id_str'
p127
V127472065
p128
sg28
(dp129
Vcontributors
p130
NsVtruncated
p131
I00
sVtext
p132
g10
sVin_reply_to_status_id
p133
I621426147243487232
sg33
I621426525674569728
sVfavorite_count
p134
I0
sVsource
p135
V<a href="http://twitter.com/download/iphone" rel="nofollow">Twitter for iPhone</a>
p136
sVretweeted
p137
I00
sVcoordinates
p138
NsVtimestamp_ms
p139
V1436994603924
p140
sVentities
p141
(dp142
Vuser_mentions
p143
(lp144
(dp145
g33
I127472065
sVindices
p146
(lp147
I0
aI9
asg42
V127472065
p148
sg72
Vbeeahtah
p149
sg66
VBeata Gerevenko
p150
sasVsymbols
p151
(lp152
sVtrends
p153
(lp154
sVhashtags
p155
(lp156
(dp157
g146
(lp158
I16
aI30
asg132
Vamericanprobs
p159
sasVurls
p160
(lp161
ssVin_reply_to_screen_name
p162
Vbeeahtah
p163
sg42
V621426525674569728
p164
sVretweet_count
p165
I0
sVin_reply_to_user_id
p166
I127472065
sVfavorited
p167
I00
sVuser
p168
g29
sVgeo
p169
NsVin_reply_to_user_id_str
p170
g128
sVpossibly_sensitive
p171
I00
sg68
g125
sg76
VWed Jul 15 21:10:03 +0000 2015
p172
sVfilter_level
p173
g120
sVin_reply_to_status_id_str
p174
V621426147243487232
p175
sVplace
p176
(dp177
Vfull_name
p178
VZurich, Switzerland
p179
sg75
Vhttps://api.twitter.com/1.1/geo/id/3acb748d0f1e9265.json
p180
sVcountry
p181
VSchweiz
p182
sVplace_type
p183
Vcity
p184
sVbounding_box
p185
(dp186
Vtype
p187
VPolygon
p188
sg138
(lp189
(lp190
(lp191
F8.448081
aF47.320183
aa(lp192
F8.448081
aF47.434721
aa(lp193
F8.625442
aF47.434721
aa(lp194
F8.625442
aF47.320183
aaassVcountry_code
p195
VCH
p196
sVattributes
p197
(dp198
sg33
V3acb748d0f1e9265
p199
sg66
VZurich
p200
sssS'coordinates'
p201
NsS'timestamp_ms'
p202
g140
sS'entities'
p203
g142
sS'in_reply_to_status_id_str'
p204
g175
sS'in_reply_to_screen_name'
p205
g163
sg89
g164
sS'retweeted'
p206
I00
sS'place'
p207
g0
(ctweepy.models
Place
p208
g2
Ntp209
Rp210
(dp211
S'full_name'
p212
g179
sg107
g180
sS'country'
p213
g182
sS'place_type'
p214
g184
sS'bounding_box'
p215
g0
(ctweepy.models
BoundingBox
p216
g2
Ntp217
Rp218
(dp219
S'type'
p220
g188
sg201
g189
sbsS'country_code'
p221
g196
sS'attributes'
p222
g198
sg24
g199
sg101
g200
sbsS'retweet_count'
p223
I0
sg108
g109
(S'\x07\xdf\x07\x0f\x15\n\x03\x00\x00\x00'
p224
tp225
Rp226
sS'in_reply_to_user_id'
p227
I127472065
sb.