ccopy_reg
_reconstructor
p0
(ctweepy.models
Status
p1
c__builtin__
object
p2
Ntp3
Rp4
(dp5
S'favorited'
p6
I00
sS'contributors'
p7
NsS'truncated'
p8
I00
sS'text'
p9
VInternational wifi and water - thank you Starbucks (at @Starbucks in Zurich, ZH) https://t.co/yZ2VZ01cjX
p10
sS'source_url'
p11
Vhttp://foursquare.com
p12
sS'possibly_sensitive'
p13
I00
sS'in_reply_to_status_id'
p14
NsS'user'
p15
g0
(ctweepy.models
User
p16
g2
Ntp17
Rp18
(dp19
S'follow_request_sent'
p20
NsS'profile_use_background_image'
p21
I01
sS'profile_sidebar_fill_color'
p22
VFFF7CC
p23
sS'id'
p24
I224395230
sS'verified'
p25
I00
sS'profile_image_url_https'
p26
Vhttps://pbs.twimg.com/profile_images/2846479332/581626d1ee606b21b6cae37b908597ee_normal.jpeg
p27
sS'_json'
p28
(dp29
Vfollow_request_sent
p30
NsVprofile_use_background_image
p31
I01
sVdefault_profile_image
p32
I00
sVid
p33
I224395230
sVverified
p34
I00
sVprofile_image_url_https
p35
g27
sVprofile_sidebar_fill_color
p36
g23
sVprofile_text_color
p37
V0C3E53
p38
sVfollowers_count
p39
I280
sVprofile_sidebar_border_color
p40
VF2E195
p41
sVid_str
p42
V224395230
p43
sVprofile_background_color
p44
VBADFCD
p45
sVlisted_count
p46
I3
sVprofile_background_image_url_https
p47
Vhttps://abs.twimg.com/images/themes/theme12/bg.gif
p48
sVutc_offset
p49
I-18000
sVstatuses_count
p50
I2475
sVdescription
p51
Va diva is a female version of a hustla         bow down b*tches
p52
sVfriends_count
p53
I413
sVlocation
p54
Vcharleston
p55
sVprofile_link_color
p56
VFF0000
p57
sVprofile_image_url
p58
Vhttp://pbs.twimg.com/profile_images/2846479332/581626d1ee606b21b6cae37b908597ee_normal.jpeg
p59
sVfollowing
p60
NsVgeo_enabled
p61
I01
sVprofile_background_image_url
p62
Vhttp://abs.twimg.com/images/themes/theme12/bg.gif
p63
sVname
p64
Vafo
p65
sVlang
p66
Ven
p67
sVprofile_background_tile
p68
I00
sVfavourites_count
p69
I5
sVscreen_name
p70
Vafowens11
p71
sVnotifications
p72
NsVurl
p73
NsVcreated_at
p74
VWed Dec 08 22:11:22 +0000 2010
p75
sVcontributors_enabled
p76
I00
sVtime_zone
p77
VCentral Time (US & Canada)
p78
sVprotected
p79
I00
sVdefault_profile
p80
I00
sVis_translator
p81
I00
ssS'contributors_enabled'
p82
I00
sS'profile_text_color'
p83
g38
sS'followers_count'
p84
I280
sS'profile_sidebar_border_color'
p85
g41
sS'location'
p86
g55
sS'default_profile_image'
p87
I00
sS'id_str'
p88
g43
sS'utc_offset'
p89
I-18000
sS'statuses_count'
p90
I2475
sS'description'
p91
g52
sS'friends_count'
p92
I413
sS'profile_link_color'
p93
g57
sS'profile_image_url'
p94
g59
sS'notifications'
p95
NsS'geo_enabled'
p96
I01
sS'profile_background_color'
p97
g45
sS'profile_background_image_url'
p98
g63
sS'name'
p99
g65
sS'lang'
p100
g67
sS'following'
p101
I00
sS'profile_background_tile'
p102
I00
sS'favourites_count'
p103
I5
sS'screen_name'
p104
g71
sS'url'
p105
NsS'created_at'
p106
cdatetime
datetime
p107
(S'\x07\xda\x0c\x08\x16\x0b\x16\x00\x00\x00'
p108
tp109
Rp110
sS'profile_background_image_url_https'
p111
g48
sS'time_zone'
p112
g78
sS'protected'
p113
I00
sS'default_profile'
p114
I00
sS'is_translator'
p115
I00
sS'listed_count'
p116
I3
sbsS'filter_level'
p117
Vlow
p118
sS'geo'
p119
(dp120
Vtype
p121
VPoint
p122
sVcoordinates
p123
(lp124
F47.372393
aF8.543739
assg24
I621672498116063232
sS'favorite_count'
p125
I0
sS'source'
p126
VFoursquare
p127
sg100
Ven
p128
sS'author'
p129
g18
sS'in_reply_to_user_id_str'
p130
Nsg28
(dp131
Vcontributors
p132
NsVtruncated
p133
I00
sVtext
p134
g10
sVin_reply_to_status_id
p135
Nsg33
I621672498116063232
sVfavorite_count
p136
I0
sVsource
p137
V<a href="http://foursquare.com" rel="nofollow">Foursquare</a>
p138
sVretweeted
p139
I00
sg123
(dp140
g121
VPoint
p141
sg123
(lp142
F8.543739
aF47.372393
assVtimestamp_ms
p143
V1437053248324
p144
sVentities
p145
(dp146
Vuser_mentions
p147
(lp148
(dp149
g33
I30973
sVindices
p150
(lp151
I55
aI65
asg42
V30973
p152
sg70
VStarbucks
p153
sg64
VStarbucks Coffee
p154
sasVsymbols
p155
(lp156
sVtrends
p157
(lp158
sVhashtags
p159
(lp160
sVurls
p161
(lp162
(dp163
g73
Vhttps://t.co/yZ2VZ01cjX
p164
sg150
(lp165
I81
aI104
asVexpanded_url
p166
Vhttps://www.swarmapp.com/c/leH9z8xfuQu
p167
sVdisplay_url
p168
Vswarmapp.com/c/leH9z8xfuQu
p169
sassVin_reply_to_screen_name
p170
Nsg42
V621672498116063232
p171
sVretweet_count
p172
I0
sVin_reply_to_user_id
p173
NsVfavorited
p174
I00
sVuser
p175
g29
sVgeo
p176
g120
sVin_reply_to_user_id_str
p177
NsVpossibly_sensitive
p178
I00
sg66
g128
sg74
VThu Jul 16 13:27:28 +0000 2015
p179
sVfilter_level
p180
g118
sVin_reply_to_status_id_str
p181
NsVplace
p182
(dp183
Vfull_name
p184
VZurich, Switzerland
p185
sg73
Vhttps://api.twitter.com/1.1/geo/id/3acb748d0f1e9265.json
p186
sVcountry
p187
VSchweiz
p188
sVplace_type
p189
Vcity
p190
sVbounding_box
p191
(dp192
g121
VPolygon
p193
sg123
(lp194
(lp195
(lp196
F8.448081
aF47.320183
aa(lp197
F8.448081
aF47.434721
aa(lp198
F8.625442
aF47.434721
aa(lp199
F8.625442
aF47.320183
aaassVcountry_code
p200
VCH
p201
sVattributes
p202
(dp203
sg33
V3acb748d0f1e9265
p204
sg64
VZurich
p205
sssS'coordinates'
p206
g140
sS'timestamp_ms'
p207
g144
sS'entities'
p208
g146
sS'in_reply_to_status_id_str'
p209
NsS'in_reply_to_screen_name'
p210
Nsg88
g171
sS'retweeted'
p211
I00
sS'place'
p212
g0
(ctweepy.models
Place
p213
g2
Ntp214
Rp215
(dp216
S'full_name'
p217
g185
sg105
g186
sS'country'
p218
g188
sS'place_type'
p219
g190
sS'bounding_box'
p220
g0
(ctweepy.models
BoundingBox
p221
g2
Ntp222
Rp223
(dp224
S'type'
p225
g193
sg206
g194
sbsS'country_code'
p226
g201
sS'attributes'
p227
g203
sg24
g204
sg99
g205
sbsS'retweet_count'
p228
I0
sg106
g107
(S'\x07\xdf\x07\x10\r\x1b\x1c\x00\x00\x00'
p229
tp230
Rp231
sS'in_reply_to_user_id'
p232
Nsb.