ccopy_reg
_reconstructor
p0
(ctweepy.models
Status
p1
c__builtin__
object
p2
Ntp3
Rp4
(dp5
S'favorited'
p6
I00
sS'contributors'
p7
NsS'truncated'
p8
I00
sS'text'
p9
VRelax... #zurich #bestagram #bestpic #bestoftheday #darosworld #ekks_bw #ekks_shot #descubriendoigers\u2026 https://t.co/JhmSeRTH13
p10
sS'source_url'
p11
Vhttp://instagram.com
p12
sS'possibly_sensitive'
p13
I00
sS'in_reply_to_status_id'
p14
NsS'user'
p15
g0
(ctweepy.models
User
p16
g2
Ntp17
Rp18
(dp19
S'follow_request_sent'
p20
NsS'profile_use_background_image'
p21
I01
sS'profile_sidebar_fill_color'
p22
VDDEEF6
p23
sS'id'
p24
I221490220
sS'verified'
p25
I00
sS'profile_image_url_https'
p26
Vhttps://pbs.twimg.com/profile_images/378800000241124384/72a75b606300815036a414b4599a935b_normal.jpeg
p27
sS'_json'
p28
(dp29
Vfollow_request_sent
p30
NsVprofile_use_background_image
p31
I01
sVdefault_profile_image
p32
I00
sVid
p33
I221490220
sVverified
p34
I00
sVprofile_image_url_https
p35
g27
sVprofile_sidebar_fill_color
p36
g23
sVprofile_text_color
p37
V333333
p38
sVfollowers_count
p39
I63
sVprofile_sidebar_border_color
p40
VC0DEED
p41
sVid_str
p42
V221490220
p43
sVprofile_background_color
p44
VC0DEED
p45
sVlisted_count
p46
I6
sVprofile_background_image_url_https
p47
Vhttps://abs.twimg.com/images/themes/theme1/bg.png
p48
sVutc_offset
p49
NsVstatuses_count
p50
I518
sVdescription
p51
NsVfriends_count
p52
I127
sVlocation
p53
V
p54
sVprofile_link_color
p55
V0084B4
p56
sVprofile_image_url
p57
Vhttp://pbs.twimg.com/profile_images/378800000241124384/72a75b606300815036a414b4599a935b_normal.jpeg
p58
sVfollowing
p59
NsVgeo_enabled
p60
I01
sVprofile_background_image_url
p61
Vhttp://abs.twimg.com/images/themes/theme1/bg.png
p62
sVname
p63
Vjordi
p64
sVlang
p65
Ves
p66
sVprofile_background_tile
p67
I00
sVfavourites_count
p68
I3
sVscreen_name
p69
Vjordigarcia80
p70
sVnotifications
p71
NsVurl
p72
NsVcreated_at
p73
VTue Nov 30 20:21:54 +0000 2010
p74
sVcontributors_enabled
p75
I00
sVtime_zone
p76
NsVprotected
p77
I00
sVdefault_profile
p78
I01
sVis_translator
p79
I00
ssS'contributors_enabled'
p80
I00
sS'profile_text_color'
p81
g38
sS'followers_count'
p82
I63
sS'profile_sidebar_border_color'
p83
g41
sS'location'
p84
g54
sS'default_profile_image'
p85
I00
sS'id_str'
p86
g43
sS'utc_offset'
p87
NsS'statuses_count'
p88
I518
sS'description'
p89
NsS'friends_count'
p90
I127
sS'profile_link_color'
p91
g56
sS'profile_image_url'
p92
g58
sS'notifications'
p93
NsS'geo_enabled'
p94
I01
sS'profile_background_color'
p95
g45
sS'profile_background_image_url'
p96
g62
sS'name'
p97
g64
sS'lang'
p98
g66
sS'following'
p99
I00
sS'profile_background_tile'
p100
I00
sS'favourites_count'
p101
I3
sS'screen_name'
p102
g70
sS'url'
p103
NsS'created_at'
p104
cdatetime
datetime
p105
(S'\x07\xda\x0b\x1e\x14\x156\x00\x00\x00'
p106
tp107
Rp108
sS'profile_background_image_url_https'
p109
g48
sS'time_zone'
p110
NsS'protected'
p111
I00
sS'default_profile'
p112
I01
sS'is_translator'
p113
I00
sS'listed_count'
p114
I6
sbsS'filter_level'
p115
Vlow
p116
sS'geo'
p117
(dp118
Vtype
p119
VPoint
p120
sVcoordinates
p121
(lp122
F47.377693
aF8.511482
assg24
I623825424934694912
sS'favorite_count'
p123
I0
sS'source'
p124
VInstagram
p125
sg98
Ven
p126
sS'author'
p127
g18
sS'in_reply_to_user_id_str'
p128
Nsg28
(dp129
Vcontributors
p130
NsVtruncated
p131
I00
sVtext
p132
g10
sVin_reply_to_status_id
p133
Nsg33
I623825424934694912
sVfavorite_count
p134
I0
sVsource
p135
V<a href="http://instagram.com" rel="nofollow">Instagram</a>
p136
sVretweeted
p137
I00
sg121
(dp138
g119
VPoint
p139
sg121
(lp140
F8.511482
aF47.377693
assVtimestamp_ms
p141
V1437566546077
p142
sVentities
p143
(dp144
Vuser_mentions
p145
(lp146
sVsymbols
p147
(lp148
sVtrends
p149
(lp150
sVhashtags
p151
(lp152
(dp153
Vindices
p154
(lp155
I9
aI16
asg132
Vzurich
p156
sa(dp157
g154
(lp158
I17
aI27
asg132
Vbestagram
p159
sa(dp160
g154
(lp161
I28
aI36
asg132
Vbestpic
p162
sa(dp163
g154
(lp164
I37
aI50
asg132
Vbestoftheday
p165
sa(dp166
g154
(lp167
I51
aI62
asg132
Vdarosworld
p168
sa(dp169
g154
(lp170
I63
aI71
asg132
Vekks_bw
p171
sa(dp172
g154
(lp173
I72
aI82
asg132
Vekks_shot
p174
sa(dp175
g154
(lp176
I83
aI101
asg132
Vdescubriendoigers
p177
sasVurls
p178
(lp179
(dp180
g72
Vhttps://t.co/JhmSeRTH13
p181
sg154
(lp182
I103
aI126
asVexpanded_url
p183
Vhttps://instagram.com/p/5cA0syORNF/
p184
sVdisplay_url
p185
Vinstagram.com/p/5cA0syORNF/
p186
sassVin_reply_to_screen_name
p187
Nsg42
V623825424934694912
p188
sVretweet_count
p189
I0
sVin_reply_to_user_id
p190
NsVfavorited
p191
I00
sVuser
p192
g29
sVgeo
p193
g118
sVin_reply_to_user_id_str
p194
NsVpossibly_sensitive
p195
I00
sg65
g126
sg73
VWed Jul 22 12:02:26 +0000 2015
p196
sVfilter_level
p197
g116
sVin_reply_to_status_id_str
p198
NsVplace
p199
(dp200
Vfull_name
p201
VZurich, Suiza
p202
sg72
Vhttps://api.twitter.com/1.1/geo/id/3acb748d0f1e9265.json
p203
sVcountry
p204
VSchweiz
p205
sVplace_type
p206
Vcity
p207
sVbounding_box
p208
(dp209
g119
VPolygon
p210
sg121
(lp211
(lp212
(lp213
F8.448081
aF47.320183
aa(lp214
F8.448081
aF47.434721
aa(lp215
F8.625442
aF47.434721
aa(lp216
F8.625442
aF47.320183
aaassVcountry_code
p217
VCH
p218
sVattributes
p219
(dp220
sg33
V3acb748d0f1e9265
p221
sg63
VZurich
p222
sssS'coordinates'
p223
g138
sS'timestamp_ms'
p224
g142
sS'entities'
p225
g144
sS'in_reply_to_status_id_str'
p226
NsS'in_reply_to_screen_name'
p227
Nsg86
g188
sS'retweeted'
p228
I00
sS'place'
p229
g0
(ctweepy.models
Place
p230
g2
Ntp231
Rp232
(dp233
S'full_name'
p234
g202
sg103
g203
sS'country'
p235
g205
sS'place_type'
p236
g207
sS'bounding_box'
p237
g0
(ctweepy.models
BoundingBox
p238
g2
Ntp239
Rp240
(dp241
S'type'
p242
g210
sg223
g211
sbsS'country_code'
p243
g218
sS'attributes'
p244
g220
sg24
g221
sg97
g222
sbsS'retweet_count'
p245
I0
sg104
g105
(S'\x07\xdf\x07\x16\x0c\x02\x1a\x00\x00\x00'
p246
tp247
Rp248
sS'in_reply_to_user_id'
p249
Nsb.