ccopy_reg
_reconstructor
p0
(ctweepy.models
Status
p1
c__builtin__
object
p2
Ntp3
Rp4
(dp5
S'favorited'
p6
I00
sS'contributors'
p7
NsS'truncated'
p8
I00
sS'text'
p9
V@LolStvicious @LustboyLoL it's him boyz http://t.co/AQFy9M75O1
p10
sS'source_url'
p11
Vhttp://twitter.com
p12
sS'possibly_sensitive'
p13
I00
sS'in_reply_to_status_id'
p14
I623734904233132033
sS'user'
p15
g0
(ctweepy.models
User
p16
g2
Ntp17
Rp18
(dp19
S'follow_request_sent'
p20
NsS'profile_use_background_image'
p21
I01
sS'profile_sidebar_fill_color'
p22
VDDEEF6
p23
sS'id'
p24
I2977834655
sS'verified'
p25
I00
sS'profile_image_url_https'
p26
Vhttps://pbs.twimg.com/profile_images/577213516169408512/Z6422MOv_normal.png
p27
sS'_json'
p28
(dp29
Vfollow_request_sent
p30
NsVprofile_use_background_image
p31
I01
sVdefault_profile_image
p32
I00
sVid
p33
I2977834655
sVverified
p34
I00
sVprofile_image_url_https
p35
g27
sVprofile_sidebar_fill_color
p36
g23
sVprofile_text_color
p37
V333333
p38
sVfollowers_count
p39
I2
sVprofile_sidebar_border_color
p40
VC0DEED
p41
sVid_str
p42
V2977834655
p43
sVprofile_background_color
p44
VACDED6
p45
sVlisted_count
p46
I0
sVprofile_background_image_url_https
p47
Vhttps://abs.twimg.com/images/themes/theme18/bg.gif
p48
sVutc_offset
p49
NsVstatuses_count
p50
I230
sVdescription
p51
VFreelance Graphic Designer & Student | Living the tough life, playing games, going out, eating food
p52
sVfriends_count
p53
I64
sVlocation
p54
VWinterthur, Switzerland
p55
sVprofile_link_color
p56
VFA743E
p57
sVprofile_image_url
p58
Vhttp://pbs.twimg.com/profile_images/577213516169408512/Z6422MOv_normal.png
p59
sVfollowing
p60
NsVgeo_enabled
p61
I01
sVprofile_background_image_url
p62
Vhttp://abs.twimg.com/images/themes/theme18/bg.gif
p63
sVname
p64
VSimon Fischer
p65
sVlang
p66
Ven
p67
sVprofile_background_tile
p68
I00
sVfavourites_count
p69
I209
sVscreen_name
p70
Valmostsimon1
p71
sVnotifications
p72
NsVurl
p73
Vhttp://www.cubee.ch
p74
sVcreated_at
p75
VWed Jan 14 10:17:22 +0000 2015
p76
sVcontributors_enabled
p77
I00
sVtime_zone
p78
NsVprotected
p79
I00
sVdefault_profile
p80
I00
sVis_translator
p81
I00
ssS'contributors_enabled'
p82
I00
sS'profile_text_color'
p83
g38
sS'followers_count'
p84
I2
sS'profile_sidebar_border_color'
p85
g41
sS'location'
p86
g55
sS'default_profile_image'
p87
I00
sS'id_str'
p88
g43
sS'utc_offset'
p89
NsS'statuses_count'
p90
I230
sS'description'
p91
g52
sS'friends_count'
p92
I64
sS'profile_link_color'
p93
g57
sS'profile_image_url'
p94
g59
sS'notifications'
p95
NsS'geo_enabled'
p96
I01
sS'profile_background_color'
p97
g45
sS'profile_background_image_url'
p98
g63
sS'name'
p99
g65
sS'lang'
p100
g67
sS'following'
p101
I00
sS'profile_background_tile'
p102
I00
sS'favourites_count'
p103
I209
sS'screen_name'
p104
g71
sS'url'
p105
g74
sS'created_at'
p106
cdatetime
datetime
p107
(S'\x07\xdf\x01\x0e\n\x11\x16\x00\x00\x00'
p108
tp109
Rp110
sS'profile_background_image_url_https'
p111
g48
sS'time_zone'
p112
NsS'protected'
p113
I00
sS'default_profile'
p114
I00
sS'is_translator'
p115
I00
sS'listed_count'
p116
I0
sbsS'filter_level'
p117
Vlow
p118
sS'geo'
p119
Nsg24
I623785047477239808
sS'favorite_count'
p120
I0
sS'source'
p121
VTwitter Web Client
p122
sg100
Ven
p123
sS'author'
p124
g18
sS'in_reply_to_user_id_str'
p125
V436782436
p126
sg28
(dp127
Vcontributors
p128
NsVtruncated
p129
I00
sVtext
p130
g10
sVin_reply_to_status_id
p131
I623734904233132033
sg33
I623785047477239808
sVfavorite_count
p132
I0
sVsource
p133
V<a href="http://twitter.com" rel="nofollow">Twitter Web Client</a>
p134
sVretweeted
p135
I00
sVcoordinates
p136
NsVtimestamp_ms
p137
V1437556919341
p138
sVentities
p139
(dp140
Vsymbols
p141
(lp142
sVmedia
p143
(lp144
(dp145
Vexpanded_url
p146
Vhttp://twitter.com/almostsimon1/status/623785047477239808/photo/1
p147
sVdisplay_url
p148
Vpic.twitter.com/AQFy9M75O1
p149
sg73
Vhttp://t.co/AQFy9M75O1
p150
sVmedia_url_https
p151
Vhttps://pbs.twimg.com/media/CKghMdMUwAAPfiA.png
p152
sg42
V623785046269280256
p153
sVsizes
p154
(dp155
Vlarge
p156
(dp157
Vh
p158
I250
sVresize
p159
Vfit
p160
sVw
p161
I147
ssVsmall
p162
(dp163
g158
I250
sg159
Vfit
p164
sg161
I147
ssVmedium
p165
(dp166
g158
I250
sg159
Vfit
p167
sg161
I147
ssVthumb
p168
(dp169
g158
I150
sg159
Vcrop
p170
sg161
I147
sssVindices
p171
(lp172
I40
aI62
asVtype
p173
Vphoto
p174
sg33
I623785046269280256
sVmedia_url
p175
Vhttp://pbs.twimg.com/media/CKghMdMUwAAPfiA.png
p176
sasVhashtags
p177
(lp178
sVuser_mentions
p179
(lp180
(dp181
g33
I436782436
sg171
(lp182
I0
aI13
asg42
V436782436
p183
sg70
VLolStvicious
p184
sg64
Vsaintvicious
p185
sa(dp186
g33
I411836598
sg171
(lp187
I14
aI25
asg42
V411836598
p188
sg70
VLustboyLoL
p189
sg64
VLustboy
p190
sasVtrends
p191
(lp192
sVurls
p193
(lp194
ssVin_reply_to_screen_name
p195
VLolStvicious
p196
sg42
V623785047477239808
p197
sVretweet_count
p198
I0
sVin_reply_to_user_id
p199
I436782436
sVfavorited
p200
I00
sVuser
p201
g29
sVgeo
p202
NsVin_reply_to_user_id_str
p203
g126
sVpossibly_sensitive
p204
I00
sg66
g123
sg75
VWed Jul 22 09:21:59 +0000 2015
p205
sVfilter_level
p206
g118
sVin_reply_to_status_id_str
p207
V623734904233132033
p208
sVplace
p209
(dp210
Vfull_name
p211
VZurich, Switzerland
p212
sg73
Vhttps://api.twitter.com/1.1/geo/id/db94c1cccc67c4f4.json
p213
sVcountry
p214
VSchweiz
p215
sVplace_type
p216
Vadmin
p217
sVbounding_box
p218
(dp219
g173
VPolygon
p220
sg136
(lp221
(lp222
(lp223
F8.357749
aF47.159384
aa(lp224
F8.357749
aF47.694503
aa(lp225
F8.984445
aF47.694503
aa(lp226
F8.984445
aF47.159384
aaassVcountry_code
p227
VCH
p228
sVattributes
p229
(dp230
sg33
Vdb94c1cccc67c4f4
p231
sg64
VZurich
p232
ssVextended_entities
p233
(dp234
g143
(lp235
(dp236
g146
Vhttp://twitter.com/almostsimon1/status/623785047477239808/photo/1
p237
sg148
Vpic.twitter.com/AQFy9M75O1
p238
sg73
Vhttp://t.co/AQFy9M75O1
p239
sg151
Vhttps://pbs.twimg.com/media/CKghMdMUwAAPfiA.png
p240
sg42
V623785046269280256
p241
sg154
(dp242
g156
(dp243
g158
I250
sg159
Vfit
p244
sg161
I147
ssg162
(dp245
g158
I250
sg159
Vfit
p246
sg161
I147
ssg165
(dp247
g158
I250
sg159
Vfit
p248
sg161
I147
ssg168
(dp249
g158
I150
sg159
Vcrop
p250
sg161
I147
sssg171
(lp251
I40
aI62
asg173
Vphoto
p252
sg33
I623785046269280256
sg175
Vhttp://pbs.twimg.com/media/CKghMdMUwAAPfiA.png
p253
sasssS'coordinates'
p254
NsS'timestamp_ms'
p255
g138
sS'entities'
p256
g140
sS'in_reply_to_status_id_str'
p257
g208
sS'in_reply_to_screen_name'
p258
g196
sg88
g197
sS'extended_entities'
p259
g234
sS'retweeted'
p260
I00
sS'place'
p261
g0
(ctweepy.models
Place
p262
g2
Ntp263
Rp264
(dp265
S'full_name'
p266
g212
sg105
g213
sS'country'
p267
g215
sS'place_type'
p268
g217
sS'bounding_box'
p269
g0
(ctweepy.models
BoundingBox
p270
g2
Ntp271
Rp272
(dp273
S'type'
p274
g220
sg254
g221
sbsS'country_code'
p275
g228
sS'attributes'
p276
g230
sg24
g231
sg99
g232
sbsS'retweet_count'
p277
I0
sg106
g107
(S'\x07\xdf\x07\x16\t\x15;\x00\x00\x00'
p278
tp279
Rp280
sS'in_reply_to_user_id'
p281
I436782436
sb.