ccopy_reg
_reconstructor
p0
(ctweepy.models
Status
p1
c__builtin__
object
p2
Ntp3
Rp4
(dp5
S'favorited'
p6
I00
sS'contributors'
p7
NsS'truncated'
p8
I00
sS'text'
p9
V#Drinks by the river #Zurich style. \u000a#Rimini #bar #night #photography @ RIMINI BAR https://t.co/6uo3Zp4UTe
p10
sS'source_url'
p11
Vhttp://instagram.com
p12
sS'possibly_sensitive'
p13
I00
sS'in_reply_to_status_id'
p14
NsS'user'
p15
g0
(ctweepy.models
User
p16
g2
Ntp17
Rp18
(dp19
S'follow_request_sent'
p20
NsS'profile_use_background_image'
p21
I00
sS'profile_sidebar_fill_color'
p22
V181818
p23
sS'id'
p24
I204040363
sS'verified'
p25
I00
sS'profile_image_url_https'
p26
Vhttps://pbs.twimg.com/profile_images/594801052316258304/JlHkojvw_normal.jpg
p27
sS'_json'
p28
(dp29
Vfollow_request_sent
p30
NsVprofile_use_background_image
p31
I00
sVdefault_profile_image
p32
I00
sVid
p33
I204040363
sVverified
p34
I00
sVprofile_image_url_https
p35
g27
sVprofile_sidebar_fill_color
p36
g23
sVprofile_text_color
p37
VB0B0B0
p38
sVfollowers_count
p39
I955
sVprofile_sidebar_border_color
p40
VFFFFFF
p41
sVid_str
p42
V204040363
p43
sVprofile_background_color
p44
V606060
p45
sVlisted_count
p46
I57
sVprofile_background_image_url_https
p47
Vhttps://pbs.twimg.com/profile_background_images/209669277/x1dec5a7a7a28fa7b2b95c396becbcd8.gif
p48
sVutc_offset
p49
NsVstatuses_count
p50
I852
sVdescription
p51
VWe offer independent #luxury #travel reviews & PR about design and boutique hotels and gourmet restaurants.
p52
sVfriends_count
p53
I1075
sVlocation
p54
VZurich
p55
sVprofile_link_color
p56
VFF9000
p57
sVprofile_image_url
p58
Vhttp://pbs.twimg.com/profile_images/594801052316258304/JlHkojvw_normal.jpg
p59
sVfollowing
p60
NsVgeo_enabled
p61
I01
sVprofile_banner_url
p62
Vhttps://pbs.twimg.com/profile_banners/204040363/1429771854
p63
sVprofile_background_image_url
p64
Vhttp://pbs.twimg.com/profile_background_images/209669277/x1dec5a7a7a28fa7b2b95c396becbcd8.gif
p65
sVname
p66
VKatja & Walter
p67
sVlang
p68
Ven
p69
sVprofile_background_tile
p70
I00
sVfavourites_count
p71
I130
sVscreen_name
p72
Vtravel_memo
p73
sVnotifications
p74
NsVurl
p75
Vhttp://travelmemo.com
p76
sVcreated_at
p77
VSun Oct 17 19:49:59 +0000 2010
p78
sVcontributors_enabled
p79
I00
sVtime_zone
p80
NsVprotected
p81
I00
sVdefault_profile
p82
I00
sVis_translator
p83
I00
ssS'contributors_enabled'
p84
I00
sS'profile_text_color'
p85
g38
sS'followers_count'
p86
I955
sS'profile_sidebar_border_color'
p87
g41
sS'location'
p88
g55
sS'default_profile_image'
p89
I00
sS'id_str'
p90
g43
sS'utc_offset'
p91
NsS'statuses_count'
p92
I852
sS'description'
p93
g52
sS'friends_count'
p94
I1075
sS'profile_link_color'
p95
g57
sS'profile_image_url'
p96
g59
sS'notifications'
p97
NsS'geo_enabled'
p98
I01
sS'profile_background_color'
p99
g45
sS'profile_banner_url'
p100
g63
sS'profile_background_image_url'
p101
g65
sS'name'
p102
g67
sS'lang'
p103
g69
sS'following'
p104
I00
sS'profile_background_tile'
p105
I00
sS'favourites_count'
p106
I130
sS'screen_name'
p107
g73
sS'url'
p108
g76
sS'created_at'
p109
cdatetime
datetime
p110
(S'\x07\xda\n\x11\x131;\x00\x00\x00'
p111
tp112
Rp113
sS'profile_background_image_url_https'
p114
g48
sS'time_zone'
p115
NsS'protected'
p116
I00
sS'default_profile'
p117
I00
sS'is_translator'
p118
I00
sS'listed_count'
p119
I57
sbsS'filter_level'
p120
Vlow
p121
sS'geo'
p122
(dp123
Vtype
p124
VPoint
p125
sVcoordinates
p126
(lp127
F47.371459
aF8.532852
assg24
I621420711396163584
sS'favorite_count'
p128
I0
sS'source'
p129
VInstagram
p130
sg103
Ven
p131
sS'author'
p132
g18
sS'in_reply_to_user_id_str'
p133
Nsg28
(dp134
Vcontributors
p135
NsVtruncated
p136
I00
sVtext
p137
V#Drinks by the river #Zurich style. \u000a#Rimini #bar #night #photography @ RIMINI BAR https://t.co/6uo3Zp4UTe
p138
sVin_reply_to_status_id
p139
Nsg33
I621420711396163584
sVfavorite_count
p140
I0
sVsource
p141
V<a href="http://instagram.com" rel="nofollow">Instagram</a>
p142
sVretweeted
p143
I00
sg126
(dp144
g124
VPoint
p145
sg126
(lp146
F8.532852
aF47.371459
assVtimestamp_ms
p147
V1436993217692
p148
sVentities
p149
(dp150
Vuser_mentions
p151
(lp152
sVsymbols
p153
(lp154
sVtrends
p155
(lp156
sVhashtags
p157
(lp158
(dp159
Vindices
p160
(lp161
I0
aI7
asg137
VDrinks
p162
sa(dp163
g160
(lp164
I21
aI28
asg137
VZurich
p165
sa(dp166
g160
(lp167
I37
aI44
asg137
VRimini
p168
sa(dp169
g160
(lp170
I45
aI49
asg137
Vbar
p171
sa(dp172
g160
(lp173
I50
aI56
asg137
Vnight
p174
sa(dp175
g160
(lp176
I57
aI69
asg137
Vphotography
p177
sasVurls
p178
(lp179
(dp180
g75
Vhttps://t.co/6uo3Zp4UTe
p181
sg160
(lp182
I83
aI106
asVexpanded_url
p183
Vhttps://instagram.com/p/5K7SO9SBlD/
p184
sVdisplay_url
p185
Vinstagram.com/p/5K7SO9SBlD/
p186
sassVin_reply_to_screen_name
p187
Nsg42
V621420711396163584
p188
sVretweet_count
p189
I0
sVin_reply_to_user_id
p190
NsVfavorited
p191
I00
sVuser
p192
g29
sVgeo
p193
g123
sVin_reply_to_user_id_str
p194
NsVpossibly_sensitive
p195
I00
sg68
g131
sg77
VWed Jul 15 20:46:57 +0000 2015
p196
sVfilter_level
p197
g121
sVin_reply_to_status_id_str
p198
NsVplace
p199
(dp200
Vfull_name
p201
VZurich, Switzerland
p202
sg75
Vhttps://api.twitter.com/1.1/geo/id/3acb748d0f1e9265.json
p203
sVcountry
p204
VSchweiz
p205
sVplace_type
p206
Vcity
p207
sVbounding_box
p208
(dp209
g124
VPolygon
p210
sg126
(lp211
(lp212
(lp213
F8.448081
aF47.320183
aa(lp214
F8.448081
aF47.434721
aa(lp215
F8.625442
aF47.434721
aa(lp216
F8.625442
aF47.320183
aaassVcountry_code
p217
VCH
p218
sVattributes
p219
(dp220
sg33
V3acb748d0f1e9265
p221
sg66
VZurich
p222
sssS'coordinates'
p223
g144
sS'timestamp_ms'
p224
g148
sS'entities'
p225
g150
sS'in_reply_to_status_id_str'
p226
NsS'in_reply_to_screen_name'
p227
Nsg90
g188
sS'retweeted'
p228
I00
sS'place'
p229
g0
(ctweepy.models
Place
p230
g2
Ntp231
Rp232
(dp233
S'full_name'
p234
g202
sg108
g203
sS'country'
p235
g205
sS'place_type'
p236
g207
sS'bounding_box'
p237
g0
(ctweepy.models
BoundingBox
p238
g2
Ntp239
Rp240
(dp241
S'type'
p242
g210
sg223
g211
sbsS'country_code'
p243
g218
sS'attributes'
p244
g220
sg24
g221
sg102
g222
sbsS'retweet_count'
p245
I0
sg109
g110
(S'\x07\xdf\x07\x0f\x14.9\x00\x00\x00'
p246
tp247
Rp248
sS'in_reply_to_user_id'
p249
Nsb.