ccopy_reg
_reconstructor
p0
(ctweepy.models
Status
p1
c__builtin__
object
p2
Ntp3
Rp4
(dp5
S'favorited'
p6
I00
sS'contributors'
p7
NsS'truncated'
p8
I00
sS'text'
p9
V@srfsport Ob man als "angefressener Fan" der #Tour2015 wieder fremdgehen muss #Kommentatoren ... @Eurosport oder @ARD ?  #srfsport #srfrad
p10
sS'source_url'
p11
Vhttp://twitter.com
p12
sS'possibly_sensitive'
p13
I00
sS'in_reply_to_status_id'
p14
I621646350539730949
sS'user'
p15
g0
(ctweepy.models
User
p16
g2
Ntp17
Rp18
(dp19
S'follow_request_sent'
p20
NsS'profile_use_background_image'
p21
I00
sS'profile_sidebar_fill_color'
p22
V000000
p23
sS'id'
p24
I2466122942
sS'verified'
p25
I00
sS'profile_image_url_https'
p26
Vhttps://pbs.twimg.com/profile_images/460414233717391361/ImzmL0_S_normal.jpeg
p27
sS'_json'
p28
(dp29
Vfollow_request_sent
p30
NsVprofile_use_background_image
p31
I00
sVdefault_profile_image
p32
I00
sVid
p33
I2466122942
sVverified
p34
I00
sVprofile_image_url_https
p35
g27
sVprofile_sidebar_fill_color
p36
g23
sVprofile_text_color
p37
V000000
p38
sVfollowers_count
p39
I212
sVprofile_sidebar_border_color
p40
V000000
p41
sVid_str
p42
V2466122942
p43
sVprofile_background_color
p44
V000000
p45
sVlisted_count
p46
I9
sVprofile_background_image_url_https
p47
Vhttps://abs.twimg.com/images/themes/theme1/bg.png
p48
sVutc_offset
p49
NsVstatuses_count
p50
I6848
sVdescription
p51
VIt's hard to say I'm sorry...weshalb eigentlich ??? Fan des HCD, der Stones, dem Zeppelin und der Natur, so wie sie damals war ... trotzdem nicht weiser !
p52
sVfriends_count
p53
I331
sVlocation
p54
VIn Baden und rundherum ...
p55
sVprofile_link_color
p56
V0084B4
p57
sVprofile_image_url
p58
Vhttp://pbs.twimg.com/profile_images/460414233717391361/ImzmL0_S_normal.jpeg
p59
sVfollowing
p60
NsVgeo_enabled
p61
I01
sVprofile_banner_url
p62
Vhttps://pbs.twimg.com/profile_banners/2466122942/1411155311
p63
sVprofile_background_image_url
p64
Vhttp://abs.twimg.com/images/themes/theme1/bg.png
p65
sVname
p66
VBeno Schraner
p67
sVlang
p68
Vde
p69
sVprofile_background_tile
p70
I00
sVfavourites_count
p71
I12740
sVscreen_name
p72
Vhcdole
p73
sVnotifications
p74
NsVurl
p75
NsVcreated_at
p76
VSun Apr 27 13:33:21 +0000 2014
p77
sVcontributors_enabled
p78
I00
sVtime_zone
p79
NsVprotected
p80
I00
sVdefault_profile
p81
I00
sVis_translator
p82
I00
ssS'contributors_enabled'
p83
I00
sS'profile_text_color'
p84
g38
sS'followers_count'
p85
I212
sS'profile_sidebar_border_color'
p86
g41
sS'location'
p87
g55
sS'default_profile_image'
p88
I00
sS'id_str'
p89
g43
sS'utc_offset'
p90
NsS'statuses_count'
p91
I6848
sS'description'
p92
g52
sS'friends_count'
p93
I331
sS'profile_link_color'
p94
g57
sS'profile_image_url'
p95
g59
sS'notifications'
p96
NsS'geo_enabled'
p97
I01
sS'profile_background_color'
p98
g45
sS'profile_banner_url'
p99
g63
sS'profile_background_image_url'
p100
g65
sS'name'
p101
g67
sS'lang'
p102
g69
sS'following'
p103
I00
sS'profile_background_tile'
p104
I00
sS'favourites_count'
p105
I12740
sS'screen_name'
p106
g73
sS'url'
p107
NsS'created_at'
p108
cdatetime
datetime
p109
(S'\x07\xde\x04\x1b\r!\x15\x00\x00\x00'
p110
tp111
Rp112
sS'profile_background_image_url_https'
p113
g48
sS'time_zone'
p114
NsS'protected'
p115
I00
sS'default_profile'
p116
I00
sS'is_translator'
p117
I00
sS'listed_count'
p118
I9
sbsS'filter_level'
p119
Vlow
p120
sS'geo'
p121
Nsg24
I621654339006935040
sS'favorite_count'
p122
I0
sS'source'
p123
VTwitter Web Client
p124
sg102
Vde
p125
sS'author'
p126
g18
sS'in_reply_to_user_id_str'
p127
V20689135
p128
sg28
(dp129
Vcontributors
p130
NsVtruncated
p131
I00
sVtext
p132
g10
sVin_reply_to_status_id
p133
I621646350539730949
sg33
I621654339006935040
sVfavorite_count
p134
I0
sVsource
p135
V<a href="http://twitter.com" rel="nofollow">Twitter Web Client</a>
p136
sVretweeted
p137
I00
sVcoordinates
p138
NsVtimestamp_ms
p139
V1437048918855
p140
sVentities
p141
(dp142
Vuser_mentions
p143
(lp144
(dp145
g33
I20689135
sVindices
p146
(lp147
I0
aI9
asg42
V20689135
p148
sg72
Vsrfsport
p149
sg66
VSRF Sport
p150
sa(dp151
g33
I393948633
sg146
(lp152
I97
aI107
asg42
V393948633
p153
sg72
VEurosport
p154
sg66
VEurosport
p155
sa(dp156
g33
I6774282
sg146
(lp157
I113
aI117
asg42
V6774282
p158
sg72
Vard
p159
sg66
VSzymon Pilkowski
p160
sasVsymbols
p161
(lp162
sVtrends
p163
(lp164
sVhashtags
p165
(lp166
(dp167
g146
(lp168
I45
aI54
asg132
VTour2015
p169
sa(dp170
g146
(lp171
I78
aI92
asg132
VKommentatoren
p172
sa(dp173
g146
(lp174
I121
aI130
asg132
Vsrfsport
p175
sa(dp176
g146
(lp177
I131
aI138
asg132
Vsrfrad
p178
sasVurls
p179
(lp180
ssVin_reply_to_screen_name
p181
Vsrfsport
p182
sg42
V621654339006935040
p183
sVretweet_count
p184
I0
sVin_reply_to_user_id
p185
I20689135
sVfavorited
p186
I00
sVuser
p187
g29
sVgeo
p188
NsVin_reply_to_user_id_str
p189
g128
sVpossibly_sensitive
p190
I00
sg68
g125
sg76
VThu Jul 16 12:15:18 +0000 2015
p191
sVfilter_level
p192
g120
sVin_reply_to_status_id_str
p193
V621646350539730949
p194
sVplace
p195
(dp196
Vfull_name
p197
VAargau, Schweiz
p198
sg75
Vhttps://api.twitter.com/1.1/geo/id/64c89c3f0e8b8b2e.json
p199
sVcountry
p200
VSchweiz
p201
sVplace_type
p202
Vadmin
p203
sVbounding_box
p204
(dp205
Vtype
p206
VPolygon
p207
sg138
(lp208
(lp209
(lp210
F7.713449
aF47.137443
aa(lp211
F7.713449
aF47.621039
aa(lp212
F8.455222
aF47.621039
aa(lp213
F8.455222
aF47.137443
aaassVcountry_code
p214
VCH
p215
sVattributes
p216
(dp217
sg33
V64c89c3f0e8b8b2e
p218
sg66
VAargau
p219
sssS'coordinates'
p220
NsS'timestamp_ms'
p221
g140
sS'entities'
p222
g142
sS'in_reply_to_status_id_str'
p223
g194
sS'in_reply_to_screen_name'
p224
g182
sg89
g183
sS'retweeted'
p225
I00
sS'place'
p226
g0
(ctweepy.models
Place
p227
g2
Ntp228
Rp229
(dp230
S'full_name'
p231
g198
sg107
g199
sS'country'
p232
g201
sS'place_type'
p233
g203
sS'bounding_box'
p234
g0
(ctweepy.models
BoundingBox
p235
g2
Ntp236
Rp237
(dp238
S'type'
p239
g207
sg220
g208
sbsS'country_code'
p240
g215
sS'attributes'
p241
g217
sg24
g218
sg101
g219
sbsS'retweet_count'
p242
I0
sg108
g109
(S'\x07\xdf\x07\x10\x0c\x0f\x12\x00\x00\x00'
p243
tp244
Rp245
sS'in_reply_to_user_id'
p246
I20689135
sb.