ccopy_reg
_reconstructor
p0
(ctweepy.models
Status
p1
c__builtin__
object
p2
Ntp3
Rp4
(dp5
S'favorited'
p6
I00
sS'contributors'
p7
NsS'truncated'
p8
I00
sS'text'
p9
VMelissa Etheridge live in Zurich 15 July 2015 - setlist:\u000ahttp://t.co/t082qyckg7
p10
sS'source_url'
p11
Vhttp://twitter.com
p12
sS'possibly_sensitive'
p13
I00
sS'in_reply_to_status_id'
p14
NsS'user'
p15
g0
(ctweepy.models
User
p16
g2
Ntp17
Rp18
(dp19
S'follow_request_sent'
p20
NsS'profile_use_background_image'
p21
I01
sS'profile_sidebar_fill_color'
p22
VDDEEF6
p23
sS'id'
p24
I74094492
sS'verified'
p25
I00
sS'profile_image_url_https'
p26
Vhttps://abs.twimg.com/sticky/default_profile_images/default_profile_3_normal.png
p27
sS'_json'
p28
(dp29
Vfollow_request_sent
p30
NsVprofile_use_background_image
p31
I01
sVdefault_profile_image
p32
I01
sVid
p33
I74094492
sVverified
p34
I00
sVprofile_image_url_https
p35
g27
sVprofile_sidebar_fill_color
p36
g23
sVprofile_text_color
p37
V333333
p38
sVfollowers_count
p39
I532
sVprofile_sidebar_border_color
p40
VC0DEED
p41
sVid_str
p42
V74094492
p43
sVprofile_background_color
p44
VC0DEED
p45
sVlisted_count
p46
I7
sVprofile_background_image_url_https
p47
Vhttps://abs.twimg.com/images/themes/theme1/bg.png
p48
sVutc_offset
p49
I7200
sVstatuses_count
p50
I9530
sVdescription
p51
VJournalist
p52
sVfriends_count
p53
I1993
sVlocation
p54
VZurich
p55
sVprofile_link_color
p56
V0084B4
p57
sVprofile_image_url
p58
Vhttp://abs.twimg.com/sticky/default_profile_images/default_profile_3_normal.png
p59
sVfollowing
p60
NsVgeo_enabled
p61
I01
sVprofile_background_image_url
p62
Vhttp://abs.twimg.com/images/themes/theme1/bg.png
p63
sVname
p64
VEdi Schwager
p65
sVlang
p66
Ven
p67
sVprofile_background_tile
p68
I00
sVfavourites_count
p69
I14
sVscreen_name
p70
VEdiSchwager
p71
sVnotifications
p72
NsVurl
p73
NsVcreated_at
p74
VMon Sep 14 06:42:43 +0000 2009
p75
sVcontributors_enabled
p76
I00
sVtime_zone
p77
VBern
p78
sVprotected
p79
I00
sVdefault_profile
p80
I01
sVis_translator
p81
I00
ssS'contributors_enabled'
p82
I00
sS'profile_text_color'
p83
g38
sS'followers_count'
p84
I532
sS'profile_sidebar_border_color'
p85
g41
sS'location'
p86
g55
sS'default_profile_image'
p87
I01
sS'id_str'
p88
g43
sS'utc_offset'
p89
I7200
sS'statuses_count'
p90
I9530
sS'description'
p91
g52
sS'friends_count'
p92
I1993
sS'profile_link_color'
p93
g57
sS'profile_image_url'
p94
g59
sS'notifications'
p95
NsS'geo_enabled'
p96
I01
sS'profile_background_color'
p97
g45
sS'profile_background_image_url'
p98
g63
sS'name'
p99
g65
sS'lang'
p100
g67
sS'following'
p101
I00
sS'profile_background_tile'
p102
I00
sS'favourites_count'
p103
I14
sS'screen_name'
p104
g71
sS'url'
p105
NsS'created_at'
p106
cdatetime
datetime
p107
(S'\x07\xd9\t\x0e\x06*+\x00\x00\x00'
p108
tp109
Rp110
sS'profile_background_image_url_https'
p111
g48
sS'time_zone'
p112
g78
sS'protected'
p113
I00
sS'default_profile'
p114
I01
sS'is_translator'
p115
I00
sS'listed_count'
p116
I7
sbsS'filter_level'
p117
Vlow
p118
sS'geo'
p119
Nsg24
I621462561893036032
sS'favorite_count'
p120
I0
sS'source'
p121
VTwitter Web Client
p122
sg100
Ven
p123
sS'author'
p124
g18
sS'in_reply_to_user_id_str'
p125
Nsg28
(dp126
Vcontributors
p127
NsVtruncated
p128
I00
sVtext
p129
VMelissa Etheridge live in Zurich 15 July 2015 - setlist:\u000ahttp://t.co/t082qyckg7
p130
sVin_reply_to_status_id
p131
Nsg33
I621462561893036032
sVfavorite_count
p132
I0
sVsource
p133
V<a href="http://twitter.com" rel="nofollow">Twitter Web Client</a>
p134
sVretweeted
p135
I00
sVcoordinates
p136
NsVtimestamp_ms
p137
V1437003195628
p138
sVentities
p139
(dp140
Vuser_mentions
p141
(lp142
sVsymbols
p143
(lp144
sVtrends
p145
(lp146
sVhashtags
p147
(lp148
sVurls
p149
(lp150
(dp151
g73
Vhttp://t.co/t082qyckg7
p152
sVindices
p153
(lp154
I57
aI79
asVexpanded_url
p155
Vhttp://www.setlist.fm/setlist/melissa-etheridge/2015/kongresshaus-zurich-switzerland-23f6e48f.html
p156
sVdisplay_url
p157
Vsetlist.fm/setlist/meliss\u2026
p158
sassVin_reply_to_screen_name
p159
Nsg42
V621462561893036032
p160
sVretweet_count
p161
I0
sVin_reply_to_user_id
p162
NsVfavorited
p163
I00
sVuser
p164
g29
sVgeo
p165
NsVin_reply_to_user_id_str
p166
NsVpossibly_sensitive
p167
I00
sg66
g123
sg74
VWed Jul 15 23:33:15 +0000 2015
p168
sVfilter_level
p169
g118
sVin_reply_to_status_id_str
p170
NsVplace
p171
(dp172
Vfull_name
p173
VZurich, Switzerland
p174
sg73
Vhttps://api.twitter.com/1.1/geo/id/3acb748d0f1e9265.json
p175
sVcountry
p176
VSchweiz
p177
sVplace_type
p178
Vcity
p179
sVbounding_box
p180
(dp181
Vtype
p182
VPolygon
p183
sg136
(lp184
(lp185
(lp186
F8.448081
aF47.320183
aa(lp187
F8.448081
aF47.434721
aa(lp188
F8.625442
aF47.434721
aa(lp189
F8.625442
aF47.320183
aaassVcountry_code
p190
VCH
p191
sVattributes
p192
(dp193
sg33
V3acb748d0f1e9265
p194
sg64
VZurich
p195
sssS'coordinates'
p196
NsS'timestamp_ms'
p197
g138
sS'entities'
p198
g140
sS'in_reply_to_status_id_str'
p199
NsS'in_reply_to_screen_name'
p200
Nsg88
g160
sS'retweeted'
p201
I00
sS'place'
p202
g0
(ctweepy.models
Place
p203
g2
Ntp204
Rp205
(dp206
S'full_name'
p207
g174
sg105
g175
sS'country'
p208
g177
sS'place_type'
p209
g179
sS'bounding_box'
p210
g0
(ctweepy.models
BoundingBox
p211
g2
Ntp212
Rp213
(dp214
S'type'
p215
g183
sg196
g184
sbsS'country_code'
p216
g191
sS'attributes'
p217
g193
sg24
g194
sg99
g195
sbsS'retweet_count'
p218
I0
sg106
g107
(S'\x07\xdf\x07\x0f\x17!\x0f\x00\x00\x00'
p219
tp220
Rp221
sS'in_reply_to_user_id'
p222
Nsb.