ccopy_reg
_reconstructor
p0
(ctweepy.models
Status
p1
c__builtin__
object
p2
Ntp3
Rp4
(dp5
S'contributors'
p6
NsS'truncated'
p7
I00
sS'text'
p8
V@ZSchneeweiss one for you :) https://t.co/FnWwduVhc9
p9
sS'in_reply_to_status_id'
p10
NsS'id'
p11
I623784139586715648
sS'favorite_count'
p12
I0
sS'entities'
p13
(dp14
Vuser_mentions
p15
(lp16
(dp17
Vid
p18
I859306879
sVindices
p19
(lp20
I0
aI13
asVid_str
p21
V859306879
p22
sVscreen_name
p23
VZSchneeweiss
p24
sVname
p25
VZoe Schneeweiss
p26
sasVsymbols
p27
(lp28
sVtrends
p29
(lp30
sVhashtags
p31
(lp32
sVurls
p33
(lp34
(dp35
Vurl
p36
Vhttps://t.co/FnWwduVhc9
p37
sg19
(lp38
I29
aI52
asVexpanded_url
p39
Vhttps://twitter.com/theeconomist/status/623781006169014272
p40
sVdisplay_url
p41
Vtwitter.com/theeconomist/s\u2026
p42
sassS'quoted_status_id'
p43
I623781006169014272
sS'_json'
p44
(dp45
Vcontributors
p46
NsVtruncated
p47
I00
sVtext
p48
g9
sVin_reply_to_status_id
p49
Nsg18
I623784139586715648
sVfavorite_count
p50
I0
sVsource
p51
V<a href="http://twitter.com/download/iphone" rel="nofollow">Twitter for iPhone</a>
p52
sVquoted_status_id
p53
I623781006169014272
sVretweeted
p54
I00
sVcoordinates
p55
NsVtimestamp_ms
p56
V1437556702883
p57
sVquoted_status
p58
(dp59
g46
Nsg47
I00
sg48
VThe price of a Big Mac in Russia implies that the rouble is undervalued by 61%  http://t.co/FHR4LGk2dv http://t.co/bw7qQeezmY
p60
sg49
Nsg18
I623781006169014272
sg50
I0
sg51
V<a href="http://www.socialflow.com" rel="nofollow">SocialFlow</a>
p61
sg54
I00
sg55
NsVentities
p62
(dp63
g27
(lp64
sVmedia
p65
(lp66
(dp67
g39
Vhttp://twitter.com/TheEconomist/status/623781006169014272/photo/1
p68
sg41
Vpic.twitter.com/bw7qQeezmY
p69
sg36
Vhttp://t.co/bw7qQeezmY
p70
sVmedia_url_https
p71
Vhttps://pbs.twimg.com/media/CKgdhQcWoAA4D4c.png
p72
sg21
V623781005577592832
p73
sVsizes
p74
(dp75
Vlarge
p76
(dp77
Vh
p78
I1438
sVresize
p79
Vfit
p80
sVw
p81
I580
ssVsmall
p82
(dp83
g78
I680
sg79
Vfit
p84
sg81
I274
ssVmedium
p85
(dp86
g78
I1200
sg79
Vfit
p87
sg81
I484
ssVthumb
p88
(dp89
g78
I150
sg79
Vcrop
p90
sg81
I150
sssg19
(lp91
I103
aI125
asVtype
p92
Vphoto
p93
sg18
I623781005577592832
sVmedia_url
p94
Vhttp://pbs.twimg.com/media/CKgdhQcWoAA4D4c.png
p95
sasg31
(lp96
sg15
(lp97
sg29
(lp98
sg33
(lp99
(dp100
g36
Vhttp://t.co/FHR4LGk2dv
p101
sg19
(lp102
I80
aI102
asg39
Vhttp://econ.st/1GyVBFT
p103
sg41
Vecon.st/1GyVBFT
p104
sassVin_reply_to_screen_name
p105
Nsg21
V623781006169014272
p106
sVretweet_count
p107
I0
sVin_reply_to_user_id
p108
NsVfavorited
p109
I00
sVuser
p110
(dp111
Vfollow_request_sent
p112
NsVprofile_use_background_image
p113
I01
sVdefault_profile_image
p114
I00
sg18
I5988062
sVverified
p115
I01
sVprofile_image_url_https
p116
Vhttps://pbs.twimg.com/profile_images/461499742950678528/2JnpHjUo_normal.png
p117
sVprofile_sidebar_fill_color
p118
VDDEEF6
p119
sVprofile_text_color
p120
V2C2E2D
p121
sVfollowers_count
p122
I9559798
sVprofile_sidebar_border_color
p123
VFFFFFF
p124
sg21
V5988062
p125
sVprofile_background_color
p126
VDFDFDF
p127
sVlisted_count
p128
I94882
sVprofile_background_image_url_https
p129
Vhttps://pbs.twimg.com/profile_background_images/845392952/963b46728d3607fe369457e527b9d62e.png
p130
sVutc_offset
p131
I-14400
sVstatuses_count
p132
I40678
sVdescription
p133
VNews and analysis with a global perspective. Follow for article updates, events and news from The Economist. To subscribe go to: http://econ.st/1R5AHtj
p134
sVfriends_count
p135
I128
sVlocation
p136
VLondon
p137
sVprofile_link_color
p138
V313331
p139
sVprofile_image_url
p140
Vhttp://pbs.twimg.com/profile_images/461499742950678528/2JnpHjUo_normal.png
p141
sVfollowing
p142
NsVgeo_enabled
p143
I00
sVprofile_banner_url
p144
Vhttps://pbs.twimg.com/profile_banners/5988062/1437076335
p145
sVprofile_background_image_url
p146
Vhttp://pbs.twimg.com/profile_background_images/845392952/963b46728d3607fe369457e527b9d62e.png
p147
sg25
VThe Economist
p148
sVlang
p149
Ven
p150
sVprofile_background_tile
p151
I01
sVfavourites_count
p152
I15
sg23
VTheEconomist
p153
sVnotifications
p154
Nsg36
Vhttp://www.economist.com
p155
sVcreated_at
p156
VSat May 12 13:04:50 +0000 2007
p157
sVcontributors_enabled
p158
I00
sVtime_zone
p159
VEastern Time (US & Canada)
p160
sVprotected
p161
I00
sVdefault_profile
p162
I00
sVis_translator
p163
I00
ssVgeo
p164
NsVin_reply_to_user_id_str
p165
NsVpossibly_sensitive
p166
I00
sg149
Ven
p167
sg156
VWed Jul 22 09:05:55 +0000 2015
p168
sVfilter_level
p169
Vlow
p170
sVin_reply_to_status_id_str
p171
NsVplace
p172
NsVextended_entities
p173
(dp174
g65
(lp175
(dp176
g39
Vhttp://twitter.com/TheEconomist/status/623781006169014272/photo/1
p177
sg41
Vpic.twitter.com/bw7qQeezmY
p178
sg36
Vhttp://t.co/bw7qQeezmY
p179
sg71
Vhttps://pbs.twimg.com/media/CKgdhQcWoAA4D4c.png
p180
sg21
V623781005577592832
p181
sg74
(dp182
g76
(dp183
g78
I1438
sg79
Vfit
p184
sg81
I580
ssg82
(dp185
g78
I680
sg79
Vfit
p186
sg81
I274
ssg85
(dp187
g78
I1200
sg79
Vfit
p188
sg81
I484
ssg88
(dp189
g78
I150
sg79
Vcrop
p190
sg81
I150
sssg19
(lp191
I103
aI125
asg92
Vphoto
p192
sg18
I623781005577592832
sg94
Vhttp://pbs.twimg.com/media/CKgdhQcWoAA4D4c.png
p193
sasssg62
g14
sg105
VZSchneeweiss
p194
sg21
V623784139586715648
p195
sg107
I0
sg108
I859306879
sg109
I00
sg110
(dp196
g112
Nsg113
I00
sg114
I00
sg18
I19659307
sg115
I00
sg116
Vhttps://pbs.twimg.com/profile_images/476386406927826945/B-ekVec5_normal.jpeg
p197
sg118
V000000
p198
sg120
V000000
p199
sg122
I565
sg123
V000000
p200
sg21
V19659307
p201
sg126
V000000
p202
sg128
I32
sg129
Vhttps://abs.twimg.com/images/themes/theme2/bg.gif
p203
sg131
I7200
sg132
I2050
sg133
V#reinsurance love & media relations from @SwissRe HQ. Culture fiend! Tweets are my own.
p204
sg135
I1560
sg136
VZurich
p205
sg138
VF5ABB5
p206
sg140
Vhttp://pbs.twimg.com/profile_images/476386406927826945/B-ekVec5_normal.jpeg
p207
sg142
Nsg143
I01
sg144
Vhttps://pbs.twimg.com/profile_banners/19659307/1424270061
p208
sg146
Vhttp://abs.twimg.com/images/themes/theme2/bg.gif
p209
sg25
VCarolyn Bandel
p210
sg149
Ven
p211
sg151
I00
sg152
I6
sg23
Veatmyhandbag
p212
sg154
Nsg36
Vhttp://muckrack.com/carolyn-bandel
p213
sg156
VWed Jan 28 16:13:53 +0000 2009
p214
sg158
I00
sg159
VBern
p215
sg161
I00
sg162
I00
sg163
I00
ssg164
Nsg165
V859306879
p216
sg166
I00
sg149
Ven
p217
sg156
VWed Jul 22 09:18:22 +0000 2015
p218
sVquoted_status_id_str
p219
V623781006169014272
p220
sg169
Vlow
p221
sg171
Nsg172
(dp222
Vfull_name
p223
VZurich, Switzerland
p224
sg36
Vhttps://api.twitter.com/1.1/geo/id/3acb748d0f1e9265.json
p225
sVcountry
p226
VSchweiz
p227
sVplace_type
p228
Vcity
p229
sVbounding_box
p230
(dp231
g92
VPolygon
p232
sg55
(lp233
(lp234
(lp235
F8.448081
aF47.320183
aa(lp236
F8.448081
aF47.434721
aa(lp237
F8.625442
aF47.434721
aa(lp238
F8.625442
aF47.320183
aaassVcountry_code
p239
VCH
p240
sVattributes
p241
(dp242
sg18
V3acb748d0f1e9265
p243
sg25
VZurich
p244
sssS'coordinates'
p245
NsS'timestamp_ms'
p246
g57
sS'quoted_status'
p247
g59
sS'source'
p248
VTwitter for iPhone
p249
sS'in_reply_to_screen_name'
p250
g194
sS'id_str'
p251
g195
sS'retweet_count'
p252
I0
sS'in_reply_to_user_id'
p253
I859306879
sS'favorited'
p254
I00
sS'source_url'
p255
Vhttp://twitter.com/download/iphone
p256
sS'user'
p257
g0
(ctweepy.models
User
p258
g2
Ntp259
Rp260
(dp261
S'follow_request_sent'
p262
NsS'profile_use_background_image'
p263
I00
sS'profile_sidebar_fill_color'
p264
g198
sg11
I19659307
sS'verified'
p265
I00
sS'profile_image_url_https'
p266
g197
sg44
g196
sS'contributors_enabled'
p267
I00
sS'profile_text_color'
p268
g199
sS'followers_count'
p269
I565
sS'profile_sidebar_border_color'
p270
g200
sS'location'
p271
g205
sS'default_profile_image'
p272
I00
sg251
g201
sS'utc_offset'
p273
I7200
sS'statuses_count'
p274
I2050
sS'description'
p275
g204
sS'friends_count'
p276
I1560
sS'profile_link_color'
p277
g206
sS'profile_image_url'
p278
g207
sS'notifications'
p279
NsS'geo_enabled'
p280
I01
sS'profile_background_color'
p281
g202
sS'profile_banner_url'
p282
g208
sS'profile_background_image_url'
p283
g209
sS'name'
p284
g210
sS'lang'
p285
g211
sS'following'
p286
I00
sS'profile_background_tile'
p287
I00
sS'favourites_count'
p288
I6
sS'screen_name'
p289
g212
sS'url'
p290
g213
sS'created_at'
p291
cdatetime
datetime
p292
(S'\x07\xd9\x01\x1c\x10\r5\x00\x00\x00'
p293
tp294
Rp295
sS'profile_background_image_url_https'
p296
g203
sS'time_zone'
p297
g215
sS'protected'
p298
I00
sS'default_profile'
p299
I00
sS'is_translator'
p300
I00
sS'listed_count'
p301
I32
sbsS'geo'
p302
NsS'in_reply_to_user_id_str'
p303
g216
sS'possibly_sensitive'
p304
I00
sg285
g217
sg291
g292
(S'\x07\xdf\x07\x16\t\x12\x16\x00\x00\x00'
p305
tp306
Rp307
sS'author'
p308
g260
sS'quoted_status_id_str'
p309
g220
sS'filter_level'
p310
g221
sS'in_reply_to_status_id_str'
p311
NsS'place'
p312
g0
(ctweepy.models
Place
p313
g2
Ntp314
Rp315
(dp316
S'full_name'
p317
g224
sg290
g225
sS'country'
p318
g227
sS'place_type'
p319
g229
sS'bounding_box'
p320
g0
(ctweepy.models
BoundingBox
p321
g2
Ntp322
Rp323
(dp324
S'type'
p325
g232
sg245
g233
sbsS'country_code'
p326
g240
sS'attributes'
p327
g242
sg11
g243
sg284
g244
sbsS'retweeted'
p328
I00
sb.