ccopy_reg
_reconstructor
p0
(ctweepy.models
Status
p1
c__builtin__
object
p2
Ntp3
Rp4
(dp5
S'favorited'
p6
I00
sS'contributors'
p7
NsS'truncated'
p8
I00
sS'text'
p9
VGreetings from #ZURICH #Switzerland #euroRICH @ Bahnhofstrasse https://t.co/D3oxTUBKE5
p10
sS'source_url'
p11
Vhttp://instagram.com
p12
sS'possibly_sensitive'
p13
I00
sS'in_reply_to_status_id'
p14
NsS'user'
p15
g0
(ctweepy.models
User
p16
g2
Ntp17
Rp18
(dp19
S'follow_request_sent'
p20
NsS'profile_use_background_image'
p21
I01
sS'profile_sidebar_fill_color'
p22
VEFEFEF
p23
sS'id'
p24
I80103938
sS'verified'
p25
I00
sS'profile_image_url_https'
p26
Vhttps://pbs.twimg.com/profile_images/2205751800/image_normal.jpg
p27
sS'_json'
p28
(dp29
Vfollow_request_sent
p30
NsVprofile_use_background_image
p31
I01
sVdefault_profile_image
p32
I00
sVid
p33
I80103938
sVverified
p34
I00
sVprofile_image_url_https
p35
g27
sVprofile_sidebar_fill_color
p36
g23
sVprofile_text_color
p37
V333333
p38
sVfollowers_count
p39
I1618
sVprofile_sidebar_border_color
p40
VEEEEEE
p41
sVid_str
p42
V80103938
p43
sVprofile_background_color
p44
V131516
p45
sVlisted_count
p46
I19
sVprofile_background_image_url_https
p47
Vhttps://pbs.twimg.com/profile_background_images/42825083/6168_128766081212_533426212_2983364_1562481_n.jpg
p48
sVutc_offset
p49
I-14400
sVstatuses_count
p50
I11314
sVdescription
p51
Vowner of filthy rich barber shop appointment richdoza@gmail.com http://www.youtube.com/richthebarber show me the world ig: @filthyrichbarbershop
p52
sVfriends_count
p53
I978
sVlocation
p54
VNYC 
p55
sVprofile_link_color
p56
V009999
p57
sVprofile_image_url
p58
Vhttp://pbs.twimg.com/profile_images/2205751800/image_normal.jpg
p59
sVfollowing
p60
NsVgeo_enabled
p61
I01
sVprofile_banner_url
p62
Vhttps://pbs.twimg.com/profile_banners/80103938/1367297413
p63
sVprofile_background_image_url
p64
Vhttp://pbs.twimg.com/profile_background_images/42825083/6168_128766081212_533426212_2983364_1562481_n.jpg
p65
sVname
p66
VFilthy Rich
p67
sVlang
p68
Ven
p69
sVprofile_background_tile
p70
I01
sVfavourites_count
p71
I6
sVscreen_name
p72
Vrichthebarber
p73
sVnotifications
p74
NsVurl
p75
Vhttp://filthyrichbarbershop.com
p76
sVcreated_at
p77
VMon Oct 05 19:25:51 +0000 2009
p78
sVcontributors_enabled
p79
I00
sVtime_zone
p80
VEastern Time (US & Canada)
p81
sVprotected
p82
I00
sVdefault_profile
p83
I00
sVis_translator
p84
I00
ssS'contributors_enabled'
p85
I00
sS'profile_text_color'
p86
g38
sS'followers_count'
p87
I1618
sS'profile_sidebar_border_color'
p88
g41
sS'location'
p89
g55
sS'default_profile_image'
p90
I00
sS'id_str'
p91
g43
sS'utc_offset'
p92
I-14400
sS'statuses_count'
p93
I11314
sS'description'
p94
g52
sS'friends_count'
p95
I978
sS'profile_link_color'
p96
g57
sS'profile_image_url'
p97
g59
sS'notifications'
p98
NsS'geo_enabled'
p99
I01
sS'profile_background_color'
p100
g45
sS'profile_banner_url'
p101
g63
sS'profile_background_image_url'
p102
g65
sS'name'
p103
g67
sS'lang'
p104
g69
sS'following'
p105
I00
sS'profile_background_tile'
p106
I01
sS'favourites_count'
p107
I6
sS'screen_name'
p108
g73
sS'url'
p109
g76
sS'created_at'
p110
cdatetime
datetime
p111
(S'\x07\xd9\n\x05\x13\x193\x00\x00\x00'
p112
tp113
Rp114
sS'profile_background_image_url_https'
p115
g48
sS'time_zone'
p116
g81
sS'protected'
p117
I00
sS'default_profile'
p118
I00
sS'is_translator'
p119
I00
sS'listed_count'
p120
I19
sbsS'filter_level'
p121
Vlow
p122
sS'geo'
p123
(dp124
Vtype
p125
VPoint
p126
sVcoordinates
p127
(lp128
F47.377778
aF8.540278
assg24
I623833802612326400
sS'favorite_count'
p129
I0
sS'source'
p130
VInstagram
p131
sg104
Vde
p132
sS'author'
p133
g18
sS'in_reply_to_user_id_str'
p134
Nsg28
(dp135
Vcontributors
p136
NsVtruncated
p137
I00
sVtext
p138
g10
sVin_reply_to_status_id
p139
Nsg33
I623833802612326400
sVfavorite_count
p140
I0
sVsource
p141
V<a href="http://instagram.com" rel="nofollow">Instagram</a>
p142
sVretweeted
p143
I00
sg127
(dp144
g125
VPoint
p145
sg127
(lp146
F8.540278
aF47.377778
assVtimestamp_ms
p147
V1437568543471
p148
sVentities
p149
(dp150
Vuser_mentions
p151
(lp152
sVsymbols
p153
(lp154
sVtrends
p155
(lp156
sVhashtags
p157
(lp158
(dp159
Vindices
p160
(lp161
I15
aI22
asg138
VZURICH
p162
sa(dp163
g160
(lp164
I23
aI35
asg138
VSwitzerland
p165
sa(dp166
g160
(lp167
I36
aI45
asg138
VeuroRICH
p168
sasVurls
p169
(lp170
(dp171
g75
Vhttps://t.co/D3oxTUBKE5
p172
sg160
(lp173
I63
aI86
asVexpanded_url
p174
Vhttps://instagram.com/p/5cEoiTmSLp/
p175
sVdisplay_url
p176
Vinstagram.com/p/5cEoiTmSLp/
p177
sassVin_reply_to_screen_name
p178
Nsg42
V623833802612326400
p179
sVretweet_count
p180
I0
sVin_reply_to_user_id
p181
NsVfavorited
p182
I00
sVuser
p183
g29
sVgeo
p184
g124
sVin_reply_to_user_id_str
p185
NsVpossibly_sensitive
p186
I00
sg68
g132
sg77
VWed Jul 22 12:35:43 +0000 2015
p187
sVfilter_level
p188
g122
sVin_reply_to_status_id_str
p189
NsVplace
p190
(dp191
Vfull_name
p192
VZurich, Switzerland
p193
sg75
Vhttps://api.twitter.com/1.1/geo/id/3acb748d0f1e9265.json
p194
sVcountry
p195
VSchweiz
p196
sVplace_type
p197
Vcity
p198
sVbounding_box
p199
(dp200
g125
VPolygon
p201
sg127
(lp202
(lp203
(lp204
F8.448081
aF47.320183
aa(lp205
F8.448081
aF47.434721
aa(lp206
F8.625442
aF47.434721
aa(lp207
F8.625442
aF47.320183
aaassVcountry_code
p208
VCH
p209
sVattributes
p210
(dp211
sg33
V3acb748d0f1e9265
p212
sg66
VZurich
p213
sssS'coordinates'
p214
g144
sS'timestamp_ms'
p215
g148
sS'entities'
p216
g150
sS'in_reply_to_status_id_str'
p217
NsS'in_reply_to_screen_name'
p218
Nsg91
g179
sS'retweeted'
p219
I00
sS'place'
p220
g0
(ctweepy.models
Place
p221
g2
Ntp222
Rp223
(dp224
S'full_name'
p225
g193
sg109
g194
sS'country'
p226
g196
sS'place_type'
p227
g198
sS'bounding_box'
p228
g0
(ctweepy.models
BoundingBox
p229
g2
Ntp230
Rp231
(dp232
S'type'
p233
g201
sg214
g202
sbsS'country_code'
p234
g209
sS'attributes'
p235
g211
sg24
g212
sg103
g213
sbsS'retweet_count'
p236
I0
sg110
g111
(S'\x07\xdf\x07\x16\x0c#+\x00\x00\x00'
p237
tp238
Rp239
sS'in_reply_to_user_id'
p240
Nsb.