ccopy_reg
_reconstructor
p0
(ctweepy.models
Status
p1
c__builtin__
object
p2
Ntp3
Rp4
(dp5
S'favorited'
p6
I00
sS'contributors'
p7
NsS'truncated'
p8
I00
sS'text'
p9
VFink and I are an Autumn Fraoch Retreat @FraochRetreats at the @GYREUM Ecolodge in Sligo,25-27 Sept - https://t.co/F665V3VOvl
p10
sS'source_url'
p11
Vhttp://twitter.com
p12
sS'possibly_sensitive'
p13
I00
sS'in_reply_to_status_id'
p14
NsS'user'
p15
g0
(ctweepy.models
User
p16
g2
Ntp17
Rp18
(dp19
S'follow_request_sent'
p20
NsS'profile_use_background_image'
p21
I01
sS'profile_sidebar_fill_color'
p22
VDDEEF6
p23
sS'id'
p24
I601786883
sS'verified'
p25
I00
sS'profile_image_url_https'
p26
Vhttps://pbs.twimg.com/profile_images/433280507581722624/M-5FmrmD_normal.jpeg
p27
sS'_json'
p28
(dp29
Vfollow_request_sent
p30
NsVprofile_use_background_image
p31
I01
sVdefault_profile_image
p32
I00
sVid
p33
I601786883
sVverified
p34
I00
sVprofile_image_url_https
p35
g27
sVprofile_sidebar_fill_color
p36
g23
sVprofile_text_color
p37
V333333
p38
sVfollowers_count
p39
I377
sVprofile_sidebar_border_color
p40
VC0DEED
p41
sVid_str
p42
V601786883
p43
sVprofile_background_color
p44
VC0DEED
p45
sVlisted_count
p46
I16
sVprofile_background_image_url_https
p47
Vhttps://abs.twimg.com/images/themes/theme1/bg.png
p48
sVutc_offset
p49
NsVstatuses_count
p50
I310
sVdescription
p51
VIRC ELEVATE/Marie Curie Postdoc Fellow, Dept of Philosophy, Durham University; Medical Humanities, Philosophy, Phenomenology. Yoga Teacher & Fraoch Retreats.
p52
sVfriends_count
p53
I591
sVlocation
p54
VDublin, Ireland
p55
sVprofile_link_color
p56
V0084B4
p57
sVprofile_image_url
p58
Vhttp://pbs.twimg.com/profile_images/433280507581722624/M-5FmrmD_normal.jpeg
p59
sVfollowing
p60
NsVgeo_enabled
p61
I01
sVprofile_banner_url
p62
Vhttps://pbs.twimg.com/profile_banners/601786883/1369144451
p63
sVprofile_background_image_url
p64
Vhttp://abs.twimg.com/images/themes/theme1/bg.png
p65
sVname
p66
VLuna Dolezal
p67
sVlang
p68
Ven
p69
sVprofile_background_tile
p70
I00
sVfavourites_count
p71
I168
sVscreen_name
p72
Vlunadolezal
p73
sVnotifications
p74
NsVurl
p75
NsVcreated_at
p76
VThu Jun 07 11:26:50 +0000 2012
p77
sVcontributors_enabled
p78
I00
sVtime_zone
p79
NsVprotected
p80
I00
sVdefault_profile
p81
I01
sVis_translator
p82
I00
ssS'contributors_enabled'
p83
I00
sS'profile_text_color'
p84
g38
sS'followers_count'
p85
I377
sS'profile_sidebar_border_color'
p86
g41
sS'location'
p87
g55
sS'default_profile_image'
p88
I00
sS'id_str'
p89
g43
sS'utc_offset'
p90
NsS'statuses_count'
p91
I310
sS'description'
p92
g52
sS'friends_count'
p93
I591
sS'profile_link_color'
p94
g57
sS'profile_image_url'
p95
g59
sS'notifications'
p96
NsS'geo_enabled'
p97
I01
sS'profile_background_color'
p98
g45
sS'profile_banner_url'
p99
g63
sS'profile_background_image_url'
p100
g65
sS'name'
p101
g67
sS'lang'
p102
g69
sS'following'
p103
I00
sS'profile_background_tile'
p104
I00
sS'favourites_count'
p105
I168
sS'screen_name'
p106
g73
sS'url'
p107
NsS'created_at'
p108
cdatetime
datetime
p109
(S'\x07\xdc\x06\x07\x0b\x1a2\x00\x00\x00'
p110
tp111
Rp112
sS'profile_background_image_url_https'
p113
g48
sS'time_zone'
p114
NsS'protected'
p115
I00
sS'default_profile'
p116
I01
sS'is_translator'
p117
I00
sS'listed_count'
p118
I16
sbsS'filter_level'
p119
Vlow
p120
sS'geo'
p121
Nsg24
I621576751169318912
sS'favorite_count'
p122
I0
sS'source'
p123
VTwitter Web Client
p124
sg102
Ven
p125
sS'author'
p126
g18
sS'in_reply_to_user_id_str'
p127
Nsg28
(dp128
Vcontributors
p129
NsVtruncated
p130
I00
sVtext
p131
g10
sVin_reply_to_status_id
p132
Nsg33
I621576751169318912
sVfavorite_count
p133
I0
sVsource
p134
V<a href="http://twitter.com" rel="nofollow">Twitter Web Client</a>
p135
sVretweeted
p136
I00
sVcoordinates
p137
NsVtimestamp_ms
p138
V1437030420473
p139
sVentities
p140
(dp141
Vuser_mentions
p142
(lp143
(dp144
g33
I607211468
sVindices
p145
(lp146
I40
aI55
asg42
V607211468
p147
sg72
VFraochRetreats
p148
sg66
VFraoch Retreats
p149
sa(dp150
g33
I81858460
sg145
(lp151
I63
aI70
asg42
V81858460
p152
sg72
VGYREUM
p153
sg66
VGyreum Ecolodge
p154
sasVsymbols
p155
(lp156
sVtrends
p157
(lp158
sVhashtags
p159
(lp160
sVurls
p161
(lp162
(dp163
g75
Vhttps://t.co/F665V3VOvl
p164
sg145
(lp165
I102
aI125
asVexpanded_url
p166
Vhttps://www.facebook.com/events/1470083686640935/
p167
sVdisplay_url
p168
Vfacebook.com/events/1470083\u2026
p169
sassVin_reply_to_screen_name
p170
Nsg42
V621576751169318912
p171
sVretweet_count
p172
I0
sVin_reply_to_user_id
p173
NsVfavorited
p174
I00
sVuser
p175
g29
sVgeo
p176
NsVin_reply_to_user_id_str
p177
NsVpossibly_sensitive
p178
I00
sg68
g125
sg76
VThu Jul 16 07:07:00 +0000 2015
p179
sVfilter_level
p180
g120
sVin_reply_to_status_id_str
p181
NsVplace
p182
(dp183
Vfull_name
p184
VZurich, Switzerland
p185
sg75
Vhttps://api.twitter.com/1.1/geo/id/3acb748d0f1e9265.json
p186
sVcountry
p187
VSchweiz
p188
sVplace_type
p189
Vcity
p190
sVbounding_box
p191
(dp192
Vtype
p193
VPolygon
p194
sg137
(lp195
(lp196
(lp197
F8.448081
aF47.320183
aa(lp198
F8.448081
aF47.434721
aa(lp199
F8.625442
aF47.434721
aa(lp200
F8.625442
aF47.320183
aaassVcountry_code
p201
VCH
p202
sVattributes
p203
(dp204
sg33
V3acb748d0f1e9265
p205
sg66
VZurich
p206
sssS'coordinates'
p207
NsS'timestamp_ms'
p208
g139
sS'entities'
p209
g141
sS'in_reply_to_status_id_str'
p210
NsS'in_reply_to_screen_name'
p211
Nsg89
g171
sS'retweeted'
p212
I00
sS'place'
p213
g0
(ctweepy.models
Place
p214
g2
Ntp215
Rp216
(dp217
S'full_name'
p218
g185
sg107
g186
sS'country'
p219
g188
sS'place_type'
p220
g190
sS'bounding_box'
p221
g0
(ctweepy.models
BoundingBox
p222
g2
Ntp223
Rp224
(dp225
S'type'
p226
g194
sg207
g195
sbsS'country_code'
p227
g202
sS'attributes'
p228
g204
sg24
g205
sg101
g206
sbsS'retweet_count'
p229
I0
sg108
g109
(S'\x07\xdf\x07\x10\x07\x07\x00\x00\x00\x00'
p230
tp231
Rp232
sS'in_reply_to_user_id'
p233
Nsb.