ccopy_reg
_reconstructor
p0
(ctweepy.models
Status
p1
c__builtin__
object
p2
Ntp3
Rp4
(dp5
S'favorited'
p6
I00
sS'contributors'
p7
NsS'truncated'
p8
I00
sS'text'
p9
VGrad gar ein bisschen viele Superlative.1 Schwalbe noch kein Sommer + noch andere zum Erfolg beigetragen @finews_ch  http://t.co/WlN2yvXvvI
p10
sS'source_url'
p11
Vhttp://twitter.com
p12
sS'possibly_sensitive'
p13
I00
sS'in_reply_to_status_id'
p14
NsS'user'
p15
g0
(ctweepy.models
User
p16
g2
Ntp17
Rp18
(dp19
S'follow_request_sent'
p20
NsS'profile_use_background_image'
p21
I01
sS'profile_sidebar_fill_color'
p22
VDDEEF6
p23
sS'id'
p24
I79455681
sS'verified'
p25
I00
sS'profile_image_url_https'
p26
Vhttps://pbs.twimg.com/profile_images/2217539556/sme4_normal.jpg
p27
sS'_json'
p28
(dp29
Vfollow_request_sent
p30
NsVprofile_use_background_image
p31
I01
sVdefault_profile_image
p32
I00
sVid
p33
I79455681
sVverified
p34
I00
sVprofile_image_url_https
p35
g27
sVprofile_sidebar_fill_color
p36
g23
sVprofile_text_color
p37
V333333
p38
sVfollowers_count
p39
I5717
sVprofile_sidebar_border_color
p40
VFFFFFF
p41
sVid_str
p42
V79455681
p43
sVprofile_background_color
p44
VACDED6
p45
sVlisted_count
p46
I224
sVprofile_background_image_url_https
p47
Vhttps://pbs.twimg.com/profile_background_images/756432110/154b0ce48c95a6968198fc2b9a1d8d6f.jpeg
p48
sVutc_offset
p49
I7200
sVstatuses_count
p50
I17110
sVdescription
p51
VManaging Director Swiss Representation Dinar Finance Group / Consultant Banking & Social Media / GLP Member
p52
sVfriends_count
p53
I2195
sVlocation
p54
VZurich
p55
sVprofile_link_color
p56
V038543
p57
sVprofile_image_url
p58
Vhttp://pbs.twimg.com/profile_images/2217539556/sme4_normal.jpg
p59
sVfollowing
p60
NsVgeo_enabled
p61
I01
sVprofile_banner_url
p62
Vhttps://pbs.twimg.com/profile_banners/79455681/1355591292
p63
sVprofile_background_image_url
p64
Vhttp://pbs.twimg.com/profile_background_images/756432110/154b0ce48c95a6968198fc2b9a1d8d6f.jpeg
p65
sVname
p66
VMarc Lussy
p67
sVlang
p68
Ven
p69
sVprofile_background_tile
p70
I00
sVfavourites_count
p71
I2755
sVscreen_name
p72
VMarcLussy
p73
sVnotifications
p74
NsVurl
p75
Vhttp://www.dinargroup.com.br/
p76
sVcreated_at
p77
VSat Oct 03 13:02:36 +0000 2009
p78
sVcontributors_enabled
p79
I00
sVtime_zone
p80
VVienna
p81
sVprotected
p82
I00
sVdefault_profile
p83
I00
sVis_translator
p84
I00
ssS'contributors_enabled'
p85
I00
sS'profile_text_color'
p86
g38
sS'followers_count'
p87
I5717
sS'profile_sidebar_border_color'
p88
g41
sS'location'
p89
g55
sS'default_profile_image'
p90
I00
sS'id_str'
p91
g43
sS'utc_offset'
p92
I7200
sS'statuses_count'
p93
I17110
sS'description'
p94
g52
sS'friends_count'
p95
I2195
sS'profile_link_color'
p96
g57
sS'profile_image_url'
p97
g59
sS'notifications'
p98
NsS'geo_enabled'
p99
I01
sS'profile_background_color'
p100
g45
sS'profile_banner_url'
p101
g63
sS'profile_background_image_url'
p102
g65
sS'name'
p103
g67
sS'lang'
p104
g69
sS'following'
p105
I00
sS'profile_background_tile'
p106
I00
sS'favourites_count'
p107
I2755
sS'screen_name'
p108
g73
sS'url'
p109
g76
sS'created_at'
p110
cdatetime
datetime
p111
(S'\x07\xd9\n\x03\r\x02$\x00\x00\x00'
p112
tp113
Rp114
sS'profile_background_image_url_https'
p115
g48
sS'time_zone'
p116
g81
sS'protected'
p117
I00
sS'default_profile'
p118
I00
sS'is_translator'
p119
I00
sS'listed_count'
p120
I224
sbsS'filter_level'
p121
Vlow
p122
sS'geo'
p123
Nsg24
I621624290773966848
sS'favorite_count'
p124
I0
sS'source'
p125
VTwitter Web Client
p126
sg104
Vde
p127
sS'author'
p128
g18
sS'in_reply_to_user_id_str'
p129
Nsg28
(dp130
Vcontributors
p131
NsVtruncated
p132
I00
sVtext
p133
g10
sVin_reply_to_status_id
p134
Nsg33
I621624290773966848
sVfavorite_count
p135
I0
sVsource
p136
V<a href="http://twitter.com" rel="nofollow">Twitter Web Client</a>
p137
sVretweeted
p138
I00
sVcoordinates
p139
NsVtimestamp_ms
p140
V1437041754798
p141
sVentities
p142
(dp143
Vuser_mentions
p144
(lp145
(dp146
g33
I85299581
sVindices
p147
(lp148
I105
aI115
asg42
V85299581
p149
sg72
Vfinews_ch
p150
sg66
Vfinews.ch
p151
sasVsymbols
p152
(lp153
sVtrends
p154
(lp155
sVhashtags
p156
(lp157
sVurls
p158
(lp159
(dp160
g75
Vhttp://t.co/WlN2yvXvvI
p161
sg147
(lp162
I117
aI139
asVexpanded_url
p163
Vhttp://www.finews.ch/news/finanzplatz/18730-six-paymit-app-geldtransfer-geldueberweisung-disruptoren-fintech-ubs-zkb-raiffeisen-bcv-genfer-kantonalbank-luzerner-kantonalbank-google-wallet-facebook
p164
sVdisplay_url
p165
Vfinews.ch/news/finanzpla\u2026
p166
sassVin_reply_to_screen_name
p167
Nsg42
V621624290773966848
p168
sVretweet_count
p169
I0
sVin_reply_to_user_id
p170
NsVfavorited
p171
I00
sVuser
p172
g29
sVgeo
p173
NsVin_reply_to_user_id_str
p174
NsVpossibly_sensitive
p175
I00
sg68
g127
sg77
VThu Jul 16 10:15:54 +0000 2015
p176
sVfilter_level
p177
g122
sVin_reply_to_status_id_str
p178
NsVplace
p179
(dp180
Vfull_name
p181
VZurich, Switzerland
p182
sg75
Vhttps://api.twitter.com/1.1/geo/id/3acb748d0f1e9265.json
p183
sVcountry
p184
VSchweiz
p185
sVplace_type
p186
Vcity
p187
sVbounding_box
p188
(dp189
Vtype
p190
VPolygon
p191
sg139
(lp192
(lp193
(lp194
F8.448081
aF47.320183
aa(lp195
F8.448081
aF47.434721
aa(lp196
F8.625442
aF47.434721
aa(lp197
F8.625442
aF47.320183
aaassVcountry_code
p198
VCH
p199
sVattributes
p200
(dp201
sg33
V3acb748d0f1e9265
p202
sg66
VZurich
p203
sssS'coordinates'
p204
NsS'timestamp_ms'
p205
g141
sS'entities'
p206
g143
sS'in_reply_to_status_id_str'
p207
NsS'in_reply_to_screen_name'
p208
Nsg91
g168
sS'retweeted'
p209
I00
sS'place'
p210
g0
(ctweepy.models
Place
p211
g2
Ntp212
Rp213
(dp214
S'full_name'
p215
g182
sg109
g183
sS'country'
p216
g185
sS'place_type'
p217
g187
sS'bounding_box'
p218
g0
(ctweepy.models
BoundingBox
p219
g2
Ntp220
Rp221
(dp222
S'type'
p223
g191
sg204
g192
sbsS'country_code'
p224
g199
sS'attributes'
p225
g201
sg24
g202
sg103
g203
sbsS'retweet_count'
p226
I0
sg110
g111
(S'\x07\xdf\x07\x10\n\x0f6\x00\x00\x00'
p227
tp228
Rp229
sS'in_reply_to_user_id'
p230
Nsb.