ccopy_reg
_reconstructor
p0
(ctweepy.models
Status
p1
c__builtin__
object
p2
Ntp3
Rp4
(dp5
S'favorited'
p6
I00
sS'contributors'
p7
NsS'truncated'
p8
I00
sS'text'
p9
VI have a birthday wish &amp; it would make me really happy! Getting a follow of @tylergposey @ReallyCody @EaddyMays @iamjrbourne @MelissaPonzio1
p10
sS'source_url'
p11
Vhttp://twitter.com
p12
sS'possibly_sensitive'
p13
I00
sS'in_reply_to_status_id'
p14
NsS'user'
p15
g0
(ctweepy.models
User
p16
g2
Ntp17
Rp18
(dp19
S'follow_request_sent'
p20
NsS'profile_use_background_image'
p21
I01
sS'profile_sidebar_fill_color'
p22
V252429
p23
sS'id'
p24
I144911199
sS'verified'
p25
I00
sS'profile_image_url_https'
p26
Vhttps://pbs.twimg.com/profile_images/623780177772965888/uCwve9Bi_normal.jpg
p27
sS'_json'
p28
(dp29
Vfollow_request_sent
p30
NsVprofile_use_background_image
p31
I01
sVdefault_profile_image
p32
I00
sVid
p33
I144911199
sVverified
p34
I00
sVprofile_image_url_https
p35
g27
sVprofile_sidebar_fill_color
p36
g23
sVprofile_text_color
p37
V666666
p38
sVfollowers_count
p39
I330
sVprofile_sidebar_border_color
p40
V000000
p41
sVid_str
p42
V144911199
p43
sVprofile_background_color
p44
V1A1B1F
p45
sVlisted_count
p46
I3
sVprofile_background_image_url_https
p47
Vhttps://pbs.twimg.com/profile_background_images/590623983852105728/7wrCNw6I.jpg
p48
sVutc_offset
p49
I7200
sVstatuses_count
p50
I13204
sVdescription
p51
VRegression to the mean! *** Be Your Own Anchor! *** Swiss Teen Wolf Fan! *** Posey is my inspiration..@tylergposey @OrnyAdams @TylerSchnabel #TeenWolf
p52
sVfriends_count
p53
I255
sVlocation
p54
VSwitzerland/Bern
p55
sVprofile_link_color
p56
V3C1561
p57
sVprofile_image_url
p58
Vhttp://pbs.twimg.com/profile_images/623780177772965888/uCwve9Bi_normal.jpg
p59
sVfollowing
p60
NsVgeo_enabled
p61
I01
sVprofile_banner_url
p62
Vhttps://pbs.twimg.com/profile_banners/144911199/1437555738
p63
sVprofile_background_image_url
p64
Vhttp://pbs.twimg.com/profile_background_images/590623983852105728/7wrCNw6I.jpg
p65
sVname
p66
VHouse of Posey/Fabs
p67
sVlang
p68
Ven
p69
sVprofile_background_tile
p70
I01
sVfavourites_count
p71
I2528
sVscreen_name
p72
VKendraMacCall
p73
sVnotifications
p74
NsVurl
p75
Vhttps://www.facebook.com/House.Posey.VS.Sir.Tyler
p76
sVcreated_at
p77
VMon May 17 16:48:59 +0000 2010
p78
sVcontributors_enabled
p79
I00
sVtime_zone
p80
VBern
p81
sVprotected
p82
I00
sVdefault_profile
p83
I00
sVis_translator
p84
I00
ssS'contributors_enabled'
p85
I00
sS'profile_text_color'
p86
g38
sS'followers_count'
p87
I330
sS'profile_sidebar_border_color'
p88
g41
sS'location'
p89
g55
sS'default_profile_image'
p90
I00
sS'id_str'
p91
g43
sS'utc_offset'
p92
I7200
sS'statuses_count'
p93
I13204
sS'description'
p94
g52
sS'friends_count'
p95
I255
sS'profile_link_color'
p96
g57
sS'profile_image_url'
p97
g59
sS'notifications'
p98
NsS'geo_enabled'
p99
I01
sS'profile_background_color'
p100
g45
sS'profile_banner_url'
p101
g63
sS'profile_background_image_url'
p102
g65
sS'name'
p103
g67
sS'lang'
p104
g69
sS'following'
p105
I00
sS'profile_background_tile'
p106
I01
sS'favourites_count'
p107
I2528
sS'screen_name'
p108
g73
sS'url'
p109
g76
sS'created_at'
p110
cdatetime
datetime
p111
(S'\x07\xda\x05\x11\x100;\x00\x00\x00'
p112
tp113
Rp114
sS'profile_background_image_url_https'
p115
g48
sS'time_zone'
p116
g81
sS'protected'
p117
I00
sS'default_profile'
p118
I00
sS'is_translator'
p119
I00
sS'listed_count'
p120
I3
sbsS'filter_level'
p121
Vlow
p122
sS'geo'
p123
Nsg24
I623782648817819648
sS'favorite_count'
p124
I0
sS'source'
p125
VTwitter Web Client
p126
sg104
Ven
p127
sS'author'
p128
g18
sS'in_reply_to_user_id_str'
p129
Nsg28
(dp130
Vcontributors
p131
NsVtruncated
p132
I00
sVtext
p133
g10
sVin_reply_to_status_id
p134
Nsg33
I623782648817819648
sVfavorite_count
p135
I0
sVsource
p136
V<a href="http://twitter.com" rel="nofollow">Twitter Web Client</a>
p137
sVretweeted
p138
I00
sVcoordinates
p139
NsVtimestamp_ms
p140
V1437556347456
p141
sVentities
p142
(dp143
Vuser_mentions
p144
(lp145
(dp146
g33
I169740780
sVindices
p147
(lp148
I80
aI92
asg42
V169740780
p149
sg72
Vtylergposey
p150
sg66
Vtyler posey
p151
sa(dp152
g33
I499494637
sg147
(lp153
I93
aI104
asg42
V499494637
p154
sg72
VReallyCody
p155
sg66
VCody Christian
p156
sa(dp157
g33
I226789724
sg147
(lp158
I105
aI115
asg42
V226789724
p159
sg72
VEaddyMays
p160
sg66
VEaddy Mays
p161
sa(dp162
g33
I314219767
sg147
(lp163
I116
aI128
asg42
V314219767
p164
sg72
Viamjrbourne
p165
sg66
VJR Bourne
p166
sa(dp167
g33
I716447274
sg147
(lp168
I129
aI144
asg42
V716447274
p169
sg72
VMelissaPonzio1
p170
sg66
VMelissa Ponzio
p171
sasVsymbols
p172
(lp173
sVtrends
p174
(lp175
sVhashtags
p176
(lp177
sVurls
p178
(lp179
ssVin_reply_to_screen_name
p180
Nsg42
V623782648817819648
p181
sVretweet_count
p182
I0
sVin_reply_to_user_id
p183
NsVfavorited
p184
I00
sVuser
p185
g29
sVgeo
p186
NsVin_reply_to_user_id_str
p187
NsVpossibly_sensitive
p188
I00
sg68
g127
sg77
VWed Jul 22 09:12:27 +0000 2015
p189
sVfilter_level
p190
g122
sVin_reply_to_status_id_str
p191
NsVplace
p192
(dp193
Vfull_name
p194
VZurich, Switzerland
p195
sg75
Vhttps://api.twitter.com/1.1/geo/id/3acb748d0f1e9265.json
p196
sVcountry
p197
VSchweiz
p198
sVplace_type
p199
Vcity
p200
sVbounding_box
p201
(dp202
Vtype
p203
VPolygon
p204
sg139
(lp205
(lp206
(lp207
F8.448081
aF47.320183
aa(lp208
F8.448081
aF47.434721
aa(lp209
F8.625442
aF47.434721
aa(lp210
F8.625442
aF47.320183
aaassVcountry_code
p211
VCH
p212
sVattributes
p213
(dp214
sg33
V3acb748d0f1e9265
p215
sg66
VZurich
p216
sssS'coordinates'
p217
NsS'timestamp_ms'
p218
g141
sS'entities'
p219
g143
sS'in_reply_to_status_id_str'
p220
NsS'in_reply_to_screen_name'
p221
Nsg91
g181
sS'retweeted'
p222
I00
sS'place'
p223
g0
(ctweepy.models
Place
p224
g2
Ntp225
Rp226
(dp227
S'full_name'
p228
g195
sg109
g196
sS'country'
p229
g198
sS'place_type'
p230
g200
sS'bounding_box'
p231
g0
(ctweepy.models
BoundingBox
p232
g2
Ntp233
Rp234
(dp235
S'type'
p236
g204
sg217
g205
sbsS'country_code'
p237
g212
sS'attributes'
p238
g214
sg24
g215
sg103
g216
sbsS'retweet_count'
p239
I0
sg110
g111
(S'\x07\xdf\x07\x16\t\x0c\x1b\x00\x00\x00'
p240
tp241
Rp242
sS'in_reply_to_user_id'
p243
Nsb.