ccopy_reg
_reconstructor
p0
(ctweepy.models
Status
p1
c__builtin__
object
p2
Ntp3
Rp4
(dp5
S'favorited'
p6
I00
sS'contributors'
p7
NsS'truncated'
p8
I00
sS'text'
p9
V@Oracle talks about us! #Talentory #recruitment Check it out! http://t.co/xHSyPTb7bt
p10
sS'source_url'
p11
Vhttp://twitter.com
p12
sS'possibly_sensitive'
p13
I00
sS'in_reply_to_status_id'
p14
NsS'user'
p15
g0
(ctweepy.models
User
p16
g2
Ntp17
Rp18
(dp19
S'follow_request_sent'
p20
NsS'profile_use_background_image'
p21
I00
sS'profile_sidebar_fill_color'
p22
VF6F6F6
p23
sS'id'
p24
I77173874
sS'verified'
p25
I00
sS'profile_image_url_https'
p26
Vhttps://pbs.twimg.com/profile_images/605755017312772096/-TDNomDn_normal.jpg
p27
sS'_json'
p28
(dp29
Vfollow_request_sent
p30
NsVprofile_use_background_image
p31
I00
sVdefault_profile_image
p32
I00
sVid
p33
I77173874
sVverified
p34
I00
sVprofile_image_url_https
p35
g27
sVprofile_sidebar_fill_color
p36
g23
sVprofile_text_color
p37
V333333
p38
sVfollowers_count
p39
I781
sVprofile_sidebar_border_color
p40
VEEEEEE
p41
sVid_str
p42
V77173874
p43
sVprofile_background_color
p44
V575357
p45
sVlisted_count
p46
I30
sVprofile_background_image_url_https
p47
Vhttps://pbs.twimg.com/profile_background_images/336781009/logo_TALENTORY_Twitter.jpg
p48
sVutc_offset
p49
I7200
sVstatuses_count
p50
I742
sVdescription
p51
VTALENTORY the leading European B2B recruiting marketplace where Employers meet fast and quality-minded Recruiters.\u000aLike us on Facebook https://t.co/gMmeC8HDLo
p52
sVfriends_count
p53
I1997
sVlocation
p54
VZurich
p55
sVprofile_link_color
p56
V038543
p57
sVprofile_image_url
p58
Vhttp://pbs.twimg.com/profile_images/605755017312772096/-TDNomDn_normal.jpg
p59
sVfollowing
p60
NsVgeo_enabled
p61
I01
sVprofile_banner_url
p62
Vhttps://pbs.twimg.com/profile_banners/77173874/1433258208
p63
sVprofile_background_image_url
p64
Vhttp://pbs.twimg.com/profile_background_images/336781009/logo_TALENTORY_Twitter.jpg
p65
sVname
p66
VTalentory 
p67
sVlang
p68
Ven
p69
sVprofile_background_tile
p70
I00
sVfavourites_count
p71
I82
sVscreen_name
p72
VTalentory
p73
sVnotifications
p74
NsVurl
p75
Vhttps://www.talentory.com
p76
sVcreated_at
p77
VFri Sep 25 09:16:35 +0000 2009
p78
sVcontributors_enabled
p79
I00
sVtime_zone
p80
VBern
p81
sVprotected
p82
I00
sVdefault_profile
p83
I00
sVis_translator
p84
I00
ssS'contributors_enabled'
p85
I00
sS'profile_text_color'
p86
g38
sS'followers_count'
p87
I781
sS'profile_sidebar_border_color'
p88
g41
sS'location'
p89
g55
sS'default_profile_image'
p90
I00
sS'id_str'
p91
g43
sS'utc_offset'
p92
I7200
sS'statuses_count'
p93
I742
sS'description'
p94
VTALENTORY the leading European B2B recruiting marketplace where Employers meet fast and quality-minded Recruiters.\u000aLike us on Facebook https://t.co/gMmeC8HDLo
p95
sS'friends_count'
p96
I1997
sS'profile_link_color'
p97
g57
sS'profile_image_url'
p98
g59
sS'notifications'
p99
NsS'geo_enabled'
p100
I01
sS'profile_background_color'
p101
g45
sS'profile_banner_url'
p102
g63
sS'profile_background_image_url'
p103
g65
sS'name'
p104
g67
sS'lang'
p105
g69
sS'following'
p106
I00
sS'profile_background_tile'
p107
I00
sS'favourites_count'
p108
I82
sS'screen_name'
p109
g73
sS'url'
p110
g76
sS'created_at'
p111
cdatetime
datetime
p112
(S'\x07\xd9\t\x19\t\x10#\x00\x00\x00'
p113
tp114
Rp115
sS'profile_background_image_url_https'
p116
g48
sS'time_zone'
p117
g81
sS'protected'
p118
I00
sS'default_profile'
p119
I00
sS'is_translator'
p120
I00
sS'listed_count'
p121
I30
sbsS'filter_level'
p122
Vlow
p123
sS'geo'
p124
Nsg24
I621661658902040576
sS'favorite_count'
p125
I0
sS'source'
p126
VTwitter Web Client
p127
sg105
Ven
p128
sS'author'
p129
g18
sS'in_reply_to_user_id_str'
p130
V809273
p131
sg28
(dp132
Vcontributors
p133
NsVtruncated
p134
I00
sVtext
p135
g10
sVin_reply_to_status_id
p136
Nsg33
I621661658902040576
sVfavorite_count
p137
I0
sVsource
p138
V<a href="http://twitter.com" rel="nofollow">Twitter Web Client</a>
p139
sVretweeted
p140
I00
sVcoordinates
p141
NsVtimestamp_ms
p142
V1437050664054
p143
sVentities
p144
(dp145
Vsymbols
p146
(lp147
sVmedia
p148
(lp149
(dp150
Vexpanded_url
p151
Vhttp://twitter.com/Talentory/status/621661658902040576/photo/1
p152
sVdisplay_url
p153
Vpic.twitter.com/xHSyPTb7bt
p154
sg75
Vhttp://t.co/xHSyPTb7bt
p155
sVmedia_url_https
p156
Vhttps://pbs.twimg.com/media/CKCV-8aUwAAt36i.jpg
p157
sg42
V621661657178095616
p158
sVsizes
p159
(dp160
Vsmall
p161
(dp162
Vh
p163
I475
sVresize
p164
Vfit
p165
sVw
p166
I340
ssVlarge
p167
(dp168
g163
I926
sg164
Vfit
p169
sg166
I662
ssVmedium
p170
(dp171
g163
I839
sg164
Vfit
p172
sg166
I600
ssVthumb
p173
(dp174
g163
I150
sg164
Vcrop
p175
sg166
I150
sssVindices
p176
(lp177
I62
aI84
asVtype
p178
Vphoto
p179
sg33
I621661657178095616
sVmedia_url
p180
Vhttp://pbs.twimg.com/media/CKCV-8aUwAAt36i.jpg
p181
sasVhashtags
p182
(lp183
(dp184
g176
(lp185
I24
aI34
asg135
VTalentory
p186
sa(dp187
g176
(lp188
I35
aI47
asg135
Vrecruitment
p189
sasVuser_mentions
p190
(lp191
(dp192
g33
I809273
sg176
(lp193
I0
aI7
asg42
V809273
p194
sg72
VOracle
p195
sg66
VOracle
p196
sasVtrends
p197
(lp198
sVurls
p199
(lp200
ssVin_reply_to_screen_name
p201
VOracle
p202
sg42
V621661658902040576
p203
sVretweet_count
p204
I0
sVin_reply_to_user_id
p205
I809273
sVfavorited
p206
I00
sVuser
p207
g29
sVgeo
p208
NsVin_reply_to_user_id_str
p209
g131
sVpossibly_sensitive
p210
I00
sg68
g128
sg77
VThu Jul 16 12:44:24 +0000 2015
p211
sVfilter_level
p212
g123
sVin_reply_to_status_id_str
p213
NsVplace
p214
(dp215
Vfull_name
p216
VZurich, Switzerland
p217
sg75
Vhttps://api.twitter.com/1.1/geo/id/3acb748d0f1e9265.json
p218
sVcountry
p219
VSchweiz
p220
sVplace_type
p221
Vcity
p222
sVbounding_box
p223
(dp224
g178
VPolygon
p225
sg141
(lp226
(lp227
(lp228
F8.448081
aF47.320183
aa(lp229
F8.448081
aF47.434721
aa(lp230
F8.625442
aF47.434721
aa(lp231
F8.625442
aF47.320183
aaassVcountry_code
p232
VCH
p233
sVattributes
p234
(dp235
sg33
V3acb748d0f1e9265
p236
sg66
VZurich
p237
ssVextended_entities
p238
(dp239
g148
(lp240
(dp241
g151
Vhttp://twitter.com/Talentory/status/621661658902040576/photo/1
p242
sg153
Vpic.twitter.com/xHSyPTb7bt
p243
sg75
Vhttp://t.co/xHSyPTb7bt
p244
sg156
Vhttps://pbs.twimg.com/media/CKCV-8aUwAAt36i.jpg
p245
sg42
V621661657178095616
p246
sg159
(dp247
g161
(dp248
g163
I475
sg164
Vfit
p249
sg166
I340
ssg167
(dp250
g163
I926
sg164
Vfit
p251
sg166
I662
ssg170
(dp252
g163
I839
sg164
Vfit
p253
sg166
I600
ssg173
(dp254
g163
I150
sg164
Vcrop
p255
sg166
I150
sssg176
(lp256
I62
aI84
asg178
Vphoto
p257
sg33
I621661657178095616
sg180
Vhttp://pbs.twimg.com/media/CKCV-8aUwAAt36i.jpg
p258
sasssS'coordinates'
p259
NsS'timestamp_ms'
p260
g143
sS'entities'
p261
g145
sS'in_reply_to_status_id_str'
p262
NsS'in_reply_to_screen_name'
p263
g202
sg91
g203
sS'extended_entities'
p264
g239
sS'retweeted'
p265
I00
sS'place'
p266
g0
(ctweepy.models
Place
p267
g2
Ntp268
Rp269
(dp270
S'full_name'
p271
g217
sg110
g218
sS'country'
p272
g220
sS'place_type'
p273
g222
sS'bounding_box'
p274
g0
(ctweepy.models
BoundingBox
p275
g2
Ntp276
Rp277
(dp278
S'type'
p279
g225
sg259
g226
sbsS'country_code'
p280
g233
sS'attributes'
p281
g235
sg24
g236
sg104
g237
sbsS'retweet_count'
p282
I0
sg111
g112
(S'\x07\xdf\x07\x10\x0c,\x18\x00\x00\x00'
p283
tp284
Rp285
sS'in_reply_to_user_id'
p286
I809273
sb.