ccopy_reg
_reconstructor
p0
(ctweepy.models
Status
p1
c__builtin__
object
p2
Ntp3
Rp4
(dp5
S'contributors'
p6
NsS'truncated'
p7
I00
sS'text'
p8
VBrainz!!! https://t.co/Qt3KABKZd5
p9
sS'in_reply_to_status_id'
p10
NsS'id'
p11
I623762138776117249
sS'favorite_count'
p12
I0
sS'entities'
p13
(dp14
Vuser_mentions
p15
(lp16
sVsymbols
p17
(lp18
sVtrends
p19
(lp20
sVhashtags
p21
(lp22
sVurls
p23
(lp24
(dp25
Vurl
p26
Vhttps://t.co/Qt3KABKZd5
p27
sVindices
p28
(lp29
I10
aI33
asVexpanded_url
p30
Vhttps://twitter.com/logancollins/status/623599867202441216
p31
sVdisplay_url
p32
Vtwitter.com/logancollins/s\u2026
p33
sassS'quoted_status_id'
p34
I623599867202441216
sS'_json'
p35
(dp36
Vcontributors
p37
NsVtruncated
p38
I00
sVtext
p39
g9
sVin_reply_to_status_id
p40
NsVid
p41
I623762138776117249
sVfavorite_count
p42
I0
sVsource
p43
V<a href="http://tapbots.com/tweetbot" rel="nofollow">Tweetbot for i\u039fS</a>
p44
sVquoted_status_id
p45
I623599867202441216
sVretweeted
p46
I00
sVcoordinates
p47
NsVtimestamp_ms
p48
V1437551457481
p49
sVquoted_status
p50
(dp51
g37
Nsg38
I00
sg39
VThe best icon I\u2019ve ever seen in one of Apple\u2019s developer tools. http://t.co/4068VZk7mI
p52
sg40
Nsg41
I623599867202441216
sg42
I0
sg43
V<a href="http://tapbots.com/software/tweetbot/mac" rel="nofollow">Tweetbot for Mac</a>
p53
sg46
I00
sg47
NsVentities
p54
(dp55
g17
(lp56
sVmedia
p57
(lp58
(dp59
g30
Vhttp://twitter.com/logancollins/status/623599867202441216/photo/1
p60
sg32
Vpic.twitter.com/4068VZk7mI
p61
sg26
Vhttp://t.co/4068VZk7mI
p62
sVmedia_url_https
p63
Vhttps://pbs.twimg.com/media/CKd4xkXUwAAw3gT.png
p64
sVid_str
p65
V623599866384531456
p66
sVsizes
p67
(dp68
Vlarge
p69
(dp70
Vh
p71
I99
sVresize
p72
Vfit
p73
sVw
p74
I104
ssVsmall
p75
(dp76
g71
I99
sg72
Vfit
p77
sg74
I104
ssVmedium
p78
(dp79
g71
I99
sg72
Vfit
p80
sg74
I104
ssVthumb
p81
(dp82
g71
I99
sg72
Vcrop
p83
sg74
I104
sssg28
(lp84
I64
aI86
asVtype
p85
Vphoto
p86
sg41
I623599866384531456
sVmedia_url
p87
Vhttp://pbs.twimg.com/media/CKd4xkXUwAAw3gT.png
p88
sasg21
(lp89
sg15
(lp90
sg19
(lp91
sg23
(lp92
ssVin_reply_to_screen_name
p93
Nsg65
V623599867202441216
p94
sVretweet_count
p95
I0
sVin_reply_to_user_id
p96
NsVfavorited
p97
I00
sVuser
p98
(dp99
Vfollow_request_sent
p100
NsVprofile_use_background_image
p101
I01
sVdefault_profile_image
p102
I00
sg41
I14351293
sVverified
p103
I00
sVprofile_image_url_https
p104
Vhttps://pbs.twimg.com/profile_images/621003969079345156/PsWBAT83_normal.jpg
p105
sVprofile_sidebar_fill_color
p106
VDDEEF6
p107
sVprofile_text_color
p108
V333333
p109
sVfollowers_count
p110
I715
sVprofile_sidebar_border_color
p111
VC0DEED
p112
sg65
V14351293
p113
sVprofile_background_color
p114
VC0DEED
p115
sVlisted_count
p116
I39
sVprofile_background_image_url_https
p117
Vhttps://abs.twimg.com/images/themes/theme1/bg.png
p118
sVutc_offset
p119
I-25200
sVstatuses_count
p120
I9210
sVdescription
p121
VGamer, cosplayer, iced tea enthusiast. Engineer at @panic.
p122
sVfriends_count
p123
I101
sVlocation
p124
VPortland, Oregon
p125
sVprofile_link_color
p126
V0084B4
p127
sVprofile_image_url
p128
Vhttp://pbs.twimg.com/profile_images/621003969079345156/PsWBAT83_normal.jpg
p129
sVfollowing
p130
NsVgeo_enabled
p131
I01
sVprofile_banner_url
p132
Vhttps://pbs.twimg.com/profile_banners/14351293/1432057761
p133
sVprofile_background_image_url
p134
Vhttp://abs.twimg.com/images/themes/theme1/bg.png
p135
sVname
p136
VLogan Collins
p137
sVlang
p138
Ven
p139
sVprofile_background_tile
p140
I00
sVfavourites_count
p141
I3452
sVscreen_name
p142
Vlogancollins
p143
sVnotifications
p144
Nsg26
Vhttp://loganscollins.com
p145
sVcreated_at
p146
VThu Apr 10 14:03:18 +0000 2008
p147
sVcontributors_enabled
p148
I00
sVtime_zone
p149
VPacific Time (US & Canada)
p150
sVprotected
p151
I00
sVdefault_profile
p152
I01
sVis_translator
p153
I00
ssVgeo
p154
NsVin_reply_to_user_id_str
p155
NsVpossibly_sensitive
p156
I00
sg138
Ven
p157
sg146
VTue Jul 21 21:06:08 +0000 2015
p158
sVfilter_level
p159
Vlow
p160
sVin_reply_to_status_id_str
p161
NsVplace
p162
NsVextended_entities
p163
(dp164
g57
(lp165
(dp166
g30
Vhttp://twitter.com/logancollins/status/623599867202441216/photo/1
p167
sg32
Vpic.twitter.com/4068VZk7mI
p168
sg26
Vhttp://t.co/4068VZk7mI
p169
sg63
Vhttps://pbs.twimg.com/media/CKd4xkXUwAAw3gT.png
p170
sg65
V623599866384531456
p171
sg67
(dp172
g69
(dp173
g71
I99
sg72
Vfit
p174
sg74
I104
ssg75
(dp175
g71
I99
sg72
Vfit
p176
sg74
I104
ssg78
(dp177
g71
I99
sg72
Vfit
p178
sg74
I104
ssg81
(dp179
g71
I99
sg72
Vcrop
p180
sg74
I104
sssg28
(lp181
I64
aI86
asg85
Vphoto
p182
sg41
I623599866384531456
sg87
Vhttp://pbs.twimg.com/media/CKd4xkXUwAAw3gT.png
p183
sasssg54
g14
sg93
Nsg65
V623762138776117249
p184
sg95
I0
sg96
Nsg97
I00
sg98
(dp185
g100
Nsg101
I01
sg102
I00
sg41
I25335178
sg103
I00
sg104
Vhttps://pbs.twimg.com/profile_images/462166175770624000/DIKoIZVC_normal.png
p186
sg106
V99CC33
p187
sg108
V3E4415
p188
sg110
I715
sg111
VFFFFFF
p189
sg65
V25335178
p190
sg114
VC0DEED
p191
sg116
I50
sg117
Vhttps://pbs.twimg.com/profile_background_images/462168939229745153/FzMhdu55.png
p192
sg119
I-7200
sg120
I4542
sg121
ViOS developer. Geek. Member @wearerequired and founder of appart15 GmbH.
p193
sg123
I430
sg124
VZurich, Switzerland
p194
sg126
V3E7DCF
p195
sg128
Vhttp://pbs.twimg.com/profile_images/462166175770624000/DIKoIZVC_normal.png
p196
sg130
Nsg131
I01
sg132
Vhttps://pbs.twimg.com/profile_banners/25335178/1399024158
p197
sg134
Vhttp://pbs.twimg.com/profile_background_images/462168939229745153/FzMhdu55.png
p198
sg136
VDavid Condrau
p199
sg138
Ven
p200
sg140
I01
sg141
I1061
sg142
Vdcondrau
p201
sg144
Nsg26
Vhttp://www.appart15.com
p202
sg146
VThu Mar 19 16:49:12 +0000 2009
p203
sg148
I00
sg149
VGreenland
p204
sg151
I00
sg152
I00
sg153
I00
ssg154
Nsg155
Nsg156
I00
sg138
Ven
p205
sg146
VWed Jul 22 07:50:57 +0000 2015
p206
sVquoted_status_id_str
p207
V623599867202441216
p208
sg159
Vlow
p209
sg161
Nsg162
(dp210
Vfull_name
p211
VZurich, Switzerland
p212
sg26
Vhttps://api.twitter.com/1.1/geo/id/3acb748d0f1e9265.json
p213
sVcountry
p214
VSchweiz
p215
sVplace_type
p216
Vcity
p217
sVbounding_box
p218
(dp219
g85
VPolygon
p220
sg47
(lp221
(lp222
(lp223
F8.448081
aF47.320183
aa(lp224
F8.448081
aF47.434721
aa(lp225
F8.625442
aF47.434721
aa(lp226
F8.625442
aF47.320183
aaassVcountry_code
p227
VCH
p228
sVattributes
p229
(dp230
sg41
V3acb748d0f1e9265
p231
sg136
VZurich
p232
sssS'coordinates'
p233
NsS'timestamp_ms'
p234
g49
sS'quoted_status'
p235
g51
sS'source'
p236
VTweetbot for i\u039fS
p237
sS'in_reply_to_screen_name'
p238
NsS'id_str'
p239
g184
sS'retweet_count'
p240
I0
sS'in_reply_to_user_id'
p241
NsS'favorited'
p242
I00
sS'source_url'
p243
Vhttp://tapbots.com/tweetbot
p244
sS'user'
p245
g0
(ctweepy.models
User
p246
g2
Ntp247
Rp248
(dp249
S'follow_request_sent'
p250
NsS'profile_use_background_image'
p251
I01
sS'profile_sidebar_fill_color'
p252
g187
sg11
I25335178
sS'verified'
p253
I00
sS'profile_image_url_https'
p254
g186
sg35
g185
sS'contributors_enabled'
p255
I00
sS'profile_text_color'
p256
g188
sS'followers_count'
p257
I715
sS'profile_sidebar_border_color'
p258
g189
sS'location'
p259
g194
sS'default_profile_image'
p260
I00
sg239
g190
sS'utc_offset'
p261
I-7200
sS'statuses_count'
p262
I4542
sS'description'
p263
g193
sS'friends_count'
p264
I430
sS'profile_link_color'
p265
g195
sS'profile_image_url'
p266
g196
sS'notifications'
p267
NsS'geo_enabled'
p268
I01
sS'profile_background_color'
p269
g191
sS'profile_banner_url'
p270
g197
sS'profile_background_image_url'
p271
g198
sS'name'
p272
g199
sS'lang'
p273
g200
sS'following'
p274
I00
sS'profile_background_tile'
p275
I01
sS'favourites_count'
p276
I1061
sS'screen_name'
p277
g201
sS'url'
p278
g202
sS'created_at'
p279
cdatetime
datetime
p280
(S'\x07\xd9\x03\x13\x101\x0c\x00\x00\x00'
p281
tp282
Rp283
sS'profile_background_image_url_https'
p284
g192
sS'time_zone'
p285
g204
sS'protected'
p286
I00
sS'default_profile'
p287
I00
sS'is_translator'
p288
I00
sS'listed_count'
p289
I50
sbsS'geo'
p290
NsS'in_reply_to_user_id_str'
p291
NsS'possibly_sensitive'
p292
I00
sg273
g205
sg279
g280
(S'\x07\xdf\x07\x16\x0729\x00\x00\x00'
p293
tp294
Rp295
sS'author'
p296
g248
sS'quoted_status_id_str'
p297
g208
sS'filter_level'
p298
g209
sS'in_reply_to_status_id_str'
p299
NsS'place'
p300
g0
(ctweepy.models
Place
p301
g2
Ntp302
Rp303
(dp304
S'full_name'
p305
g212
sg278
g213
sS'country'
p306
g215
sS'place_type'
p307
g217
sS'bounding_box'
p308
g0
(ctweepy.models
BoundingBox
p309
g2
Ntp310
Rp311
(dp312
S'type'
p313
g220
sg233
g221
sbsS'country_code'
p314
g228
sS'attributes'
p315
g230
sg11
g231
sg272
g232
sbsS'retweeted'
p316
I00
sb.