ccopy_reg
_reconstructor
p0
(ctweepy.models
Status
p1
c__builtin__
object
p2
Ntp3
Rp4
(dp5
S'contributors'
p6
NsS'truncated'
p7
I00
sS'text'
p8
V@JamieMantle for your Swiss return...  https://t.co/N2dfYuviaN
p9
sS'in_reply_to_status_id'
p10
NsS'id'
p11
I623766339136696320
sS'favorite_count'
p12
I0
sS'entities'
p13
(dp14
Vuser_mentions
p15
(lp16
(dp17
Vid
p18
I335967474
sVindices
p19
(lp20
I0
aI12
asVid_str
p21
V335967474
p22
sVscreen_name
p23
VJamieMantle
p24
sVname
p25
VJamie Mantle
p26
sasVsymbols
p27
(lp28
sVtrends
p29
(lp30
sVhashtags
p31
(lp32
sVurls
p33
(lp34
(dp35
Vurl
p36
Vhttps://t.co/N2dfYuviaN
p37
sg19
(lp38
I39
aI62
asVexpanded_url
p39
Vhttps://twitter.com/luxury__travel/status/623765934784778240
p40
sVdisplay_url
p41
Vtwitter.com/luxury__travel\u2026
p42
sassS'quoted_status_id'
p43
I623765934784778240
sS'_json'
p44
(dp45
Vcontributors
p46
NsVtruncated
p47
I00
sVtext
p48
g9
sVin_reply_to_status_id
p49
Nsg18
I623766339136696320
sVfavorite_count
p50
I0
sVsource
p51
V<a href="http://twitter.com/download/iphone" rel="nofollow">Twitter for iPhone</a>
p52
sVquoted_status_id
p53
I623765934784778240
sVretweeted
p54
I00
sVcoordinates
p55
NsVtimestamp_ms
p56
V1437552458925
p57
sVquoted_status
p58
(dp59
g46
Nsg47
I00
sg48
VTop 3 luxury hotels in Zermatt   http://t.co/7uyFhGY2qf http://t.co/K7hFyiuRWM
p60
sg49
Nsg18
I623765934784778240
sg50
I0
sg51
V<a href="http://bufferapp.com" rel="nofollow">Buffer</a>
p61
sg54
I00
sg55
NsVentities
p62
(dp63
g27
(lp64
sVmedia
p65
(lp66
(dp67
g39
Vhttp://twitter.com/luxury__travel/status/623765934784778240/photo/1
p68
sg41
Vpic.twitter.com/K7hFyiuRWM
p69
sg36
Vhttp://t.co/K7hFyiuRWM
p70
sVmedia_url_https
p71
Vhttps://pbs.twimg.com/media/CKgP0BKWoAAHSFQ.jpg
p72
sg21
V623765934730289152
p73
sVsizes
p74
(dp75
Vlarge
p76
(dp77
Vh
p78
I385
sVresize
p79
Vfit
p80
sVw
p81
I459
ssVsmall
p82
(dp83
g78
I284
sg79
Vfit
p84
sg81
I340
ssVmedium
p85
(dp86
g78
I385
sg79
Vfit
p87
sg81
I459
ssVthumb
p88
(dp89
g78
I150
sg79
Vcrop
p90
sg81
I150
sssg19
(lp91
I56
aI78
asVtype
p92
Vphoto
p93
sg18
I623765934730289152
sVmedia_url
p94
Vhttp://pbs.twimg.com/media/CKgP0BKWoAAHSFQ.jpg
p95
sasg31
(lp96
sg15
(lp97
sg29
(lp98
sg33
(lp99
(dp100
g36
Vhttp://t.co/7uyFhGY2qf
p101
sg19
(lp102
I33
aI55
asg39
Vhttp://bit.ly/1DrJPNn
p103
sg41
Vbit.ly/1DrJPNn
p104
sassVin_reply_to_screen_name
p105
Nsg21
V623765934784778240
p106
sVretweet_count
p107
I0
sVin_reply_to_user_id
p108
NsVfavorited
p109
I00
sVuser
p110
(dp111
Vfollow_request_sent
p112
NsVprofile_use_background_image
p113
I01
sVdefault_profile_image
p114
I00
sg18
I12397052
sVverified
p115
I00
sVprofile_image_url_https
p116
Vhttps://pbs.twimg.com/profile_images/503108711326310403/CALnPcq__normal.jpeg
p117
sVprofile_sidebar_fill_color
p118
VDDEEF6
p119
sVprofile_text_color
p120
V333333
p121
sVfollowers_count
p122
I525720
sVprofile_sidebar_border_color
p123
VC0DEED
p124
sg21
V12397052
p125
sVprofile_background_color
p126
VC0DEED
p127
sVlisted_count
p128
I7748
sVprofile_background_image_url_https
p129
Vhttps://pbs.twimg.com/profile_background_images/336784069/twitterbackground2.jpg
p130
sVutc_offset
p131
I3600
sVstatuses_count
p132
I85863
sVdescription
p133
VBlogging on all things luxury travel at http://ALuxuryTravelBlog.com - please contact us via the blog ( http://www.aluxurytravelblog.com/contact-us )
p134
sVfriends_count
p135
I408571
sVlocation
p136
VUK
p137
sVprofile_link_color
p138
V0084B4
p139
sVprofile_image_url
p140
Vhttp://pbs.twimg.com/profile_images/503108711326310403/CALnPcq__normal.jpeg
p141
sVfollowing
p142
NsVgeo_enabled
p143
I01
sVprofile_banner_url
p144
Vhttps://pbs.twimg.com/profile_banners/12397052/1408785349
p145
sVprofile_background_image_url
p146
Vhttp://pbs.twimg.com/profile_background_images/336784069/twitterbackground2.jpg
p147
sg25
VA Luxury Travel Blog
p148
sVlang
p149
Ven
p150
sVprofile_background_tile
p151
I01
sVfavourites_count
p152
I3
sg23
Vluxury__travel
p153
sVnotifications
p154
Nsg36
Vhttp://www.aluxurytravelblog.com
p155
sVcreated_at
p156
VFri Jan 18 11:50:27 +0000 2008
p157
sVcontributors_enabled
p158
I00
sVtime_zone
p159
VLondon
p160
sVprotected
p161
I00
sVdefault_profile
p162
I00
sVis_translator
p163
I00
ssVgeo
p164
NsVin_reply_to_user_id_str
p165
NsVpossibly_sensitive
p166
I00
sg149
Ven
p167
sg156
VWed Jul 22 08:06:02 +0000 2015
p168
sVfilter_level
p169
Vlow
p170
sVin_reply_to_status_id_str
p171
NsVplace
p172
NsVextended_entities
p173
(dp174
g65
(lp175
(dp176
g39
Vhttp://twitter.com/luxury__travel/status/623765934784778240/photo/1
p177
sg41
Vpic.twitter.com/K7hFyiuRWM
p178
sg36
Vhttp://t.co/K7hFyiuRWM
p179
sg71
Vhttps://pbs.twimg.com/media/CKgP0BKWoAAHSFQ.jpg
p180
sg21
V623765934730289152
p181
sg74
(dp182
g76
(dp183
g78
I385
sg79
Vfit
p184
sg81
I459
ssg82
(dp185
g78
I284
sg79
Vfit
p186
sg81
I340
ssg85
(dp187
g78
I385
sg79
Vfit
p188
sg81
I459
ssg88
(dp189
g78
I150
sg79
Vcrop
p190
sg81
I150
sssg19
(lp191
I56
aI78
asg92
Vphoto
p192
sg18
I623765934730289152
sg94
Vhttp://pbs.twimg.com/media/CKgP0BKWoAAHSFQ.jpg
p193
sasssg62
g14
sg105
VJamieMantle
p194
sg21
V623766339136696320
p195
sg107
I0
sg108
I335967474
sg109
I00
sg110
(dp196
g112
Nsg113
I00
sg114
I00
sg18
I19340618
sg115
I00
sg116
Vhttps://pbs.twimg.com/profile_images/576908765561114624/XUkBimnO_normal.jpeg
p197
sg118
VFFF7CC
p198
sg120
V0C3E53
p199
sg122
I2416
sg123
VFFFFFF
p200
sg21
V19340618
p201
sg126
V6D819E
p202
sg128
I151
sg129
Vhttps://pbs.twimg.com/profile_background_images/665592596/60cf99fd8fd002ce034d3e8af5eb1581.jpeg
p203
sg131
I-18000
sg132
I8159
sg133
VThings I more than Like... family, friends, food, travel, music, puppies & the INTERNET. Social @HyattTweets. @spacecampUSA alumni circa '91. Tweets are mine.
p204
sg135
I2053
sg136
VZurich 
p205
sg138
VFF0000
p206
sg140
Vhttp://pbs.twimg.com/profile_images/576908765561114624/XUkBimnO_normal.jpeg
p207
sg142
Nsg143
I01
sg144
Vhttps://pbs.twimg.com/profile_banners/19340618/1426337252
p208
sg146
Vhttp://pbs.twimg.com/profile_background_images/665592596/60cf99fd8fd002ce034d3e8af5eb1581.jpeg
p209
sg25
VJennifer Kedinger
p210
sg149
Ven
p211
sg151
I00
sg152
I1005
sg23
Vjenkedinger
p212
sg154
Nsg36
Vhttp://eternalroadscholar.tumblr.com/
p213
sg156
VThu Jan 22 14:41:28 +0000 2009
p214
sg158
I00
sg159
VCentral Time (US & Canada)
p215
sg161
I00
sg162
I00
sg163
I00
ssg164
Nsg165
V335967474
p216
sg166
I00
sg149
Ven
p217
sg156
VWed Jul 22 08:07:38 +0000 2015
p218
sVquoted_status_id_str
p219
V623765934784778240
p220
sg169
Vlow
p221
sg171
Nsg172
(dp222
Vfull_name
p223
VZurich, Switzerland
p224
sg36
Vhttps://api.twitter.com/1.1/geo/id/3acb748d0f1e9265.json
p225
sVcountry
p226
VSchweiz
p227
sVplace_type
p228
Vcity
p229
sVbounding_box
p230
(dp231
g92
VPolygon
p232
sg55
(lp233
(lp234
(lp235
F8.448081
aF47.320183
aa(lp236
F8.448081
aF47.434721
aa(lp237
F8.625442
aF47.434721
aa(lp238
F8.625442
aF47.320183
aaassVcountry_code
p239
VCH
p240
sVattributes
p241
(dp242
sg18
V3acb748d0f1e9265
p243
sg25
VZurich
p244
sssS'coordinates'
p245
NsS'timestamp_ms'
p246
g57
sS'quoted_status'
p247
g59
sS'source'
p248
VTwitter for iPhone
p249
sS'in_reply_to_screen_name'
p250
g194
sS'id_str'
p251
g195
sS'retweet_count'
p252
I0
sS'in_reply_to_user_id'
p253
I335967474
sS'favorited'
p254
I00
sS'source_url'
p255
Vhttp://twitter.com/download/iphone
p256
sS'user'
p257
g0
(ctweepy.models
User
p258
g2
Ntp259
Rp260
(dp261
S'follow_request_sent'
p262
NsS'profile_use_background_image'
p263
I00
sS'profile_sidebar_fill_color'
p264
g198
sg11
I19340618
sS'verified'
p265
I00
sS'profile_image_url_https'
p266
g197
sg44
g196
sS'contributors_enabled'
p267
I00
sS'profile_text_color'
p268
g199
sS'followers_count'
p269
I2416
sS'profile_sidebar_border_color'
p270
g200
sS'location'
p271
g205
sS'default_profile_image'
p272
I00
sg251
g201
sS'utc_offset'
p273
I-18000
sS'statuses_count'
p274
I8159
sS'description'
p275
g204
sS'friends_count'
p276
I2053
sS'profile_link_color'
p277
g206
sS'profile_image_url'
p278
g207
sS'notifications'
p279
NsS'geo_enabled'
p280
I01
sS'profile_background_color'
p281
g202
sS'profile_banner_url'
p282
g208
sS'profile_background_image_url'
p283
g209
sS'name'
p284
g210
sS'lang'
p285
g211
sS'following'
p286
I00
sS'profile_background_tile'
p287
I00
sS'favourites_count'
p288
I1005
sS'screen_name'
p289
g212
sS'url'
p290
g213
sS'created_at'
p291
cdatetime
datetime
p292
(S'\x07\xd9\x01\x16\x0e)\x1c\x00\x00\x00'
p293
tp294
Rp295
sS'profile_background_image_url_https'
p296
g203
sS'time_zone'
p297
g215
sS'protected'
p298
I00
sS'default_profile'
p299
I00
sS'is_translator'
p300
I00
sS'listed_count'
p301
I151
sbsS'geo'
p302
NsS'in_reply_to_user_id_str'
p303
g216
sS'possibly_sensitive'
p304
I00
sg285
g217
sg291
g292
(S'\x07\xdf\x07\x16\x08\x07&\x00\x00\x00'
p305
tp306
Rp307
sS'author'
p308
g260
sS'quoted_status_id_str'
p309
g220
sS'filter_level'
p310
g221
sS'in_reply_to_status_id_str'
p311
NsS'place'
p312
g0
(ctweepy.models
Place
p313
g2
Ntp314
Rp315
(dp316
S'full_name'
p317
g224
sg290
g225
sS'country'
p318
g227
sS'place_type'
p319
g229
sS'bounding_box'
p320
g0
(ctweepy.models
BoundingBox
p321
g2
Ntp322
Rp323
(dp324
S'type'
p325
g232
sg245
g233
sbsS'country_code'
p326
g240
sS'attributes'
p327
g242
sg11
g243
sg284
g244
sbsS'retweeted'
p328
I00
sb.