ccopy_reg
_reconstructor
p0
(ctweepy.models
Status
p1
c__builtin__
object
p2
Ntp3
Rp4
(dp5
S'favorited'
p6
I00
sS'contributors'
p7
NsS'truncated'
p8
I00
sS'text'
p9
Vhttp://t.co/OlYgi4gQQZ @cynelina
p10
sS'source_url'
p11
Vhttp://twitter.com/download/android
p12
sS'possibly_sensitive'
p13
I00
sS'in_reply_to_status_id'
p14
NsS'user'
p15
g0
(ctweepy.models
User
p16
g2
Ntp17
Rp18
(dp19
S'follow_request_sent'
p20
NsS'profile_use_background_image'
p21
I01
sS'profile_sidebar_fill_color'
p22
VEFEFEF
p23
sS'id'
p24
I244403743
sS'verified'
p25
I00
sS'profile_image_url_https'
p26
Vhttps://pbs.twimg.com/profile_images/2778347557/3a4ea343854616100b2b7b4d4bd2f3d1_normal.jpeg
p27
sS'_json'
p28
(dp29
Vfollow_request_sent
p30
NsVprofile_use_background_image
p31
I01
sVdefault_profile_image
p32
I00
sVid
p33
I244403743
sVverified
p34
I00
sVprofile_image_url_https
p35
g27
sVprofile_sidebar_fill_color
p36
g23
sVprofile_text_color
p37
V333333
p38
sVfollowers_count
p39
I949
sVprofile_sidebar_border_color
p40
VEEEEEE
p41
sVid_str
p42
V244403743
p43
sVprofile_background_color
p44
V131516
p45
sVlisted_count
p46
I23
sVprofile_background_image_url_https
p47
Vhttps://abs.twimg.com/images/themes/theme14/bg.gif
p48
sVutc_offset
p49
I-18000
sVstatuses_count
p50
I14196
sVdescription
p51
VRead everything. Observe worlds outside your comfort zone. Educate yourself. FreeFall
p52
sVfriends_count
p53
I2000
sVlocation
p54
VAlabama, New York & 38,000ft
p55
sVprofile_link_color
p56
V009999
p57
sVprofile_image_url
p58
Vhttp://pbs.twimg.com/profile_images/2778347557/3a4ea343854616100b2b7b4d4bd2f3d1_normal.jpeg
p59
sVfollowing
p60
NsVgeo_enabled
p61
I01
sVprofile_banner_url
p62
Vhttps://pbs.twimg.com/profile_banners/244403743/1362618837
p63
sVprofile_background_image_url
p64
Vhttp://abs.twimg.com/images/themes/theme14/bg.gif
p65
sVname
p66
VThe Commuter
p67
sVlang
p68
Ven
p69
sVprofile_background_tile
p70
I01
sVfavourites_count
p71
I4331
sVscreen_name
p72
VLalaSahbi
p73
sVnotifications
p74
NsVurl
p75
NsVcreated_at
p76
VSat Jan 29 06:45:10 +0000 2011
p77
sVcontributors_enabled
p78
I00
sVtime_zone
p79
VQuito
p80
sVprotected
p81
I00
sVdefault_profile
p82
I00
sVis_translator
p83
I00
ssS'contributors_enabled'
p84
I00
sS'profile_text_color'
p85
g38
sS'followers_count'
p86
I949
sS'profile_sidebar_border_color'
p87
g41
sS'location'
p88
g55
sS'default_profile_image'
p89
I00
sS'id_str'
p90
g43
sS'utc_offset'
p91
I-18000
sS'statuses_count'
p92
I14196
sS'description'
p93
g52
sS'friends_count'
p94
I2000
sS'profile_link_color'
p95
g57
sS'profile_image_url'
p96
g59
sS'notifications'
p97
NsS'geo_enabled'
p98
I01
sS'profile_background_color'
p99
g45
sS'profile_banner_url'
p100
g63
sS'profile_background_image_url'
p101
g65
sS'name'
p102
g67
sS'lang'
p103
g69
sS'following'
p104
I00
sS'profile_background_tile'
p105
I01
sS'favourites_count'
p106
I4331
sS'screen_name'
p107
g73
sS'url'
p108
NsS'created_at'
p109
cdatetime
datetime
p110
(S'\x07\xdb\x01\x1d\x06-\n\x00\x00\x00'
p111
tp112
Rp113
sS'profile_background_image_url_https'
p114
g48
sS'time_zone'
p115
g80
sS'protected'
p116
I00
sS'default_profile'
p117
I00
sS'is_translator'
p118
I00
sS'listed_count'
p119
I23
sbsS'filter_level'
p120
Vlow
p121
sS'geo'
p122
Nsg24
I621680584901922816
sS'favorite_count'
p123
I0
sS'source'
p124
VTwitter for Android
p125
sg103
Vund
p126
sS'author'
p127
g18
sS'in_reply_to_user_id_str'
p128
Nsg28
(dp129
Vcontributors
p130
NsVtruncated
p131
I00
sVtext
p132
g10
sVin_reply_to_status_id
p133
Nsg33
I621680584901922816
sVfavorite_count
p134
I0
sVsource
p135
V<a href="http://twitter.com/download/android" rel="nofollow">Twitter for Android</a>
p136
sVretweeted
p137
I00
sVcoordinates
p138
NsVtimestamp_ms
p139
V1437055176364
p140
sVentities
p141
(dp142
Vuser_mentions
p143
(lp144
(dp145
g33
I37463738
sVindices
p146
(lp147
I23
aI32
asg42
V37463738
p148
sg72
Vcynelina
p149
sg66
Vmartha sue 
p150
sasVsymbols
p151
(lp152
sVtrends
p153
(lp154
sVhashtags
p155
(lp156
sVurls
p157
(lp158
(dp159
g75
Vhttp://t.co/OlYgi4gQQZ
p160
sg146
(lp161
I0
aI22
asVexpanded_url
p162
Vhttp://theflightattendantlife.com/thedangersoffatigueflightattendantscabincrew/
p163
sVdisplay_url
p164
Vtheflightattendantlife.com/thedangersoffa\u2026
p165
sassVin_reply_to_screen_name
p166
Nsg42
V621680584901922816
p167
sVretweet_count
p168
I0
sVin_reply_to_user_id
p169
NsVfavorited
p170
I00
sVuser
p171
g29
sVgeo
p172
NsVin_reply_to_user_id_str
p173
NsVpossibly_sensitive
p174
I00
sg68
g126
sg76
VThu Jul 16 13:59:36 +0000 2015
p175
sVfilter_level
p176
g121
sVin_reply_to_status_id_str
p177
NsVplace
p178
(dp179
Vfull_name
p180
VZurich, Switzerland
p181
sg75
Vhttps://api.twitter.com/1.1/geo/id/3acb748d0f1e9265.json
p182
sVcountry
p183
VSchweiz
p184
sVplace_type
p185
Vcity
p186
sVbounding_box
p187
(dp188
Vtype
p189
VPolygon
p190
sg138
(lp191
(lp192
(lp193
F8.448081
aF47.320183
aa(lp194
F8.448081
aF47.434721
aa(lp195
F8.625442
aF47.434721
aa(lp196
F8.625442
aF47.320183
aaassVcountry_code
p197
VCH
p198
sVattributes
p199
(dp200
sg33
V3acb748d0f1e9265
p201
sg66
VZurich
p202
sssS'coordinates'
p203
NsS'timestamp_ms'
p204
g140
sS'entities'
p205
g142
sS'in_reply_to_status_id_str'
p206
NsS'in_reply_to_screen_name'
p207
Nsg90
g167
sS'retweeted'
p208
I00
sS'place'
p209
g0
(ctweepy.models
Place
p210
g2
Ntp211
Rp212
(dp213
S'full_name'
p214
g181
sg108
g182
sS'country'
p215
g184
sS'place_type'
p216
g186
sS'bounding_box'
p217
g0
(ctweepy.models
BoundingBox
p218
g2
Ntp219
Rp220
(dp221
S'type'
p222
g190
sg203
g191
sbsS'country_code'
p223
g198
sS'attributes'
p224
g200
sg24
g201
sg102
g202
sbsS'retweet_count'
p225
I0
sg109
g110
(S'\x07\xdf\x07\x10\r;$\x00\x00\x00'
p226
tp227
Rp228
sS'in_reply_to_user_id'
p229
Nsb.